   1              		.cpu cortex-m4
   2              		.eabi_attribute 20, 1
   3              		.eabi_attribute 21, 1
   4              		.eabi_attribute 23, 3
   5              		.eabi_attribute 24, 1
   6              		.eabi_attribute 25, 1
   7              		.eabi_attribute 26, 1
   8              		.eabi_attribute 30, 4
   9              		.eabi_attribute 34, 1
  10              		.eabi_attribute 18, 4
  11              		.file	"aes.c"
  12              		.text
  13              	.Ltext0:
  14              		.cfi_sections	.debug_frame
  15              		.section	.text.br_range_dec32le,"ax",%progbits
  16              		.align	1
  17              		.arch armv7e-m
  18              		.syntax unified
  19              		.thumb
  20              		.thumb_func
  21              		.fpu softvfp
  23              	br_range_dec32le:
  24              	.LVL0:
  25              	.LFB1:
  26              		.file 1 "aes.c"
   1:aes.c         **** /*
   2:aes.c         ****  * AES implementation based on code from BearSSL (https://bearssl.org/)
   3:aes.c         ****  * by Thomas Pornin.
   4:aes.c         ****  *
   5:aes.c         ****  *
   6:aes.c         ****  * Copyright (c) 2016 Thomas Pornin <pornin@bolet.org>
   7:aes.c         ****  *
   8:aes.c         ****  * Permission is hereby granted, free of charge, to any person obtaining
   9:aes.c         ****  * a copy of this software and associated documentation files (the
  10:aes.c         ****  * "Software"), to deal in the Software without restriction, including
  11:aes.c         ****  * without limitation the rights to use, copy, modify, merge, publish,
  12:aes.c         ****  * distribute, sublicense, and/or sell copies of the Software, and to
  13:aes.c         ****  * permit persons to whom the Software is furnished to do so, subject to
  14:aes.c         ****  * the following conditions:
  15:aes.c         ****  *
  16:aes.c         ****  * The above copyright notice and this permission notice shall be
  17:aes.c         ****  * included in all copies or substantial portions of the Software.
  18:aes.c         ****  *
  19:aes.c         ****  * THE SOFTWARE IS PROVIDED "AS IS", WITHOUT WARRANTY OF ANY KIND,
  20:aes.c         ****  * EXPRESS OR IMPLIED, INCLUDING BUT NOT LIMITED TO THE WARRANTIES OF
  21:aes.c         ****  * MERCHANTABILITY, FITNESS FOR A PARTICULAR PURPOSE AND
  22:aes.c         ****  * NONINFRINGEMENT. IN NO EVENT SHALL THE AUTHORS OR COPYRIGHT HOLDERS
  23:aes.c         ****  * BE LIABLE FOR ANY CLAIM, DAMAGES OR OTHER LIABILITY, WHETHER IN AN
  24:aes.c         ****  * ACTION OF CONTRACT, TORT OR OTHERWISE, ARISING FROM, OUT OF OR IN
  25:aes.c         ****  * CONNECTION WITH THE SOFTWARE OR THE USE OR OTHER DEALINGS IN THE
  26:aes.c         ****  * SOFTWARE.
  27:aes.c         ****  */
  28:aes.c         **** 
  29:aes.c         **** #include <stdint.h>
  30:aes.c         **** #include <string.h>
  31:aes.c         **** 
  32:aes.c         **** #include "aes.h"
  33:aes.c         **** 
  34:aes.c         **** static inline uint32_t br_dec32le(const unsigned char *src) {
  35:aes.c         ****     return (uint32_t)src[0]
  36:aes.c         ****            | ((uint32_t)src[1] << 8)
  37:aes.c         ****            | ((uint32_t)src[2] << 16)
  38:aes.c         ****            | ((uint32_t)src[3] << 24);
  39:aes.c         **** }
  40:aes.c         **** 
  41:aes.c         **** static void br_range_dec32le(uint32_t *v, size_t num, const unsigned char *src) {
  27              		.loc 1 41 81 view -0
  28              		.cfi_startproc
  29              		@ args = 0, pretend = 0, frame = 0
  30              		@ frame_needed = 0, uses_anonymous_args = 0
  31              		@ link register save eliminated.
  42:aes.c         ****     while (num-- > 0) {
  32              		.loc 1 42 5 view .LVU1
  33 0000 02EB8101 		add	r1, r2, r1, lsl #2
  34              	.LVL1:
  35              	.L2:
  36              		.loc 1 42 11 view .LVU2
  37              		.loc 1 42 11 is_stmt 0 view .LVU3
  38 0004 8A42     		cmp	r2, r1
  39 0006 00D1     		bne	.L3
  43:aes.c         ****         *v ++ = br_dec32le(src);
  44:aes.c         ****         src += 4;
  45:aes.c         ****     }
  46:aes.c         **** }
  40              		.loc 1 46 1 view .LVU4
  41 0008 7047     		bx	lr
  42              	.L3:
  43:aes.c         ****         *v ++ = br_dec32le(src);
  43              		.loc 1 43 9 is_stmt 1 view .LVU5
  44              	.LVL2:
  45              	.LBB20:
  46              	.LBI20:
  34:aes.c         ****     return (uint32_t)src[0]
  47              		.loc 1 34 24 view .LVU6
  48              	.LBB21:
  35:aes.c         ****            | ((uint32_t)src[1] << 8)
  49              		.loc 1 35 5 view .LVU7
  38:aes.c         **** }
  50              		.loc 1 38 12 is_stmt 0 view .LVU8
  51 000a 52F8043B 		ldr	r3, [r2], #4	@ unaligned
  52              	.LVL3:
  38:aes.c         **** }
  53              		.loc 1 38 12 view .LVU9
  54              	.LBE21:
  55              	.LBE20:
  43:aes.c         ****         src += 4;
  56              		.loc 1 43 15 view .LVU10
  57 000e 40F8043B 		str	r3, [r0], #4
  58              	.LVL4:
  44:aes.c         ****     }
  59              		.loc 1 44 9 is_stmt 1 view .LVU11
  44:aes.c         ****     }
  60              		.loc 1 44 9 is_stmt 0 view .LVU12
  61 0012 F7E7     		b	.L2
  62              		.cfi_endproc
  63              	.LFE1:
  65              		.section	.text.br_aes_ct64_bitslice_Sbox,"ax",%progbits
  66              		.align	1
  67              		.syntax unified
  68              		.thumb
  69              		.thumb_func
  70              		.fpu softvfp
  72              	br_aes_ct64_bitslice_Sbox:
  73              	.LVL5:
  74              	.LFB5:
  47:aes.c         **** 
  48:aes.c         **** static inline uint32_t br_swap32(uint32_t x) {
  49:aes.c         ****     x = ((x & (uint32_t)0x00FF00FF) << 8)
  50:aes.c         ****         | ((x >> 8) & (uint32_t)0x00FF00FF);
  51:aes.c         ****     return (x << 16) | (x >> 16);
  52:aes.c         **** }
  53:aes.c         **** 
  54:aes.c         **** static inline void br_enc32le(unsigned char *dst, uint32_t x) {
  55:aes.c         ****     dst[0] = (unsigned char)x;
  56:aes.c         ****     dst[1] = (unsigned char)(x >> 8);
  57:aes.c         ****     dst[2] = (unsigned char)(x >> 16);
  58:aes.c         ****     dst[3] = (unsigned char)(x >> 24);
  59:aes.c         **** }
  60:aes.c         **** 
  61:aes.c         **** static void br_range_enc32le(unsigned char *dst, const uint32_t *v, size_t num) {
  62:aes.c         ****     while (num-- > 0) {
  63:aes.c         ****         br_enc32le(dst, *v ++);
  64:aes.c         ****         dst += 4;
  65:aes.c         ****     }
  66:aes.c         **** }
  67:aes.c         **** 
  68:aes.c         **** static void br_aes_ct64_bitslice_Sbox(uint64_t *q) {
  75              		.loc 1 68 52 is_stmt 1 view -0
  76              		.cfi_startproc
  77              		@ args = 0, pretend = 0, frame = 184
  78              		@ frame_needed = 0, uses_anonymous_args = 0
  69:aes.c         ****     /*
  70:aes.c         ****      * This S-box implementation is a straightforward translation of
  71:aes.c         ****      * the circuit described by Boyar and Peralta in "A new
  72:aes.c         ****      * combinational logic minimization technique with applications
  73:aes.c         ****      * to cryptology" (https://eprint.iacr.org/2009/191.pdf).
  74:aes.c         ****      *
  75:aes.c         ****      * Note that variables x* (input) and s* (output) are numbered
  76:aes.c         ****      * in "reverse" order (x0 is the high bit, x7 is the low bit).
  77:aes.c         ****      */
  78:aes.c         **** 
  79:aes.c         ****     uint64_t x0, x1, x2, x3, x4, x5, x6, x7;
  79              		.loc 1 79 5 view .LVU14
  80:aes.c         ****     uint64_t y1, y2, y3, y4, y5, y6, y7, y8, y9;
  80              		.loc 1 80 5 view .LVU15
  81:aes.c         ****     uint64_t y10, y11, y12, y13, y14, y15, y16, y17, y18, y19;
  81              		.loc 1 81 5 view .LVU16
  82:aes.c         ****     uint64_t y20, y21;
  82              		.loc 1 82 5 view .LVU17
  83:aes.c         ****     uint64_t z0, z1, z2, z3, z4, z5, z6, z7, z8, z9;
  83              		.loc 1 83 5 view .LVU18
  84:aes.c         ****     uint64_t z10, z11, z12, z13, z14, z15, z16, z17;
  84              		.loc 1 84 5 view .LVU19
  85:aes.c         ****     uint64_t t0, t1, t2, t3, t4, t5, t6, t7, t8, t9;
  85              		.loc 1 85 5 view .LVU20
  86:aes.c         ****     uint64_t t10, t11, t12, t13, t14, t15, t16, t17, t18, t19;
  86              		.loc 1 86 5 view .LVU21
  87:aes.c         ****     uint64_t t20, t21, t22, t23, t24, t25, t26, t27, t28, t29;
  87              		.loc 1 87 5 view .LVU22
  88:aes.c         ****     uint64_t t30, t31, t32, t33, t34, t35, t36, t37, t38, t39;
  88              		.loc 1 88 5 view .LVU23
  89:aes.c         ****     uint64_t t40, t41, t42, t43, t44, t45, t46, t47, t48, t49;
  89              		.loc 1 89 5 view .LVU24
  90:aes.c         ****     uint64_t t50, t51, t52, t53, t54, t55, t56, t57, t58, t59;
  90              		.loc 1 90 5 view .LVU25
  91:aes.c         ****     uint64_t t60, t61, t62, t63, t64, t65, t66, t67;
  91              		.loc 1 91 5 view .LVU26
  92:aes.c         ****     uint64_t s0, s1, s2, s3, s4, s5, s6, s7;
  92              		.loc 1 92 5 view .LVU27
  93:aes.c         **** 
  94:aes.c         ****     x0 = q[7];
  93              		.loc 1 94 5 view .LVU28
  68:aes.c         ****     /*
  94              		.loc 1 68 52 is_stmt 0 view .LVU29
  95 0000 2DE9F04F 		push	{r4, r5, r6, r7, r8, r9, r10, fp, lr}
  96              	.LCFI0:
  97              		.cfi_def_cfa_offset 36
  98              		.cfi_offset 4, -36
  99              		.cfi_offset 5, -32
 100              		.cfi_offset 6, -28
 101              		.cfi_offset 7, -24
 102              		.cfi_offset 8, -20
 103              		.cfi_offset 9, -16
 104              		.cfi_offset 10, -12
 105              		.cfi_offset 11, -8
 106              		.cfi_offset 14, -4
  95:aes.c         ****     x1 = q[6];
  96:aes.c         ****     x2 = q[5];
  97:aes.c         ****     x3 = q[4];
  98:aes.c         ****     x4 = q[3];
  99:aes.c         ****     x5 = q[2];
 107              		.loc 1 99 8 view .LVU30
 108 0004 D0E90475 		ldrd	r7, r5, [r0, #16]
  97:aes.c         ****     x4 = q[3];
 109              		.loc 1 97 8 view .LVU31
 110 0008 D0E90843 		ldrd	r4, r3, [r0, #32]
 100:aes.c         ****     x6 = q[1];
 111              		.loc 1 100 8 view .LVU32
 112 000c D0E902A2 		ldrd	r10, r2, [r0, #8]
  68:aes.c         ****     /*
 113              		.loc 1 68 52 view .LVU33
 114 0010 AFB0     		sub	sp, sp, #188
 115              	.LCFI1:
 116              		.cfi_def_cfa_offset 224
  94:aes.c         ****     x1 = q[6];
 117              		.loc 1 94 8 view .LVU34
 118 0012 D0E90E98 		ldrd	r9, r8, [r0, #56]
 119              	.LVL6:
  95:aes.c         ****     x2 = q[5];
 120              		.loc 1 95 5 is_stmt 1 view .LVU35
 121              		.loc 1 100 8 is_stmt 0 view .LVU36
 122 0016 0292     		str	r2, [sp, #8]
 101:aes.c         ****     x7 = q[0];
 102:aes.c         **** 
 103:aes.c         ****     /*
 104:aes.c         ****      * Top linear transformation.
 105:aes.c         ****      */
 106:aes.c         ****     y14 = x3 ^ x5;
 123              		.loc 1 106 9 view .LVU37
 124 0018 84EA0702 		eor	r2, r4, r7
 125 001c 1192     		str	r2, [sp, #68]
 126 001e 83EA0502 		eor	r2, r3, r5
 127 0022 1292     		str	r2, [sp, #72]
 107:aes.c         ****     y13 = x0 ^ x6;
 128              		.loc 1 107 9 view .LVU38
 129 0024 89EA0A02 		eor	r2, r9, r10
 130 0028 1392     		str	r2, [sp, #76]
 131 002a 029A     		ldr	r2, [sp, #8]
 108:aes.c         ****     y9 = x0 ^ x3;
 109:aes.c         ****     y8 = x0 ^ x5;
 110:aes.c         ****     t0 = x1 ^ x2;
 111:aes.c         ****     y1 = t0 ^ x7;
 132              		.loc 1 111 8 view .LVU39
 133 002c 4668     		ldr	r6, [r0, #4]
 134 002e D0F800B0 		ldr	fp, [r0]
 107:aes.c         ****     y13 = x0 ^ x6;
 135              		.loc 1 107 9 view .LVU40
 136 0032 88EA0202 		eor	r2, r8, r2
 137 0036 0892     		str	r2, [sp, #32]
 108:aes.c         ****     y9 = x0 ^ x3;
 138              		.loc 1 108 8 view .LVU41
 139 0038 89EA0402 		eor	r2, r9, r4
 140 003c 1492     		str	r2, [sp, #80]
 141 003e 88EA0302 		eor	r2, r8, r3
 142 0042 1592     		str	r2, [sp, #84]
 109:aes.c         ****     t0 = x1 ^ x2;
 143              		.loc 1 109 8 view .LVU42
 144 0044 89EA0702 		eor	r2, r9, r7
 145 0048 1692     		str	r2, [sp, #88]
 146 004a 88EA0502 		eor	r2, r8, r5
  95:aes.c         ****     x2 = q[5];
 147              		.loc 1 95 8 view .LVU43
 148 004e D0E90CCE 		ldrd	ip, lr, [r0, #48]
 149              	.LVL7:
  96:aes.c         ****     x3 = q[4];
 150              		.loc 1 96 5 is_stmt 1 view .LVU44
  97:aes.c         ****     x4 = q[3];
 151              		.loc 1 97 5 view .LVU45
  98:aes.c         ****     x5 = q[2];
 152              		.loc 1 98 5 view .LVU46
  99:aes.c         ****     x6 = q[1];
 153              		.loc 1 99 5 view .LVU47
 100:aes.c         ****     x7 = q[0];
 154              		.loc 1 100 5 view .LVU48
 101:aes.c         **** 
 155              		.loc 1 101 5 view .LVU49
 106:aes.c         ****     y13 = x0 ^ x6;
 156              		.loc 1 106 5 view .LVU50
 107:aes.c         ****     y9 = x0 ^ x3;
 157              		.loc 1 107 5 view .LVU51
 108:aes.c         ****     y8 = x0 ^ x5;
 158              		.loc 1 108 5 view .LVU52
 109:aes.c         ****     t0 = x1 ^ x2;
 159              		.loc 1 109 5 view .LVU53
 109:aes.c         ****     t0 = x1 ^ x2;
 160              		.loc 1 109 8 is_stmt 0 view .LVU54
 161 0052 1792     		str	r2, [sp, #92]
 162              	.LVL8:
 110:aes.c         ****     y1 = t0 ^ x7;
 163              		.loc 1 110 5 is_stmt 1 view .LVU55
 110:aes.c         ****     y1 = t0 ^ x7;
 164              		.loc 1 110 8 is_stmt 0 view .LVU56
 165 0054 D0E90A12 		ldrd	r1, r2, [r0, #40]
 166              	.LVL9:
 110:aes.c         ****     y1 = t0 ^ x7;
 167              		.loc 1 110 8 view .LVU57
 168 0058 8EEA0202 		eor	r2, lr, r2
 169              		.loc 1 111 8 view .LVU58
 170 005c 5640     		eors	r6, r6, r2
 171              	.LVL10:
 110:aes.c         ****     y1 = t0 ^ x7;
 172              		.loc 1 110 8 view .LVU59
 173 005e 8CEA0101 		eor	r1, ip, r1
 174              	.LVL11:
 175              		.loc 1 111 5 is_stmt 1 view .LVU60
 176              		.loc 1 111 8 is_stmt 0 view .LVU61
 177 0062 8BEA010B 		eor	fp, fp, r1
 178              	.LVL12:
 112:aes.c         ****     y4 = y1 ^ x3;
 179              		.loc 1 112 8 view .LVU62
 180 0066 7340     		eors	r3, r3, r6
 181              	.LVL13:
 182              		.loc 1 112 8 view .LVU63
 183 0068 84EA0B04 		eor	r4, r4, fp
 184              	.LVL14:
 185              		.loc 1 112 8 view .LVU64
 186 006c 1F93     		str	r3, [sp, #124]
 113:aes.c         ****     y12 = y13 ^ y14;
 187              		.loc 1 113 9 view .LVU65
 188 006e 119B     		ldr	r3, [sp, #68]
 112:aes.c         ****     y4 = y1 ^ x3;
 189              		.loc 1 112 8 view .LVU66
 190 0070 1E94     		str	r4, [sp, #120]
 191              		.loc 1 113 9 view .LVU67
 192 0072 89EA0A04 		eor	r4, r9, r10
 193 0076 6340     		eors	r3, r3, r4
 194 0078 1893     		str	r3, [sp, #96]
 195 007a 089C     		ldr	r4, [sp, #32]
 196 007c 129B     		ldr	r3, [sp, #72]
 111:aes.c         ****     y4 = y1 ^ x3;
 197              		.loc 1 111 8 view .LVU68
 198 007e 0196     		str	r6, [sp, #4]
 199              	.LVL15:
 112:aes.c         ****     y4 = y1 ^ x3;
 200              		.loc 1 112 5 is_stmt 1 view .LVU69
 201              		.loc 1 113 5 view .LVU70
 202              		.loc 1 113 9 is_stmt 0 view .LVU71
 203 0080 6340     		eors	r3, r3, r4
 204 0082 1993     		str	r3, [sp, #100]
 205              	.LVL16:
 114:aes.c         ****     y2 = y1 ^ x0;
 206              		.loc 1 114 5 is_stmt 1 view .LVU72
 207              		.loc 1 114 8 is_stmt 0 view .LVU73
 208 0084 89EA0B03 		eor	r3, r9, fp
 209              	.LVL17:
 115:aes.c         ****     y5 = y1 ^ x6;
 210              		.loc 1 115 8 view .LVU74
 211 0088 029C     		ldr	r4, [sp, #8]
 114:aes.c         ****     y2 = y1 ^ x0;
 212              		.loc 1 114 8 view .LVU75
 213 008a 2093     		str	r3, [sp, #128]
 214 008c 88EA0603 		eor	r3, r8, r6
 215 0090 2193     		str	r3, [sp, #132]
 216              	.LVL18:
 217              		.loc 1 115 5 is_stmt 1 view .LVU76
 218              		.loc 1 115 8 is_stmt 0 view .LVU77
 219 0092 8AEA0B03 		eor	r3, r10, fp
 220              	.LVL19:
 221              		.loc 1 115 8 view .LVU78
 222 0096 1A93     		str	r3, [sp, #104]
 223 0098 7440     		eors	r4, r4, r6
 224 009a 1B94     		str	r4, [sp, #108]
 225              	.LVL20:
 116:aes.c         ****     y3 = y5 ^ y8;
 226              		.loc 1 116 5 is_stmt 1 view .LVU79
 227              		.loc 1 116 8 is_stmt 0 view .LVU80
 228 009c 1A9C     		ldr	r4, [sp, #104]
 229              	.LVL21:
 117:aes.c         ****     t1 = x4 ^ y12;
 230              		.loc 1 117 8 view .LVU81
 231 009e 189E     		ldr	r6, [sp, #96]
 232              	.LVL22:
 116:aes.c         ****     y3 = y5 ^ y8;
 233              		.loc 1 116 8 view .LVU82
 234 00a0 89EA0703 		eor	r3, r9, r7
 235              	.LVL23:
 116:aes.c         ****     y3 = y5 ^ y8;
 236              		.loc 1 116 8 view .LVU83
 237 00a4 6340     		eors	r3, r3, r4
 238 00a6 1B9C     		ldr	r4, [sp, #108]
 239              	.LVL24:
 116:aes.c         ****     y3 = y5 ^ y8;
 240              		.loc 1 116 8 view .LVU84
 241 00a8 2293     		str	r3, [sp, #136]
 242 00aa 88EA0503 		eor	r3, r8, r5
 243 00ae 6340     		eors	r3, r3, r4
 244 00b0 2393     		str	r3, [sp, #140]
 245              	.LVL25:
 246              		.loc 1 117 5 is_stmt 1 view .LVU85
 247              		.loc 1 117 8 is_stmt 0 view .LVU86
 248 00b2 D0E90634 		ldrd	r3, r4, [r0, #24]
 249              	.LVL26:
 250              		.loc 1 117 8 view .LVU87
 251 00b6 7340     		eors	r3, r3, r6
 252 00b8 199E     		ldr	r6, [sp, #100]
 253 00ba 7440     		eors	r4, r4, r6
 254              	.LVL27:
 118:aes.c         ****     y15 = t1 ^ x5;
 255              		.loc 1 118 5 is_stmt 1 view .LVU88
 256              		.loc 1 118 9 is_stmt 0 view .LVU89
 257 00bc 6540     		eors	r5, r5, r4
 258              	.LVL28:
 259              		.loc 1 118 9 view .LVU90
 260 00be 87EA0306 		eor	r6, r7, r3
 119:aes.c         ****     y20 = t1 ^ x1;
 261              		.loc 1 119 9 view .LVU91
 262 00c2 8CEA0303 		eor	r3, ip, r3
 263              	.LVL29:
 264              		.loc 1 119 9 view .LVU92
 265 00c6 8EEA040C 		eor	ip, lr, r4
 266              	.LVL30:
 120:aes.c         ****     y6 = y15 ^ x7;
 267              		.loc 1 120 8 view .LVU93
 268 00ca 0468     		ldr	r4, [r0]
 269              	.LVL31:
 118:aes.c         ****     y15 = t1 ^ x5;
 270              		.loc 1 118 9 view .LVU94
 271 00cc 0A95     		str	r5, [sp, #40]
 272              	.LVL32:
 119:aes.c         ****     y20 = t1 ^ x1;
 273              		.loc 1 119 5 is_stmt 1 view .LVU95
 274              		.loc 1 120 5 view .LVU96
 275              		.loc 1 120 8 is_stmt 0 view .LVU97
 276 00ce 7440     		eors	r4, r4, r6
 277 00d0 0A9D     		ldr	r5, [sp, #40]
 278              		.loc 1 120 8 view .LVU98
 279 00d2 2494     		str	r4, [sp, #144]
 280 00d4 4468     		ldr	r4, [r0, #4]
 118:aes.c         ****     y15 = t1 ^ x5;
 281              		.loc 1 118 9 view .LVU99
 282 00d6 0996     		str	r6, [sp, #36]
 283              	.LVL33:
 284              		.loc 1 120 8 view .LVU100
 285 00d8 6C40     		eors	r4, r4, r5
 286 00da 2594     		str	r4, [sp, #148]
 287              	.LVL34:
 121:aes.c         ****     y10 = y15 ^ t0;
 288              		.loc 1 121 5 is_stmt 1 view .LVU101
 289              		.loc 1 121 9 is_stmt 0 view .LVU102
 290 00dc 81EA0604 		eor	r4, r1, r6
 291              	.LVL35:
 292              		.loc 1 121 9 view .LVU103
 293 00e0 0B94     		str	r4, [sp, #44]
 294 00e2 82EA0504 		eor	r4, r2, r5
 295 00e6 0C94     		str	r4, [sp, #48]
 296              	.LVL36:
 122:aes.c         ****     y11 = y20 ^ y9;
 297              		.loc 1 122 5 is_stmt 1 view .LVU104
 298              		.loc 1 122 9 is_stmt 0 view .LVU105
 299 00e8 149C     		ldr	r4, [sp, #80]
 300              	.LVL37:
 301              		.loc 1 122 9 view .LVU106
 302 00ea 5C40     		eors	r4, r4, r3
 303 00ec 0294     		str	r4, [sp, #8]
 304 00ee 159C     		ldr	r4, [sp, #84]
 123:aes.c         ****     y7 = x7 ^ y11;
 305              		.loc 1 123 8 view .LVU107
 306 00f0 029D     		ldr	r5, [sp, #8]
 122:aes.c         ****     y11 = y20 ^ y9;
 307              		.loc 1 122 9 view .LVU108
 308 00f2 84EA0C04 		eor	r4, r4, ip
 309 00f6 0394     		str	r4, [sp, #12]
 310              	.LVL38:
 311              		.loc 1 123 5 is_stmt 1 view .LVU109
 312              		.loc 1 123 8 is_stmt 0 view .LVU110
 313 00f8 0468     		ldr	r4, [r0]
 314              	.LVL39:
 315              		.loc 1 123 8 view .LVU111
 316 00fa 6C40     		eors	r4, r4, r5
 317 00fc 2694     		str	r4, [sp, #152]
 318 00fe 039D     		ldr	r5, [sp, #12]
 319              	.LVL40:
 320              		.loc 1 123 8 view .LVU112
 321 0100 4468     		ldr	r4, [r0, #4]
 322 0102 6C40     		eors	r4, r4, r5
 323 0104 2794     		str	r4, [sp, #156]
 324              	.LVL41:
 124:aes.c         ****     y17 = y10 ^ y11;
 325              		.loc 1 124 5 is_stmt 1 view .LVU113
 326              		.loc 1 124 9 is_stmt 0 view .LVU114
 327 0106 0B9C     		ldr	r4, [sp, #44]
 328              	.LVL42:
 329              		.loc 1 124 9 view .LVU115
 330 0108 029D     		ldr	r5, [sp, #8]
 125:aes.c         ****     y19 = y10 ^ y8;
 126:aes.c         ****     y16 = t0 ^ y11;
 127:aes.c         ****     y21 = y13 ^ y16;
 128:aes.c         ****     y18 = x0 ^ y16;
 129:aes.c         **** 
 130:aes.c         ****     /*
 131:aes.c         ****      * Non-linear section.
 132:aes.c         ****      */
 133:aes.c         ****     t2 = y12 & y15;
 134:aes.c         ****     t3 = y3 & y6;
 135:aes.c         ****     t4 = t3 ^ t2;
 136:aes.c         ****     t5 = y4 & x7;
 137:aes.c         ****     t6 = t5 ^ t2;
 138:aes.c         ****     t7 = y13 & y16;
 139:aes.c         ****     t8 = y5 & y1;
 140:aes.c         ****     t9 = t8 ^ t7;
 141:aes.c         ****     t10 = y2 & y7;
 142:aes.c         ****     t11 = t10 ^ t7;
 143:aes.c         ****     t12 = y9 & y11;
 144:aes.c         ****     t13 = y14 & y17;
 145:aes.c         ****     t14 = t13 ^ t12;
 146:aes.c         ****     t15 = y8 & y10;
 331              		.loc 1 146 9 view .LVU116
 332 010a DDF82CA0 		ldr	r10, [sp, #44]
 333              	.LVL43:
 124:aes.c         ****     y17 = y10 ^ y11;
 334              		.loc 1 124 9 view .LVU117
 335 010e 6C40     		eors	r4, r4, r5
 336 0110 2894     		str	r4, [sp, #160]
 337 0112 039D     		ldr	r5, [sp, #12]
 338 0114 0C9C     		ldr	r4, [sp, #48]
 339 0116 6C40     		eors	r4, r4, r5
 340 0118 2994     		str	r4, [sp, #164]
 341              	.LVL44:
 125:aes.c         ****     y19 = y10 ^ y8;
 342              		.loc 1 125 5 is_stmt 1 view .LVU118
 126:aes.c         ****     y21 = y13 ^ y16;
 343              		.loc 1 126 5 view .LVU119
 126:aes.c         ****     y21 = y13 ^ y16;
 344              		.loc 1 126 9 is_stmt 0 view .LVU120
 345 011a 6A40     		eors	r2, r2, r5
 346              	.LVL45:
 126:aes.c         ****     y21 = y13 ^ y16;
 347              		.loc 1 126 9 view .LVU121
 348 011c 029C     		ldr	r4, [sp, #8]
 349              	.LVL46:
 126:aes.c         ****     y21 = y13 ^ y16;
 350              		.loc 1 126 9 view .LVU122
 351 011e 0E92     		str	r2, [sp, #56]
 352              	.LVL47:
 127:aes.c         ****     y18 = x0 ^ y16;
 353              		.loc 1 127 5 is_stmt 1 view .LVU123
 128:aes.c         **** 
 354              		.loc 1 128 5 view .LVU124
 133:aes.c         ****     t3 = y3 & y6;
 355              		.loc 1 133 5 view .LVU125
 133:aes.c         ****     t3 = y3 & y6;
 356              		.loc 1 133 8 is_stmt 0 view .LVU126
 357 0120 189A     		ldr	r2, [sp, #96]
 358              	.LVL48:
 144:aes.c         ****     t14 = t13 ^ t12;
 359              		.loc 1 144 9 view .LVU127
 360 0122 DDF8A4E0 		ldr	lr, [sp, #164]
 361              	.LVL49:
 126:aes.c         ****     y21 = y13 ^ y16;
 362              		.loc 1 126 9 view .LVU128
 363 0126 6140     		eors	r1, r1, r4
 364              	.LVL50:
 126:aes.c         ****     y21 = y13 ^ y16;
 365              		.loc 1 126 9 view .LVU129
 366 0128 0D91     		str	r1, [sp, #52]
 367              	.LVL51:
 133:aes.c         ****     t3 = y3 & y6;
 368              		.loc 1 133 8 view .LVU130
 369 012a 02EA0607 		and	r7, r2, r6
 370              	.LVL52:
 133:aes.c         ****     t3 = y3 & y6;
 371              		.loc 1 133 8 view .LVU131
 372 012e 0A99     		ldr	r1, [sp, #40]
 373 0130 199A     		ldr	r2, [sp, #100]
 374 0132 02EA0106 		and	r6, r2, r1
 375              	.LVL53:
 134:aes.c         ****     t4 = t3 ^ t2;
 376              		.loc 1 134 5 is_stmt 1 view .LVU132
 135:aes.c         ****     t5 = y4 & x7;
 377              		.loc 1 135 5 view .LVU133
 136:aes.c         ****     t6 = t5 ^ t2;
 378              		.loc 1 136 5 view .LVU134
 137:aes.c         ****     t7 = y13 & y16;
 379              		.loc 1 137 5 view .LVU135
 138:aes.c         ****     t8 = y5 & y1;
 380              		.loc 1 138 5 view .LVU136
 138:aes.c         ****     t8 = y5 & y1;
 381              		.loc 1 138 8 is_stmt 0 view .LVU137
 382 0136 0D99     		ldr	r1, [sp, #52]
 383 0138 139A     		ldr	r2, [sp, #76]
 384 013a 0A40     		ands	r2, r2, r1
 385 013c 0492     		str	r2, [sp, #16]
 386 013e 0E99     		ldr	r1, [sp, #56]
 387 0140 089A     		ldr	r2, [sp, #32]
 388 0142 0A40     		ands	r2, r2, r1
 389 0144 0592     		str	r2, [sp, #20]
 390              	.LVL54:
 139:aes.c         ****     t9 = t8 ^ t7;
 391              		.loc 1 139 5 is_stmt 1 view .LVU138
 140:aes.c         ****     t10 = y2 & y7;
 392              		.loc 1 140 5 view .LVU139
 141:aes.c         ****     t11 = t10 ^ t7;
 393              		.loc 1 141 5 view .LVU140
 142:aes.c         ****     t12 = y9 & y11;
 394              		.loc 1 142 5 view .LVU141
 143:aes.c         ****     t13 = y14 & y17;
 395              		.loc 1 143 5 view .LVU142
 143:aes.c         ****     t13 = y14 & y17;
 396              		.loc 1 143 9 is_stmt 0 view .LVU143
 397 0146 149A     		ldr	r2, [sp, #80]
 398              	.LVL55:
 143:aes.c         ****     t13 = y14 & y17;
 399              		.loc 1 143 9 view .LVU144
 400 0148 02EA0401 		and	r1, r2, r4
 401 014c 159A     		ldr	r2, [sp, #84]
 144:aes.c         ****     t14 = t13 ^ t12;
 402              		.loc 1 144 9 view .LVU145
 403 014e 119C     		ldr	r4, [sp, #68]
 143:aes.c         ****     t13 = y14 & y17;
 404              		.loc 1 143 9 view .LVU146
 405 0150 2A40     		ands	r2, r2, r5
 406              	.LVL56:
 144:aes.c         ****     t14 = t13 ^ t12;
 407              		.loc 1 144 5 is_stmt 1 view .LVU147
 145:aes.c         ****     t15 = y8 & y10;
 408              		.loc 1 145 5 view .LVU148
 144:aes.c         ****     t14 = t13 ^ t12;
 409              		.loc 1 144 9 is_stmt 0 view .LVU149
 410 0152 289D     		ldr	r5, [sp, #160]
 411 0154 2540     		ands	r5, r5, r4
 412 0156 129C     		ldr	r4, [sp, #72]
 413 0158 04EA0E04 		and	r4, r4, lr
 414              		.loc 1 146 9 view .LVU150
 415 015c DDF858E0 		ldr	lr, [sp, #88]
 416 0160 0EEA0A0E 		and	lr, lr, r10
 417 0164 CDF818E0 		str	lr, [sp, #24]
 418 0168 DDF830A0 		ldr	r10, [sp, #48]
 419 016c DDF85CE0 		ldr	lr, [sp, #92]
 420 0170 0EEA0A0E 		and	lr, lr, r10
 147:aes.c         ****     t16 = t15 ^ t12;
 421              		.loc 1 147 9 view .LVU151
 422 0174 DDF818A0 		ldr	r10, [sp, #24]
 145:aes.c         ****     t15 = y8 & y10;
 423              		.loc 1 145 9 view .LVU152
 424 0178 5440     		eors	r4, r4, r2
 425              		.loc 1 147 9 view .LVU153
 426 017a 8EEA0202 		eor	r2, lr, r2
 427              	.LVL57:
 428              		.loc 1 147 9 view .LVU154
 429 017e 8AEA010A 		eor	r10, r10, r1
 145:aes.c         ****     t15 = y8 & y10;
 430              		.loc 1 145 9 view .LVU155
 431 0182 4D40     		eors	r5, r5, r1
 432              	.LVL58:
 146:aes.c         ****     t16 = t15 ^ t12;
 433              		.loc 1 146 5 is_stmt 1 view .LVU156
 434              		.loc 1 147 5 view .LVU157
 435              		.loc 1 147 9 is_stmt 0 view .LVU158
 436 0184 0692     		str	r2, [sp, #24]
 437              	.LVL59:
 148:aes.c         ****     t17 = t4 ^ t14;
 438              		.loc 1 148 5 is_stmt 1 view .LVU159
 149:aes.c         ****     t18 = t6 ^ t16;
 439              		.loc 1 149 5 view .LVU160
 150:aes.c         ****     t19 = t9 ^ t14;
 440              		.loc 1 150 5 view .LVU161
 151:aes.c         ****     t20 = t11 ^ t16;
 441              		.loc 1 151 5 view .LVU162
 152:aes.c         ****     t21 = t17 ^ y20;
 442              		.loc 1 152 5 view .LVU163
 134:aes.c         ****     t4 = t3 ^ t2;
 443              		.loc 1 134 8 is_stmt 0 view .LVU164
 444 0186 229A     		ldr	r2, [sp, #136]
 445              	.LVL60:
 134:aes.c         ****     t4 = t3 ^ t2;
 446              		.loc 1 134 8 view .LVU165
 447 0188 2499     		ldr	r1, [sp, #144]
 448              	.LVL61:
 134:aes.c         ****     t4 = t3 ^ t2;
 449              		.loc 1 134 8 view .LVU166
 450 018a 02EA010E 		and	lr, r2, r1
 451 018e 239A     		ldr	r2, [sp, #140]
 452 0190 2599     		ldr	r1, [sp, #148]
 453              		.loc 1 152 9 view .LVU167
 454 0192 7B40     		eors	r3, r3, r7
 455              	.LVL62:
 134:aes.c         ****     t4 = t3 ^ t2;
 456              		.loc 1 134 8 view .LVU168
 457 0194 1140     		ands	r1, r1, r2
 458              		.loc 1 152 9 view .LVU169
 459 0196 8EEA0302 		eor	r2, lr, r3
 460 019a 82EA0503 		eor	r3, r2, r5
 461 019e 0793     		str	r3, [sp, #28]
 136:aes.c         ****     t6 = t5 ^ t2;
 462              		.loc 1 136 8 view .LVU170
 463 01a0 1E9A     		ldr	r2, [sp, #120]
 464 01a2 0368     		ldr	r3, [r0]
 141:aes.c         ****     t11 = t10 ^ t7;
 465              		.loc 1 141 9 view .LVU171
 466 01a4 DDF898E0 		ldr	lr, [sp, #152]
 467              		.loc 1 152 9 view .LVU172
 468 01a8 8CEA060C 		eor	ip, ip, r6
 469              	.LVL63:
 470              		.loc 1 152 9 view .LVU173
 471 01ac 81EA0C01 		eor	r1, r1, ip
 136:aes.c         ****     t6 = t5 ^ t2;
 472              		.loc 1 136 8 view .LVU174
 473 01b0 03EA020C 		and	ip, r3, r2
 474 01b4 1F9A     		ldr	r2, [sp, #124]
 475 01b6 4368     		ldr	r3, [r0, #4]
 476 01b8 1340     		ands	r3, r3, r2
 153:aes.c         ****     t22 = t18 ^ y19;
 477              		.loc 1 153 9 view .LVU175
 478 01ba 169A     		ldr	r2, [sp, #88]
 479 01bc 8CEA020C 		eor	ip, ip, r2
 480 01c0 179A     		ldr	r2, [sp, #92]
 481 01c2 5340     		eors	r3, r3, r2
 482 01c4 0B9A     		ldr	r2, [sp, #44]
 483 01c6 8CEA020C 		eor	ip, ip, r2
 484 01ca 0C9A     		ldr	r2, [sp, #48]
 485 01cc 5340     		eors	r3, r3, r2
 486 01ce 5E40     		eors	r6, r6, r3
 487              	.LVL64:
 488              		.loc 1 153 9 view .LVU176
 489 01d0 069B     		ldr	r3, [sp, #24]
 139:aes.c         ****     t9 = t8 ^ t7;
 490              		.loc 1 139 8 view .LVU177
 491 01d2 1B9A     		ldr	r2, [sp, #108]
 492              		.loc 1 153 9 view .LVU178
 493 01d4 5E40     		eors	r6, r6, r3
 139:aes.c         ****     t9 = t8 ^ t7;
 494              		.loc 1 139 8 view .LVU179
 495 01d6 1A9B     		ldr	r3, [sp, #104]
 496              		.loc 1 153 9 view .LVU180
 497 01d8 8CEA0707 		eor	r7, ip, r7
 498              	.LVL65:
 139:aes.c         ****     t9 = t8 ^ t7;
 499              		.loc 1 139 8 view .LVU181
 500 01dc 0BEA030C 		and	ip, fp, r3
 501 01e0 019B     		ldr	r3, [sp, #4]
 502 01e2 1340     		ands	r3, r3, r2
 154:aes.c         ****     t23 = t19 ^ y21;
 503              		.loc 1 154 9 view .LVU182
 504 01e4 139A     		ldr	r2, [sp, #76]
 505 01e6 8CEA020C 		eor	ip, ip, r2
 506 01ea 089A     		ldr	r2, [sp, #32]
 507 01ec 5340     		eors	r3, r3, r2
 508 01ee 0D9A     		ldr	r2, [sp, #52]
 509 01f0 8CEA020C 		eor	ip, ip, r2
 510 01f4 0E9A     		ldr	r2, [sp, #56]
 511 01f6 5340     		eors	r3, r3, r2
 512 01f8 049A     		ldr	r2, [sp, #16]
 513 01fa 8CEA020C 		eor	ip, ip, r2
 514 01fe 059A     		ldr	r2, [sp, #20]
 515 0200 5340     		eors	r3, r3, r2
 155:aes.c         ****     t24 = t20 ^ y18;
 516              		.loc 1 155 9 view .LVU183
 517 0202 0E9A     		ldr	r2, [sp, #56]
 152:aes.c         ****     t22 = t18 ^ y19;
 518              		.loc 1 152 9 view .LVU184
 519 0204 6140     		eors	r1, r1, r4
 520              	.LVL66:
 153:aes.c         ****     t23 = t19 ^ y21;
 521              		.loc 1 153 5 is_stmt 1 view .LVU185
 154:aes.c         ****     t24 = t20 ^ y18;
 522              		.loc 1 154 9 is_stmt 0 view .LVU186
 523 0206 5C40     		eors	r4, r4, r3
 524              	.LVL67:
 525              		.loc 1 155 9 view .LVU187
 526 0208 0D9B     		ldr	r3, [sp, #52]
 154:aes.c         ****     t24 = t20 ^ y18;
 527              		.loc 1 154 9 view .LVU188
 528 020a 8CEA0505 		eor	r5, ip, r5
 529              	.LVL68:
 530              		.loc 1 155 9 view .LVU189
 531 020e 88EA020C 		eor	ip, r8, r2
 532 0212 049A     		ldr	r2, [sp, #16]
 533 0214 89EA0303 		eor	r3, r9, r3
 534 0218 5340     		eors	r3, r3, r2
 535 021a 059A     		ldr	r2, [sp, #20]
 536 021c 8CEA020C 		eor	ip, ip, r2
 141:aes.c         ****     t11 = t10 ^ t7;
 537              		.loc 1 141 9 view .LVU190
 538 0220 209A     		ldr	r2, [sp, #128]
 539 0222 02EA0E08 		and	r8, r2, lr
 540              	.LVL69:
 141:aes.c         ****     t11 = t10 ^ t7;
 541              		.loc 1 141 9 view .LVU191
 542 0226 219A     		ldr	r2, [sp, #132]
 543 0228 DDF89CE0 		ldr	lr, [sp, #156]
 544              		.loc 1 155 9 view .LVU192
 545 022c 83EA0808 		eor	r8, r3, r8
 141:aes.c         ****     t11 = t10 ^ t7;
 546              		.loc 1 141 9 view .LVU193
 547 0230 02EA0E0E 		and	lr, r2, lr
 548              		.loc 1 155 9 view .LVU194
 549 0234 069B     		ldr	r3, [sp, #24]
 550 0236 8CEA0E0E 		eor	lr, ip, lr
 551 023a 8EEA030E 		eor	lr, lr, r3
 156:aes.c         **** 
 157:aes.c         ****     t25 = t21 ^ t22;
 552              		.loc 1 157 9 view .LVU195
 553 023e 079B     		ldr	r3, [sp, #28]
 153:aes.c         ****     t23 = t19 ^ y21;
 554              		.loc 1 153 9 view .LVU196
 555 0240 87EA0A07 		eor	r7, r7, r10
 556              	.LVL70:
 154:aes.c         ****     t24 = t20 ^ y18;
 557              		.loc 1 154 5 is_stmt 1 view .LVU197
 155:aes.c         **** 
 558              		.loc 1 155 5 view .LVU198
 155:aes.c         **** 
 559              		.loc 1 155 9 is_stmt 0 view .LVU199
 560 0244 88EA0A08 		eor	r8, r8, r10
 561              	.LVL71:
 562              		.loc 1 157 5 is_stmt 1 view .LVU200
 563              		.loc 1 157 9 is_stmt 0 view .LVU201
 564 0248 83EA070A 		eor	r10, r3, r7
 565              	.LVL72:
 566              		.loc 1 157 9 view .LVU202
 567 024c 81EA0603 		eor	r3, r1, r6
 568 0250 1C93     		str	r3, [sp, #112]
 569              	.LVL73:
 158:aes.c         ****     t26 = t21 & t23;
 570              		.loc 1 158 5 is_stmt 1 view .LVU203
 571              		.loc 1 158 9 is_stmt 0 view .LVU204
 572 0252 079A     		ldr	r2, [sp, #28]
 573 0254 2A40     		ands	r2, r2, r5
 159:aes.c         ****     t27 = t24 ^ t26;
 574              		.loc 1 159 9 view .LVU205
 575 0256 88EA0203 		eor	r3, r8, r2
 576              	.LVL74:
 158:aes.c         ****     t26 = t21 & t23;
 577              		.loc 1 158 9 view .LVU206
 578 025a 2140     		ands	r1, r1, r4
 579              	.LVL75:
 580              		.loc 1 159 5 is_stmt 1 view .LVU207
 581              		.loc 1 159 9 is_stmt 0 view .LVU208
 582 025c 1D93     		str	r3, [sp, #116]
 160:aes.c         ****     t28 = t25 & t27;
 583              		.loc 1 160 9 view .LVU209
 584 025e 0AEA0309 		and	r9, r10, r3
 585              	.LVL76:
 586              		.loc 1 160 9 view .LVU210
 587 0262 1C9B     		ldr	r3, [sp, #112]
 159:aes.c         ****     t27 = t24 ^ t26;
 588              		.loc 1 159 9 view .LVU211
 589 0264 8EEA010C 		eor	ip, lr, r1
 590              	.LVL77:
 591              		.loc 1 160 5 is_stmt 1 view .LVU212
 161:aes.c         ****     t29 = t28 ^ t22;
 592              		.loc 1 161 5 view .LVU213
 160:aes.c         ****     t28 = t25 & t27;
 593              		.loc 1 160 9 is_stmt 0 view .LVU214
 594 0268 03EA0C03 		and	r3, r3, ip
 595              		.loc 1 161 9 view .LVU215
 596 026c 7340     		eors	r3, r3, r6
 597 026e 0593     		str	r3, [sp, #20]
 598              	.LVL78:
 162:aes.c         ****     t30 = t23 ^ t24;
 599              		.loc 1 162 5 is_stmt 1 view .LVU216
 163:aes.c         ****     t31 = t22 ^ t26;
 600              		.loc 1 163 5 view .LVU217
 164:aes.c         ****     t32 = t31 & t30;
 601              		.loc 1 164 5 view .LVU218
 161:aes.c         ****     t30 = t23 ^ t24;
 602              		.loc 1 161 9 is_stmt 0 view .LVU219
 603 0270 89EA0709 		eor	r9, r9, r7
 162:aes.c         ****     t31 = t22 ^ t26;
 604              		.loc 1 162 9 view .LVU220
 605 0274 85EA0803 		eor	r3, r5, r8
 606              	.LVL79:
 163:aes.c         ****     t32 = t31 & t30;
 607              		.loc 1 163 9 view .LVU221
 608 0278 5740     		eors	r7, r7, r2
 609              	.LVL80:
 161:aes.c         ****     t30 = t23 ^ t24;
 610              		.loc 1 161 9 view .LVU222
 611 027a CDF81090 		str	r9, [sp, #16]
 612              	.LVL81:
 163:aes.c         ****     t32 = t31 & t30;
 613              		.loc 1 163 9 view .LVU223
 614 027e 4E40     		eors	r6, r6, r1
 615              	.LVL82:
 162:aes.c         ****     t31 = t22 ^ t26;
 616              		.loc 1 162 9 view .LVU224
 617 0280 84EA0E09 		eor	r9, r4, lr
 618              		.loc 1 164 9 view .LVU225
 619 0284 1F40     		ands	r7, r7, r3
 165:aes.c         ****     t33 = t32 ^ t24;
 620              		.loc 1 165 9 view .LVU226
 621 0286 88EA0703 		eor	r3, r8, r7
 164:aes.c         ****     t33 = t32 ^ t24;
 622              		.loc 1 164 9 view .LVU227
 623 028a 09EA0606 		and	r6, r9, r6
 624              	.LVL83:
 625              		.loc 1 165 5 is_stmt 1 view .LVU228
 626              		.loc 1 165 9 is_stmt 0 view .LVU229
 627 028e 0693     		str	r3, [sp, #24]
 628              	.LVL84:
 629              		.loc 1 165 9 view .LVU230
 630 0290 8EEA0603 		eor	r3, lr, r6
 631 0294 0793     		str	r3, [sp, #28]
 632              	.LVL85:
 166:aes.c         ****     t34 = t23 ^ t33;
 633              		.loc 1 166 5 is_stmt 1 view .LVU231
 167:aes.c         ****     t35 = t27 ^ t33;
 634              		.loc 1 167 5 view .LVU232
 168:aes.c         ****     t36 = t24 & t35;
 635              		.loc 1 168 5 view .LVU233
 166:aes.c         ****     t34 = t23 ^ t33;
 636              		.loc 1 166 9 is_stmt 0 view .LVU234
 637 0296 069B     		ldr	r3, [sp, #24]
 638              	.LVL86:
 167:aes.c         ****     t35 = t27 ^ t33;
 639              		.loc 1 167 9 view .LVU235
 640 0298 5740     		eors	r7, r7, r2
 641              	.LVL87:
 166:aes.c         ****     t34 = t23 ^ t33;
 642              		.loc 1 166 9 view .LVU236
 643 029a 5D40     		eors	r5, r5, r3
 644              	.LVL88:
 166:aes.c         ****     t34 = t23 ^ t33;
 645              		.loc 1 166 9 view .LVU237
 646 029c 079B     		ldr	r3, [sp, #28]
 169:aes.c         ****     t37 = t36 ^ t34;
 170:aes.c         ****     t38 = t27 ^ t36;
 171:aes.c         ****     t39 = t29 & t38;
 172:aes.c         ****     t40 = t25 ^ t39;
 173:aes.c         **** 
 174:aes.c         ****     t41 = t40 ^ t37;
 175:aes.c         ****     t42 = t29 ^ t33;
 647              		.loc 1 175 9 view .LVU238
 648 029e 069A     		ldr	r2, [sp, #24]
 649              	.LVL89:
 168:aes.c         ****     t36 = t24 & t35;
 650              		.loc 1 168 9 view .LVU239
 651 02a0 07EA0808 		and	r8, r7, r8
 652              	.LVL90:
 167:aes.c         ****     t36 = t24 & t35;
 653              		.loc 1 167 9 view .LVU240
 654 02a4 4E40     		eors	r6, r6, r1
 655              	.LVL91:
 168:aes.c         ****     t36 = t24 & t35;
 656              		.loc 1 168 9 view .LVU241
 657 02a6 06EA0E06 		and	r6, r6, lr
 658              	.LVL92:
 169:aes.c         ****     t37 = t36 ^ t34;
 659              		.loc 1 169 5 is_stmt 1 view .LVU242
 166:aes.c         ****     t35 = t27 ^ t33;
 660              		.loc 1 166 9 is_stmt 0 view .LVU243
 661 02aa 5C40     		eors	r4, r4, r3
 662              	.LVL93:
 169:aes.c         ****     t37 = t36 ^ t34;
 663              		.loc 1 169 9 view .LVU244
 664 02ac 85EA0803 		eor	r3, r5, r8
 665 02b0 0F93     		str	r3, [sp, #60]
 666 02b2 84EA0603 		eor	r3, r4, r6
 667 02b6 1093     		str	r3, [sp, #64]
 668              	.LVL94:
 170:aes.c         ****     t39 = t29 & t38;
 669              		.loc 1 170 5 is_stmt 1 view .LVU245
 171:aes.c         ****     t40 = t25 ^ t39;
 670              		.loc 1 171 5 view .LVU246
 172:aes.c         **** 
 671              		.loc 1 172 5 view .LVU247
 170:aes.c         ****     t39 = t29 & t38;
 672              		.loc 1 170 9 is_stmt 0 view .LVU248
 673 02b8 1D9B     		ldr	r3, [sp, #116]
 674              	.LVL95:
 675              		.loc 1 175 9 view .LVU249
 676 02ba 0799     		ldr	r1, [sp, #28]
 677              	.LVL96:
 170:aes.c         ****     t39 = t29 & t38;
 678              		.loc 1 170 9 view .LVU250
 679 02bc 83EA0808 		eor	r8, r3, r8
 680              	.LVL97:
 171:aes.c         ****     t40 = t25 ^ t39;
 681              		.loc 1 171 9 view .LVU251
 682 02c0 049B     		ldr	r3, [sp, #16]
 683 02c2 08EA0308 		and	r8, r8, r3
 684 02c6 059B     		ldr	r3, [sp, #20]
 170:aes.c         ****     t39 = t29 & t38;
 685              		.loc 1 170 9 view .LVU252
 686 02c8 8CEA060C 		eor	ip, ip, r6
 687              	.LVL98:
 171:aes.c         ****     t40 = t25 ^ t39;
 688              		.loc 1 171 9 view .LVU253
 689 02cc 0CEA030C 		and	ip, ip, r3
 172:aes.c         **** 
 690              		.loc 1 172 9 view .LVU254
 691 02d0 1C9B     		ldr	r3, [sp, #112]
 692 02d2 8CEA030C 		eor	ip, ip, r3
 174:aes.c         ****     t42 = t29 ^ t33;
 693              		.loc 1 174 9 view .LVU255
 694 02d6 0F9B     		ldr	r3, [sp, #60]
 172:aes.c         **** 
 695              		.loc 1 172 9 view .LVU256
 696 02d8 88EA0A0A 		eor	r10, r8, r10
 697              	.LVL99:
 174:aes.c         ****     t42 = t29 ^ t33;
 698              		.loc 1 174 5 is_stmt 1 view .LVU257
 174:aes.c         ****     t42 = t29 ^ t33;
 699              		.loc 1 174 9 is_stmt 0 view .LVU258
 700 02dc 83EA0A03 		eor	r3, r3, r10
 701 02e0 1C93     		str	r3, [sp, #112]
 702              	.LVL100:
 174:aes.c         ****     t42 = t29 ^ t33;
 703              		.loc 1 174 9 view .LVU259
 704 02e2 109B     		ldr	r3, [sp, #64]
 705 02e4 83EA0C03 		eor	r3, r3, ip
 706 02e8 1D93     		str	r3, [sp, #116]
 707              	.LVL101:
 708              		.loc 1 175 5 is_stmt 1 view .LVU260
 709              		.loc 1 175 9 is_stmt 0 view .LVU261
 710 02ea 049B     		ldr	r3, [sp, #16]
 711              	.LVL102:
 712              		.loc 1 175 9 view .LVU262
 713 02ec 5340     		eors	r3, r3, r2
 714 02ee 059A     		ldr	r2, [sp, #20]
 715 02f0 82EA0106 		eor	r6, r2, r1
 716              	.LVL103:
 176:aes.c         ****     t43 = t29 ^ t40;
 717              		.loc 1 176 5 is_stmt 1 view .LVU263
 718              		.loc 1 176 9 is_stmt 0 view .LVU264
 719 02f4 049A     		ldr	r2, [sp, #16]
 177:aes.c         ****     t44 = t33 ^ t37;
 720              		.loc 1 177 9 view .LVU265
 721 02f6 0F99     		ldr	r1, [sp, #60]
 176:aes.c         ****     t43 = t29 ^ t40;
 722              		.loc 1 176 9 view .LVU266
 723 02f8 82EA0A09 		eor	r9, r2, r10
 724              	.LVL104:
 176:aes.c         ****     t43 = t29 ^ t40;
 725              		.loc 1 176 9 view .LVU267
 726 02fc 059A     		ldr	r2, [sp, #20]
 727 02fe 82EA0C08 		eor	r8, r2, ip
 728              	.LVL105:
 729              		.loc 1 177 5 is_stmt 1 view .LVU268
 730              		.loc 1 177 9 is_stmt 0 view .LVU269
 731 0302 069A     		ldr	r2, [sp, #24]
 732 0304 4A40     		eors	r2, r2, r1
 733 0306 2A92     		str	r2, [sp, #168]
 734 0308 1099     		ldr	r1, [sp, #64]
 735 030a 079A     		ldr	r2, [sp, #28]
 736 030c 4A40     		eors	r2, r2, r1
 737 030e 2B92     		str	r2, [sp, #172]
 738              	.LVL106:
 178:aes.c         ****     t45 = t42 ^ t41;
 739              		.loc 1 178 5 is_stmt 1 view .LVU270
 740              		.loc 1 178 9 is_stmt 0 view .LVU271
 741 0310 1C9A     		ldr	r2, [sp, #112]
 742              	.LVL107:
 743              		.loc 1 178 9 view .LVU272
 744 0312 82EA030E 		eor	lr, r2, r3
 745              	.LVL108:
 746              		.loc 1 178 9 view .LVU273
 747 0316 1D9A     		ldr	r2, [sp, #116]
 179:aes.c         ****     z0 = t44 & y15;
 180:aes.c         ****     z1 = t37 & y6;
 181:aes.c         ****     z2 = t33 & x7;
 748              		.loc 1 181 8 view .LVU274
 749 0318 0699     		ldr	r1, [sp, #24]
 182:aes.c         ****     z3 = t43 & y16;
 183:aes.c         ****     z4 = t40 & y1;
 184:aes.c         ****     z5 = t29 & y7;
 750              		.loc 1 184 8 view .LVU275
 751 031a 049C     		ldr	r4, [sp, #16]
 178:aes.c         ****     z0 = t44 & y15;
 752              		.loc 1 178 9 view .LVU276
 753 031c 82EA0607 		eor	r7, r2, r6
 754              	.LVL109:
 179:aes.c         ****     z0 = t44 & y15;
 755              		.loc 1 179 5 is_stmt 1 view .LVU277
 180:aes.c         ****     z2 = t33 & x7;
 756              		.loc 1 180 5 view .LVU278
 181:aes.c         ****     z3 = t43 & y16;
 757              		.loc 1 181 5 view .LVU279
 181:aes.c         ****     z3 = t43 & y16;
 758              		.loc 1 181 8 is_stmt 0 view .LVU280
 759 0320 0268     		ldr	r2, [r0]
 760 0322 0A40     		ands	r2, r2, r1
 761 0324 2C92     		str	r2, [sp, #176]
 762 0326 0799     		ldr	r1, [sp, #28]
 763 0328 4268     		ldr	r2, [r0, #4]
 764 032a 0A40     		ands	r2, r2, r1
 765 032c 2D92     		str	r2, [sp, #180]
 766              	.LVL110:
 182:aes.c         ****     z4 = t40 & y1;
 767              		.loc 1 182 5 is_stmt 1 view .LVU281
 182:aes.c         ****     z4 = t40 & y1;
 768              		.loc 1 182 8 is_stmt 0 view .LVU282
 769 032e 0D9A     		ldr	r2, [sp, #52]
 770              	.LVL111:
 185:aes.c         ****     z6 = t42 & y11;
 186:aes.c         ****     z7 = t45 & y17;
 187:aes.c         ****     z8 = t41 & y10;
 188:aes.c         ****     z9 = t44 & y12;
 189:aes.c         ****     z10 = t37 & y3;
 771              		.loc 1 189 9 view .LVU283
 772 0330 0F99     		ldr	r1, [sp, #60]
 182:aes.c         ****     z4 = t40 & y1;
 773              		.loc 1 182 8 view .LVU284
 774 0332 02EA0902 		and	r2, r2, r9
 775 0336 0D92     		str	r2, [sp, #52]
 776              	.LVL112:
 182:aes.c         ****     z4 = t40 & y1;
 777              		.loc 1 182 8 view .LVU285
 778 0338 0E9A     		ldr	r2, [sp, #56]
 779 033a 02EA0802 		and	r2, r2, r8
 780 033e 0E92     		str	r2, [sp, #56]
 781              	.LVL113:
 183:aes.c         ****     z5 = t29 & y7;
 782              		.loc 1 183 5 is_stmt 1 view .LVU286
 183:aes.c         ****     z5 = t29 & y7;
 783              		.loc 1 183 8 is_stmt 0 view .LVU287
 784 0340 019A     		ldr	r2, [sp, #4]
 785              	.LVL114:
 183:aes.c         ****     z5 = t29 & y7;
 786              		.loc 1 183 8 view .LVU288
 787 0342 02EA0C02 		and	r2, r2, ip
 788 0346 0192     		str	r2, [sp, #4]
 789              	.LVL115:
 184:aes.c         ****     z6 = t42 & y11;
 790              		.loc 1 184 8 view .LVU289
 791 0348 269A     		ldr	r2, [sp, #152]
 792 034a 2240     		ands	r2, r2, r4
 793 034c 2692     		str	r2, [sp, #152]
 794              	.LVL116:
 184:aes.c         ****     z6 = t42 & y11;
 795              		.loc 1 184 8 view .LVU290
 796 034e 059C     		ldr	r4, [sp, #20]
 797 0350 279A     		ldr	r2, [sp, #156]
 798 0352 2240     		ands	r2, r2, r4
 799 0354 2792     		str	r2, [sp, #156]
 800              	.LVL117:
 186:aes.c         ****     z8 = t41 & y10;
 801              		.loc 1 186 8 view .LVU291
 802 0356 289A     		ldr	r2, [sp, #160]
 803 0358 02EA0E05 		and	r5, r2, lr
 804 035c 299A     		ldr	r2, [sp, #164]
 805 035e 02EA0704 		and	r4, r2, r7
 806              		.loc 1 189 9 view .LVU292
 807 0362 229A     		ldr	r2, [sp, #136]
 808 0364 0A40     		ands	r2, r2, r1
 809 0366 2292     		str	r2, [sp, #136]
 810              	.LVL118:
 811              		.loc 1 189 9 view .LVU293
 812 0368 1099     		ldr	r1, [sp, #64]
 813 036a 239A     		ldr	r2, [sp, #140]
 814 036c 0A40     		ands	r2, r2, r1
 815 036e 2392     		str	r2, [sp, #140]
 816              	.LVL119:
 190:aes.c         ****     z11 = t33 & y4;
 191:aes.c         ****     z12 = t43 & y13;
 817              		.loc 1 191 9 view .LVU294
 818 0370 139A     		ldr	r2, [sp, #76]
 819 0372 02EA0902 		and	r2, r2, r9
 820 0376 1392     		str	r2, [sp, #76]
 821              	.LVL120:
 822              		.loc 1 191 9 view .LVU295
 823 0378 089A     		ldr	r2, [sp, #32]
 824 037a 02EA0802 		and	r2, r2, r8
 825 037e 0892     		str	r2, [sp, #32]
 826              	.LVL121:
 192:aes.c         ****     z13 = t40 & y5;
 193:aes.c         ****     z14 = t29 & y2;
 194:aes.c         ****     z15 = t42 & y9;
 195:aes.c         ****     z16 = t45 & y14;
 827              		.loc 1 195 9 view .LVU296
 828 0380 119A     		ldr	r2, [sp, #68]
 829 0382 02EA0E02 		and	r2, r2, lr
 830 0386 1192     		str	r2, [sp, #68]
 831              	.LVL122:
 832              		.loc 1 195 9 view .LVU297
 833 0388 129A     		ldr	r2, [sp, #72]
 179:aes.c         ****     z1 = t37 & y6;
 834              		.loc 1 179 8 view .LVU298
 835 038a 2A99     		ldr	r1, [sp, #168]
 836              		.loc 1 195 9 view .LVU299
 837 038c 3A40     		ands	r2, r2, r7
 838 038e 1292     		str	r2, [sp, #72]
 839              	.LVL123:
 194:aes.c         ****     z16 = t45 & y14;
 840              		.loc 1 194 9 view .LVU300
 841 0390 149A     		ldr	r2, [sp, #80]
 842 0392 02EA030E 		and	lr, r2, r3
 843              	.LVL124:
 194:aes.c         ****     z16 = t45 & y14;
 844              		.loc 1 194 9 view .LVU301
 845 0396 159A     		ldr	r2, [sp, #84]
 846 0398 02EA0607 		and	r7, r2, r6
 847              	.LVL125:
 196:aes.c         ****     z17 = t41 & y8;
 197:aes.c         **** 
 198:aes.c         ****     /*
 199:aes.c         ****      * Bottom linear transformation.
 200:aes.c         ****      */
 201:aes.c         ****     t46 = z15 ^ z16;
 848              		.loc 1 201 9 view .LVU302
 849 039c 119A     		ldr	r2, [sp, #68]
 850 039e 8EEA0202 		eor	r2, lr, r2
 851 03a2 1492     		str	r2, [sp, #80]
 852              	.LVL126:
 853              		.loc 1 201 9 view .LVU303
 854 03a4 129A     		ldr	r2, [sp, #72]
 855 03a6 7A40     		eors	r2, r2, r7
 856 03a8 1592     		str	r2, [sp, #84]
 857              	.LVL127:
 192:aes.c         ****     z14 = t29 & y2;
 858              		.loc 1 192 9 view .LVU304
 859 03aa 1A9A     		ldr	r2, [sp, #104]
 183:aes.c         ****     z5 = t29 & y7;
 860              		.loc 1 183 8 view .LVU305
 861 03ac 0BEA0A0B 		and	fp, fp, r10
 862              	.LVL128:
 184:aes.c         ****     z6 = t42 & y11;
 863              		.loc 1 184 5 is_stmt 1 view .LVU306
 185:aes.c         ****     z7 = t45 & y17;
 864              		.loc 1 185 5 view .LVU307
 186:aes.c         ****     z8 = t41 & y10;
 865              		.loc 1 186 5 view .LVU308
 187:aes.c         ****     z9 = t44 & y12;
 866              		.loc 1 187 5 view .LVU309
 188:aes.c         ****     z10 = t37 & y3;
 867              		.loc 1 188 5 view .LVU310
 189:aes.c         ****     z11 = t33 & y4;
 868              		.loc 1 189 5 view .LVU311
 190:aes.c         ****     z12 = t43 & y13;
 869              		.loc 1 190 5 view .LVU312
 191:aes.c         ****     z13 = t40 & y5;
 870              		.loc 1 191 5 view .LVU313
 192:aes.c         ****     z14 = t29 & y2;
 871              		.loc 1 192 5 view .LVU314
 193:aes.c         ****     z15 = t42 & y9;
 872              		.loc 1 193 5 view .LVU315
 194:aes.c         ****     z16 = t45 & y14;
 873              		.loc 1 194 5 view .LVU316
 195:aes.c         ****     z17 = t41 & y8;
 874              		.loc 1 195 5 view .LVU317
 196:aes.c         **** 
 875              		.loc 1 196 5 view .LVU318
 876              		.loc 1 201 5 view .LVU319
 202:aes.c         ****     t47 = z10 ^ z11;
 877              		.loc 1 202 5 view .LVU320
 203:aes.c         ****     t48 = z5 ^ z13;
 878              		.loc 1 203 5 view .LVU321
 192:aes.c         ****     z14 = t29 & y2;
 879              		.loc 1 192 9 is_stmt 0 view .LVU322
 880 03b0 02EA0A0A 		and	r10, r2, r10
 881              	.LVL129:
 192:aes.c         ****     z14 = t29 & y2;
 882              		.loc 1 192 9 view .LVU323
 883 03b4 1B9A     		ldr	r2, [sp, #108]
 884 03b6 02EA0C0C 		and	ip, r2, ip
 885              		.loc 1 203 9 view .LVU324
 886 03ba 269A     		ldr	r2, [sp, #152]
 887 03bc 8AEA0202 		eor	r2, r10, r2
 888 03c0 1A92     		str	r2, [sp, #104]
 889              	.LVL130:
 890              		.loc 1 203 9 view .LVU325
 891 03c2 279A     		ldr	r2, [sp, #156]
 892 03c4 8CEA0202 		eor	r2, ip, r2
 893 03c8 1B92     		str	r2, [sp, #108]
 894              	.LVL131:
 204:aes.c         ****     t49 = z9 ^ z10;
 895              		.loc 1 204 5 is_stmt 1 view .LVU326
 205:aes.c         ****     t50 = z2 ^ z12;
 896              		.loc 1 205 5 view .LVU327
 206:aes.c         ****     t51 = z2 ^ z5;
 897              		.loc 1 206 5 view .LVU328
 207:aes.c         ****     t52 = z7 ^ z8;
 898              		.loc 1 207 5 view .LVU329
 208:aes.c         ****     t53 = z0 ^ z3;
 899              		.loc 1 208 5 view .LVU330
 179:aes.c         ****     z1 = t37 & y6;
 900              		.loc 1 179 8 is_stmt 0 view .LVU331
 901 03ca 099A     		ldr	r2, [sp, #36]
 902              	.LVL132:
 179:aes.c         ****     z1 = t37 & y6;
 903              		.loc 1 179 8 view .LVU332
 904 03cc 02EA0107 		and	r7, r2, r1
 905 03d0 0A9A     		ldr	r2, [sp, #40]
 906 03d2 2B99     		ldr	r1, [sp, #172]
 907 03d4 02EA010C 		and	ip, r2, r1
 908              		.loc 1 208 9 view .LVU333
 909 03d8 0D9A     		ldr	r2, [sp, #52]
 205:aes.c         ****     t51 = z2 ^ z5;
 910              		.loc 1 205 9 view .LVU334
 911 03da 1399     		ldr	r1, [sp, #76]
 912              		.loc 1 208 9 view .LVU335
 913 03dc 5740     		eors	r7, r7, r2
 914 03de 0E9A     		ldr	r2, [sp, #56]
 915 03e0 8CEA020C 		eor	ip, ip, r2
 916              	.LVL133:
 209:aes.c         ****     t54 = z6 ^ z7;
 917              		.loc 1 209 5 is_stmt 1 view .LVU336
 210:aes.c         ****     t55 = z16 ^ z17;
 918              		.loc 1 210 5 view .LVU337
 211:aes.c         ****     t56 = z12 ^ t48;
 919              		.loc 1 211 5 view .LVU338
 212:aes.c         ****     t57 = t50 ^ t53;
 920              		.loc 1 212 5 view .LVU339
 205:aes.c         ****     t51 = z2 ^ z5;
 921              		.loc 1 205 9 is_stmt 0 view .LVU340
 922 03e4 2C9A     		ldr	r2, [sp, #176]
 923 03e6 82EA0108 		eor	r8, r2, r1
 924              	.LVL134:
 205:aes.c         ****     t51 = z2 ^ z5;
 925              		.loc 1 205 9 view .LVU341
 926 03ea 2D9A     		ldr	r2, [sp, #180]
 927 03ec 0899     		ldr	r1, [sp, #32]
 928 03ee 82EA010E 		eor	lr, r2, r1
 929              		.loc 1 212 9 view .LVU342
 930 03f2 8EEA0C02 		eor	r2, lr, ip
 931 03f6 0992     		str	r2, [sp, #36]
 932              	.LVL135:
 213:aes.c         ****     t58 = z4 ^ t46;
 933              		.loc 1 213 9 view .LVU343
 934 03f8 149A     		ldr	r2, [sp, #80]
 935 03fa 1599     		ldr	r1, [sp, #84]
 212:aes.c         ****     t57 = t50 ^ t53;
 936              		.loc 1 212 9 view .LVU344
 937 03fc 88EA070A 		eor	r10, r8, r7
 938              	.LVL136:
 939              		.loc 1 213 5 is_stmt 1 view .LVU345
 940              		.loc 1 213 9 is_stmt 0 view .LVU346
 941 0400 8BEA0208 		eor	r8, fp, r2
 942 0404 019A     		ldr	r2, [sp, #4]
 943 0406 82EA010E 		eor	lr, r2, r1
 944              	.LVL137:
 214:aes.c         ****     t59 = z3 ^ t54;
 945              		.loc 1 214 5 is_stmt 1 view .LVU347
 185:aes.c         ****     z7 = t45 & y17;
 946              		.loc 1 185 8 is_stmt 0 view .LVU348
 947 040a 029A     		ldr	r2, [sp, #8]
 948 040c 1340     		ands	r3, r3, r2
 949              	.LVL138:
 185:aes.c         ****     z7 = t45 & y17;
 950              		.loc 1 185 8 view .LVU349
 951 040e 039A     		ldr	r2, [sp, #12]
 952 0410 1640     		ands	r6, r6, r2
 953              	.LVL139:
 954              		.loc 1 214 9 view .LVU350
 955 0412 0D9A     		ldr	r2, [sp, #52]
 956 0414 5340     		eors	r3, r3, r2
 957 0416 0E9A     		ldr	r2, [sp, #56]
 958 0418 83EA0501 		eor	r1, r3, r5
 959 041c 7240     		eors	r2, r2, r6
 187:aes.c         ****     z9 = t44 & y12;
 960              		.loc 1 187 8 view .LVU351
 961 041e 0B9B     		ldr	r3, [sp, #44]
 962 0420 1C9E     		ldr	r6, [sp, #112]
 963 0422 03EA0609 		and	r9, r3, r6
 187:aes.c         ****     z9 = t44 & y12;
 964              		.loc 1 187 8 view .LVU352
 965 0426 0C9B     		ldr	r3, [sp, #48]
 966 0428 1D9E     		ldr	r6, [sp, #116]
 207:aes.c         ****     t53 = z0 ^ z3;
 967              		.loc 1 207 9 view .LVU353
 968 042a 89EA0505 		eor	r5, r9, r5
 969              	.LVL140:
 187:aes.c         ****     z9 = t44 & y12;
 970              		.loc 1 187 8 view .LVU354
 971 042e 1E40     		ands	r6, r6, r3
 972              		.loc 1 214 9 view .LVU355
 973 0430 6240     		eors	r2, r2, r4
 974              	.LVL141:
 215:aes.c         ****     t60 = t46 ^ t57;
 975              		.loc 1 215 5 is_stmt 1 view .LVU356
 216:aes.c         ****     t61 = z14 ^ t57;
 976              		.loc 1 216 5 view .LVU357
 217:aes.c         ****     t62 = t52 ^ t58;
 977              		.loc 1 217 5 view .LVU358
 978              		.loc 1 217 9 is_stmt 0 view .LVU359
 979 0432 85EA0803 		eor	r3, r5, r8
 207:aes.c         ****     t53 = z0 ^ z3;
 980              		.loc 1 207 9 view .LVU360
 981 0436 7440     		eors	r4, r4, r6
 982              	.LVL142:
 983              		.loc 1 217 9 view .LVU361
 984 0438 84EA0E06 		eor	r6, r4, lr
 985              	.LVL143:
 218:aes.c         ****     t63 = t49 ^ t58;
 986              		.loc 1 218 5 is_stmt 1 view .LVU362
 217:aes.c         ****     t62 = t52 ^ t58;
 987              		.loc 1 217 9 is_stmt 0 view .LVU363
 988 043c 0293     		str	r3, [sp, #8]
 989              	.LVL144:
 188:aes.c         ****     z10 = t37 & y3;
 990              		.loc 1 188 8 view .LVU364
 991 043e 2A9C     		ldr	r4, [sp, #168]
 992 0440 189B     		ldr	r3, [sp, #96]
 993 0442 2B9D     		ldr	r5, [sp, #172]
 994 0444 2340     		ands	r3, r3, r4
 995 0446 199C     		ldr	r4, [sp, #100]
 996 0448 2C40     		ands	r4, r4, r5
 204:aes.c         ****     t50 = z2 ^ z12;
 997              		.loc 1 204 9 view .LVU365
 998 044a 229D     		ldr	r5, [sp, #136]
 999 044c 6B40     		eors	r3, r3, r5
 1000              		.loc 1 218 9 view .LVU366
 1001 044e 83EA0808 		eor	r8, r3, r8
 1002              	.LVL145:
 204:aes.c         ****     t50 = z2 ^ z12;
 1003              		.loc 1 204 9 view .LVU367
 1004 0452 239D     		ldr	r5, [sp, #140]
 219:aes.c         ****     t64 = z4 ^ t59;
 1005              		.loc 1 219 9 view .LVU368
 1006 0454 019B     		ldr	r3, [sp, #4]
 204:aes.c         ****     t50 = z2 ^ z12;
 1007              		.loc 1 204 9 view .LVU369
 1008 0456 6C40     		eors	r4, r4, r5
 1009              		.loc 1 219 9 view .LVU370
 1010 0458 5340     		eors	r3, r3, r2
 218:aes.c         ****     t64 = z4 ^ t59;
 1011              		.loc 1 218 9 view .LVU371
 1012 045a 84EA0E0E 		eor	lr, r4, lr
 1013              	.LVL146:
 1014              		.loc 1 219 5 is_stmt 1 view .LVU372
 1015              		.loc 1 219 9 is_stmt 0 view .LVU373
 1016 045e 0193     		str	r3, [sp, #4]
 1017              	.LVL147:
 193:aes.c         ****     z15 = t42 & y9;
 1018              		.loc 1 193 9 view .LVU374
 1019 0460 049C     		ldr	r4, [sp, #16]
 1020 0462 209B     		ldr	r3, [sp, #128]
 180:aes.c         ****     z2 = t33 & x7;
 1021              		.loc 1 180 8 view .LVU375
 1022 0464 0F9D     		ldr	r5, [sp, #60]
 193:aes.c         ****     z15 = t42 & y9;
 1023              		.loc 1 193 9 view .LVU376
 1024 0466 03EA0409 		and	r9, r3, r4
 1025 046a 059C     		ldr	r4, [sp, #20]
 1026 046c 219B     		ldr	r3, [sp, #132]
 1027 046e 2340     		ands	r3, r3, r4
 216:aes.c         ****     t62 = t52 ^ t58;
 1028              		.loc 1 216 9 view .LVU377
 1029 0470 099C     		ldr	r4, [sp, #36]
 1030 0472 6340     		eors	r3, r3, r4
 220:aes.c         ****     t65 = t61 ^ t62;
 1031              		.loc 1 220 9 view .LVU378
 1032 0474 029C     		ldr	r4, [sp, #8]
 216:aes.c         ****     t62 = t52 ^ t58;
 1033              		.loc 1 216 9 view .LVU379
 1034 0476 89EA0A09 		eor	r9, r9, r10
 1035              		.loc 1 220 9 view .LVU380
 1036 047a 89EA0409 		eor	r9, r9, r4
 180:aes.c         ****     z2 = t33 & x7;
 1037              		.loc 1 180 8 view .LVU381
 1038 047e 249C     		ldr	r4, [sp, #144]
 1039 0480 2C40     		ands	r4, r4, r5
 1040 0482 0394     		str	r4, [sp, #12]
 1041              	.LVL148:
 180:aes.c         ****     z2 = t33 & x7;
 1042              		.loc 1 180 8 view .LVU382
 1043 0484 109D     		ldr	r5, [sp, #64]
 1044 0486 259C     		ldr	r4, [sp, #148]
 1045 0488 2C40     		ands	r4, r4, r5
 221:aes.c         ****     t66 = z1 ^ t63;
 1046              		.loc 1 221 9 view .LVU383
 1047 048a 039D     		ldr	r5, [sp, #12]
 219:aes.c         ****     t65 = t61 ^ t62;
 1048              		.loc 1 219 9 view .LVU384
 1049 048c 8BEA010B 		eor	fp, fp, r1
 1050              	.LVL149:
 220:aes.c         ****     t65 = t61 ^ t62;
 1051              		.loc 1 220 5 is_stmt 1 view .LVU385
 222:aes.c         ****     s0 = t59 ^ t63;
 1052              		.loc 1 222 8 is_stmt 0 view .LVU386
 1053 0490 82EA0E02 		eor	r2, r2, lr
 1054              	.LVL150:
 1055              		.loc 1 222 8 view .LVU387
 1056 0494 81EA0801 		eor	r1, r1, r8
 1057              	.LVL151:
 223:aes.c         ****     s6 = t56 ^ ~t62;
 224:aes.c         ****     s7 = t48 ^ ~t60;
 225:aes.c         ****     t67 = t64 ^ t65;
 226:aes.c         ****     s3 = t53 ^ t66;
 227:aes.c         ****     s4 = t51 ^ t66;
 228:aes.c         ****     s5 = t47 ^ t65;
 229:aes.c         ****     s1 = t64 ^ ~s3;
 230:aes.c         ****     s2 = t55 ^ ~t67;
 231:aes.c         **** 
 232:aes.c         ****     q[7] = s0;
 1058              		.loc 1 232 10 view .LVU388
 1059 0498 C0E90E12 		strd	r1, r2, [r0, #56]
 1060              	.LVL152:
 221:aes.c         ****     s0 = t59 ^ t63;
 1061              		.loc 1 221 9 view .LVU389
 1062 049c 85EA0805 		eor	r5, r5, r8
 229:aes.c         ****     s2 = t55 ^ ~t67;
 1063              		.loc 1 229 14 view .LVU390
 1064 04a0 019A     		ldr	r2, [sp, #4]
 221:aes.c         ****     s0 = t59 ^ t63;
 1065              		.loc 1 221 9 view .LVU391
 1066 04a2 84EA0E04 		eor	r4, r4, lr
 226:aes.c         ****     s4 = t51 ^ t66;
 1067              		.loc 1 226 8 view .LVU392
 1068 04a6 6F40     		eors	r7, r7, r5
 1069              	.LVL153:
 226:aes.c         ****     s4 = t51 ^ t66;
 1070              		.loc 1 226 8 view .LVU393
 1071 04a8 8CEA040C 		eor	ip, ip, r4
 1072              	.LVL154:
 229:aes.c         ****     s2 = t55 ^ ~t67;
 1073              		.loc 1 229 14 view .LVU394
 1074 04ac 8BEA0701 		eor	r1, fp, r7
 1075 04b0 82EA0C02 		eor	r2, r2, ip
 229:aes.c         ****     s2 = t55 ^ ~t67;
 1076              		.loc 1 229 8 view .LVU395
 1077 04b4 C943     		mvns	r1, r1
 1078 04b6 D243     		mvns	r2, r2
 233:aes.c         ****     q[6] = s1;
 1079              		.loc 1 233 10 view .LVU396
 1080 04b8 C0E90C12 		strd	r1, r2, [r0, #48]
 1081              	.LVL155:
 196:aes.c         **** 
 1082              		.loc 1 196 9 view .LVU397
 1083 04bc 1C99     		ldr	r1, [sp, #112]
 1084 04be 169A     		ldr	r2, [sp, #88]
 1085 04c0 02EA010E 		and	lr, r2, r1
 1086              	.LVL156:
 196:aes.c         **** 
 1087              		.loc 1 196 9 view .LVU398
 1088 04c4 179A     		ldr	r2, [sp, #92]
 1089 04c6 1D99     		ldr	r1, [sp, #116]
 1090 04c8 0A40     		ands	r2, r2, r1
 210:aes.c         ****     t56 = z12 ^ t48;
 1091              		.loc 1 210 9 view .LVU399
 1092 04ca 1199     		ldr	r1, [sp, #68]
 1093 04cc 8EEA010E 		eor	lr, lr, r1
 1094 04d0 1299     		ldr	r1, [sp, #72]
 1095 04d2 4A40     		eors	r2, r2, r1
 230:aes.c         **** 
 1096              		.loc 1 230 14 view .LVU400
 1097 04d4 0199     		ldr	r1, [sp, #4]
 220:aes.c         ****     t66 = z1 ^ t63;
 1098              		.loc 1 220 9 view .LVU401
 1099 04d6 7340     		eors	r3, r3, r6
 1100              	.LVL157:
 221:aes.c         ****     s0 = t59 ^ t63;
 1101              		.loc 1 221 5 is_stmt 1 view .LVU402
 222:aes.c         ****     s6 = t56 ^ ~t62;
 1102              		.loc 1 222 5 view .LVU403
 223:aes.c         ****     s7 = t48 ^ ~t60;
 1103              		.loc 1 223 5 view .LVU404
 224:aes.c         ****     t67 = t64 ^ t65;
 1104              		.loc 1 224 5 view .LVU405
 225:aes.c         ****     s3 = t53 ^ t66;
 1105              		.loc 1 225 5 view .LVU406
 226:aes.c         ****     s4 = t51 ^ t66;
 1106              		.loc 1 226 5 view .LVU407
 227:aes.c         ****     s5 = t47 ^ t65;
 1107              		.loc 1 227 5 view .LVU408
 228:aes.c         ****     s1 = t64 ^ ~s3;
 1108              		.loc 1 228 5 view .LVU409
 229:aes.c         ****     s2 = t55 ^ ~t67;
 1109              		.loc 1 229 5 view .LVU410
 230:aes.c         **** 
 1110              		.loc 1 230 5 view .LVU411
 232:aes.c         ****     q[6] = s1;
 1111              		.loc 1 232 5 view .LVU412
 1112              		.loc 1 233 5 view .LVU413
 234:aes.c         ****     q[5] = s2;
 1113              		.loc 1 234 5 view .LVU414
 230:aes.c         **** 
 1114              		.loc 1 230 14 is_stmt 0 view .LVU415
 1115 04d8 8EEA0B0B 		eor	fp, lr, fp
 1116              	.LVL158:
 230:aes.c         **** 
 1117              		.loc 1 230 14 view .LVU416
 1118 04dc 4A40     		eors	r2, r2, r1
 1119 04de 8BEA090B 		eor	fp, fp, r9
 1120 04e2 5A40     		eors	r2, r2, r3
 230:aes.c         **** 
 1121              		.loc 1 230 8 view .LVU417
 1122 04e4 6FEA0B01 		mvn	r1, fp
 1123 04e8 D243     		mvns	r2, r2
 1124              		.loc 1 234 10 view .LVU418
 1125 04ea C0E90A12 		strd	r1, r2, [r0, #40]
 1126              	.LVL159:
 235:aes.c         ****     q[4] = s3;
 1127              		.loc 1 235 5 is_stmt 1 view .LVU419
 206:aes.c         ****     t52 = z7 ^ z8;
 1128              		.loc 1 206 9 is_stmt 0 view .LVU420
 1129 04ee 2C9A     		ldr	r2, [sp, #176]
 1130 04f0 2699     		ldr	r1, [sp, #152]
 1131              		.loc 1 235 10 view .LVU421
 1132 04f2 C0E9087C 		strd	r7, ip, [r0, #32]
 1133              	.LVL160:
 236:aes.c         ****     q[3] = s4;
 1134              		.loc 1 236 5 is_stmt 1 view .LVU422
 206:aes.c         ****     t52 = z7 ^ z8;
 1135              		.loc 1 206 9 is_stmt 0 view .LVU423
 1136 04f6 5140     		eors	r1, r1, r2
 1137 04f8 279F     		ldr	r7, [sp, #156]
 1138              	.LVL161:
 206:aes.c         ****     t52 = z7 ^ z8;
 1139              		.loc 1 206 9 view .LVU424
 1140 04fa 2D9A     		ldr	r2, [sp, #180]
 1141 04fc 7A40     		eors	r2, r2, r7
 227:aes.c         ****     s5 = t47 ^ t65;
 1142              		.loc 1 227 8 view .LVU425
 1143 04fe 4D40     		eors	r5, r5, r1
 1144              	.LVL162:
 227:aes.c         ****     s5 = t47 ^ t65;
 1145              		.loc 1 227 8 view .LVU426
 1146 0500 5440     		eors	r4, r4, r2
 1147              	.LVL163:
 190:aes.c         ****     z12 = t43 & y13;
 1148              		.loc 1 190 9 view .LVU427
 1149 0502 0699     		ldr	r1, [sp, #24]
 1150 0504 1E9A     		ldr	r2, [sp, #120]
 1151              		.loc 1 236 10 view .LVU428
 1152 0506 C0E90654 		strd	r5, r4, [r0, #24]
 1153              	.LVL164:
 237:aes.c         ****     q[2] = s5;
 1154              		.loc 1 237 5 is_stmt 1 view .LVU429
 190:aes.c         ****     z12 = t43 & y13;
 1155              		.loc 1 190 9 is_stmt 0 view .LVU430
 1156 050a 02EA0104 		and	r4, r2, r1
 1157 050e 0799     		ldr	r1, [sp, #28]
 1158 0510 1F9A     		ldr	r2, [sp, #124]
 1159 0512 0A40     		ands	r2, r2, r1
 202:aes.c         ****     t48 = z5 ^ z13;
 1160              		.loc 1 202 9 view .LVU431
 1161 0514 2299     		ldr	r1, [sp, #136]
 1162 0516 4C40     		eors	r4, r4, r1
 1163 0518 2399     		ldr	r1, [sp, #140]
 1164 051a 4A40     		eors	r2, r2, r1
 228:aes.c         ****     s1 = t64 ^ ~s3;
 1165              		.loc 1 228 8 view .LVU432
 1166 051c 84EA0904 		eor	r4, r4, r9
 1167 0520 5340     		eors	r3, r3, r2
 1168              	.LVL165:
 1169              		.loc 1 237 10 view .LVU433
 1170 0522 C0E90443 		strd	r4, r3, [r0, #16]
 1171              	.LVL166:
 238:aes.c         ****     q[1] = s6;
 1172              		.loc 1 238 5 is_stmt 1 view .LVU434
 211:aes.c         ****     t57 = t50 ^ t53;
 1173              		.loc 1 211 9 is_stmt 0 view .LVU435
 1174 0526 1A9A     		ldr	r2, [sp, #104]
 1175 0528 139B     		ldr	r3, [sp, #76]
 1176 052a 83EA0205 		eor	r5, r3, r2
 1177 052e 089B     		ldr	r3, [sp, #32]
 1178 0530 1B9A     		ldr	r2, [sp, #108]
 1179 0532 83EA0204 		eor	r4, r3, r2
 223:aes.c         ****     s7 = t48 ^ ~t60;
 1180              		.loc 1 223 14 view .LVU436
 1181 0536 029B     		ldr	r3, [sp, #8]
 1182 0538 7440     		eors	r4, r4, r6
 1183 053a 5D40     		eors	r5, r5, r3
 215:aes.c         ****     t61 = z14 ^ t57;
 1184              		.loc 1 215 9 view .LVU437
 1185 053c 149B     		ldr	r3, [sp, #80]
 223:aes.c         ****     s7 = t48 ^ ~t60;
 1186              		.loc 1 223 8 view .LVU438
 1187 053e ED43     		mvns	r5, r5
 1188 0540 E443     		mvns	r4, r4
 1189              		.loc 1 238 10 view .LVU439
 1190 0542 C0E90254 		strd	r5, r4, [r0, #8]
 1191              	.LVL167:
 239:aes.c         ****     q[0] = s7;
 1192              		.loc 1 239 5 is_stmt 1 view .LVU440
 215:aes.c         ****     t61 = z14 ^ t57;
 1193              		.loc 1 215 9 is_stmt 0 view .LVU441
 1194 0546 83EA0A0A 		eor	r10, r3, r10
 1195              	.LVL168:
 215:aes.c         ****     t61 = z14 ^ t57;
 1196              		.loc 1 215 9 view .LVU442
 1197 054a 159B     		ldr	r3, [sp, #84]
 1198 054c 099A     		ldr	r2, [sp, #36]
 1199 054e 83EA0207 		eor	r7, r3, r2
 224:aes.c         ****     t67 = t64 ^ t65;
 1200              		.loc 1 224 14 view .LVU443
 1201 0552 1A9B     		ldr	r3, [sp, #104]
 1202 0554 8AEA030A 		eor	r10, r10, r3
 1203 0558 1B9B     		ldr	r3, [sp, #108]
 1204 055a 87EA030C 		eor	ip, r7, r3
 1205              	.LVL169:
 224:aes.c         ****     t67 = t64 ^ t65;
 1206              		.loc 1 224 8 view .LVU444
 1207 055e 6FEA0C07 		mvn	r7, ip
 1208 0562 6FEA0A03 		mvn	r3, r10
 1209              		.loc 1 239 10 view .LVU445
 1210 0566 C0E90037 		strd	r3, r7, [r0]
 1211              	.LVL170:
 240:aes.c         **** }
 1212              		.loc 1 240 1 view .LVU446
 1213 056a 2FB0     		add	sp, sp, #188
 1214              	.LCFI2:
 1215              		.cfi_def_cfa_offset 36
 1216              		@ sp needed
 1217 056c BDE8F08F 		pop	{r4, r5, r6, r7, r8, r9, r10, fp, pc}
 1218              		.loc 1 240 1 view .LVU447
 1219              		.cfi_endproc
 1220              	.LFE5:
 1222              		.section	.text.br_aes_ct64_ortho,"ax",%progbits
 1223              		.align	1
 1224              		.syntax unified
 1225              		.thumb
 1226              		.thumb_func
 1227              		.fpu softvfp
 1229              	br_aes_ct64_ortho:
 1230              	.LVL171:
 1231              	.LFB6:
 241:aes.c         **** 
 242:aes.c         **** static void br_aes_ct64_ortho(uint64_t *q) {
 1232              		.loc 1 242 44 is_stmt 1 view -0
 1233              		.cfi_startproc
 1234              		@ args = 0, pretend = 0, frame = 64
 1235              		@ frame_needed = 0, uses_anonymous_args = 0
 243:aes.c         **** #define SWAPN(cl, ch, s, x, y)   do { \
 244:aes.c         ****         uint64_t a, b; \
 245:aes.c         ****         a = (x); \
 246:aes.c         ****         b = (y); \
 247:aes.c         ****         (x) = (a & (uint64_t)(cl)) | ((b & (uint64_t)(cl)) << (s)); \
 248:aes.c         ****         (y) = ((a & (uint64_t)(ch)) >> (s)) | (b & (uint64_t)(ch)); \
 249:aes.c         ****     } while (0)
 250:aes.c         **** 
 251:aes.c         **** #define SWAP2(x, y)    SWAPN(0x5555555555555555, 0xAAAAAAAAAAAAAAAA,  1, x, y)
 252:aes.c         **** #define SWAP4(x, y)    SWAPN(0x3333333333333333, 0xCCCCCCCCCCCCCCCC,  2, x, y)
 253:aes.c         **** #define SWAP8(x, y)    SWAPN(0x0F0F0F0F0F0F0F0F, 0xF0F0F0F0F0F0F0F0,  4, x, y)
 254:aes.c         **** 
 255:aes.c         ****     SWAP2(q[0], q[1]);
 1236              		.loc 1 255 5 view .LVU449
 1237              	.LBB22:
 1238              		.loc 1 255 5 view .LVU450
 1239              		.loc 1 255 5 view .LVU451
 1240              	.LBE22:
 242:aes.c         **** #define SWAPN(cl, ch, s, x, y)   do { \
 1241              		.loc 1 242 44 is_stmt 0 view .LVU452
 1242 0000 2DE9F04F 		push	{r4, r5, r6, r7, r8, r9, r10, fp, lr}
 1243              	.LCFI3:
 1244              		.cfi_def_cfa_offset 36
 1245              		.cfi_offset 4, -36
 1246              		.cfi_offset 5, -32
 1247              		.cfi_offset 6, -28
 1248              		.cfi_offset 7, -24
 1249              		.cfi_offset 8, -20
 1250              		.cfi_offset 9, -16
 1251              		.cfi_offset 10, -12
 1252              		.cfi_offset 11, -8
 1253              		.cfi_offset 14, -4
 1254              	.LBB23:
 1255              		.loc 1 255 5 view .LVU453
 1256 0004 D0E90246 		ldrd	r4, r6, [r0, #8]
 1257 0008 D0E90035 		ldrd	r3, r5, [r0]
 1258              	.LVL172:
 1259              		.loc 1 255 5 is_stmt 1 view .LVU454
 1260              		.loc 1 255 5 view .LVU455
 1261 000c 2119     		adds	r1, r4, r4
 1262 000e 46EB0602 		adc	r2, r6, r6
 1263 0012 03F0553C 		and	ip, r3, #1431655765
 1264 0016 05F05537 		and	r7, r5, #1431655765
 1265 001a 01F0AA31 		and	r1, r1, #-1431655766
 1266 001e 02F0AA32 		and	r2, r2, #-1431655766
 1267 0022 5B08     		lsrs	r3, r3, #1
 1268              	.LVL173:
 1269              		.loc 1 255 5 is_stmt 0 view .LVU456
 1270 0024 6D08     		lsrs	r5, r5, #1
 1271              	.LVL174:
 1272              		.loc 1 255 5 view .LVU457
 1273 0026 41EA0C01 		orr	r1, r1, ip
 1274 002a 3A43     		orrs	r2, r2, r7
 1275              		.loc 1 255 5 is_stmt 1 view .LVU458
 1276 002c 05F05535 		and	r5, r5, #1431655765
 1277              	.LBE23:
 1278              	.LBB24:
 256:aes.c         ****     SWAP2(q[2], q[3]);
 1279              		.loc 1 256 5 is_stmt 0 view .LVU459
 1280 0030 D0E904C7 		ldrd	ip, r7, [r0, #16]
 1281              	.LBE24:
 1282              	.LBB25:
 255:aes.c         ****     SWAP2(q[2], q[3]);
 1283              		.loc 1 255 5 view .LVU460
 1284 0034 04F0AA34 		and	r4, r4, #-1431655766
 1285              	.LVL175:
 255:aes.c         ****     SWAP2(q[2], q[3]);
 1286              		.loc 1 255 5 view .LVU461
 1287 0038 06F0AA36 		and	r6, r6, #-1431655766
 1288              	.LVL176:
 255:aes.c         ****     SWAP2(q[2], q[3]);
 1289              		.loc 1 255 5 view .LVU462
 1290 003c 03F05533 		and	r3, r3, #1431655765
 1291 0040 2343     		orrs	r3, r3, r4
 1292 0042 45EA0604 		orr	r4, r5, r6
 1293              	.LBE25:
 1294              	.LBB26:
 1295              		.loc 1 256 5 view .LVU463
 1296 0046 D0E9066E 		ldrd	r6, lr, [r0, #24]
 1297              	.LBE26:
 242:aes.c         **** #define SWAPN(cl, ch, s, x, y)   do { \
 1298              		.loc 1 242 44 view .LVU464
 1299 004a 91B0     		sub	sp, sp, #68
 1300              	.LCFI4:
 1301              		.cfi_def_cfa_offset 104
 1302              	.LBB27:
 1303              		.loc 1 256 5 view .LVU465
 1304 004c 0CF05539 		and	r9, ip, #1431655765
 1305 0050 4FEA5C0C 		lsr	ip, ip, #1
 1306 0054 B519     		adds	r5, r6, r6
 1307 0056 07F05538 		and	r8, r7, #1431655765
 1308 005a 0CF0553C 		and	ip, ip, #1431655765
 1309 005e 4FEA5707 		lsr	r7, r7, #1
 1310 0062 06F0AA36 		and	r6, r6, #-1431655766
 1311              	.LBE27:
 1312              	.LBB28:
 255:aes.c         ****     SWAP2(q[2], q[3]);
 1313              		.loc 1 255 5 view .LVU466
 1314 0066 0194     		str	r4, [sp, #4]
 1315              	.LBE28:
 255:aes.c         ****     SWAP2(q[2], q[3]);
 1316              		.loc 1 255 5 is_stmt 1 view .LVU467
 1317              		.loc 1 256 5 view .LVU468
 1318              	.LBB29:
 1319              		.loc 1 256 5 view .LVU469
 1320              		.loc 1 256 5 view .LVU470
 1321              		.loc 1 256 5 view .LVU471
 1322              		.loc 1 256 5 view .LVU472
 1323 0068 4CEA0606 		orr	r6, ip, r6
 1324 006c 4EEB0E04 		adc	r4, lr, lr
 1325 0070 07F05537 		and	r7, r7, #1431655765
 1326 0074 0EF0AA3E 		and	lr, lr, #-1431655766
 1327 0078 0296     		str	r6, [sp, #8]
 1328 007a 47EA0E06 		orr	r6, r7, lr
 1329 007e 0396     		str	r6, [sp, #12]
 1330              	.LBE29:
 1331              	.LBB30:
 257:aes.c         ****     SWAP2(q[4], q[5]);
 1332              		.loc 1 257 5 is_stmt 0 view .LVU473
 1333 0080 D0E90A6E 		ldrd	r6, lr, [r0, #40]
 1334 0084 D0E908C7 		ldrd	ip, r7, [r0, #32]
 1335              	.LBE30:
 1336              	.LBB31:
 256:aes.c         ****     SWAP2(q[2], q[3]);
 1337              		.loc 1 256 5 view .LVU474
 1338 0088 05F0AA35 		and	r5, r5, #-1431655766
 1339 008c 45EA0905 		orr	r5, r5, r9
 1340 0090 04F0AA34 		and	r4, r4, #-1431655766
 1341              	.LBE31:
 1342              	.LBB32:
 1343              		.loc 1 257 5 view .LVU475
 1344 0094 16EB0609 		adds	r9, r6, r6
 1345              	.LBE32:
 1346              	.LBB33:
 256:aes.c         ****     SWAP2(q[2], q[3]);
 1347              		.loc 1 256 5 view .LVU476
 1348 0098 44EA0804 		orr	r4, r4, r8
 256:aes.c         ****     SWAP2(q[2], q[3]);
 1349              		.loc 1 256 5 is_stmt 1 view .LVU477
 1350              	.LBE33:
 256:aes.c         ****     SWAP2(q[2], q[3]);
 1351              		.loc 1 256 5 view .LVU478
 1352              		.loc 1 257 5 view .LVU479
 1353              	.LBB34:
 1354              		.loc 1 257 5 view .LVU480
 1355              		.loc 1 257 5 view .LVU481
 1356              	.LVL177:
 1357              		.loc 1 257 5 view .LVU482
 1358              		.loc 1 257 5 view .LVU483
 1359 009c 0CF0553B 		and	fp, ip, #1431655765
 1360 00a0 4EEB0E08 		adc	r8, lr, lr
 1361 00a4 4FEA5C0C 		lsr	ip, ip, #1
 1362              	.LVL178:
 1363              		.loc 1 257 5 is_stmt 0 view .LVU484
 1364 00a8 07F0553A 		and	r10, r7, #1431655765
 1365 00ac 0CF0553C 		and	ip, ip, #1431655765
 1366 00b0 08F0AA38 		and	r8, r8, #-1431655766
 1367 00b4 7F08     		lsrs	r7, r7, #1
 1368              	.LVL179:
 1369              		.loc 1 257 5 view .LVU485
 1370 00b6 06F0AA36 		and	r6, r6, #-1431655766
 1371              	.LVL180:
 1372              		.loc 1 257 5 view .LVU486
 1373 00ba 48EA0A08 		orr	r8, r8, r10
 1374 00be 4CEA0606 		orr	r6, ip, r6
 1375 00c2 07F05537 		and	r7, r7, #1431655765
 1376 00c6 0EF0AA3E 		and	lr, lr, #-1431655766
 1377              	.LVL181:
 1378              		.loc 1 257 5 view .LVU487
 1379 00ca 09F0AA39 		and	r9, r9, #-1431655766
 1380 00ce 49EA0B09 		orr	r9, r9, fp
 1381 00d2 CDF81480 		str	r8, [sp, #20]
 1382              		.loc 1 257 5 is_stmt 1 view .LVU488
 1383 00d6 0696     		str	r6, [sp, #24]
 1384 00d8 47EA0E06 		orr	r6, r7, lr
 1385              	.LBE34:
 1386              	.LBB35:
 258:aes.c         ****     SWAP2(q[6], q[7]);
 1387              		.loc 1 258 5 is_stmt 0 view .LVU489
 1388 00dc D0E90C8E 		ldrd	r8, lr, [r0, #48]
 1389              	.LBE35:
 1390              	.LBB36:
 257:aes.c         ****     SWAP2(q[4], q[5]);
 1391              		.loc 1 257 5 view .LVU490
 1392 00e0 CDF81090 		str	r9, [sp, #16]
 1393 00e4 0796     		str	r6, [sp, #28]
 1394              	.LBE36:
 257:aes.c         ****     SWAP2(q[4], q[5]);
 1395              		.loc 1 257 5 is_stmt 1 view .LVU491
 1396              		.loc 1 258 5 view .LVU492
 1397              	.LBB37:
 1398              		.loc 1 258 5 view .LVU493
 1399              		.loc 1 258 5 view .LVU494
 1400              	.LVL182:
 1401              		.loc 1 258 5 view .LVU495
 1402 00e6 D0E90E69 		ldrd	r6, r9, [r0, #56]
 1403              	.LVL183:
 1404              		.loc 1 258 5 view .LVU496
 1405 00ea 08F0553C 		and	ip, r8, #1431655765
 1406 00ee 4FEA5808 		lsr	r8, r8, #1
 1407              	.LVL184:
 1408              		.loc 1 258 5 is_stmt 0 view .LVU497
 1409 00f2 16EB060B 		adds	fp, r6, r6
 1410 00f6 0EF05537 		and	r7, lr, #1431655765
 1411 00fa 08F05538 		and	r8, r8, #1431655765
 1412 00fe 4FEA5E0E 		lsr	lr, lr, #1
 1413              	.LVL185:
 1414              		.loc 1 258 5 view .LVU498
 1415 0102 06F0AA36 		and	r6, r6, #-1431655766
 1416              	.LVL186:
 1417              		.loc 1 258 5 view .LVU499
 1418 0106 49EB090A 		adc	r10, r9, r9
 1419 010a 48EA0606 		orr	r6, r8, r6
 1420 010e 0EF0553E 		and	lr, lr, #1431655765
 1421 0112 09F0AA39 		and	r9, r9, #-1431655766
 1422              	.LVL187:
 1423              		.loc 1 258 5 view .LVU500
 1424 0116 0896     		str	r6, [sp, #32]
 1425 0118 4EEA0906 		orr	r6, lr, r9
 1426              	.LBE37:
 1427              	.LBB38:
 259:aes.c         **** 
 260:aes.c         ****     SWAP4(q[0], q[2]);
 1428              		.loc 1 260 5 view .LVU501
 1429 011c 01F03339 		and	r9, r1, #858993459
 1430 0120 8908     		lsrs	r1, r1, #2
 1431 0122 02F03338 		and	r8, r2, #858993459
 1432 0126 4FEA850E 		lsl	lr, r5, #2
 1433 012a 9208     		lsrs	r2, r2, #2
 1434 012c 05F0CC35 		and	r5, r5, #-858993460
 1435 0130 01F03331 		and	r1, r1, #858993459
 1436              	.LBE38:
 1437              	.LBB39:
 258:aes.c         ****     SWAP2(q[6], q[7]);
 1438              		.loc 1 258 5 view .LVU502
 1439 0134 0996     		str	r6, [sp, #36]
 1440              	.LBE39:
 1441              	.LBB40:
 1442              		.loc 1 260 5 view .LVU503
 1443 0136 2943     		orrs	r1, r1, r5
 1444 0138 A600     		lsls	r6, r4, #2
 1445 013a 02F03332 		and	r2, r2, #858993459
 1446 013e 04F0CC34 		and	r4, r4, #-858993460
 1447 0142 0C91     		str	r1, [sp, #48]
 1448 0144 2243     		orrs	r2, r2, r4
 1449              	.LBE40:
 1450              	.LBB41:
 261:aes.c         ****     SWAP4(q[1], q[3]);
 1451              		.loc 1 261 5 view .LVU504
 1452 0146 0299     		ldr	r1, [sp, #8]
 1453              	.LBE41:
 1454              	.LBB42:
 260:aes.c         ****     SWAP4(q[1], q[3]);
 1455              		.loc 1 260 5 view .LVU505
 1456 0148 0D92     		str	r2, [sp, #52]
 1457 014a 0EF0CC3E 		and	lr, lr, #-858993460
 1458 014e 06F0CC36 		and	r6, r6, #-858993460
 1459              	.LBE42:
 1460              	.LBB43:
 1461              		.loc 1 261 5 view .LVU506
 1462 0152 039A     		ldr	r2, [sp, #12]
 1463              	.LBE43:
 1464              	.LBB44:
 260:aes.c         ****     SWAP4(q[1], q[3]);
 1465              		.loc 1 260 5 view .LVU507
 1466 0154 4EEA090E 		orr	lr, lr, r9
 1467 0158 46EA0806 		orr	r6, r6, r8
 1468 015c CDF828E0 		str	lr, [sp, #40]
 1469 0160 0B96     		str	r6, [sp, #44]
 1470              	.LBE44:
 1471              	.LBB45:
 1472              		.loc 1 261 5 view .LVU508
 1473 0162 8900     		lsls	r1, r1, #2
 1474 0164 019C     		ldr	r4, [sp, #4]
 1475              	.LBE45:
 1476              	.LBB46:
 262:aes.c         ****     SWAP4(q[4], q[6]);
 263:aes.c         ****     SWAP4(q[5], q[7]);
 1477              		.loc 1 263 5 view .LVU509
 1478 0166 069E     		ldr	r6, [sp, #24]
 1479              	.LBE46:
 1480              	.LBB47:
 261:aes.c         ****     SWAP4(q[4], q[6]);
 1481              		.loc 1 261 5 view .LVU510
 1482 0168 03F03335 		and	r5, r3, #858993459
 1483 016c 9200     		lsls	r2, r2, #2
 1484 016e 01F0CC31 		and	r1, r1, #-858993460
 1485 0172 2943     		orrs	r1, r1, r5
 1486 0174 04F03334 		and	r4, r4, #858993459
 1487 0178 02F0CC32 		and	r2, r2, #-858993460
 1488 017c 0E91     		str	r1, [sp, #56]
 1489 017e 2243     		orrs	r2, r2, r4
 1490 0180 0299     		ldr	r1, [sp, #8]
 1491 0182 0F92     		str	r2, [sp, #60]
 1492 0184 9A08     		lsrs	r2, r3, #2
 1493 0186 01F0CC34 		and	r4, r1, #-858993460
 1494 018a 019B     		ldr	r3, [sp, #4]
 1495 018c 0399     		ldr	r1, [sp, #12]
 1496 018e 02F03332 		and	r2, r2, #858993459
 1497 0192 2243     		orrs	r2, r2, r4
 1498 0194 0192     		str	r2, [sp, #4]
 1499 0196 9B08     		lsrs	r3, r3, #2
 1500              	.LBE47:
 1501              	.LBB48:
 262:aes.c         ****     SWAP4(q[4], q[6]);
 1502              		.loc 1 262 5 view .LVU511
 1503 0198 049A     		ldr	r2, [sp, #16]
 1504              	.LBE48:
 1505              	.LBB49:
 258:aes.c         **** 
 1506              		.loc 1 258 5 view .LVU512
 1507 019a 0AF0AA3A 		and	r10, r10, #-1431655766
 1508              	.LBE49:
 1509              	.LBB50:
 261:aes.c         ****     SWAP4(q[4], q[6]);
 1510              		.loc 1 261 5 view .LVU513
 1511 019e 01F0CC31 		and	r1, r1, #-858993460
 1512 01a2 03F03333 		and	r3, r3, #858993459
 1513              	.LBE50:
 1514              	.LBB51:
 258:aes.c         **** 
 1515              		.loc 1 258 5 view .LVU514
 1516 01a6 4AEA0707 		orr	r7, r10, r7
 258:aes.c         **** 
 1517              		.loc 1 258 5 is_stmt 1 view .LVU515
 1518              	.LBE51:
 258:aes.c         **** 
 1519              		.loc 1 258 5 view .LVU516
 260:aes.c         ****     SWAP4(q[1], q[3]);
 1520              		.loc 1 260 5 view .LVU517
 1521              	.LBB52:
 260:aes.c         ****     SWAP4(q[1], q[3]);
 1522              		.loc 1 260 5 view .LVU518
 260:aes.c         ****     SWAP4(q[1], q[3]);
 1523              		.loc 1 260 5 view .LVU519
 260:aes.c         ****     SWAP4(q[1], q[3]);
 1524              		.loc 1 260 5 view .LVU520
 260:aes.c         ****     SWAP4(q[1], q[3]);
 1525              		.loc 1 260 5 view .LVU521
 260:aes.c         ****     SWAP4(q[1], q[3]);
 1526              		.loc 1 260 5 view .LVU522
 1527              	.LBE52:
 260:aes.c         ****     SWAP4(q[1], q[3]);
 1528              		.loc 1 260 5 view .LVU523
 261:aes.c         ****     SWAP4(q[4], q[6]);
 1529              		.loc 1 261 5 view .LVU524
 1530              	.LBB53:
 261:aes.c         ****     SWAP4(q[4], q[6]);
 1531              		.loc 1 261 5 view .LVU525
 261:aes.c         ****     SWAP4(q[4], q[6]);
 1532              		.loc 1 261 5 view .LVU526
 261:aes.c         ****     SWAP4(q[4], q[6]);
 1533              		.loc 1 261 5 view .LVU527
 261:aes.c         ****     SWAP4(q[4], q[6]);
 1534              		.loc 1 261 5 view .LVU528
 261:aes.c         ****     SWAP4(q[4], q[6]);
 1535              		.loc 1 261 5 view .LVU529
 1536 01aa 0B43     		orrs	r3, r3, r1
 1537              	.LBE53:
 261:aes.c         ****     SWAP4(q[4], q[6]);
 1538              		.loc 1 261 5 view .LVU530
 262:aes.c         ****     SWAP4(q[5], q[7]);
 1539              		.loc 1 262 5 view .LVU531
 1540              	.LBB54:
 262:aes.c         ****     SWAP4(q[5], q[7]);
 1541              		.loc 1 262 5 view .LVU532
 262:aes.c         ****     SWAP4(q[5], q[7]);
 1542              		.loc 1 262 5 view .LVU533
 1543              	.LVL188:
 262:aes.c         ****     SWAP4(q[5], q[7]);
 1544              		.loc 1 262 5 view .LVU534
 1545 01ac 02F03331 		and	r1, r2, #858993459
 1546 01b0 059A     		ldr	r2, [sp, #20]
 1547              	.LVL189:
 262:aes.c         ****     SWAP4(q[5], q[7]);
 1548              		.loc 1 262 5 is_stmt 0 view .LVU535
 1549 01b2 BC00     		lsls	r4, r7, #2
 1550 01b4 02F03332 		and	r2, r2, #858993459
 1551 01b8 04F0CC34 		and	r4, r4, #-858993460
 1552 01bc 1443     		orrs	r4, r4, r2
 1553              	.LBE54:
 1554              	.LBB55:
 258:aes.c         **** 
 1555              		.loc 1 258 5 view .LVU536
 1556 01be 0BF0AA3B 		and	fp, fp, #-1431655766
 1557              	.LBE55:
 1558              	.LBB56:
 262:aes.c         ****     SWAP4(q[5], q[7]);
 1559              		.loc 1 262 5 view .LVU537
 1560 01c2 049A     		ldr	r2, [sp, #16]
 1561              	.LBE56:
 1562              	.LBB57:
 258:aes.c         **** 
 1563              		.loc 1 258 5 view .LVU538
 1564 01c4 4BEA0C0C 		orr	ip, fp, ip
 1565              	.LVL190:
 258:aes.c         **** 
 1566              		.loc 1 258 5 view .LVU539
 1567              	.LBE57:
 1568              	.LBB58:
 262:aes.c         ****     SWAP4(q[5], q[7]);
 1569              		.loc 1 262 5 is_stmt 1 view .LVU540
 262:aes.c         ****     SWAP4(q[5], q[7]);
 1570              		.loc 1 262 5 view .LVU541
 1571 01c8 4FEA8C05 		lsl	r5, ip, #2
 1572 01cc 4FEA920B 		lsr	fp, r2, #2
 1573 01d0 059A     		ldr	r2, [sp, #20]
 1574 01d2 05F0CC35 		and	r5, r5, #-858993460
 1575 01d6 0D43     		orrs	r5, r5, r1
 1576 01d8 4FEA920A 		lsr	r10, r2, #2
 1577              	.LBE58:
 1578              	.LBB59:
 1579              		.loc 1 263 5 is_stmt 0 view .LVU542
 1580 01dc 0899     		ldr	r1, [sp, #32]
 1581 01de 099A     		ldr	r2, [sp, #36]
 1582              	.LBE59:
 1583              	.LBB60:
 262:aes.c         ****     SWAP4(q[5], q[7]);
 1584              		.loc 1 262 5 view .LVU543
 1585 01e0 0AF03338 		and	r8, r10, #858993459
 1586 01e4 07F0CC3A 		and	r10, r7, #-858993460
 1587              	.LBE60:
 1588              	.LBB61:
 1589              		.loc 1 263 5 view .LVU544
 1590 01e8 06F03337 		and	r7, r6, #858993459
 1591              	.LVL191:
 1592              		.loc 1 263 5 view .LVU545
 1593 01ec 079E     		ldr	r6, [sp, #28]
 1594 01ee 9200     		lsls	r2, r2, #2
 1595 01f0 8900     		lsls	r1, r1, #2
 1596 01f2 06F03336 		and	r6, r6, #858993459
 1597 01f6 01F0CC31 		and	r1, r1, #-858993460
 1598 01fa 02F0CC32 		and	r2, r2, #-858993460
 1599 01fe 3943     		orrs	r1, r1, r7
 1600 0200 3243     		orrs	r2, r2, r6
 1601 0202 079F     		ldr	r7, [sp, #28]
 1602 0204 069E     		ldr	r6, [sp, #24]
 1603 0206 4FEA970E 		lsr	lr, r7, #2
 1604              	.LBE61:
 1605              	.LBB62:
 262:aes.c         ****     SWAP4(q[5], q[7]);
 1606              		.loc 1 262 5 view .LVU546
 1607 020a 0BF03339 		and	r9, fp, #858993459
 1608 020e 0CF0CC3C 		and	ip, ip, #-858993460
 1609              	.LVL192:
 262:aes.c         ****     SWAP4(q[5], q[7]);
 1610              		.loc 1 262 5 view .LVU547
 1611              	.LBE62:
 1612              	.LBB63:
 1613              		.loc 1 263 5 view .LVU548
 1614 0212 B608     		lsrs	r6, r6, #2
 1615              	.LBE63:
 1616              	.LBB64:
 262:aes.c         ****     SWAP4(q[5], q[7]);
 1617              		.loc 1 262 5 view .LVU549
 1618 0214 49EA0C0B 		orr	fp, r9, ip
 1619 0218 48EA0A0A 		orr	r10, r8, r10
 1620              	.LBE64:
 262:aes.c         ****     SWAP4(q[5], q[7]);
 1621              		.loc 1 262 5 is_stmt 1 view .LVU550
 1622              		.loc 1 263 5 view .LVU551
 1623              	.LBB65:
 1624              		.loc 1 263 5 view .LVU552
 1625              		.loc 1 263 5 view .LVU553
 1626              	.LVL193:
 1627              		.loc 1 263 5 view .LVU554
 1628              		.loc 1 263 5 view .LVU555
 1629              		.loc 1 263 5 view .LVU556
 1630 021c 06F03337 		and	r7, r6, #858993459
 1631              	.LVL194:
 1632              		.loc 1 263 5 is_stmt 0 view .LVU557
 1633              	.LBE65:
 1634              	.LBB66:
 264:aes.c         **** 
 265:aes.c         ****     SWAP8(q[0], q[4]);
 1635              		.loc 1 265 5 view .LVU558
 1636 0220 DDF82880 		ldr	r8, [sp, #40]
 1637              	.LBE66:
 1638              	.LBB67:
 263:aes.c         **** 
 1639              		.loc 1 263 5 view .LVU559
 1640 0224 089E     		ldr	r6, [sp, #32]
 1641 0226 0EF0333C 		and	ip, lr, #858993459
 1642 022a DDF824E0 		ldr	lr, [sp, #36]
 1643              	.LBE67:
 1644              	.LBB68:
 1645              		.loc 1 265 5 view .LVU560
 1646 022e 08F00F39 		and	r9, r8, #252645135
 1647              	.LBE68:
 1648              	.LBB69:
 263:aes.c         **** 
 1649              		.loc 1 263 5 view .LVU561
 1650 0232 06F0CC36 		and	r6, r6, #-858993460
 1651              	.LBE69:
 1652              	.LBB70:
 1653              		.loc 1 265 5 view .LVU562
 1654 0236 DDF82C80 		ldr	r8, [sp, #44]
 1655              	.LBE70:
 1656              	.LBB71:
 263:aes.c         **** 
 1657              		.loc 1 263 5 view .LVU563
 1658 023a 0EF0CC3E 		and	lr, lr, #-858993460
 1659 023e 3E43     		orrs	r6, r6, r7
 1660 0240 4CEA0E0E 		orr	lr, ip, lr
 1661              	.LBE71:
 263:aes.c         **** 
 1662              		.loc 1 263 5 is_stmt 1 view .LVU564
 1663              		.loc 1 265 5 view .LVU565
 1664              	.LBB72:
 1665              		.loc 1 265 5 view .LVU566
 1666              		.loc 1 265 5 view .LVU567
 1667              	.LVL195:
 1668              		.loc 1 265 5 view .LVU568
 1669              		.loc 1 265 5 view .LVU569
 1670 0244 2701     		lsls	r7, r4, #4
 1671 0246 4FEA051C 		lsl	ip, r5, #4
 1672 024a 08F00F38 		and	r8, r8, #252645135
 1673              	.LVL196:
 1674              		.loc 1 265 5 is_stmt 0 view .LVU570
 1675 024e 0CF0F03C 		and	ip, ip, #-252645136
 1676 0252 07F0F037 		and	r7, r7, #-252645136
 1677 0256 4CEA090C 		orr	ip, ip, r9
 1678 025a 47EA0807 		orr	r7, r7, r8
 1679 025e C0E900C7 		strd	ip, r7, [r0]
 1680              	.LVL197:
 1681              		.loc 1 265 5 is_stmt 1 view .LVU571
 1682 0262 0A9F     		ldr	r7, [sp, #40]
 1683 0264 4FEA1719 		lsr	r9, r7, #4
 1684 0268 0B9F     		ldr	r7, [sp, #44]
 1685 026a 4FEA1718 		lsr	r8, r7, #4
 1686              	.LBE72:
 1687              	.LBB73:
 266:aes.c         ****     SWAP8(q[1], q[5]);
 1688              		.loc 1 266 5 is_stmt 0 view .LVU572
 1689 026e 0E9F     		ldr	r7, [sp, #56]
 1690              	.LBE73:
 1691              	.LBB74:
 265:aes.c         ****     SWAP8(q[1], q[5]);
 1692              		.loc 1 265 5 view .LVU573
 1693 0270 09F00F39 		and	r9, r9, #252645135
 1694 0274 08F00F38 		and	r8, r8, #252645135
 1695 0278 05F0F035 		and	r5, r5, #-252645136
 1696              	.LVL198:
 265:aes.c         ****     SWAP8(q[1], q[5]);
 1697              		.loc 1 265 5 view .LVU574
 1698 027c 04F0F034 		and	r4, r4, #-252645136
 1699              	.LVL199:
 265:aes.c         ****     SWAP8(q[1], q[5]);
 1700              		.loc 1 265 5 view .LVU575
 1701 0280 49EA0505 		orr	r5, r9, r5
 1702 0284 48EA0404 		orr	r4, r8, r4
 1703              	.LBE74:
 1704              	.LBB75:
 1705              		.loc 1 266 5 view .LVU576
 1706 0288 07F00F3C 		and	ip, r7, #252645135
 1707 028c 0F9F     		ldr	r7, [sp, #60]
 1708              	.LBE75:
 1709              	.LBB76:
 265:aes.c         ****     SWAP8(q[1], q[5]);
 1710              		.loc 1 265 5 view .LVU577
 1711 028e C0E90854 		strd	r5, r4, [r0, #32]
 1712              	.LVL200:
 265:aes.c         ****     SWAP8(q[1], q[5]);
 1713              		.loc 1 265 5 view .LVU578
 1714              	.LBE76:
 265:aes.c         ****     SWAP8(q[1], q[5]);
 1715              		.loc 1 265 5 is_stmt 1 view .LVU579
 1716              		.loc 1 266 5 view .LVU580
 1717              	.LBB77:
 1718              		.loc 1 266 5 view .LVU581
 1719              		.loc 1 266 5 view .LVU582
 1720              		.loc 1 266 5 view .LVU583
 1721              		.loc 1 266 5 view .LVU584
 1722 0292 1401     		lsls	r4, r2, #4
 1723 0294 0D01     		lsls	r5, r1, #4
 1724 0296 07F00F37 		and	r7, r7, #252645135
 1725              	.LVL201:
 1726              		.loc 1 266 5 is_stmt 0 view .LVU585
 1727 029a 05F0F035 		and	r5, r5, #-252645136
 1728 029e 04F0F034 		and	r4, r4, #-252645136
 1729 02a2 45EA0C05 		orr	r5, r5, ip
 1730 02a6 3C43     		orrs	r4, r4, r7
 1731 02a8 C0E90254 		strd	r5, r4, [r0, #8]
 1732              	.LVL202:
 1733              		.loc 1 266 5 is_stmt 1 view .LVU586
 1734 02ac 0E9C     		ldr	r4, [sp, #56]
 1735 02ae 2509     		lsrs	r5, r4, #4
 1736 02b0 0F9C     		ldr	r4, [sp, #60]
 1737 02b2 2409     		lsrs	r4, r4, #4
 1738 02b4 04F00F34 		and	r4, r4, #252645135
 1739 02b8 02F0F032 		and	r2, r2, #-252645136
 1740              	.LVL203:
 1741              		.loc 1 266 5 is_stmt 0 view .LVU587
 1742 02bc 2243     		orrs	r2, r2, r4
 1743              	.LBE77:
 1744              	.LBB78:
 267:aes.c         ****     SWAP8(q[2], q[6]);
 1745              		.loc 1 267 5 view .LVU588
 1746 02be 0C9C     		ldr	r4, [sp, #48]
 1747              	.LBE78:
 1748              	.LBB79:
 266:aes.c         ****     SWAP8(q[1], q[5]);
 1749              		.loc 1 266 5 view .LVU589
 1750 02c0 05F00F35 		and	r5, r5, #252645135
 1751 02c4 01F0F031 		and	r1, r1, #-252645136
 1752              	.LVL204:
 266:aes.c         ****     SWAP8(q[1], q[5]);
 1753              		.loc 1 266 5 view .LVU590
 1754 02c8 2943     		orrs	r1, r1, r5
 1755              	.LBE79:
 1756              	.LBB80:
 1757              		.loc 1 267 5 view .LVU591
 1758 02ca 04F00F35 		and	r5, r4, #252645135
 1759 02ce 0D9C     		ldr	r4, [sp, #52]
 1760              	.LBE80:
 1761              	.LBB81:
 266:aes.c         ****     SWAP8(q[1], q[5]);
 1762              		.loc 1 266 5 view .LVU592
 1763 02d0 C0E90A12 		strd	r1, r2, [r0, #40]
 1764              	.LVL205:
 266:aes.c         ****     SWAP8(q[1], q[5]);
 1765              		.loc 1 266 5 view .LVU593
 1766              	.LBE81:
 266:aes.c         ****     SWAP8(q[1], q[5]);
 1767              		.loc 1 266 5 is_stmt 1 view .LVU594
 1768              		.loc 1 267 5 view .LVU595
 1769              	.LBB82:
 1770              		.loc 1 267 5 view .LVU596
 1771              		.loc 1 267 5 view .LVU597
 1772              		.loc 1 267 5 view .LVU598
 1773              		.loc 1 267 5 view .LVU599
 1774 02d4 4FEA0A12 		lsl	r2, r10, #4
 1775 02d8 4FEA0B11 		lsl	r1, fp, #4
 1776 02dc 04F00F34 		and	r4, r4, #252645135
 1777              	.LVL206:
 1778              		.loc 1 267 5 is_stmt 0 view .LVU600
 1779 02e0 01F0F031 		and	r1, r1, #-252645136
 1780 02e4 02F0F032 		and	r2, r2, #-252645136
 1781 02e8 2943     		orrs	r1, r1, r5
 1782 02ea 2243     		orrs	r2, r2, r4
 1783 02ec C0E90412 		strd	r1, r2, [r0, #16]
 1784              		.loc 1 267 5 is_stmt 1 view .LVU601
 1785 02f0 0C9A     		ldr	r2, [sp, #48]
 1786 02f2 1509     		lsrs	r5, r2, #4
 1787 02f4 0D9A     		ldr	r2, [sp, #52]
 1788 02f6 1409     		lsrs	r4, r2, #4
 1789 02f8 0BF0F03B 		and	fp, fp, #-252645136
 1790              	.LVL207:
 1791              		.loc 1 267 5 is_stmt 0 view .LVU602
 1792 02fc 0AF0F03A 		and	r10, r10, #-252645136
 1793              	.LVL208:
 1794              		.loc 1 267 5 view .LVU603
 1795 0300 05F00F35 		and	r5, r5, #252645135
 1796 0304 04F00F34 		and	r4, r4, #252645135
 1797 0308 45EA0B05 		orr	r5, r5, fp
 1798 030c 44EA0A04 		orr	r4, r4, r10
 1799 0310 C0E90C54 		strd	r5, r4, [r0, #48]
 1800              	.LVL209:
 1801              		.loc 1 267 5 view .LVU604
 1802              	.LBE82:
 1803              		.loc 1 267 5 is_stmt 1 view .LVU605
 268:aes.c         ****     SWAP8(q[3], q[7]);
 1804              		.loc 1 268 5 view .LVU606
 1805              	.LBB83:
 1806              		.loc 1 268 5 view .LVU607
 1807              		.loc 1 268 5 view .LVU608
 1808              		.loc 1 268 5 view .LVU609
 1809              		.loc 1 268 5 view .LVU610
 1810 0314 019C     		ldr	r4, [sp, #4]
 1811 0316 4FEA0E12 		lsl	r2, lr, #4
 1812 031a 3101     		lsls	r1, r6, #4
 1813 031c 04F00F35 		and	r5, r4, #252645135
 1814 0320 01F0F031 		and	r1, r1, #-252645136
 1815 0324 03F00F34 		and	r4, r3, #252645135
 1816 0328 02F0F032 		and	r2, r2, #-252645136
 1817 032c 2243     		orrs	r2, r2, r4
 1818 032e 2943     		orrs	r1, r1, r5
 1819 0330 C0E90612 		strd	r1, r2, [r0, #24]
 1820              		.loc 1 268 5 view .LVU611
 1821 0334 019A     		ldr	r2, [sp, #4]
 1822 0336 1B09     		lsrs	r3, r3, #4
 1823              	.LVL210:
 1824              		.loc 1 268 5 is_stmt 0 view .LVU612
 1825 0338 1209     		lsrs	r2, r2, #4
 1826 033a 02F00F32 		and	r2, r2, #252645135
 1827 033e 0EF0F03E 		and	lr, lr, #-252645136
 1828              	.LVL211:
 1829              		.loc 1 268 5 view .LVU613
 1830 0342 03F00F33 		and	r3, r3, #252645135
 1831 0346 06F0F036 		and	r6, r6, #-252645136
 1832              	.LVL212:
 1833              		.loc 1 268 5 view .LVU614
 1834 034a 1643     		orrs	r6, r6, r2
 1835 034c 43EA0E03 		orr	r3, r3, lr
 1836 0350 C0E90E63 		strd	r6, r3, [r0, #56]
 1837              	.LVL213:
 1838              		.loc 1 268 5 view .LVU615
 1839              	.LBE83:
 1840              		.loc 1 268 5 is_stmt 1 view .LVU616
 269:aes.c         **** }
 1841              		.loc 1 269 1 is_stmt 0 view .LVU617
 1842 0354 11B0     		add	sp, sp, #68
 1843              	.LCFI5:
 1844              		.cfi_def_cfa_offset 36
 1845              		@ sp needed
 1846 0356 BDE8F08F 		pop	{r4, r5, r6, r7, r8, r9, r10, fp, pc}
 1847              		.loc 1 269 1 view .LVU618
 1848              		.cfi_endproc
 1849              	.LFE6:
 1851              		.section	.text.br_aes_ct64_interleave_in,"ax",%progbits
 1852              		.align	1
 1853              		.syntax unified
 1854              		.thumb
 1855              		.thumb_func
 1856              		.fpu softvfp
 1858              	br_aes_ct64_interleave_in:
 1859              	.LVL214:
 1860              	.LFB7:
 270:aes.c         **** 
 271:aes.c         **** static void br_aes_ct64_interleave_in(uint64_t *q0, uint64_t *q1, const uint32_t *w) {
 1861              		.loc 1 271 86 is_stmt 1 view -0
 1862              		.cfi_startproc
 1863              		@ args = 0, pretend = 0, frame = 0
 1864              		@ frame_needed = 0, uses_anonymous_args = 0
 272:aes.c         ****     uint64_t x0, x1, x2, x3;
 1865              		.loc 1 272 5 view .LVU620
 273:aes.c         **** 
 274:aes.c         ****     x0 = w[0];
 1866              		.loc 1 274 5 view .LVU621
 271:aes.c         ****     uint64_t x0, x1, x2, x3;
 1867              		.loc 1 271 86 is_stmt 0 view .LVU622
 1868 0000 2DE9F041 		push	{r4, r5, r6, r7, r8, lr}
 1869              	.LCFI6:
 1870              		.cfi_def_cfa_offset 24
 1871              		.cfi_offset 4, -24
 1872              		.cfi_offset 5, -20
 1873              		.cfi_offset 6, -16
 1874              		.cfi_offset 7, -12
 1875              		.cfi_offset 8, -8
 1876              		.cfi_offset 14, -4
 275:aes.c         ****     x1 = w[1];
 276:aes.c         ****     x2 = w[2];
 277:aes.c         ****     x3 = w[3];
 1877              		.loc 1 277 8 view .LVU623
 1878 0004 D2E90273 		ldrd	r7, r3, [r2, #8]
 275:aes.c         ****     x1 = w[1];
 1879              		.loc 1 275 8 view .LVU624
 1880 0008 D2E90045 		ldrd	r4, r5, [r2]
 1881              	.LVL215:
 276:aes.c         ****     x3 = w[3];
 1882              		.loc 1 276 5 is_stmt 1 view .LVU625
 278:aes.c         ****     x0 |= (x0 << 16);
 1883              		.loc 1 278 5 view .LVU626
 279:aes.c         ****     x1 |= (x1 << 16);
 1884              		.loc 1 279 5 view .LVU627
 280:aes.c         ****     x2 |= (x2 << 16);
 1885              		.loc 1 280 5 view .LVU628
 281:aes.c         ****     x3 |= (x3 << 16);
 1886              		.loc 1 281 5 view .LVU629
 282:aes.c         ****     x0 &= (uint64_t)0x0000FFFF0000FFFF;
 1887              		.loc 1 282 5 view .LVU630
 283:aes.c         ****     x1 &= (uint64_t)0x0000FFFF0000FFFF;
 284:aes.c         ****     x2 &= (uint64_t)0x0000FFFF0000FFFF;
 1888              		.loc 1 284 8 is_stmt 0 view .LVU631
 1889 000c 1FFA87FC 		uxth	ip, r7
 1890 0010 3A0C     		lsrs	r2, r7, #16
 1891              	.LVL216:
 282:aes.c         ****     x0 &= (uint64_t)0x0000FFFF0000FFFF;
 1892              		.loc 1 282 8 view .LVU632
 1893 0012 1FFA84F8 		uxth	r8, r4
 1894 0016 4FEA144E 		lsr	lr, r4, #16
 1895              	.LVL217:
 283:aes.c         ****     x1 &= (uint64_t)0x0000FFFF0000FFFF;
 1896              		.loc 1 283 5 is_stmt 1 view .LVU633
 285:aes.c         ****     x3 &= (uint64_t)0x0000FFFF0000FFFF;
 286:aes.c         ****     x0 |= (x0 << 8);
 287:aes.c         ****     x1 |= (x1 << 8);
 288:aes.c         ****     x2 |= (x2 << 8);
 1897              		.loc 1 288 8 is_stmt 0 view .LVU634
 1898 001a 4CEA0C2C 		orr	ip, ip, ip, lsl #8
 1899 001e 42EA0224 		orr	r4, r2, r2, lsl #8
 286:aes.c         ****     x1 |= (x1 << 8);
 1900              		.loc 1 286 8 view .LVU635
 1901 0022 48EA0828 		orr	r8, r8, r8, lsl #8
 1902              	.LVL218:
 286:aes.c         ****     x1 |= (x1 << 8);
 1903              		.loc 1 286 8 view .LVU636
 1904 0026 4EEA0E2E 		orr	lr, lr, lr, lsl #8
 1905              	.LVL219:
 289:aes.c         ****     x3 |= (x3 << 8);
 290:aes.c         ****     x0 &= (uint64_t)0x00FF00FF00FF00FF;
 291:aes.c         ****     x1 &= (uint64_t)0x00FF00FF00FF00FF;
 292:aes.c         ****     x2 &= (uint64_t)0x00FF00FF00FF00FF;
 293:aes.c         ****     x3 &= (uint64_t)0x00FF00FF00FF00FF;
 294:aes.c         ****     *q0 = x0 | (x2 << 8);
 1906              		.loc 1 294 20 view .LVU637
 1907 002a 2402     		lsls	r4, r4, #8
 1908 002c 4FEA0C22 		lsl	r2, ip, #8
 1909 0030 02F0FF22 		and	r2, r2, #-16711936
 1910 0034 04F0FF24 		and	r4, r4, #-16711936
 290:aes.c         ****     x1 &= (uint64_t)0x00FF00FF00FF00FF;
 1911              		.loc 1 290 8 view .LVU638
 1912 0038 08F0FF18 		and	r8, r8, #16711935
 1913 003c 0EF0FF1E 		and	lr, lr, #16711935
 285:aes.c         ****     x0 |= (x0 << 8);
 1914              		.loc 1 285 8 view .LVU639
 1915 0040 9FB2     		uxth	r7, r3
 1916              	.LVL220:
 1917              		.loc 1 294 14 view .LVU640
 1918 0042 42EA0802 		orr	r2, r2, r8
 285:aes.c         ****     x0 |= (x0 << 8);
 1919              		.loc 1 285 8 view .LVU641
 1920 0046 1B0C     		lsrs	r3, r3, #16
 1921              	.LVL221:
 1922              		.loc 1 294 14 view .LVU642
 1923 0048 44EA0E04 		orr	r4, r4, lr
 1924              		.loc 1 294 9 view .LVU643
 1925 004c C0E90024 		strd	r2, r4, [r0]
 283:aes.c         ****     x2 &= (uint64_t)0x0000FFFF0000FFFF;
 1926              		.loc 1 283 8 view .LVU644
 1927 0050 AEB2     		uxth	r6, r5
 289:aes.c         ****     x0 &= (uint64_t)0x00FF00FF00FF00FF;
 1928              		.loc 1 289 8 view .LVU645
 1929 0052 47EA0722 		orr	r2, r7, r7, lsl #8
 283:aes.c         ****     x2 &= (uint64_t)0x0000FFFF0000FFFF;
 1930              		.loc 1 283 8 view .LVU646
 1931 0056 2D0C     		lsrs	r5, r5, #16
 1932              	.LVL222:
 284:aes.c         ****     x3 &= (uint64_t)0x0000FFFF0000FFFF;
 1933              		.loc 1 284 5 is_stmt 1 view .LVU647
 285:aes.c         ****     x0 |= (x0 << 8);
 1934              		.loc 1 285 5 view .LVU648
 286:aes.c         ****     x1 |= (x1 << 8);
 1935              		.loc 1 286 5 view .LVU649
 287:aes.c         ****     x2 |= (x2 << 8);
 1936              		.loc 1 287 5 view .LVU650
 289:aes.c         ****     x0 &= (uint64_t)0x00FF00FF00FF00FF;
 1937              		.loc 1 289 8 is_stmt 0 view .LVU651
 1938 0058 43EA0323 		orr	r3, r3, r3, lsl #8
 1939              	.LVL223:
 287:aes.c         ****     x2 |= (x2 << 8);
 1940              		.loc 1 287 8 view .LVU652
 1941 005c 46EA0626 		orr	r6, r6, r6, lsl #8
 1942              	.LVL224:
 287:aes.c         ****     x2 |= (x2 << 8);
 1943              		.loc 1 287 8 view .LVU653
 1944 0060 45EA0525 		orr	r5, r5, r5, lsl #8
 1945              	.LVL225:
 288:aes.c         ****     x3 |= (x3 << 8);
 1946              		.loc 1 288 5 is_stmt 1 view .LVU654
 289:aes.c         ****     x0 &= (uint64_t)0x00FF00FF00FF00FF;
 1947              		.loc 1 289 5 view .LVU655
 290:aes.c         ****     x1 &= (uint64_t)0x00FF00FF00FF00FF;
 1948              		.loc 1 290 5 view .LVU656
 291:aes.c         ****     x2 &= (uint64_t)0x00FF00FF00FF00FF;
 1949              		.loc 1 291 5 view .LVU657
 292:aes.c         ****     x3 &= (uint64_t)0x00FF00FF00FF00FF;
 1950              		.loc 1 292 5 view .LVU658
 293:aes.c         ****     *q0 = x0 | (x2 << 8);
 1951              		.loc 1 293 5 view .LVU659
 1952              		.loc 1 294 5 view .LVU660
 295:aes.c         ****     *q1 = x1 | (x3 << 8);
 1953              		.loc 1 295 5 view .LVU661
 1954              		.loc 1 295 20 is_stmt 0 view .LVU662
 1955 0064 1B02     		lsls	r3, r3, #8
 1956 0066 1202     		lsls	r2, r2, #8
 1957 0068 02F0FF22 		and	r2, r2, #-16711936
 1958 006c 03F0FF23 		and	r3, r3, #-16711936
 291:aes.c         ****     x2 &= (uint64_t)0x00FF00FF00FF00FF;
 1959              		.loc 1 291 8 view .LVU663
 1960 0070 06F0FF16 		and	r6, r6, #16711935
 1961              	.LVL226:
 291:aes.c         ****     x2 &= (uint64_t)0x00FF00FF00FF00FF;
 1962              		.loc 1 291 8 view .LVU664
 1963 0074 05F0FF15 		and	r5, r5, #16711935
 1964              		.loc 1 295 14 view .LVU665
 1965 0078 3243     		orrs	r2, r2, r6
 1966 007a 2B43     		orrs	r3, r3, r5
 1967              		.loc 1 295 9 view .LVU666
 1968 007c C1E90023 		strd	r2, r3, [r1]
 296:aes.c         **** }
 1969              		.loc 1 296 1 view .LVU667
 1970 0080 BDE8F081 		pop	{r4, r5, r6, r7, r8, pc}
 1971              		.cfi_endproc
 1972              	.LFE7:
 1974              		.section	.text.br_aes_ct64_skey_expand,"ax",%progbits
 1975              		.align	1
 1976              		.syntax unified
 1977              		.thumb
 1978              		.thumb_func
 1979              		.fpu softvfp
 1981              	br_aes_ct64_skey_expand:
 1982              	.LVL227:
 1983              	.LFB11:
 297:aes.c         **** 
 298:aes.c         **** static void br_aes_ct64_interleave_out(uint32_t *w, uint64_t q0, uint64_t q1) {
 299:aes.c         ****     uint64_t x0, x1, x2, x3;
 300:aes.c         **** 
 301:aes.c         ****     x0 = q0 & (uint64_t)0x00FF00FF00FF00FF;
 302:aes.c         ****     x1 = q1 & (uint64_t)0x00FF00FF00FF00FF;
 303:aes.c         ****     x2 = (q0 >> 8) & (uint64_t)0x00FF00FF00FF00FF;
 304:aes.c         ****     x3 = (q1 >> 8) & (uint64_t)0x00FF00FF00FF00FF;
 305:aes.c         ****     x0 |= (x0 >> 8);
 306:aes.c         ****     x1 |= (x1 >> 8);
 307:aes.c         ****     x2 |= (x2 >> 8);
 308:aes.c         ****     x3 |= (x3 >> 8);
 309:aes.c         ****     x0 &= (uint64_t)0x0000FFFF0000FFFF;
 310:aes.c         ****     x1 &= (uint64_t)0x0000FFFF0000FFFF;
 311:aes.c         ****     x2 &= (uint64_t)0x0000FFFF0000FFFF;
 312:aes.c         ****     x3 &= (uint64_t)0x0000FFFF0000FFFF;
 313:aes.c         ****     w[0] = (uint32_t)x0 | (uint32_t)(x0 >> 16);
 314:aes.c         ****     w[1] = (uint32_t)x1 | (uint32_t)(x1 >> 16);
 315:aes.c         ****     w[2] = (uint32_t)x2 | (uint32_t)(x2 >> 16);
 316:aes.c         ****     w[3] = (uint32_t)x3 | (uint32_t)(x3 >> 16);
 317:aes.c         **** }
 318:aes.c         **** 
 319:aes.c         **** static const unsigned char Rcon[] = {
 320:aes.c         ****     0x01, 0x02, 0x04, 0x08, 0x10, 0x20, 0x40, 0x80, 0x1B, 0x36
 321:aes.c         **** };
 322:aes.c         **** 
 323:aes.c         **** static uint32_t sub_word(uint32_t x) {
 324:aes.c         ****     uint64_t q[8];
 325:aes.c         **** 
 326:aes.c         ****     memset(q, 0, sizeof q);
 327:aes.c         ****     q[0] = x;
 328:aes.c         ****     br_aes_ct64_ortho(q);
 329:aes.c         ****     br_aes_ct64_bitslice_Sbox(q);
 330:aes.c         ****     br_aes_ct64_ortho(q);
 331:aes.c         ****     return (uint32_t)q[0];
 332:aes.c         **** }
 333:aes.c         **** 
 334:aes.c         **** static void br_aes_ct64_keysched(uint64_t *comp_skey, const unsigned char *key, unsigned int key_le
 335:aes.c         ****     unsigned int i, j, k, nk, nkf;
 336:aes.c         ****     uint32_t tmp;
 337:aes.c         ****     uint32_t skey[60];
 338:aes.c         ****     unsigned nrounds = 10 + ((key_len - 16) >> 2);
 339:aes.c         **** 
 340:aes.c         ****     nk = (key_len >> 2);
 341:aes.c         ****     nkf = ((nrounds + 1) << 2);
 342:aes.c         ****     br_range_dec32le(skey, (key_len >> 2), key);
 343:aes.c         ****     tmp = skey[(key_len >> 2) - 1];
 344:aes.c         ****     for (i = nk, j = 0, k = 0; i < nkf; i ++) {
 345:aes.c         ****         if (j == 0) {
 346:aes.c         ****             tmp = (tmp << 24) | (tmp >> 8);
 347:aes.c         ****             tmp = sub_word(tmp) ^ Rcon[k];
 348:aes.c         ****         } else if (nk > 6 && j == 4) {
 349:aes.c         ****             tmp = sub_word(tmp);
 350:aes.c         ****         }
 351:aes.c         ****         tmp ^= skey[i - nk];
 352:aes.c         ****         skey[i] = tmp;
 353:aes.c         ****         if (++ j == nk) {
 354:aes.c         ****             j = 0;
 355:aes.c         ****             k ++;
 356:aes.c         ****         }
 357:aes.c         ****     }
 358:aes.c         **** 
 359:aes.c         ****     for (i = 0, j = 0; i < nkf; i += 4, j += 2) {
 360:aes.c         ****         uint64_t q[8];
 361:aes.c         **** 
 362:aes.c         ****         br_aes_ct64_interleave_in(&q[0], &q[4], skey + i);
 363:aes.c         ****         q[1] = q[0];
 364:aes.c         ****         q[2] = q[0];
 365:aes.c         ****         q[3] = q[0];
 366:aes.c         ****         q[5] = q[4];
 367:aes.c         ****         q[6] = q[4];
 368:aes.c         ****         q[7] = q[4];
 369:aes.c         ****         br_aes_ct64_ortho(q);
 370:aes.c         ****         comp_skey[j + 0] =
 371:aes.c         ****             (q[0] & (uint64_t)0x1111111111111111)
 372:aes.c         ****             | (q[1] & (uint64_t)0x2222222222222222)
 373:aes.c         ****             | (q[2] & (uint64_t)0x4444444444444444)
 374:aes.c         ****             | (q[3] & (uint64_t)0x8888888888888888);
 375:aes.c         ****         comp_skey[j + 1] =
 376:aes.c         ****             (q[4] & (uint64_t)0x1111111111111111)
 377:aes.c         ****             | (q[5] & (uint64_t)0x2222222222222222)
 378:aes.c         ****             | (q[6] & (uint64_t)0x4444444444444444)
 379:aes.c         ****             | (q[7] & (uint64_t)0x8888888888888888);
 380:aes.c         ****     }
 381:aes.c         **** }
 382:aes.c         **** 
 383:aes.c         **** static void br_aes_ct64_skey_expand(uint64_t *skey, const uint64_t *comp_skey, unsigned int nrounds
 1984              		.loc 1 383 102 is_stmt 1 view -0
 1985              		.cfi_startproc
 1986              		@ args = 0, pretend = 0, frame = 0
 1987              		@ frame_needed = 0, uses_anonymous_args = 0
 384:aes.c         ****     unsigned u, v, n;
 1988              		.loc 1 384 5 view .LVU669
 385:aes.c         **** 
 386:aes.c         ****     n = (nrounds + 1) << 1;
 1989              		.loc 1 386 5 view .LVU670
 387:aes.c         ****     for (u = 0, v = 0; u < n; u ++, v += 4) {
 1990              		.loc 1 387 5 view .LVU671
 1991              		.loc 1 387 24 view .LVU672
 386:aes.c         ****     for (u = 0, v = 0; u < n; u ++, v += 4) {
 1992              		.loc 1 386 18 is_stmt 0 view .LVU673
 1993 0000 0132     		adds	r2, r2, #1
 1994              	.LVL228:
 383:aes.c         ****     unsigned u, v, n;
 1995              		.loc 1 383 102 view .LVU674
 1996 0002 2DE9F04F 		push	{r4, r5, r6, r7, r8, r9, r10, fp, lr}
 1997              	.LCFI7:
 1998              		.cfi_def_cfa_offset 36
 1999              		.cfi_offset 4, -36
 2000              		.cfi_offset 5, -32
 2001              		.cfi_offset 6, -28
 2002              		.cfi_offset 7, -24
 2003              		.cfi_offset 8, -20
 2004              		.cfi_offset 9, -16
 2005              		.cfi_offset 10, -12
 2006              		.cfi_offset 11, -8
 2007              		.cfi_offset 14, -4
 2008 0006 01EB0216 		add	r6, r1, r2, lsl #4
 2009              	.LVL229:
 2010              	.L8:
 2011              	.LBB84:
 388:aes.c         ****         uint64_t x0, x1, x2, x3;
 2012              		.loc 1 388 9 is_stmt 1 discriminator 3 view .LVU675
 389:aes.c         **** 
 390:aes.c         ****         x0 = x1 = x2 = x3 = comp_skey[u];
 2013              		.loc 1 390 9 discriminator 3 view .LVU676
 2014              		.loc 1 390 27 is_stmt 0 discriminator 3 view .LVU677
 2015 000a D1E90042 		ldrd	r4, r2, [r1]
 391:aes.c         ****         x0 &= (uint64_t)0x1111111111111111;
 2016              		.loc 1 391 12 discriminator 3 view .LVU678
 2017 000e 04F01139 		and	r9, r4, #286331153
 2018 0012 02F0113A 		and	r10, r2, #286331153
 392:aes.c         ****         x1 &= (uint64_t)0x2222222222222222;
 393:aes.c         ****         x2 &= (uint64_t)0x4444444444444444;
 394:aes.c         ****         x3 &= (uint64_t)0x8888888888888888;
 395:aes.c         ****         x1 >>= 1;
 2019              		.loc 1 395 12 discriminator 3 view .LVU679
 2020 0016 5708     		lsrs	r7, r2, #1
 2021 0018 07F01138 		and	r8, r7, #286331153
 396:aes.c         ****         x2 >>= 2;
 397:aes.c         ****         x3 >>= 3;
 398:aes.c         ****         skey[v + 0] = (x0 << 4) - x0;
 2022              		.loc 1 398 27 discriminator 3 view .LVU680
 2023 001c 4FEA091B 		lsl	fp, r9, #4
 2024 0020 4FEA0A17 		lsl	r7, r10, #4
 395:aes.c         ****         x2 >>= 2;
 2025              		.loc 1 395 12 discriminator 3 view .LVU681
 2026 0024 6308     		lsrs	r3, r4, #1
 2027              		.loc 1 398 27 discriminator 3 view .LVU682
 2028 0026 47EA1977 		orr	r7, r7, r9, lsr #28
 2029              		.loc 1 398 33 discriminator 3 view .LVU683
 2030 002a BBEB0909 		subs	r9, fp, r9
 395:aes.c         ****         x2 >>= 2;
 2031              		.loc 1 395 12 discriminator 3 view .LVU684
 2032 002e 03F01133 		and	r3, r3, #286331153
 2033              		.loc 1 398 33 discriminator 3 view .LVU685
 2034 0032 67EB0A07 		sbc	r7, r7, r10
 2035              		.loc 1 398 21 discriminator 3 view .LVU686
 2036 0036 C0E90097 		strd	r9, r7, [r0]
 399:aes.c         ****         skey[v + 1] = (x1 << 4) - x1;
 2037              		.loc 1 399 27 discriminator 3 view .LVU687
 2038 003a 4FEA0817 		lsl	r7, r8, #4
 2039 003e 4FEA0319 		lsl	r9, r3, #4
 396:aes.c         ****         x2 >>= 2;
 2040              		.loc 1 396 12 discriminator 3 view .LVU688
 2041 0042 A508     		lsrs	r5, r4, #2
 2042 0044 4FEA920E 		lsr	lr, r2, #2
 2043              		.loc 1 399 27 discriminator 3 view .LVU689
 2044 0048 47EA1377 		orr	r7, r7, r3, lsr #28
 2045              		.loc 1 399 33 discriminator 3 view .LVU690
 2046 004c B9EB0303 		subs	r3, r9, r3
 396:aes.c         ****         x2 >>= 2;
 2047              		.loc 1 396 12 discriminator 3 view .LVU691
 2048 0050 05F01135 		and	r5, r5, #286331153
 2049              		.loc 1 399 33 discriminator 3 view .LVU692
 2050 0054 67EB0807 		sbc	r7, r7, r8
 396:aes.c         ****         x2 >>= 2;
 2051              		.loc 1 396 12 discriminator 3 view .LVU693
 2052 0058 0EF0113E 		and	lr, lr, #286331153
 2053              		.loc 1 399 21 discriminator 3 view .LVU694
 2054 005c C0E90237 		strd	r3, r7, [r0, #8]
 400:aes.c         ****         skey[v + 2] = (x2 << 4) - x2;
 2055              		.loc 1 400 27 discriminator 3 view .LVU695
 2056 0060 4FEA0E13 		lsl	r3, lr, #4
 2057 0064 2F01     		lsls	r7, r5, #4
 2058 0066 43EA1573 		orr	r3, r3, r5, lsr #28
 2059 006a D208     		lsrs	r2, r2, #3
 2060              		.loc 1 400 33 discriminator 3 view .LVU696
 2061 006c 7D1B     		subs	r5, r7, r5
 2062 006e 4FEAD404 		lsr	r4, r4, #3
 2063 0072 63EB0E03 		sbc	r3, r3, lr
 397:aes.c         ****         skey[v + 0] = (x0 << 4) - x0;
 2064              		.loc 1 397 12 discriminator 3 view .LVU697
 2065 0076 02F01132 		and	r2, r2, #286331153
 2066              		.loc 1 400 21 discriminator 3 view .LVU698
 2067 007a C0E90453 		strd	r5, r3, [r0, #16]
 397:aes.c         ****         skey[v + 0] = (x0 << 4) - x0;
 2068              		.loc 1 397 12 discriminator 3 view .LVU699
 2069 007e 04F0113C 		and	ip, r4, #286331153
 401:aes.c         ****         skey[v + 3] = (x3 << 4) - x3;
 2070              		.loc 1 401 27 discriminator 3 view .LVU700
 2071 0082 1301     		lsls	r3, r2, #4
 2072 0084 43EA1473 		orr	r3, r3, r4, lsr #28
 2073 0088 4FEA0C14 		lsl	r4, ip, #4
 2074              		.loc 1 401 33 discriminator 3 view .LVU701
 2075 008c B4EB0C04 		subs	r4, r4, ip
 2076 0090 01F10801 		add	r1, r1, #8
 391:aes.c         ****         x1 &= (uint64_t)0x2222222222222222;
 2077              		.loc 1 391 9 is_stmt 1 discriminator 3 view .LVU702
 392:aes.c         ****         x2 &= (uint64_t)0x4444444444444444;
 2078              		.loc 1 392 9 discriminator 3 view .LVU703
 393:aes.c         ****         x3 &= (uint64_t)0x8888888888888888;
 2079              		.loc 1 393 9 discriminator 3 view .LVU704
 394:aes.c         ****         x1 >>= 1;
 2080              		.loc 1 394 9 discriminator 3 view .LVU705
 395:aes.c         ****         x2 >>= 2;
 2081              		.loc 1 395 9 discriminator 3 view .LVU706
 396:aes.c         ****         x3 >>= 3;
 2082              		.loc 1 396 9 discriminator 3 view .LVU707
 397:aes.c         ****         skey[v + 0] = (x0 << 4) - x0;
 2083              		.loc 1 397 9 discriminator 3 view .LVU708
 2084              	.LVL230:
 398:aes.c         ****         skey[v + 1] = (x1 << 4) - x1;
 2085              		.loc 1 398 9 discriminator 3 view .LVU709
 399:aes.c         ****         skey[v + 2] = (x2 << 4) - x2;
 2086              		.loc 1 399 9 discriminator 3 view .LVU710
 400:aes.c         ****         skey[v + 3] = (x3 << 4) - x3;
 2087              		.loc 1 400 9 discriminator 3 view .LVU711
 2088              		.loc 1 401 9 discriminator 3 view .LVU712
 2089              		.loc 1 401 33 is_stmt 0 discriminator 3 view .LVU713
 2090 0094 63EB0202 		sbc	r2, r3, r2
 2091              	.LVL231:
 2092              		.loc 1 401 33 discriminator 3 view .LVU714
 2093              	.LBE84:
 387:aes.c         ****         uint64_t x0, x1, x2, x3;
 2094              		.loc 1 387 5 discriminator 3 view .LVU715
 2095 0098 8E42     		cmp	r6, r1
 2096              	.LBB85:
 2097              		.loc 1 401 21 discriminator 3 view .LVU716
 2098 009a C0E90642 		strd	r4, r2, [r0, #24]
 2099              	.LBE85:
 387:aes.c         ****         uint64_t x0, x1, x2, x3;
 2100              		.loc 1 387 31 is_stmt 1 discriminator 3 view .LVU717
 387:aes.c         ****         uint64_t x0, x1, x2, x3;
 2101              		.loc 1 387 24 discriminator 3 view .LVU718
 387:aes.c         ****         uint64_t x0, x1, x2, x3;
 2102              		.loc 1 387 5 is_stmt 0 discriminator 3 view .LVU719
 2103 009e 00F12000 		add	r0, r0, #32
 2104 00a2 B2D1     		bne	.L8
 402:aes.c         ****     }
 403:aes.c         **** }
 2105              		.loc 1 403 1 view .LVU720
 2106 00a4 BDE8F08F 		pop	{r4, r5, r6, r7, r8, r9, r10, fp, pc}
 2107              		.cfi_endproc
 2108              	.LFE11:
 2110              		.section	.text.add_round_key,"ax",%progbits
 2111              		.align	1
 2112              		.syntax unified
 2113              		.thumb
 2114              		.thumb_func
 2115              		.fpu softvfp
 2117              	add_round_key:
 2118              	.LVL232:
 2119              	.LFB12:
 404:aes.c         **** 
 405:aes.c         **** static inline void add_round_key(uint64_t *q, const uint64_t *sk) {
 2120              		.loc 1 405 67 is_stmt 1 view -0
 2121              		.cfi_startproc
 2122              		@ args = 0, pretend = 0, frame = 0
 2123              		@ frame_needed = 0, uses_anonymous_args = 0
 406:aes.c         ****     q[0] ^= sk[0];
 2124              		.loc 1 406 5 view .LVU722
 2125              		.loc 1 406 10 is_stmt 0 view .LVU723
 2126 0000 D0E90023 		ldrd	r2, r3, [r0]
 405:aes.c         ****     q[0] ^= sk[0];
 2127              		.loc 1 405 67 view .LVU724
 2128 0004 30B5     		push	{r4, r5, lr}
 2129              	.LCFI8:
 2130              		.cfi_def_cfa_offset 12
 2131              		.cfi_offset 4, -12
 2132              		.cfi_offset 5, -8
 2133              		.cfi_offset 14, -4
 2134              		.loc 1 406 10 view .LVU725
 2135 0006 D1E90054 		ldrd	r5, r4, [r1]
 2136 000a 6A40     		eors	r2, r2, r5
 2137 000c 6340     		eors	r3, r3, r4
 2138 000e C0E90023 		strd	r2, r3, [r0]
 407:aes.c         ****     q[1] ^= sk[1];
 2139              		.loc 1 407 5 is_stmt 1 view .LVU726
 2140              		.loc 1 407 10 is_stmt 0 view .LVU727
 2141 0012 D0E90223 		ldrd	r2, r3, [r0, #8]
 2142 0016 D1E90254 		ldrd	r5, r4, [r1, #8]
 2143 001a 6A40     		eors	r2, r2, r5
 2144 001c 6340     		eors	r3, r3, r4
 2145 001e C0E90223 		strd	r2, r3, [r0, #8]
 408:aes.c         ****     q[2] ^= sk[2];
 2146              		.loc 1 408 5 is_stmt 1 view .LVU728
 2147              		.loc 1 408 10 is_stmt 0 view .LVU729
 2148 0022 D0E90423 		ldrd	r2, r3, [r0, #16]
 2149 0026 D1E90454 		ldrd	r5, r4, [r1, #16]
 2150 002a 6A40     		eors	r2, r2, r5
 2151 002c 6340     		eors	r3, r3, r4
 2152 002e C0E90423 		strd	r2, r3, [r0, #16]
 409:aes.c         ****     q[3] ^= sk[3];
 2153              		.loc 1 409 5 is_stmt 1 view .LVU730
 2154              		.loc 1 409 10 is_stmt 0 view .LVU731
 2155 0032 D0E90623 		ldrd	r2, r3, [r0, #24]
 2156 0036 D1E90654 		ldrd	r5, r4, [r1, #24]
 2157 003a 6A40     		eors	r2, r2, r5
 2158 003c 6340     		eors	r3, r3, r4
 2159 003e C0E90623 		strd	r2, r3, [r0, #24]
 410:aes.c         ****     q[4] ^= sk[4];
 2160              		.loc 1 410 5 is_stmt 1 view .LVU732
 2161              		.loc 1 410 10 is_stmt 0 view .LVU733
 2162 0042 D0E90823 		ldrd	r2, r3, [r0, #32]
 2163 0046 D1E90854 		ldrd	r5, r4, [r1, #32]
 2164 004a 6A40     		eors	r2, r2, r5
 2165 004c 6340     		eors	r3, r3, r4
 2166 004e C0E90823 		strd	r2, r3, [r0, #32]
 411:aes.c         ****     q[5] ^= sk[5];
 2167              		.loc 1 411 5 is_stmt 1 view .LVU734
 2168              		.loc 1 411 10 is_stmt 0 view .LVU735
 2169 0052 D0E90A23 		ldrd	r2, r3, [r0, #40]
 2170 0056 D1E90A54 		ldrd	r5, r4, [r1, #40]
 2171 005a 6A40     		eors	r2, r2, r5
 2172 005c 6340     		eors	r3, r3, r4
 2173 005e C0E90A23 		strd	r2, r3, [r0, #40]
 412:aes.c         ****     q[6] ^= sk[6];
 2174              		.loc 1 412 5 is_stmt 1 view .LVU736
 2175              		.loc 1 412 10 is_stmt 0 view .LVU737
 2176 0062 D0E90C23 		ldrd	r2, r3, [r0, #48]
 2177 0066 D1E90C54 		ldrd	r5, r4, [r1, #48]
 2178 006a 6340     		eors	r3, r3, r4
 2179 006c 6A40     		eors	r2, r2, r5
 2180 006e C0E90C23 		strd	r2, r3, [r0, #48]
 413:aes.c         ****     q[7] ^= sk[7];
 2181              		.loc 1 413 5 is_stmt 1 view .LVU738
 2182              		.loc 1 413 10 is_stmt 0 view .LVU739
 2183 0072 D0E90E23 		ldrd	r2, r3, [r0, #56]
 2184 0076 D1E90E41 		ldrd	r4, r1, [r1, #56]
 2185              	.LVL233:
 2186              		.loc 1 413 10 view .LVU740
 2187 007a 6240     		eors	r2, r2, r4
 2188 007c 4B40     		eors	r3, r3, r1
 2189 007e C0E90E23 		strd	r2, r3, [r0, #56]
 414:aes.c         **** }
 2190              		.loc 1 414 1 view .LVU741
 2191 0082 30BD     		pop	{r4, r5, pc}
 2192              		.cfi_endproc
 2193              	.LFE12:
 2195              		.section	.text.shift_rows,"ax",%progbits
 2196              		.align	1
 2197              		.syntax unified
 2198              		.thumb
 2199              		.thumb_func
 2200              		.fpu softvfp
 2202              	shift_rows:
 2203              	.LVL234:
 2204              	.LFB13:
 415:aes.c         **** 
 416:aes.c         **** static inline void shift_rows(uint64_t *q) {
 2205              		.loc 1 416 44 is_stmt 1 view -0
 2206              		.cfi_startproc
 2207              		@ args = 0, pretend = 0, frame = 0
 2208              		@ frame_needed = 0, uses_anonymous_args = 0
 417:aes.c         ****     int i;
 2209              		.loc 1 417 5 view .LVU743
 418:aes.c         **** 
 419:aes.c         ****     for (i = 0; i < 8; i ++) {
 2210              		.loc 1 419 5 view .LVU744
 2211              		.loc 1 419 17 view .LVU745
 416:aes.c         ****     int i;
 2212              		.loc 1 416 44 is_stmt 0 view .LVU746
 2213 0000 70B5     		push	{r4, r5, r6, lr}
 2214              	.LCFI9:
 2215              		.cfi_def_cfa_offset 16
 2216              		.cfi_offset 4, -16
 2217              		.cfi_offset 5, -12
 2218              		.cfi_offset 6, -8
 2219              		.cfi_offset 14, -4
 2220              	.LBB86:
 420:aes.c         ****         uint64_t x;
 421:aes.c         **** 
 422:aes.c         ****         x = q[i];
 423:aes.c         ****         q[i] = (x & (uint64_t)0x000000000000FFFF)
 424:aes.c         ****                | ((x & (uint64_t)0x00000000FFF00000) >> 4)
 2221              		.loc 1 424 54 view .LVU747
 2222 0002 124D     		ldr	r5, .L14
 2223 0004 A0F10804 		sub	r4, r0, #8
 2224 0008 3830     		adds	r0, r0, #56
 2225              	.LVL235:
 2226              	.L12:
 420:aes.c         ****         uint64_t x;
 2227              		.loc 1 420 9 is_stmt 1 discriminator 3 view .LVU748
 422:aes.c         ****         q[i] = (x & (uint64_t)0x000000000000FFFF)
 2228              		.loc 1 422 9 discriminator 3 view .LVU749
 422:aes.c         ****         q[i] = (x & (uint64_t)0x000000000000FFFF)
 2229              		.loc 1 422 11 is_stmt 0 discriminator 3 view .LVU750
 2230 000a 54F8086F 		ldr	r6, [r4, #8]!
 2231 000e 6368     		ldr	r3, [r4, #4]
 2232              	.LVL236:
 423:aes.c         ****                | ((x & (uint64_t)0x00000000FFF00000) >> 4)
 2233              		.loc 1 423 9 is_stmt 1 discriminator 3 view .LVU751
 2234              		.loc 1 424 54 is_stmt 0 discriminator 3 view .LVU752
 2235 0010 3209     		lsrs	r2, r6, #4
 2236 0012 42EA0372 		orr	r2, r2, r3, lsl #28
 425:aes.c         ****                | ((x & (uint64_t)0x00000000000F0000) << 12)
 2237              		.loc 1 425 54 discriminator 3 view .LVU753
 2238 0016 3103     		lsls	r1, r6, #12
 424:aes.c         ****                | ((x & (uint64_t)0x00000000000F0000) << 12)
 2239              		.loc 1 424 54 discriminator 3 view .LVU754
 2240 0018 2A40     		ands	r2, r2, r5
 2241              		.loc 1 425 54 discriminator 3 view .LVU755
 2242 001a 01F07041 		and	r1, r1, #-268435456
 2243              		.loc 1 425 16 discriminator 3 view .LVU756
 2244 001e 1143     		orrs	r1, r1, r2
 423:aes.c         ****                | ((x & (uint64_t)0x00000000FFF00000) >> 4)
 2245              		.loc 1 423 19 discriminator 3 view .LVU757
 2246 0020 B6B2     		uxth	r6, r6
 2247              	.LVL237:
 2248              		.loc 1 425 16 discriminator 3 view .LVU758
 2249 0022 3143     		orrs	r1, r1, r6
 426:aes.c         ****                | ((x & (uint64_t)0x0000FF0000000000) >> 8)
 427:aes.c         ****                | ((x & (uint64_t)0x000000FF00000000) << 8)
 2250              		.loc 1 427 54 discriminator 3 view .LVU759
 2251 0024 1E02     		lsls	r6, r3, #8
 426:aes.c         ****                | ((x & (uint64_t)0x0000FF0000000000) >> 8)
 2252              		.loc 1 426 54 discriminator 3 view .LVU760
 2253 0026 C3F30722 		ubfx	r2, r3, #8, #8
 2254              		.loc 1 427 54 discriminator 3 view .LVU761
 2255 002a 06F47F46 		and	r6, r6, #65280
 2256              		.loc 1 427 16 discriminator 3 view .LVU762
 2257 002e 3243     		orrs	r2, r2, r6
 428:aes.c         ****                | ((x & (uint64_t)0xF000000000000000) >> 12)
 2258              		.loc 1 428 54 discriminator 3 view .LVU763
 2259 0030 1E0B     		lsrs	r6, r3, #12
 429:aes.c         ****                | ((x & (uint64_t)0x0FFF000000000000) << 4);
 2260              		.loc 1 429 54 discriminator 3 view .LVU764
 2261 0032 1B01     		lsls	r3, r3, #4
 2262              	.LVL238:
 428:aes.c         ****                | ((x & (uint64_t)0xF000000000000000) >> 12)
 2263              		.loc 1 428 54 discriminator 3 view .LVU765
 2264 0034 06F47026 		and	r6, r6, #983040
 2265              		.loc 1 429 54 discriminator 3 view .LVU766
 2266 0038 1B0D     		lsrs	r3, r3, #20
 428:aes.c         ****                | ((x & (uint64_t)0xF000000000000000) >> 12)
 2267              		.loc 1 428 16 discriminator 3 view .LVU767
 2268 003a 3243     		orrs	r2, r2, r6
 2269              		.loc 1 429 54 discriminator 3 view .LVU768
 2270 003c 1B05     		lsls	r3, r3, #20
 2271              		.loc 1 429 16 discriminator 3 view .LVU769
 2272 003e 1343     		orrs	r3, r3, r2
 2273              	.LBE86:
 419:aes.c         ****         uint64_t x;
 2274              		.loc 1 419 5 discriminator 3 view .LVU770
 2275 0040 A042     		cmp	r0, r4
 2276              	.LBB87:
 423:aes.c         ****                | ((x & (uint64_t)0x00000000FFF00000) >> 4)
 2277              		.loc 1 423 14 discriminator 3 view .LVU771
 2278 0042 C4E90013 		strd	r1, r3, [r4]
 2279              	.LVL239:
 423:aes.c         ****                | ((x & (uint64_t)0x00000000FFF00000) >> 4)
 2280              		.loc 1 423 14 discriminator 3 view .LVU772
 2281              	.LBE87:
 419:aes.c         ****         uint64_t x;
 2282              		.loc 1 419 24 is_stmt 1 discriminator 3 view .LVU773
 419:aes.c         ****         uint64_t x;
 2283              		.loc 1 419 17 discriminator 3 view .LVU774
 419:aes.c         ****         uint64_t x;
 2284              		.loc 1 419 5 is_stmt 0 discriminator 3 view .LVU775
 2285 0046 E0D1     		bne	.L12
 430:aes.c         ****     }
 431:aes.c         **** }
 2286              		.loc 1 431 1 view .LVU776
 2287 0048 70BD     		pop	{r4, r5, r6, pc}
 2288              	.L15:
 2289 004a 00BF     		.align	2
 2290              	.L14:
 2291 004c 0000FF0F 		.word	268369920
 2292              		.cfi_endproc
 2293              	.LFE13:
 2295              		.section	.text.sub_word,"ax",%progbits
 2296              		.align	1
 2297              		.syntax unified
 2298              		.thumb
 2299              		.thumb_func
 2300              		.fpu softvfp
 2302              	sub_word:
 2303              	.LVL240:
 2304              	.LFB9:
 323:aes.c         ****     uint64_t q[8];
 2305              		.loc 1 323 38 is_stmt 1 view -0
 2306              		.cfi_startproc
 2307              		@ args = 0, pretend = 0, frame = 64
 2308              		@ frame_needed = 0, uses_anonymous_args = 0
 324:aes.c         **** 
 2309              		.loc 1 324 5 view .LVU778
 326:aes.c         ****     q[0] = x;
 2310              		.loc 1 326 5 view .LVU779
 323:aes.c         ****     uint64_t q[8];
 2311              		.loc 1 323 38 is_stmt 0 view .LVU780
 2312 0000 10B5     		push	{r4, lr}
 2313              	.LCFI10:
 2314              		.cfi_def_cfa_offset 8
 2315              		.cfi_offset 4, -8
 2316              		.cfi_offset 14, -4
 2317 0002 90B0     		sub	sp, sp, #64
 2318              	.LCFI11:
 2319              		.cfi_def_cfa_offset 72
 326:aes.c         ****     q[0] = x;
 2320              		.loc 1 326 5 view .LVU781
 2321 0004 3822     		movs	r2, #56
 2322 0006 0021     		movs	r1, #0
 323:aes.c         ****     uint64_t q[8];
 2323              		.loc 1 323 38 view .LVU782
 2324 0008 0446     		mov	r4, r0
 326:aes.c         ****     q[0] = x;
 2325              		.loc 1 326 5 view .LVU783
 2326 000a 02A8     		add	r0, sp, #8
 2327              	.LVL241:
 326:aes.c         ****     q[0] = x;
 2328              		.loc 1 326 5 view .LVU784
 2329 000c FFF7FEFF 		bl	memset
 2330              	.LVL242:
 327:aes.c         ****     br_aes_ct64_ortho(q);
 2331              		.loc 1 327 5 is_stmt 1 view .LVU785
 327:aes.c         ****     br_aes_ct64_ortho(q);
 2332              		.loc 1 327 10 is_stmt 0 view .LVU786
 2333 0010 0023     		movs	r3, #0
 328:aes.c         ****     br_aes_ct64_bitslice_Sbox(q);
 2334              		.loc 1 328 5 view .LVU787
 2335 0012 6846     		mov	r0, sp
 327:aes.c         ****     br_aes_ct64_ortho(q);
 2336              		.loc 1 327 10 view .LVU788
 2337 0014 0193     		str	r3, [sp, #4]
 328:aes.c         ****     br_aes_ct64_bitslice_Sbox(q);
 2338              		.loc 1 328 5 is_stmt 1 view .LVU789
 327:aes.c         ****     br_aes_ct64_ortho(q);
 2339              		.loc 1 327 10 is_stmt 0 view .LVU790
 2340 0016 0094     		str	r4, [sp]
 328:aes.c         ****     br_aes_ct64_bitslice_Sbox(q);
 2341              		.loc 1 328 5 view .LVU791
 2342 0018 FFF7FEFF 		bl	br_aes_ct64_ortho
 2343              	.LVL243:
 329:aes.c         ****     br_aes_ct64_ortho(q);
 2344              		.loc 1 329 5 is_stmt 1 view .LVU792
 2345 001c FFF7FEFF 		bl	br_aes_ct64_bitslice_Sbox
 2346              	.LVL244:
 330:aes.c         ****     return (uint32_t)q[0];
 2347              		.loc 1 330 5 view .LVU793
 2348 0020 FFF7FEFF 		bl	br_aes_ct64_ortho
 2349              	.LVL245:
 331:aes.c         **** }
 2350              		.loc 1 331 5 view .LVU794
 332:aes.c         **** 
 2351              		.loc 1 332 1 is_stmt 0 view .LVU795
 2352 0024 0098     		ldr	r0, [sp]
 2353 0026 10B0     		add	sp, sp, #64
 2354              	.LCFI12:
 2355              		.cfi_def_cfa_offset 8
 2356              		@ sp needed
 2357 0028 10BD     		pop	{r4, pc}
 332:aes.c         **** 
 2358              		.loc 1 332 1 view .LVU796
 2359              		.cfi_endproc
 2360              	.LFE9:
 2362              		.section	.text.br_aes_ct64_keysched,"ax",%progbits
 2363              		.align	1
 2364              		.syntax unified
 2365              		.thumb
 2366              		.thumb_func
 2367              		.fpu softvfp
 2369              	br_aes_ct64_keysched:
 2370              	.LVL246:
 2371              	.LFB10:
 334:aes.c         ****     unsigned int i, j, k, nk, nkf;
 2372              		.loc 1 334 103 is_stmt 1 view -0
 2373              		.cfi_startproc
 2374              		@ args = 0, pretend = 0, frame = 312
 2375              		@ frame_needed = 0, uses_anonymous_args = 0
 335:aes.c         ****     uint32_t tmp;
 2376              		.loc 1 335 5 view .LVU798
 336:aes.c         ****     uint32_t skey[60];
 2377              		.loc 1 336 5 view .LVU799
 337:aes.c         ****     unsigned nrounds = 10 + ((key_len - 16) >> 2);
 2378              		.loc 1 337 5 view .LVU800
 338:aes.c         **** 
 2379              		.loc 1 338 5 view .LVU801
 340:aes.c         ****     nkf = ((nrounds + 1) << 2);
 2380              		.loc 1 340 5 view .LVU802
 334:aes.c         ****     unsigned int i, j, k, nk, nkf;
 2381              		.loc 1 334 103 is_stmt 0 view .LVU803
 2382 0000 2DE9F04F 		push	{r4, r5, r6, r7, r8, r9, r10, fp, lr}
 2383              	.LCFI13:
 2384              		.cfi_def_cfa_offset 36
 2385              		.cfi_offset 4, -36
 2386              		.cfi_offset 5, -32
 2387              		.cfi_offset 6, -28
 2388              		.cfi_offset 7, -24
 2389              		.cfi_offset 8, -20
 2390              		.cfi_offset 9, -16
 2391              		.cfi_offset 10, -12
 2392              		.cfi_offset 11, -8
 2393              		.cfi_offset 14, -4
 2394 0004 CFB0     		sub	sp, sp, #316
 2395              	.LCFI14:
 2396              		.cfi_def_cfa_offset 352
 340:aes.c         ****     nkf = ((nrounds + 1) << 2);
 2397              		.loc 1 340 8 view .LVU804
 2398 0006 4FEA920B 		lsr	fp, r2, #2
 2399              	.LVL247:
 341:aes.c         ****     br_range_dec32le(skey, (key_len >> 2), key);
 2400              		.loc 1 341 5 is_stmt 1 view .LVU805
 342:aes.c         ****     tmp = skey[(key_len >> 2) - 1];
 2401              		.loc 1 342 5 is_stmt 0 view .LVU806
 2402 000a 12AF     		add	r7, sp, #72
 334:aes.c         ****     unsigned int i, j, k, nk, nkf;
 2403              		.loc 1 334 103 view .LVU807
 2404 000c 0190     		str	r0, [sp, #4]
 338:aes.c         **** 
 2405              		.loc 1 338 39 view .LVU808
 2406 000e A2F11004 		sub	r4, r2, #16
 342:aes.c         ****     tmp = skey[(key_len >> 2) - 1];
 2407              		.loc 1 342 5 view .LVU809
 2408 0012 3846     		mov	r0, r7
 2409              	.LVL248:
 342:aes.c         ****     tmp = skey[(key_len >> 2) - 1];
 2410              		.loc 1 342 5 view .LVU810
 2411 0014 0A46     		mov	r2, r1
 2412              	.LVL249:
 342:aes.c         ****     tmp = skey[(key_len >> 2) - 1];
 2413              		.loc 1 342 5 view .LVU811
 2414 0016 5946     		mov	r1, fp
 2415              	.LVL250:
 342:aes.c         ****     tmp = skey[(key_len >> 2) - 1];
 2416              		.loc 1 342 5 view .LVU812
 2417 0018 FFF7FEFF 		bl	br_range_dec32le
 2418              	.LVL251:
 343:aes.c         ****     for (i = nk, j = 0, k = 0; i < nkf; i ++) {
 2419              		.loc 1 343 9 view .LVU813
 2420 001c 4EAB     		add	r3, sp, #312
 2421 001e 03EB8B03 		add	r3, r3, fp, lsl #2
 341:aes.c         ****     br_range_dec32le(skey, (key_len >> 2), key);
 2422              		.loc 1 341 21 view .LVU814
 2423 0022 24F00304 		bic	r4, r4, #3
 2424              	.LVL252:
 344:aes.c         ****         if (j == 0) {
 2425              		.loc 1 344 27 view .LVU815
 2426 0026 0025     		movs	r5, #0
 343:aes.c         ****     for (i = nk, j = 0, k = 0; i < nkf; i ++) {
 2427              		.loc 1 343 9 view .LVU816
 2428 0028 53F8F40C 		ldr	r0, [r3, #-244]
 341:aes.c         ****     br_range_dec32le(skey, (key_len >> 2), key);
 2429              		.loc 1 341 9 view .LVU817
 2430 002c 2C34     		adds	r4, r4, #44
 2431              	.LVL253:
 342:aes.c         ****     tmp = skey[(key_len >> 2) - 1];
 2432              		.loc 1 342 5 is_stmt 1 view .LVU818
 343:aes.c         ****     for (i = nk, j = 0, k = 0; i < nkf; i ++) {
 2433              		.loc 1 343 5 view .LVU819
 344:aes.c         ****         if (j == 0) {
 2434              		.loc 1 344 5 view .LVU820
 344:aes.c         ****         if (j == 0) {
 2435              		.loc 1 344 32 view .LVU821
 2436 002e B846     		mov	r8, r7
 343:aes.c         ****     for (i = nk, j = 0, k = 0; i < nkf; i ++) {
 2437              		.loc 1 343 9 is_stmt 0 view .LVU822
 2438 0030 B946     		mov	r9, r7
 340:aes.c         ****     nkf = ((nrounds + 1) << 2);
 2439              		.loc 1 340 8 view .LVU823
 2440 0032 DA46     		mov	r10, fp
 344:aes.c         ****         if (j == 0) {
 2441              		.loc 1 344 20 view .LVU824
 2442 0034 2E46     		mov	r6, r5
 2443              	.LVL254:
 2444              	.L21:
 345:aes.c         ****             tmp = (tmp << 24) | (tmp >> 8);
 2445              		.loc 1 345 9 is_stmt 1 view .LVU825
 345:aes.c         ****             tmp = (tmp << 24) | (tmp >> 8);
 2446              		.loc 1 345 12 is_stmt 0 view .LVU826
 2447 0036 002E     		cmp	r6, #0
 2448 0038 77D1     		bne	.L18
 2449              	.LVL255:
 346:aes.c         ****             tmp = sub_word(tmp) ^ Rcon[k];
 2450              		.loc 1 346 13 is_stmt 1 view .LVU827
 347:aes.c         ****         } else if (nk > 6 && j == 4) {
 2451              		.loc 1 347 13 view .LVU828
 347:aes.c         ****         } else if (nk > 6 && j == 4) {
 2452              		.loc 1 347 19 is_stmt 0 view .LVU829
 2453 003a 4FEA3020 		ror	r0, r0, #8
 2454              	.LVL256:
 347:aes.c         ****         } else if (nk > 6 && j == 4) {
 2455              		.loc 1 347 19 view .LVU830
 2456 003e FFF7FEFF 		bl	sub_word
 2457              	.LVL257:
 347:aes.c         ****         } else if (nk > 6 && j == 4) {
 2458              		.loc 1 347 39 view .LVU831
 2459 0042 3E4B     		ldr	r3, .L25
 2460 0044 595D     		ldrb	r1, [r3, r5]	@ zero_extendqisi2
 347:aes.c         ****         } else if (nk > 6 && j == 4) {
 2461              		.loc 1 347 17 view .LVU832
 2462 0046 4840     		eors	r0, r0, r1
 2463              	.LVL258:
 2464              	.L19:
 351:aes.c         ****         skey[i] = tmp;
 2465              		.loc 1 351 9 is_stmt 1 view .LVU833
 351:aes.c         ****         skey[i] = tmp;
 2466              		.loc 1 351 20 is_stmt 0 view .LVU834
 2467 0048 59F8041B 		ldr	r1, [r9], #4
 353:aes.c         ****             j = 0;
 2468              		.loc 1 353 12 view .LVU835
 2469 004c 0136     		adds	r6, r6, #1
 351:aes.c         ****         skey[i] = tmp;
 2470              		.loc 1 351 13 view .LVU836
 2471 004e 4840     		eors	r0, r0, r1
 2472              	.LVL259:
 352:aes.c         ****         if (++ j == nk) {
 2473              		.loc 1 352 9 is_stmt 1 view .LVU837
 353:aes.c         ****             j = 0;
 2474              		.loc 1 353 12 is_stmt 0 view .LVU838
 2475 0050 B345     		cmp	fp, r6
 352:aes.c         ****         if (++ j == nk) {
 2476              		.loc 1 352 17 view .LVU839
 2477 0052 47F82A00 		str	r0, [r7, r10, lsl #2]
 353:aes.c         ****             j = 0;
 2478              		.loc 1 353 9 is_stmt 1 view .LVU840
 2479              	.LVL260:
 354:aes.c         ****             k ++;
 2480              		.loc 1 354 13 view .LVU841
 355:aes.c         ****         }
 2481              		.loc 1 355 13 view .LVU842
 344:aes.c         ****         if (j == 0) {
 2482              		.loc 1 344 43 is_stmt 0 view .LVU843
 2483 0056 0AF1010A 		add	r10, r10, #1
 2484              	.LVL261:
 355:aes.c         ****         }
 2485              		.loc 1 355 15 view .LVU844
 2486 005a 04BF     		itt	eq
 2487 005c 0135     		addeq	r5, r5, #1
 2488              	.LVL262:
 354:aes.c         ****             k ++;
 2489              		.loc 1 354 15 view .LVU845
 2490 005e 0026     		moveq	r6, #0
 2491              	.LVL263:
 344:aes.c         ****         if (j == 0) {
 2492              		.loc 1 344 41 is_stmt 1 view .LVU846
 344:aes.c         ****         if (j == 0) {
 2493              		.loc 1 344 32 view .LVU847
 344:aes.c         ****         if (j == 0) {
 2494              		.loc 1 344 5 is_stmt 0 view .LVU848
 2495 0060 5445     		cmp	r4, r10
 2496 0062 E8D1     		bne	.L21
 2497 0064 019D     		ldr	r5, [sp, #4]
 2498              	.LVL264:
 359:aes.c         ****         uint64_t q[8];
 2499              		.loc 1 359 12 view .LVU849
 2500 0066 0026     		movs	r6, #0
 2501              	.LVL265:
 2502              	.L22:
 2503              	.LBB88:
 360:aes.c         **** 
 2504              		.loc 1 360 9 is_stmt 1 discriminator 3 view .LVU850
 362:aes.c         ****         q[1] = q[0];
 2505              		.loc 1 362 9 discriminator 3 view .LVU851
 2506 0068 4246     		mov	r2, r8
 2507 006a 0AA9     		add	r1, sp, #40
 2508 006c 02A8     		add	r0, sp, #8
 2509 006e FFF7FEFF 		bl	br_aes_ct64_interleave_in
 2510              	.LVL266:
 363:aes.c         ****         q[2] = q[0];
 2511              		.loc 1 363 9 discriminator 3 view .LVU852
 363:aes.c         ****         q[2] = q[0];
 2512              		.loc 1 363 17 is_stmt 0 discriminator 3 view .LVU853
 2513 0072 DDE90223 		ldrd	r2, [sp, #8]
 363:aes.c         ****         q[2] = q[0];
 2514              		.loc 1 363 14 discriminator 3 view .LVU854
 2515 0076 CDE90423 		strd	r2, [sp, #16]
 364:aes.c         ****         q[3] = q[0];
 2516              		.loc 1 364 9 is_stmt 1 discriminator 3 view .LVU855
 364:aes.c         ****         q[3] = q[0];
 2517              		.loc 1 364 14 is_stmt 0 discriminator 3 view .LVU856
 2518 007a CDE90623 		strd	r2, [sp, #24]
 365:aes.c         ****         q[5] = q[4];
 2519              		.loc 1 365 9 is_stmt 1 discriminator 3 view .LVU857
 365:aes.c         ****         q[5] = q[4];
 2520              		.loc 1 365 14 is_stmt 0 discriminator 3 view .LVU858
 2521 007e CDE90823 		strd	r2, [sp, #32]
 366:aes.c         ****         q[6] = q[4];
 2522              		.loc 1 366 9 is_stmt 1 discriminator 3 view .LVU859
 366:aes.c         ****         q[6] = q[4];
 2523              		.loc 1 366 17 is_stmt 0 discriminator 3 view .LVU860
 2524 0082 DDE90A23 		ldrd	r2, [sp, #40]
 366:aes.c         ****         q[6] = q[4];
 2525              		.loc 1 366 14 discriminator 3 view .LVU861
 2526 0086 CDE90C23 		strd	r2, [sp, #48]
 367:aes.c         ****         q[7] = q[4];
 2527              		.loc 1 367 9 is_stmt 1 discriminator 3 view .LVU862
 367:aes.c         ****         q[7] = q[4];
 2528              		.loc 1 367 14 is_stmt 0 discriminator 3 view .LVU863
 2529 008a CDE90E23 		strd	r2, [sp, #56]
 368:aes.c         ****         br_aes_ct64_ortho(q);
 2530              		.loc 1 368 9 is_stmt 1 discriminator 3 view .LVU864
 368:aes.c         ****         br_aes_ct64_ortho(q);
 2531              		.loc 1 368 14 is_stmt 0 discriminator 3 view .LVU865
 2532 008e CDE91023 		strd	r2, [sp, #64]
 369:aes.c         ****         comp_skey[j + 0] =
 2533              		.loc 1 369 9 is_stmt 1 discriminator 3 view .LVU866
 2534 0092 FFF7FEFF 		bl	br_aes_ct64_ortho
 2535              	.LVL267:
 370:aes.c         ****             (q[0] & (uint64_t)0x1111111111111111)
 2536              		.loc 1 370 9 discriminator 3 view .LVU867
 371:aes.c         ****             | (q[1] & (uint64_t)0x2222222222222222)
 2537              		.loc 1 371 19 is_stmt 0 discriminator 3 view .LVU868
 2538 0096 DDE90223 		ldrd	r2, r3, [sp, #8]
 372:aes.c         ****             | (q[2] & (uint64_t)0x4444444444444444)
 2539              		.loc 1 372 21 discriminator 3 view .LVU869
 2540 009a DDE90401 		ldrd	r0, r1, [sp, #16]
 371:aes.c         ****             | (q[1] & (uint64_t)0x2222222222222222)
 2541              		.loc 1 371 19 discriminator 3 view .LVU870
 2542 009e 02F01132 		and	r2, r2, #286331153
 372:aes.c         ****             | (q[2] & (uint64_t)0x4444444444444444)
 2543              		.loc 1 372 21 discriminator 3 view .LVU871
 2544 00a2 00F02230 		and	r0, r0, #572662306
 2545 00a6 01F02231 		and	r1, r1, #572662306
 371:aes.c         ****             | (q[1] & (uint64_t)0x2222222222222222)
 2546              		.loc 1 371 19 discriminator 3 view .LVU872
 2547 00aa 03F01133 		and	r3, r3, #286331153
 372:aes.c         ****             | (q[2] & (uint64_t)0x4444444444444444)
 2548              		.loc 1 372 13 discriminator 3 view .LVU873
 2549 00ae 0243     		orrs	r2, r2, r0
 2550 00b0 0B43     		orrs	r3, r3, r1
 373:aes.c         ****             | (q[3] & (uint64_t)0x8888888888888888);
 2551              		.loc 1 373 21 discriminator 3 view .LVU874
 2552 00b2 DDE90601 		ldrd	r0, r1, [sp, #24]
 2553 00b6 00F04430 		and	r0, r0, #1145324612
 2554 00ba 01F04431 		and	r1, r1, #1145324612
 373:aes.c         ****             | (q[3] & (uint64_t)0x8888888888888888);
 2555              		.loc 1 373 13 discriminator 3 view .LVU875
 2556 00be 0243     		orrs	r2, r2, r0
 2557 00c0 0B43     		orrs	r3, r3, r1
 374:aes.c         ****         comp_skey[j + 1] =
 2558              		.loc 1 374 21 discriminator 3 view .LVU876
 2559 00c2 DDE90801 		ldrd	r0, r1, [sp, #32]
 2560 00c6 00F08830 		and	r0, r0, #-2004318072
 2561 00ca 01F08831 		and	r1, r1, #-2004318072
 374:aes.c         ****         comp_skey[j + 1] =
 2562              		.loc 1 374 13 discriminator 3 view .LVU877
 2563 00ce 0243     		orrs	r2, r2, r0
 2564 00d0 0B43     		orrs	r3, r3, r1
 370:aes.c         ****             (q[0] & (uint64_t)0x1111111111111111)
 2565              		.loc 1 370 26 discriminator 3 view .LVU878
 2566 00d2 C5E90023 		strd	r2, r3, [r5]
 375:aes.c         ****             (q[4] & (uint64_t)0x1111111111111111)
 2567              		.loc 1 375 9 is_stmt 1 discriminator 3 view .LVU879
 377:aes.c         ****             | (q[6] & (uint64_t)0x4444444444444444)
 2568              		.loc 1 377 21 is_stmt 0 discriminator 3 view .LVU880
 2569 00d6 DDE90C01 		ldrd	r0, r1, [sp, #48]
 376:aes.c         ****             | (q[5] & (uint64_t)0x2222222222222222)
 2570              		.loc 1 376 19 discriminator 3 view .LVU881
 2571 00da DDE90A23 		ldrd	r2, r3, [sp, #40]
 377:aes.c         ****             | (q[6] & (uint64_t)0x4444444444444444)
 2572              		.loc 1 377 21 discriminator 3 view .LVU882
 2573 00de 00F02230 		and	r0, r0, #572662306
 2574 00e2 01F02231 		and	r1, r1, #572662306
 376:aes.c         ****             | (q[5] & (uint64_t)0x2222222222222222)
 2575              		.loc 1 376 19 discriminator 3 view .LVU883
 2576 00e6 02F01132 		and	r2, r2, #286331153
 2577 00ea 03F01133 		and	r3, r3, #286331153
 377:aes.c         ****             | (q[6] & (uint64_t)0x4444444444444444)
 2578              		.loc 1 377 13 discriminator 3 view .LVU884
 2579 00ee 0243     		orrs	r2, r2, r0
 2580 00f0 0B43     		orrs	r3, r3, r1
 378:aes.c         ****             | (q[7] & (uint64_t)0x8888888888888888);
 2581              		.loc 1 378 21 discriminator 3 view .LVU885
 2582 00f2 DDE90E01 		ldrd	r0, r1, [sp, #56]
 2583 00f6 00F04430 		and	r0, r0, #1145324612
 2584 00fa 01F04431 		and	r1, r1, #1145324612
 378:aes.c         ****             | (q[7] & (uint64_t)0x8888888888888888);
 2585              		.loc 1 378 13 discriminator 3 view .LVU886
 2586 00fe 0243     		orrs	r2, r2, r0
 2587 0100 0B43     		orrs	r3, r3, r1
 379:aes.c         ****     }
 2588              		.loc 1 379 21 discriminator 3 view .LVU887
 2589 0102 DDE91001 		ldrd	r0, r1, [sp, #64]
 2590              	.LBE88:
 359:aes.c         ****         uint64_t q[8];
 2591              		.loc 1 359 35 discriminator 3 view .LVU888
 2592 0106 0436     		adds	r6, r6, #4
 2593              	.LVL268:
 2594              	.LBB89:
 379:aes.c         ****     }
 2595              		.loc 1 379 21 discriminator 3 view .LVU889
 2596 0108 00F08830 		and	r0, r0, #-2004318072
 2597 010c 01F08831 		and	r1, r1, #-2004318072
 379:aes.c         ****     }
 2598              		.loc 1 379 13 discriminator 3 view .LVU890
 2599 0110 0243     		orrs	r2, r2, r0
 2600 0112 0B43     		orrs	r3, r3, r1
 2601              	.LBE89:
 359:aes.c         ****         uint64_t q[8];
 2602              		.loc 1 359 5 discriminator 3 view .LVU891
 2603 0114 B442     		cmp	r4, r6
 2604              	.LBB90:
 375:aes.c         ****             (q[4] & (uint64_t)0x1111111111111111)
 2605              		.loc 1 375 26 discriminator 3 view .LVU892
 2606 0116 C5E90223 		strd	r2, r3, [r5, #8]
 2607              	.LBE90:
 359:aes.c         ****         uint64_t q[8];
 2608              		.loc 1 359 33 is_stmt 1 discriminator 3 view .LVU893
 2609              	.LVL269:
 359:aes.c         ****         uint64_t q[8];
 2610              		.loc 1 359 24 discriminator 3 view .LVU894
 359:aes.c         ****         uint64_t q[8];
 2611              		.loc 1 359 5 is_stmt 0 discriminator 3 view .LVU895
 2612 011a 08F11008 		add	r8, r8, #16
 2613 011e 05F11005 		add	r5, r5, #16
 2614 0122 A1D8     		bhi	.L22
 381:aes.c         **** 
 2615              		.loc 1 381 1 view .LVU896
 2616 0124 4FB0     		add	sp, sp, #316
 2617              	.LCFI15:
 2618              		.cfi_remember_state
 2619              		.cfi_def_cfa_offset 36
 2620              		@ sp needed
 2621 0126 BDE8F08F 		pop	{r4, r5, r6, r7, r8, r9, r10, fp, pc}
 2622              	.LVL270:
 2623              	.L18:
 2624              	.LCFI16:
 2625              		.cfi_restore_state
 348:aes.c         ****             tmp = sub_word(tmp);
 2626              		.loc 1 348 16 is_stmt 1 view .LVU897
 348:aes.c         ****             tmp = sub_word(tmp);
 2627              		.loc 1 348 19 is_stmt 0 view .LVU898
 2628 012a BBF1060F 		cmp	fp, #6
 2629 012e 8BD9     		bls	.L19
 348:aes.c         ****             tmp = sub_word(tmp);
 2630              		.loc 1 348 27 discriminator 1 view .LVU899
 2631 0130 042E     		cmp	r6, #4
 2632 0132 89D1     		bne	.L19
 349:aes.c         ****         }
 2633              		.loc 1 349 13 is_stmt 1 view .LVU900
 349:aes.c         ****         }
 2634              		.loc 1 349 19 is_stmt 0 view .LVU901
 2635 0134 FFF7FEFF 		bl	sub_word
 2636              	.LVL271:
 349:aes.c         ****         }
 2637              		.loc 1 349 19 view .LVU902
 2638 0138 86E7     		b	.L19
 2639              	.L26:
 2640 013a 00BF     		.align	2
 2641              	.L25:
 2642 013c 00000000 		.word	.LANCHOR0
 2643              		.cfi_endproc
 2644              	.LFE10:
 2646              		.section	.text.aes_ecb4x,"ax",%progbits
 2647              		.align	1
 2648              		.syntax unified
 2649              		.thumb
 2650              		.thumb_func
 2651              		.fpu softvfp
 2653              	aes_ecb4x:
 2654              	.LVL272:
 2655              	.LFB17:
 432:aes.c         **** 
 433:aes.c         **** static inline uint64_t rotr32(uint64_t x) {
 434:aes.c         ****     return (x << 32) | (x >> 32);
 435:aes.c         **** }
 436:aes.c         **** 
 437:aes.c         **** static inline void mix_columns(uint64_t *q) {
 438:aes.c         ****     uint64_t q0, q1, q2, q3, q4, q5, q6, q7;
 439:aes.c         ****     uint64_t r0, r1, r2, r3, r4, r5, r6, r7;
 440:aes.c         **** 
 441:aes.c         ****     q0 = q[0];
 442:aes.c         ****     q1 = q[1];
 443:aes.c         ****     q2 = q[2];
 444:aes.c         ****     q3 = q[3];
 445:aes.c         ****     q4 = q[4];
 446:aes.c         ****     q5 = q[5];
 447:aes.c         ****     q6 = q[6];
 448:aes.c         ****     q7 = q[7];
 449:aes.c         ****     r0 = (q0 >> 16) | (q0 << 48);
 450:aes.c         ****     r1 = (q1 >> 16) | (q1 << 48);
 451:aes.c         ****     r2 = (q2 >> 16) | (q2 << 48);
 452:aes.c         ****     r3 = (q3 >> 16) | (q3 << 48);
 453:aes.c         ****     r4 = (q4 >> 16) | (q4 << 48);
 454:aes.c         ****     r5 = (q5 >> 16) | (q5 << 48);
 455:aes.c         ****     r6 = (q6 >> 16) | (q6 << 48);
 456:aes.c         ****     r7 = (q7 >> 16) | (q7 << 48);
 457:aes.c         **** 
 458:aes.c         ****     q[0] = q7 ^ r7 ^ r0 ^ rotr32(q0 ^ r0);
 459:aes.c         ****     q[1] = q0 ^ r0 ^ q7 ^ r7 ^ r1 ^ rotr32(q1 ^ r1);
 460:aes.c         ****     q[2] = q1 ^ r1 ^ r2 ^ rotr32(q2 ^ r2);
 461:aes.c         ****     q[3] = q2 ^ r2 ^ q7 ^ r7 ^ r3 ^ rotr32(q3 ^ r3);
 462:aes.c         ****     q[4] = q3 ^ r3 ^ q7 ^ r7 ^ r4 ^ rotr32(q4 ^ r4);
 463:aes.c         ****     q[5] = q4 ^ r4 ^ r5 ^ rotr32(q5 ^ r5);
 464:aes.c         ****     q[6] = q5 ^ r5 ^ r6 ^ rotr32(q6 ^ r6);
 465:aes.c         ****     q[7] = q6 ^ r6 ^ r7 ^ rotr32(q7 ^ r7);
 466:aes.c         **** }
 467:aes.c         **** 
 468:aes.c         **** static void inc4_be(uint32_t *x) {
 469:aes.c         ****     uint32_t t = br_swap32(*x) + 4;
 470:aes.c         ****     *x = br_swap32(t);
 471:aes.c         **** }
 472:aes.c         **** 
 473:aes.c         **** static void aes_ecb4x(unsigned char out[64], const uint32_t ivw[16], const uint64_t *sk_exp, unsign
 2656              		.loc 1 473 116 is_stmt 1 view -0
 2657              		.cfi_startproc
 2658              		@ args = 0, pretend = 0, frame = 192
 2659              		@ frame_needed = 0, uses_anonymous_args = 0
 474:aes.c         ****     uint32_t w[16];
 2660              		.loc 1 474 5 view .LVU904
 475:aes.c         ****     uint64_t q[8];
 2661              		.loc 1 475 5 view .LVU905
 476:aes.c         ****     unsigned int i;
 2662              		.loc 1 476 5 view .LVU906
 477:aes.c         **** 
 478:aes.c         ****     memcpy(w, ivw, sizeof(w));
 2663              		.loc 1 478 5 view .LVU907
 473:aes.c         ****     uint32_t w[16];
 2664              		.loc 1 473 116 is_stmt 0 view .LVU908
 2665 0000 2DE9F04F 		push	{r4, r5, r6, r7, r8, r9, r10, fp, lr}
 2666              	.LCFI17:
 2667              		.cfi_def_cfa_offset 36
 2668              		.cfi_offset 4, -36
 2669              		.cfi_offset 5, -32
 2670              		.cfi_offset 6, -28
 2671              		.cfi_offset 7, -24
 2672              		.cfi_offset 8, -20
 2673              		.cfi_offset 9, -16
 2674              		.cfi_offset 10, -12
 2675              		.cfi_offset 11, -8
 2676              		.cfi_offset 14, -4
 2677 0004 B1B0     		sub	sp, sp, #196
 2678              	.LCFI18:
 2679              		.cfi_def_cfa_offset 232
 2680              		.loc 1 478 5 view .LVU909
 2681 0006 0C46     		mov	r4, r1
 473:aes.c         ****     uint32_t w[16];
 2682              		.loc 1 473 116 view .LVU910
 2683 0008 0E90     		str	r0, [sp, #56]
 2684 000a 9146     		mov	r9, r2
 2685 000c 1D46     		mov	r5, r3
 2686              		.loc 1 478 5 view .LVU911
 2687 000e 0FCC     		ldmia	r4!, {r0, r1, r2, r3}
 2688              	.LVL273:
 2689              		.loc 1 478 5 view .LVU912
 2690 0010 20AE     		add	r6, sp, #128
 2691 0012 0FC6     		stmia	r6!, {r0, r1, r2, r3}
 2692 0014 0FCC     		ldmia	r4!, {r0, r1, r2, r3}
 2693              	.LVL274:
 2694              		.loc 1 478 5 view .LVU913
 2695 0016 0FC6     		stmia	r6!, {r0, r1, r2, r3}
 2696 0018 0FCC     		ldmia	r4!, {r0, r1, r2, r3}
 2697              	.LVL275:
 2698              		.loc 1 478 5 view .LVU914
 2699 001a 0FC6     		stmia	r6!, {r0, r1, r2, r3}
 2700 001c 94E80F00 		ldm	r4, {r0, r1, r2, r3}
 2701 0020 0DF1800B 		add	fp, sp, #128
 2702 0024 10AC     		add	r4, sp, #64
 2703              	.LVL276:
 2704              		.loc 1 478 5 view .LVU915
 2705 0026 86E80F00 		stm	r6, {r0, r1, r2, r3}
 479:aes.c         ****     for (i = 0; i < 4; i++) {
 2706              		.loc 1 479 5 is_stmt 1 view .LVU916
 2707              	.LVL277:
 2708              		.loc 1 479 17 view .LVU917
 478:aes.c         ****     for (i = 0; i < 4; i++) {
 2709              		.loc 1 478 5 is_stmt 0 view .LVU918
 2710 002a 5F46     		mov	r7, fp
 2711 002c 2046     		mov	r0, r4
 2712              		.loc 1 479 12 view .LVU919
 2713 002e 0026     		movs	r6, #0
 2714              	.LVL278:
 2715              	.L28:
 480:aes.c         ****         br_aes_ct64_interleave_in(&q[i], &q[i + 4], w + (i << 2));
 2716              		.loc 1 480 9 is_stmt 1 discriminator 3 view .LVU920
 2717 0030 3A46     		mov	r2, r7
 2718 0032 00F12001 		add	r1, r0, #32
 479:aes.c         ****     for (i = 0; i < 4; i++) {
 2719              		.loc 1 479 25 is_stmt 0 discriminator 3 view .LVU921
 2720 0036 0136     		adds	r6, r6, #1
 2721              	.LVL279:
 2722              		.loc 1 480 9 discriminator 3 view .LVU922
 2723 0038 FFF7FEFF 		bl	br_aes_ct64_interleave_in
 2724              	.LVL280:
 479:aes.c         ****     for (i = 0; i < 4; i++) {
 2725              		.loc 1 479 24 is_stmt 1 discriminator 3 view .LVU923
 479:aes.c         ****     for (i = 0; i < 4; i++) {
 2726              		.loc 1 479 17 discriminator 3 view .LVU924
 479:aes.c         ****     for (i = 0; i < 4; i++) {
 2727              		.loc 1 479 5 is_stmt 0 discriminator 3 view .LVU925
 2728 003c 042E     		cmp	r6, #4
 2729 003e 00F10800 		add	r0, r0, #8
 2730 0042 07F11007 		add	r7, r7, #16
 2731 0046 F3D1     		bne	.L28
 481:aes.c         ****     }
 482:aes.c         ****     br_aes_ct64_ortho(q);
 2732              		.loc 1 482 5 is_stmt 1 view .LVU926
 2733 0048 2046     		mov	r0, r4
 2734 004a FFF7FEFF 		bl	br_aes_ct64_ortho
 2735              	.LVL281:
 483:aes.c         **** 
 484:aes.c         ****     add_round_key(q, sk_exp);
 2736              		.loc 1 484 5 view .LVU927
 2737 004e 4946     		mov	r1, r9
 2738 0050 FFF7FEFF 		bl	add_round_key
 2739              	.LVL282:
 485:aes.c         ****     for (i = 1; i < nrounds; i++) {
 2740              		.loc 1 485 5 view .LVU928
 2741              		.loc 1 485 17 view .LVU929
 2742 0054 09F14003 		add	r3, r9, #64
 2743 0058 0093     		str	r3, [sp]
 2744 005a AB01     		lsls	r3, r5, #6
 2745 005c 0D93     		str	r3, [sp, #52]
 2746 005e 09EB8513 		add	r3, r9, r5, lsl #6
 2747 0062 0C93     		str	r3, [sp, #48]
 486:aes.c         ****         br_aes_ct64_bitslice_Sbox(q);
 2748              		.loc 1 486 9 is_stmt 0 view .LVU930
 2749 0064 A046     		mov	r8, r4
 2750              	.LVL283:
 2751              	.L29:
 2752              		.loc 1 486 9 is_stmt 1 discriminator 3 view .LVU931
 2753 0066 4046     		mov	r0, r8
 2754 0068 FFF7FEFF 		bl	br_aes_ct64_bitslice_Sbox
 2755              	.LVL284:
 487:aes.c         ****         shift_rows(q);
 2756              		.loc 1 487 9 discriminator 3 view .LVU932
 2757 006c FFF7FEFF 		bl	shift_rows
 2758              	.LVL285:
 488:aes.c         ****         mix_columns(q);
 2759              		.loc 1 488 9 discriminator 3 view .LVU933
 2760              	.LBB115:
 2761              	.LBI115:
 437:aes.c         ****     uint64_t q0, q1, q2, q3, q4, q5, q6, q7;
 2762              		.loc 1 437 20 discriminator 3 view .LVU934
 2763              	.LBB116:
 438:aes.c         ****     uint64_t r0, r1, r2, r3, r4, r5, r6, r7;
 2764              		.loc 1 438 5 discriminator 3 view .LVU935
 439:aes.c         **** 
 2765              		.loc 1 439 5 discriminator 3 view .LVU936
 441:aes.c         ****     q1 = q[1];
 2766              		.loc 1 441 5 discriminator 3 view .LVU937
 441:aes.c         ****     q1 = q[1];
 2767              		.loc 1 441 8 is_stmt 0 discriminator 3 view .LVU938
 2768 0070 DDF844E0 		ldr	lr, [sp, #68]
 2769              	.LVL286:
 442:aes.c         ****     q2 = q[2];
 2770              		.loc 1 442 5 is_stmt 1 discriminator 3 view .LVU939
 443:aes.c         ****     q3 = q[3];
 2771              		.loc 1 443 5 discriminator 3 view .LVU940
 444:aes.c         ****     q4 = q[4];
 2772              		.loc 1 444 5 discriminator 3 view .LVU941
 445:aes.c         ****     q5 = q[5];
 2773              		.loc 1 445 5 discriminator 3 view .LVU942
 446:aes.c         ****     q6 = q[6];
 2774              		.loc 1 446 5 discriminator 3 view .LVU943
 447:aes.c         ****     q7 = q[7];
 2775              		.loc 1 447 5 discriminator 3 view .LVU944
 448:aes.c         ****     r0 = (q0 >> 16) | (q0 << 48);
 2776              		.loc 1 448 5 discriminator 3 view .LVU945
 449:aes.c         ****     r1 = (q1 >> 16) | (q1 << 48);
 2777              		.loc 1 449 8 is_stmt 0 discriminator 3 view .LVU946
 2778 0074 109B     		ldr	r3, [sp, #64]
 450:aes.c         ****     r2 = (q2 >> 16) | (q2 << 48);
 2779              		.loc 1 450 8 discriminator 3 view .LVU947
 2780 0076 1299     		ldr	r1, [sp, #72]
 452:aes.c         ****     r4 = (q4 >> 16) | (q4 << 48);
 2781              		.loc 1 452 8 discriminator 3 view .LVU948
 2782 0078 1798     		ldr	r0, [sp, #92]
 448:aes.c         ****     r0 = (q0 >> 16) | (q0 << 48);
 2783              		.loc 1 448 8 discriminator 3 view .LVU949
 2784 007a 1E9F     		ldr	r7, [sp, #120]
 2785              	.LVL287:
 449:aes.c         ****     r1 = (q1 >> 16) | (q1 << 48);
 2786              		.loc 1 449 5 is_stmt 1 discriminator 3 view .LVU950
 449:aes.c         ****     r1 = (q1 >> 16) | (q1 << 48);
 2787              		.loc 1 449 8 is_stmt 0 discriminator 3 view .LVU951
 2788 007c 4FEA1E46 		lsr	r6, lr, #16
 2789 0080 46EA0346 		orr	r6, r6, r3, lsl #16
 2790 0084 4FEA134A 		lsr	r10, r3, #16
 450:aes.c         ****     r2 = (q2 >> 16) | (q2 << 48);
 2791              		.loc 1 450 8 discriminator 3 view .LVU952
 2792 0088 129B     		ldr	r3, [sp, #72]
 2793 008a 1A0C     		lsrs	r2, r3, #16
 2794 008c 139B     		ldr	r3, [sp, #76]
 2795 008e 42EA0342 		orr	r2, r2, r3, lsl #16
 2796 0092 1B0C     		lsrs	r3, r3, #16
 2797 0094 43EA0143 		orr	r3, r3, r1, lsl #16
 451:aes.c         ****     r3 = (q3 >> 16) | (q3 << 48);
 2798              		.loc 1 451 8 discriminator 3 view .LVU953
 2799 0098 1499     		ldr	r1, [sp, #80]
 2800 009a 0D0C     		lsrs	r5, r1, #16
 2801 009c 1599     		ldr	r1, [sp, #84]
 2802 009e 45EA0141 		orr	r1, r5, r1, lsl #16
 2803 00a2 0191     		str	r1, [sp, #4]
 2804 00a4 1599     		ldr	r1, [sp, #84]
 2805 00a6 4FEA114C 		lsr	ip, r1, #16
 2806 00aa 1499     		ldr	r1, [sp, #80]
 2807 00ac 4CEA014C 		orr	ip, ip, r1, lsl #16
 452:aes.c         ****     r4 = (q4 >> 16) | (q4 << 48);
 2808              		.loc 1 452 8 discriminator 3 view .LVU954
 2809 00b0 1699     		ldr	r1, [sp, #88]
 2810 00b2 090C     		lsrs	r1, r1, #16
 2811 00b4 41EA0041 		orr	r1, r1, r0, lsl #16
 2812 00b8 0291     		str	r1, [sp, #8]
 2813 00ba 010C     		lsrs	r1, r0, #16
 2814 00bc 1698     		ldr	r0, [sp, #88]
 2815 00be 41EA0041 		orr	r1, r1, r0, lsl #16
 2816 00c2 0391     		str	r1, [sp, #12]
 453:aes.c         ****     r5 = (q5 >> 16) | (q5 << 48);
 2817              		.loc 1 453 8 discriminator 3 view .LVU955
 2818 00c4 1899     		ldr	r1, [sp, #96]
 2819 00c6 1998     		ldr	r0, [sp, #100]
 2820 00c8 090C     		lsrs	r1, r1, #16
 2821 00ca 41EA0041 		orr	r1, r1, r0, lsl #16
 2822 00ce 0491     		str	r1, [sp, #16]
 2823 00d0 010C     		lsrs	r1, r0, #16
 2824 00d2 1898     		ldr	r0, [sp, #96]
 2825 00d4 41EA0041 		orr	r1, r1, r0, lsl #16
 2826 00d8 0591     		str	r1, [sp, #20]
 454:aes.c         ****     r6 = (q6 >> 16) | (q6 << 48);
 2827              		.loc 1 454 8 discriminator 3 view .LVU956
 2828 00da 1A99     		ldr	r1, [sp, #104]
 2829 00dc 1B98     		ldr	r0, [sp, #108]
 2830 00de 090C     		lsrs	r1, r1, #16
 2831 00e0 41EA0041 		orr	r1, r1, r0, lsl #16
 2832 00e4 0691     		str	r1, [sp, #24]
 2833 00e6 010C     		lsrs	r1, r0, #16
 2834 00e8 1A98     		ldr	r0, [sp, #104]
 2835 00ea 41EA0041 		orr	r1, r1, r0, lsl #16
 2836 00ee 0791     		str	r1, [sp, #28]
 455:aes.c         ****     r7 = (q7 >> 16) | (q7 << 48);
 2837              		.loc 1 455 8 discriminator 3 view .LVU957
 2838 00f0 1C99     		ldr	r1, [sp, #112]
 2839 00f2 1D98     		ldr	r0, [sp, #116]
 2840 00f4 090C     		lsrs	r1, r1, #16
 2841 00f6 41EA0041 		orr	r1, r1, r0, lsl #16
 2842 00fa 0891     		str	r1, [sp, #32]
 2843 00fc 010C     		lsrs	r1, r0, #16
 2844 00fe 1C98     		ldr	r0, [sp, #112]
 2845 0100 41EA0041 		orr	r1, r1, r0, lsl #16
 2846 0104 0991     		str	r1, [sp, #36]
 456:aes.c         **** 
 2847              		.loc 1 456 8 discriminator 3 view .LVU958
 2848 0106 1F99     		ldr	r1, [sp, #124]
 2849 0108 380C     		lsrs	r0, r7, #16
 2850 010a 40EA0140 		orr	r0, r0, r1, lsl #16
 458:aes.c         ****     q[1] = q0 ^ r0 ^ q7 ^ r7 ^ r1 ^ rotr32(q1 ^ r1);
 2851              		.loc 1 458 15 discriminator 3 view .LVU959
 2852 010e 87EA0005 		eor	r5, r7, r0
 2853 0112 0F95     		str	r5, [sp, #60]
 456:aes.c         **** 
 2854              		.loc 1 456 8 discriminator 3 view .LVU960
 2855 0114 090C     		lsrs	r1, r1, #16
 458:aes.c         ****     q[1] = q0 ^ r0 ^ q7 ^ r7 ^ r1 ^ rotr32(q1 ^ r1);
 2856              		.loc 1 458 15 discriminator 3 view .LVU961
 2857 0116 1F9D     		ldr	r5, [sp, #124]
 456:aes.c         **** 
 2858              		.loc 1 456 8 discriminator 3 view .LVU962
 2859 0118 41EA0741 		orr	r1, r1, r7, lsl #16
 458:aes.c         ****     q[1] = q0 ^ r0 ^ q7 ^ r7 ^ r1 ^ rotr32(q1 ^ r1);
 2860              		.loc 1 458 15 discriminator 3 view .LVU963
 2861 011c 4D40     		eors	r5, r5, r1
 2862 011e 0A95     		str	r5, [sp, #40]
 458:aes.c         ****     q[1] = q0 ^ r0 ^ q7 ^ r7 ^ r1 ^ rotr32(q1 ^ r1);
 2863              		.loc 1 458 27 discriminator 3 view .LVU964
 2864 0120 109D     		ldr	r5, [sp, #64]
 449:aes.c         ****     r1 = (q1 >> 16) | (q1 << 48);
 2865              		.loc 1 449 8 discriminator 3 view .LVU965
 2866 0122 4AEA0E4A 		orr	r10, r10, lr, lsl #16
 2867              	.LVL288:
 450:aes.c         ****     r2 = (q2 >> 16) | (q2 << 48);
 2868              		.loc 1 450 5 is_stmt 1 discriminator 3 view .LVU966
 451:aes.c         ****     r3 = (q3 >> 16) | (q3 << 48);
 2869              		.loc 1 451 5 discriminator 3 view .LVU967
 452:aes.c         ****     r4 = (q4 >> 16) | (q4 << 48);
 2870              		.loc 1 452 5 discriminator 3 view .LVU968
 453:aes.c         ****     r5 = (q5 >> 16) | (q5 << 48);
 2871              		.loc 1 453 5 discriminator 3 view .LVU969
 454:aes.c         ****     r6 = (q6 >> 16) | (q6 << 48);
 2872              		.loc 1 454 5 discriminator 3 view .LVU970
 455:aes.c         ****     r7 = (q7 >> 16) | (q7 << 48);
 2873              		.loc 1 455 5 discriminator 3 view .LVU971
 456:aes.c         **** 
 2874              		.loc 1 456 5 discriminator 3 view .LVU972
 458:aes.c         ****     q[1] = q0 ^ r0 ^ q7 ^ r7 ^ r1 ^ rotr32(q1 ^ r1);
 2875              		.loc 1 458 5 discriminator 3 view .LVU973
 458:aes.c         ****     q[1] = q0 ^ r0 ^ q7 ^ r7 ^ r1 ^ rotr32(q1 ^ r1);
 2876              		.loc 1 458 27 is_stmt 0 discriminator 3 view .LVU974
 2877 0126 85EA0A05 		eor	r5, r5, r10
 2878 012a 0B95     		str	r5, [sp, #44]
 458:aes.c         ****     q[1] = q0 ^ r0 ^ q7 ^ r7 ^ r1 ^ rotr32(q1 ^ r1);
 2879              		.loc 1 458 20 discriminator 3 view .LVU975
 2880 012c 87EA0005 		eor	r5, r7, r0
 2881 0130 8AEA050A 		eor	r10, r10, r5
 2882              	.LVL289:
 458:aes.c         ****     q[1] = q0 ^ r0 ^ q7 ^ r7 ^ r1 ^ rotr32(q1 ^ r1);
 2883              		.loc 1 458 20 discriminator 3 view .LVU976
 2884 0134 0A9D     		ldr	r5, [sp, #40]
 458:aes.c         ****     q[1] = q0 ^ r0 ^ q7 ^ r7 ^ r1 ^ rotr32(q1 ^ r1);
 2885              		.loc 1 458 27 discriminator 3 view .LVU977
 2886 0136 8EEA060E 		eor	lr, lr, r6
 2887              	.LVL290:
 2888              	.LBB117:
 2889              	.LBI117:
 433:aes.c         ****     return (x << 32) | (x >> 32);
 2890              		.loc 1 433 24 is_stmt 1 discriminator 3 view .LVU978
 2891              	.LBB118:
 434:aes.c         **** }
 2892              		.loc 1 434 5 discriminator 3 view .LVU979
 434:aes.c         **** }
 2893              		.loc 1 434 5 is_stmt 0 discriminator 3 view .LVU980
 2894              	.LBE118:
 2895              	.LBE117:
 458:aes.c         ****     q[1] = q0 ^ r0 ^ q7 ^ r7 ^ r1 ^ rotr32(q1 ^ r1);
 2896              		.loc 1 458 20 discriminator 3 view .LVU981
 2897 013a 6E40     		eors	r6, r6, r5
 2898              	.LVL291:
 458:aes.c         ****     q[1] = q0 ^ r0 ^ q7 ^ r7 ^ r1 ^ rotr32(q1 ^ r1);
 2899              		.loc 1 458 25 discriminator 3 view .LVU982
 2900 013c 0B9D     		ldr	r5, [sp, #44]
 2901 013e 6E40     		eors	r6, r6, r5
 459:aes.c         ****     q[2] = q1 ^ r1 ^ r2 ^ rotr32(q2 ^ r2);
 2902              		.loc 1 459 37 discriminator 3 view .LVU983
 2903 0140 129D     		ldr	r5, [sp, #72]
 458:aes.c         ****     q[1] = q0 ^ r0 ^ q7 ^ r7 ^ r1 ^ rotr32(q1 ^ r1);
 2904              		.loc 1 458 25 discriminator 3 view .LVU984
 2905 0142 8AEA0E0A 		eor	r10, r10, lr
 458:aes.c         ****     q[1] = q0 ^ r0 ^ q7 ^ r7 ^ r1 ^ rotr32(q1 ^ r1);
 2906              		.loc 1 458 10 discriminator 3 view .LVU985
 2907 0146 CDE910A6 		strd	r10, r6, [sp, #64]
 2908              	.LVL292:
 459:aes.c         ****     q[2] = q1 ^ r1 ^ r2 ^ rotr32(q2 ^ r2);
 2909              		.loc 1 459 5 is_stmt 1 discriminator 3 view .LVU986
 459:aes.c         ****     q[2] = q1 ^ r1 ^ r2 ^ rotr32(q2 ^ r2);
 2910              		.loc 1 459 37 is_stmt 0 discriminator 3 view .LVU987
 2911 014a 85EA020A 		eor	r10, r5, r2
 2912 014e 139D     		ldr	r5, [sp, #76]
 2913 0150 85EA0306 		eor	r6, r5, r3
 2914              	.LVL293:
 2915              	.LBB119:
 2916              	.LBI119:
 433:aes.c         ****     return (x << 32) | (x >> 32);
 2917              		.loc 1 433 24 is_stmt 1 discriminator 3 view .LVU988
 2918              	.LBB120:
 434:aes.c         **** }
 2919              		.loc 1 434 5 discriminator 3 view .LVU989
 434:aes.c         **** }
 2920              		.loc 1 434 5 is_stmt 0 discriminator 3 view .LVU990
 2921              	.LBE120:
 2922              	.LBE119:
 459:aes.c         ****     q[2] = q1 ^ r1 ^ r2 ^ rotr32(q2 ^ r2);
 2923              		.loc 1 459 30 discriminator 3 view .LVU991
 2924 0154 1F9D     		ldr	r5, [sp, #124]
 2925 0156 4B40     		eors	r3, r3, r1
 2926              	.LVL294:
 459:aes.c         ****     q[2] = q1 ^ r1 ^ r2 ^ rotr32(q2 ^ r2);
 2927              		.loc 1 459 30 discriminator 3 view .LVU992
 2928 0158 4240     		eors	r2, r2, r0
 2929              	.LVL295:
 459:aes.c         ****     q[2] = q1 ^ r1 ^ r2 ^ rotr32(q2 ^ r2);
 2930              		.loc 1 459 30 discriminator 3 view .LVU993
 2931 015a 6B40     		eors	r3, r3, r5
 2932 015c 0B9D     		ldr	r5, [sp, #44]
 2933 015e 7A40     		eors	r2, r2, r7
 2934 0160 6A40     		eors	r2, r2, r5
 2935 0162 83EA0E03 		eor	r3, r3, lr
 459:aes.c         ****     q[2] = q1 ^ r1 ^ r2 ^ rotr32(q2 ^ r2);
 2936              		.loc 1 459 35 discriminator 3 view .LVU994
 2937 0166 7240     		eors	r2, r2, r6
 2938 0168 83EA0A03 		eor	r3, r3, r10
 459:aes.c         ****     q[2] = q1 ^ r1 ^ r2 ^ rotr32(q2 ^ r2);
 2939              		.loc 1 459 10 discriminator 3 view .LVU995
 2940 016c CDE91223 		strd	r2, r3, [sp, #72]
 2941              	.LVL296:
 460:aes.c         ****     q[3] = q2 ^ r2 ^ q7 ^ r7 ^ r3 ^ rotr32(q3 ^ r3);
 2942              		.loc 1 460 5 is_stmt 1 discriminator 3 view .LVU996
 460:aes.c         ****     q[3] = q2 ^ r2 ^ q7 ^ r7 ^ r3 ^ rotr32(q3 ^ r3);
 2943              		.loc 1 460 27 is_stmt 0 discriminator 3 view .LVU997
 2944 0170 149B     		ldr	r3, [sp, #80]
 2945 0172 019A     		ldr	r2, [sp, #4]
 460:aes.c         ****     q[3] = q2 ^ r2 ^ q7 ^ r7 ^ r3 ^ rotr32(q3 ^ r3);
 2946              		.loc 1 460 20 discriminator 3 view .LVU998
 2947 0174 019D     		ldr	r5, [sp, #4]
 461:aes.c         ****     q[4] = q3 ^ r3 ^ q7 ^ r7 ^ r4 ^ rotr32(q4 ^ r4);
 2948              		.loc 1 461 30 discriminator 3 view .LVU999
 2949 0176 DDF80CE0 		ldr	lr, [sp, #12]
 460:aes.c         ****     q[3] = q2 ^ r2 ^ q7 ^ r7 ^ r3 ^ rotr32(q3 ^ r3);
 2950              		.loc 1 460 27 discriminator 3 view .LVU1000
 2951 017a 5A40     		eors	r2, r2, r3
 2952 017c 159B     		ldr	r3, [sp, #84]
 460:aes.c         ****     q[3] = q2 ^ r2 ^ q7 ^ r7 ^ r3 ^ rotr32(q3 ^ r3);
 2953              		.loc 1 460 20 discriminator 3 view .LVU1001
 2954 017e 85EA0A05 		eor	r5, r5, r10
 460:aes.c         ****     q[3] = q2 ^ r2 ^ q7 ^ r7 ^ r3 ^ rotr32(q3 ^ r3);
 2955              		.loc 1 460 27 discriminator 3 view .LVU1002
 2956 0182 83EA0C03 		eor	r3, r3, ip
 2957              	.LVL297:
 2958              	.LBB121:
 2959              	.LBI121:
 433:aes.c         ****     return (x << 32) | (x >> 32);
 2960              		.loc 1 433 24 is_stmt 1 discriminator 3 view .LVU1003
 2961              	.LBB122:
 434:aes.c         **** }
 2962              		.loc 1 434 5 discriminator 3 view .LVU1004
 434:aes.c         **** }
 2963              		.loc 1 434 5 is_stmt 0 discriminator 3 view .LVU1005
 2964              	.LBE122:
 2965              	.LBE121:
 460:aes.c         ****     q[3] = q2 ^ r2 ^ q7 ^ r7 ^ r3 ^ rotr32(q3 ^ r3);
 2966              		.loc 1 460 20 discriminator 3 view .LVU1006
 2967 0186 8CEA0606 		eor	r6, ip, r6
 460:aes.c         ****     q[3] = q2 ^ r2 ^ q7 ^ r7 ^ r3 ^ rotr32(q3 ^ r3);
 2968              		.loc 1 460 25 discriminator 3 view .LVU1007
 2969 018a 5D40     		eors	r5, r5, r3
 2970 018c 5640     		eors	r6, r6, r2
 460:aes.c         ****     q[3] = q2 ^ r2 ^ q7 ^ r7 ^ r3 ^ rotr32(q3 ^ r3);
 2971              		.loc 1 460 10 discriminator 3 view .LVU1008
 2972 018e CDE91456 		strd	r5, r6, [sp, #80]
 2973              	.LVL298:
 461:aes.c         ****     q[4] = q3 ^ r3 ^ q7 ^ r7 ^ r4 ^ rotr32(q4 ^ r4);
 2974              		.loc 1 461 5 is_stmt 1 discriminator 3 view .LVU1009
 461:aes.c         ****     q[4] = q3 ^ r3 ^ q7 ^ r7 ^ r4 ^ rotr32(q4 ^ r4);
 2975              		.loc 1 461 37 is_stmt 0 discriminator 3 view .LVU1010
 2976 0192 169D     		ldr	r5, [sp, #88]
 2977 0194 029E     		ldr	r6, [sp, #8]
 2978 0196 DDF80CC0 		ldr	ip, [sp, #12]
 461:aes.c         ****     q[4] = q3 ^ r3 ^ q7 ^ r7 ^ r4 ^ rotr32(q4 ^ r4);
 2979              		.loc 1 461 30 discriminator 3 view .LVU1011
 2980 019a DDF87CA0 		ldr	r10, [sp, #124]
 461:aes.c         ****     q[4] = q3 ^ r3 ^ q7 ^ r7 ^ r4 ^ rotr32(q4 ^ r4);
 2981              		.loc 1 461 37 discriminator 3 view .LVU1012
 2982 019e 6E40     		eors	r6, r6, r5
 2983 01a0 179D     		ldr	r5, [sp, #92]
 2984 01a2 85EA0C05 		eor	r5, r5, ip
 2985              	.LVL299:
 2986              	.LBB123:
 2987              	.LBI123:
 433:aes.c         ****     return (x << 32) | (x >> 32);
 2988              		.loc 1 433 24 is_stmt 1 discriminator 3 view .LVU1013
 2989              	.LBB124:
 434:aes.c         **** }
 2990              		.loc 1 434 5 discriminator 3 view .LVU1014
 434:aes.c         **** }
 2991              		.loc 1 434 5 is_stmt 0 discriminator 3 view .LVU1015
 2992              	.LBE124:
 2993              	.LBE123:
 461:aes.c         ****     q[4] = q3 ^ r3 ^ q7 ^ r7 ^ r4 ^ rotr32(q4 ^ r4);
 2994              		.loc 1 461 30 discriminator 3 view .LVU1016
 2995 01a6 DDF808C0 		ldr	ip, [sp, #8]
 2996 01aa 8EEA010E 		eor	lr, lr, r1
 2997 01ae 8CEA000C 		eor	ip, ip, r0
 2998 01b2 8CEA070C 		eor	ip, ip, r7
 2999 01b6 8EEA0A0E 		eor	lr, lr, r10
 3000 01ba 8CEA020C 		eor	ip, ip, r2
 3001 01be 8EEA030E 		eor	lr, lr, r3
 461:aes.c         ****     q[4] = q3 ^ r3 ^ q7 ^ r7 ^ r4 ^ rotr32(q4 ^ r4);
 3002              		.loc 1 461 35 discriminator 3 view .LVU1017
 3003 01c2 8CEA0502 		eor	r2, ip, r5
 3004 01c6 8EEA0603 		eor	r3, lr, r6
 461:aes.c         ****     q[4] = q3 ^ r3 ^ q7 ^ r7 ^ r4 ^ rotr32(q4 ^ r4);
 3005              		.loc 1 461 10 discriminator 3 view .LVU1018
 3006 01ca CDE91623 		strd	r2, r3, [sp, #88]
 3007              	.LVL300:
 462:aes.c         ****     q[5] = q4 ^ r4 ^ r5 ^ rotr32(q5 ^ r5);
 3008              		.loc 1 462 5 is_stmt 1 discriminator 3 view .LVU1019
 462:aes.c         ****     q[5] = q4 ^ r4 ^ r5 ^ rotr32(q5 ^ r5);
 3009              		.loc 1 462 37 is_stmt 0 discriminator 3 view .LVU1020
 3010 01ce 189B     		ldr	r3, [sp, #96]
 3011 01d0 049A     		ldr	r2, [sp, #16]
 3012 01d2 83EA020E 		eor	lr, r3, r2
 3013 01d6 199B     		ldr	r3, [sp, #100]
 3014 01d8 059A     		ldr	r2, [sp, #20]
 3015 01da 5340     		eors	r3, r3, r2
 3016              	.LVL301:
 3017              	.LBB125:
 3018              	.LBI125:
 433:aes.c         ****     return (x << 32) | (x >> 32);
 3019              		.loc 1 433 24 is_stmt 1 discriminator 3 view .LVU1021
 3020              	.LBB126:
 434:aes.c         **** }
 3021              		.loc 1 434 5 discriminator 3 view .LVU1022
 434:aes.c         **** }
 3022              		.loc 1 434 5 is_stmt 0 discriminator 3 view .LVU1023
 3023              	.LBE126:
 3024              	.LBE125:
 462:aes.c         ****     q[5] = q4 ^ r4 ^ r5 ^ rotr32(q5 ^ r5);
 3025              		.loc 1 462 30 discriminator 3 view .LVU1024
 3026 01dc 049A     		ldr	r2, [sp, #16]
 3027 01de 82EA000C 		eor	ip, r2, r0
 3028 01e2 059A     		ldr	r2, [sp, #20]
 3029 01e4 8CEA070C 		eor	ip, ip, r7
 3030 01e8 4A40     		eors	r2, r2, r1
 3031 01ea 5746     		mov	r7, r10
 3032              	.LVL302:
 462:aes.c         ****     q[5] = q4 ^ r4 ^ r5 ^ rotr32(q5 ^ r5);
 3033              		.loc 1 462 30 discriminator 3 view .LVU1025
 3034 01ec 7A40     		eors	r2, r2, r7
 3035 01ee 6A40     		eors	r2, r2, r5
 3036 01f0 8CEA0607 		eor	r7, ip, r6
 462:aes.c         ****     q[5] = q4 ^ r4 ^ r5 ^ rotr32(q5 ^ r5);
 3037              		.loc 1 462 35 discriminator 3 view .LVU1026
 3038 01f4 5F40     		eors	r7, r7, r3
 3039 01f6 82EA0E02 		eor	r2, r2, lr
 462:aes.c         ****     q[5] = q4 ^ r4 ^ r5 ^ rotr32(q5 ^ r5);
 3040              		.loc 1 462 10 discriminator 3 view .LVU1027
 3041 01fa CDE91872 		strd	r7, r2, [sp, #96]
 3042              	.LVL303:
 463:aes.c         ****     q[6] = q5 ^ r5 ^ r6 ^ rotr32(q6 ^ r6);
 3043              		.loc 1 463 5 is_stmt 1 discriminator 3 view .LVU1028
 463:aes.c         ****     q[6] = q5 ^ r5 ^ r6 ^ rotr32(q6 ^ r6);
 3044              		.loc 1 463 27 is_stmt 0 discriminator 3 view .LVU1029
 3045 01fe 069D     		ldr	r5, [sp, #24]
 3046 0200 1A9A     		ldr	r2, [sp, #104]
 3047 0202 079E     		ldr	r6, [sp, #28]
 464:aes.c         ****     q[7] = q6 ^ r6 ^ r7 ^ rotr32(q7 ^ r7);
 3048              		.loc 1 464 27 discriminator 3 view .LVU1030
 3049 0204 099F     		ldr	r7, [sp, #36]
 463:aes.c         ****     q[6] = q5 ^ r5 ^ r6 ^ rotr32(q6 ^ r6);
 3050              		.loc 1 463 27 discriminator 3 view .LVU1031
 3051 0206 5540     		eors	r5, r5, r2
 3052 0208 1B9A     		ldr	r2, [sp, #108]
 3053 020a 7240     		eors	r2, r2, r6
 3054              	.LVL304:
 3055              	.LBB127:
 3056              	.LBI127:
 433:aes.c         ****     return (x << 32) | (x >> 32);
 3057              		.loc 1 433 24 is_stmt 1 discriminator 3 view .LVU1032
 3058              	.LBB128:
 434:aes.c         **** }
 3059              		.loc 1 434 5 discriminator 3 view .LVU1033
 434:aes.c         **** }
 3060              		.loc 1 434 5 is_stmt 0 discriminator 3 view .LVU1034
 3061              	.LBE128:
 3062              	.LBE127:
 463:aes.c         ****     q[6] = q5 ^ r5 ^ r6 ^ rotr32(q6 ^ r6);
 3063              		.loc 1 463 20 discriminator 3 view .LVU1035
 3064 020c 069E     		ldr	r6, [sp, #24]
 3065 020e 86EA0E0E 		eor	lr, r6, lr
 3066 0212 079E     		ldr	r6, [sp, #28]
 3067 0214 7340     		eors	r3, r3, r6
 463:aes.c         ****     q[6] = q5 ^ r5 ^ r6 ^ rotr32(q6 ^ r6);
 3068              		.loc 1 463 25 discriminator 3 view .LVU1036
 3069 0216 6B40     		eors	r3, r3, r5
 3070 0218 8EEA0206 		eor	r6, lr, r2
 463:aes.c         ****     q[6] = q5 ^ r5 ^ r6 ^ rotr32(q6 ^ r6);
 3071              		.loc 1 463 10 discriminator 3 view .LVU1037
 3072 021c CDE91A63 		strd	r6, r3, [sp, #104]
 3073              	.LVL305:
 464:aes.c         ****     q[7] = q6 ^ r6 ^ r7 ^ rotr32(q7 ^ r7);
 3074              		.loc 1 464 5 is_stmt 1 discriminator 3 view .LVU1038
 464:aes.c         ****     q[7] = q6 ^ r6 ^ r7 ^ rotr32(q7 ^ r7);
 3075              		.loc 1 464 27 is_stmt 0 discriminator 3 view .LVU1039
 3076 0220 1C9B     		ldr	r3, [sp, #112]
 3077 0222 089E     		ldr	r6, [sp, #32]
 3078 0224 5E40     		eors	r6, r6, r3
 3079 0226 1D9B     		ldr	r3, [sp, #116]
 3080 0228 7B40     		eors	r3, r3, r7
 3081              	.LVL306:
 3082              	.LBB129:
 3083              	.LBI129:
 433:aes.c         ****     return (x << 32) | (x >> 32);
 3084              		.loc 1 433 24 is_stmt 1 discriminator 3 view .LVU1040
 3085              	.LBB130:
 434:aes.c         **** }
 3086              		.loc 1 434 5 discriminator 3 view .LVU1041
 434:aes.c         **** }
 3087              		.loc 1 434 5 is_stmt 0 discriminator 3 view .LVU1042
 3088              	.LBE130:
 3089              	.LBE129:
 464:aes.c         ****     q[7] = q6 ^ r6 ^ r7 ^ rotr32(q7 ^ r7);
 3090              		.loc 1 464 20 discriminator 3 view .LVU1043
 3091 022a 089F     		ldr	r7, [sp, #32]
 3092 022c 7D40     		eors	r5, r5, r7
 464:aes.c         ****     q[7] = q6 ^ r6 ^ r7 ^ rotr32(q7 ^ r7);
 3093              		.loc 1 464 25 discriminator 3 view .LVU1044
 3094 022e 5D40     		eors	r5, r5, r3
 465:aes.c         **** }
 3095              		.loc 1 465 20 discriminator 3 view .LVU1045
 3096 0230 5940     		eors	r1, r1, r3
 3097              	.LVL307:
 465:aes.c         **** }
 3098              		.loc 1 465 25 discriminator 3 view .LVU1046
 3099 0232 0A9B     		ldr	r3, [sp, #40]
 464:aes.c         ****     q[7] = q6 ^ r6 ^ r7 ^ rotr32(q7 ^ r7);
 3100              		.loc 1 464 20 discriminator 3 view .LVU1047
 3101 0234 099F     		ldr	r7, [sp, #36]
 465:aes.c         **** }
 3102              		.loc 1 465 20 discriminator 3 view .LVU1048
 3103 0236 7040     		eors	r0, r0, r6
 3104              	.LVL308:
 465:aes.c         **** }
 3105              		.loc 1 465 25 discriminator 3 view .LVU1049
 3106 0238 5840     		eors	r0, r0, r3
 3107 023a 0F9B     		ldr	r3, [sp, #60]
 464:aes.c         ****     q[7] = q6 ^ r6 ^ r7 ^ rotr32(q7 ^ r7);
 3108              		.loc 1 464 20 discriminator 3 view .LVU1050
 3109 023c 7A40     		eors	r2, r2, r7
 465:aes.c         **** }
 3110              		.loc 1 465 25 discriminator 3 view .LVU1051
 3111 023e 5940     		eors	r1, r1, r3
 465:aes.c         **** }
 3112              		.loc 1 465 10 discriminator 3 view .LVU1052
 3113 0240 CDE91E01 		strd	r0, r1, [sp, #120]
 3114              	.LVL309:
 464:aes.c         ****     q[7] = q6 ^ r6 ^ r7 ^ rotr32(q7 ^ r7);
 3115              		.loc 1 464 25 discriminator 3 view .LVU1053
 3116 0244 7240     		eors	r2, r2, r6
 3117              	.LBE116:
 3118              	.LBE115:
 489:aes.c         ****         add_round_key(q, sk_exp + (i << 3));
 3119              		.loc 1 489 9 discriminator 3 view .LVU1054
 3120 0246 0099     		ldr	r1, [sp]
 3121 0248 4046     		mov	r0, r8
 3122              	.LBB134:
 3123              	.LBB133:
 464:aes.c         ****     q[7] = q6 ^ r6 ^ r7 ^ rotr32(q7 ^ r7);
 3124              		.loc 1 464 10 discriminator 3 view .LVU1055
 3125 024a CDE91C52 		strd	r5, r2, [sp, #112]
 3126              	.LVL310:
 465:aes.c         **** }
 3127              		.loc 1 465 5 is_stmt 1 discriminator 3 view .LVU1056
 3128              	.LBB131:
 3129              	.LBI131:
 433:aes.c         ****     return (x << 32) | (x >> 32);
 3130              		.loc 1 433 24 discriminator 3 view .LVU1057
 3131              	.LBB132:
 434:aes.c         **** }
 3132              		.loc 1 434 5 discriminator 3 view .LVU1058
 434:aes.c         **** }
 3133              		.loc 1 434 5 is_stmt 0 discriminator 3 view .LVU1059
 3134              	.LBE132:
 3135              	.LBE131:
 3136              	.LBE133:
 3137              	.LBE134:
 3138              		.loc 1 489 9 is_stmt 1 discriminator 3 view .LVU1060
 3139 024e FFF7FEFF 		bl	add_round_key
 3140              	.LVL311:
 485:aes.c         ****         br_aes_ct64_bitslice_Sbox(q);
 3141              		.loc 1 485 30 discriminator 3 view .LVU1061
 485:aes.c         ****         br_aes_ct64_bitslice_Sbox(q);
 3142              		.loc 1 485 17 discriminator 3 view .LVU1062
 485:aes.c         ****         br_aes_ct64_bitslice_Sbox(q);
 3143              		.loc 1 485 5 is_stmt 0 discriminator 3 view .LVU1063
 3144 0252 009B     		ldr	r3, [sp]
 3145 0254 4033     		adds	r3, r3, #64
 3146 0256 0093     		str	r3, [sp]
 3147 0258 009A     		ldr	r2, [sp]
 3148 025a 0C9B     		ldr	r3, [sp, #48]
 3149 025c 9342     		cmp	r3, r2
 3150 025e 7FF402AF 		bne	.L29
 490:aes.c         ****     }
 491:aes.c         ****     br_aes_ct64_bitslice_Sbox(q);
 3151              		.loc 1 491 5 is_stmt 1 view .LVU1064
 3152 0262 FFF7FEFF 		bl	br_aes_ct64_bitslice_Sbox
 3153              	.LVL312:
 492:aes.c         ****     shift_rows(q);
 3154              		.loc 1 492 5 view .LVU1065
 3155 0266 FFF7FEFF 		bl	shift_rows
 3156              	.LVL313:
 493:aes.c         ****     add_round_key(q, sk_exp + 8 * nrounds);
 3157              		.loc 1 493 5 view .LVU1066
 3158 026a 0D99     		ldr	r1, [sp, #52]
 3159 026c 4046     		mov	r0, r8
 3160 026e 4944     		add	r1, r1, r9
 3161 0270 FFF7FEFF 		bl	add_round_key
 3162              	.LVL314:
 494:aes.c         **** 
 495:aes.c         ****     br_aes_ct64_ortho(q);
 3163              		.loc 1 495 5 view .LVU1067
 3164 0274 FFF7FEFF 		bl	br_aes_ct64_ortho
 3165              	.LVL315:
 496:aes.c         ****     for (i = 0; i < 4; i ++) {
 3166              		.loc 1 496 5 view .LVU1068
 3167              		.loc 1 496 17 view .LVU1069
 3168              		.loc 1 496 12 is_stmt 0 view .LVU1070
 3169 0278 4FF0000E 		mov	lr, #0
 3170              	.LVL316:
 3171              	.L30:
 497:aes.c         ****         br_aes_ct64_interleave_out(w + (i << 2), q[i], q[i + 4]);
 3172              		.loc 1 497 9 is_stmt 1 discriminator 3 view .LVU1071
 3173 027c D4E90002 		ldrd	r0, r2, [r4]
 3174 0280 0834     		adds	r4, r4, #8
 3175 0282 D4E90613 		ldrd	r1, r3, [r4, #24]
 3176              	.LVL317:
 3177              	.LBB135:
 3178              	.LBI135:
 298:aes.c         ****     uint64_t x0, x1, x2, x3;
 3179              		.loc 1 298 13 discriminator 3 view .LVU1072
 3180              	.LBB136:
 299:aes.c         **** 
 3181              		.loc 1 299 5 discriminator 3 view .LVU1073
 301:aes.c         ****     x1 = q1 & (uint64_t)0x00FF00FF00FF00FF;
 3182              		.loc 1 301 5 discriminator 3 view .LVU1074
 302:aes.c         ****     x2 = (q0 >> 8) & (uint64_t)0x00FF00FF00FF00FF;
 3183              		.loc 1 302 8 is_stmt 0 discriminator 3 view .LVU1075
 3184 0286 03F0FF17 		and	r7, r3, #16711935
 304:aes.c         ****     x0 |= (x0 >> 8);
 3185              		.loc 1 304 14 discriminator 3 view .LVU1076
 3186 028a 1B0A     		lsrs	r3, r3, #8
 3187              	.LVL318:
 301:aes.c         ****     x1 = q1 & (uint64_t)0x00FF00FF00FF00FF;
 3188              		.loc 1 301 8 discriminator 3 view .LVU1077
 3189 028c 00F0FF15 		and	r5, r0, #16711935
 304:aes.c         ****     x0 |= (x0 >> 8);
 3190              		.loc 1 304 8 discriminator 3 view .LVU1078
 3191 0290 03F0FF13 		and	r3, r3, #16711935
 301:aes.c         ****     x1 = q1 & (uint64_t)0x00FF00FF00FF00FF;
 3192              		.loc 1 301 8 discriminator 3 view .LVU1079
 3193 0294 0095     		str	r5, [sp]
 308:aes.c         ****     x0 &= (uint64_t)0x0000FFFF0000FFFF;
 3194              		.loc 1 308 8 discriminator 3 view .LVU1080
 3195 0296 43EA1323 		orr	r3, r3, r3, lsr #8
 3196 029a 0193     		str	r3, [sp, #4]
 309:aes.c         ****     x1 &= (uint64_t)0x0000FFFF0000FFFF;
 3197              		.loc 1 309 8 discriminator 3 view .LVU1081
 3198 029c 009B     		ldr	r3, [sp]
 303:aes.c         ****     x3 = (q1 >> 8) & (uint64_t)0x00FF00FF00FF00FF;
 3199              		.loc 1 303 14 discriminator 3 view .LVU1082
 3200 029e 060A     		lsrs	r6, r0, #8
 304:aes.c         ****     x0 |= (x0 >> 8);
 3201              		.loc 1 304 14 discriminator 3 view .LVU1083
 3202 02a0 0D0A     		lsrs	r5, r1, #8
 301:aes.c         ****     x1 = q1 & (uint64_t)0x00FF00FF00FF00FF;
 3203              		.loc 1 301 8 discriminator 3 view .LVU1084
 3204 02a2 02F0FF1C 		and	ip, r2, #16711935
 3205              	.LVL319:
 302:aes.c         ****     x2 = (q0 >> 8) & (uint64_t)0x00FF00FF00FF00FF;
 3206              		.loc 1 302 5 is_stmt 1 discriminator 3 view .LVU1085
 305:aes.c         ****     x1 |= (x1 >> 8);
 3207              		.loc 1 305 8 is_stmt 0 discriminator 3 view .LVU1086
 3208 02a6 C0B2     		uxtb	r0, r0
 3209              	.LVL320:
 303:aes.c         ****     x3 = (q1 >> 8) & (uint64_t)0x00FF00FF00FF00FF;
 3210              		.loc 1 303 14 discriminator 3 view .LVU1087
 3211 02a8 120A     		lsrs	r2, r2, #8
 3212              	.LVL321:
 302:aes.c         ****     x2 = (q0 >> 8) & (uint64_t)0x00FF00FF00FF00FF;
 3213              		.loc 1 302 8 discriminator 3 view .LVU1088
 3214 02aa 01F0FF1A 		and	r10, r1, #16711935
 3215              	.LVL322:
 303:aes.c         ****     x3 = (q1 >> 8) & (uint64_t)0x00FF00FF00FF00FF;
 3216              		.loc 1 303 5 is_stmt 1 discriminator 3 view .LVU1089
 303:aes.c         ****     x3 = (q1 >> 8) & (uint64_t)0x00FF00FF00FF00FF;
 3217              		.loc 1 303 8 is_stmt 0 discriminator 3 view .LVU1090
 3218 02ae 06F0FF19 		and	r9, r6, #16711935
 304:aes.c         ****     x0 |= (x0 >> 8);
 3219              		.loc 1 304 8 discriminator 3 view .LVU1091
 3220 02b2 05F0FF18 		and	r8, r5, #16711935
 309:aes.c         ****     x1 &= (uint64_t)0x0000FFFF0000FFFF;
 3221              		.loc 1 309 8 discriminator 3 view .LVU1092
 3222 02b6 40EA1320 		orr	r0, r0, r3, lsr #8
 303:aes.c         ****     x3 = (q1 >> 8) & (uint64_t)0x00FF00FF00FF00FF;
 3223              		.loc 1 303 8 discriminator 3 view .LVU1093
 3224 02ba 02F0FF12 		and	r2, r2, #16711935
 3225              	.LVL323:
 304:aes.c         ****     x0 |= (x0 >> 8);
 3226              		.loc 1 304 5 is_stmt 1 discriminator 3 view .LVU1094
 305:aes.c         ****     x1 |= (x1 >> 8);
 3227              		.loc 1 305 5 discriminator 3 view .LVU1095
 316:aes.c         **** }
 3228              		.loc 1 316 25 is_stmt 0 discriminator 3 view .LVU1096
 3229 02be 019B     		ldr	r3, [sp, #4]
 3230              	.LVL324:
 306:aes.c         ****     x2 |= (x2 >> 8);
 3231              		.loc 1 306 8 discriminator 3 view .LVU1097
 3232 02c0 C9B2     		uxtb	r1, r1
 3233              	.LVL325:
 307:aes.c         ****     x3 |= (x3 >> 8);
 3234              		.loc 1 307 8 discriminator 3 view .LVU1098
 3235 02c2 F6B2     		uxtb	r6, r6
 308:aes.c         ****     x0 &= (uint64_t)0x0000FFFF0000FFFF;
 3236              		.loc 1 308 8 discriminator 3 view .LVU1099
 3237 02c4 EDB2     		uxtb	r5, r5
 305:aes.c         ****     x1 |= (x1 >> 8);
 3238              		.loc 1 305 8 discriminator 3 view .LVU1100
 3239 02c6 4CEA1C2C 		orr	ip, ip, ip, lsr #8
 3240              	.LVL326:
 306:aes.c         ****     x2 |= (x2 >> 8);
 3241              		.loc 1 306 5 is_stmt 1 discriminator 3 view .LVU1101
 306:aes.c         ****     x2 |= (x2 >> 8);
 3242              		.loc 1 306 8 is_stmt 0 discriminator 3 view .LVU1102
 3243 02ca 47EA1727 		orr	r7, r7, r7, lsr #8
 3244              	.LVL327:
 307:aes.c         ****     x3 |= (x3 >> 8);
 3245              		.loc 1 307 5 is_stmt 1 discriminator 3 view .LVU1103
 307:aes.c         ****     x3 |= (x3 >> 8);
 3246              		.loc 1 307 8 is_stmt 0 discriminator 3 view .LVU1104
 3247 02ce 42EA1222 		orr	r2, r2, r2, lsr #8
 3248              	.LVL328:
 308:aes.c         ****     x0 &= (uint64_t)0x0000FFFF0000FFFF;
 3249              		.loc 1 308 5 is_stmt 1 discriminator 3 view .LVU1105
 309:aes.c         ****     x1 &= (uint64_t)0x0000FFFF0000FFFF;
 3250              		.loc 1 309 5 discriminator 3 view .LVU1106
 310:aes.c         ****     x2 &= (uint64_t)0x0000FFFF0000FFFF;
 3251              		.loc 1 310 5 discriminator 3 view .LVU1107
 310:aes.c         ****     x2 &= (uint64_t)0x0000FFFF0000FFFF;
 3252              		.loc 1 310 8 is_stmt 0 discriminator 3 view .LVU1108
 3253 02d2 41EA1A21 		orr	r1, r1, r10, lsr #8
 3254              	.LVL329:
 311:aes.c         ****     x3 &= (uint64_t)0x0000FFFF0000FFFF;
 3255              		.loc 1 311 5 is_stmt 1 discriminator 3 view .LVU1109
 311:aes.c         ****     x3 &= (uint64_t)0x0000FFFF0000FFFF;
 3256              		.loc 1 311 8 is_stmt 0 discriminator 3 view .LVU1110
 3257 02d6 46EA1926 		orr	r6, r6, r9, lsr #8
 3258              	.LVL330:
 312:aes.c         ****     w[0] = (uint32_t)x0 | (uint32_t)(x0 >> 16);
 3259              		.loc 1 312 5 is_stmt 1 discriminator 3 view .LVU1111
 312:aes.c         ****     w[0] = (uint32_t)x0 | (uint32_t)(x0 >> 16);
 3260              		.loc 1 312 8 is_stmt 0 discriminator 3 view .LVU1112
 3261 02da 45EA1825 		orr	r5, r5, r8, lsr #8
 3262              	.LVL331:
 313:aes.c         ****     w[1] = (uint32_t)x1 | (uint32_t)(x1 >> 16);
 3263              		.loc 1 313 5 is_stmt 1 discriminator 3 view .LVU1113
 3264              	.LBE136:
 3265              	.LBE135:
 496:aes.c         ****         br_aes_ct64_interleave_out(w + (i << 2), q[i], q[i + 4]);
 3266              		.loc 1 496 26 is_stmt 0 discriminator 3 view .LVU1114
 3267 02de 0EF1010E 		add	lr, lr, #1
 3268              	.LVL332:
 3269              	.LBB139:
 3270              	.LBB137:
 313:aes.c         ****     w[1] = (uint32_t)x1 | (uint32_t)(x1 >> 16);
 3271              		.loc 1 313 25 discriminator 3 view .LVU1115
 3272 02e2 40EA0C40 		orr	r0, r0, ip, lsl #16
 3273              	.LVL333:
 314:aes.c         ****     w[2] = (uint32_t)x2 | (uint32_t)(x2 >> 16);
 3274              		.loc 1 314 25 discriminator 3 view .LVU1116
 3275 02e6 41EA0741 		orr	r1, r1, r7, lsl #16
 3276              	.LVL334:
 315:aes.c         ****     w[3] = (uint32_t)x3 | (uint32_t)(x3 >> 16);
 3277              		.loc 1 315 25 discriminator 3 view .LVU1117
 3278 02ea 46EA0242 		orr	r2, r6, r2, lsl #16
 3279              	.LVL335:
 316:aes.c         **** }
 3280              		.loc 1 316 25 discriminator 3 view .LVU1118
 3281 02ee 45EA0343 		orr	r3, r5, r3, lsl #16
 3282              	.LBE137:
 3283              	.LBE139:
 496:aes.c         ****         br_aes_ct64_interleave_out(w + (i << 2), q[i], q[i + 4]);
 3284              		.loc 1 496 5 discriminator 3 view .LVU1119
 3285 02f2 BEF1040F 		cmp	lr, #4
 3286              	.LBB140:
 3287              	.LBB138:
 313:aes.c         ****     w[1] = (uint32_t)x1 | (uint32_t)(x1 >> 16);
 3288              		.loc 1 313 10 discriminator 3 view .LVU1120
 3289 02f6 CBF80000 		str	r0, [fp]
 314:aes.c         ****     w[2] = (uint32_t)x2 | (uint32_t)(x2 >> 16);
 3290              		.loc 1 314 5 is_stmt 1 discriminator 3 view .LVU1121
 314:aes.c         ****     w[2] = (uint32_t)x2 | (uint32_t)(x2 >> 16);
 3291              		.loc 1 314 10 is_stmt 0 discriminator 3 view .LVU1122
 3292 02fa CBF80410 		str	r1, [fp, #4]
 315:aes.c         ****     w[3] = (uint32_t)x3 | (uint32_t)(x3 >> 16);
 3293              		.loc 1 315 5 is_stmt 1 discriminator 3 view .LVU1123
 315:aes.c         ****     w[3] = (uint32_t)x3 | (uint32_t)(x3 >> 16);
 3294              		.loc 1 315 10 is_stmt 0 discriminator 3 view .LVU1124
 3295 02fe CBF80820 		str	r2, [fp, #8]
 316:aes.c         **** }
 3296              		.loc 1 316 5 is_stmt 1 discriminator 3 view .LVU1125
 316:aes.c         **** }
 3297              		.loc 1 316 10 is_stmt 0 discriminator 3 view .LVU1126
 3298 0302 CBF80C30 		str	r3, [fp, #12]
 3299              	.LVL336:
 316:aes.c         **** }
 3300              		.loc 1 316 10 discriminator 3 view .LVU1127
 3301              	.LBE138:
 3302              	.LBE140:
 496:aes.c         ****         br_aes_ct64_interleave_out(w + (i << 2), q[i], q[i + 4]);
 3303              		.loc 1 496 24 is_stmt 1 discriminator 3 view .LVU1128
 496:aes.c         ****         br_aes_ct64_interleave_out(w + (i << 2), q[i], q[i + 4]);
 3304              		.loc 1 496 17 discriminator 3 view .LVU1129
 496:aes.c         ****         br_aes_ct64_interleave_out(w + (i << 2), q[i], q[i + 4]);
 3305              		.loc 1 496 5 is_stmt 0 discriminator 3 view .LVU1130
 3306 0306 0BF1100B 		add	fp, fp, #16
 3307 030a B7D1     		bne	.L30
 3308 030c 0E98     		ldr	r0, [sp, #56]
 496:aes.c         ****         br_aes_ct64_interleave_out(w + (i << 2), q[i], q[i + 4]);
 3309              		.loc 1 496 5 view .LVU1131
 3310 030e 20AA     		add	r2, sp, #128
 3311 0310 00F14401 		add	r1, r0, #68
 3312              	.L31:
 3313              	.LVL337:
 3314              	.LBB141:
 3315              	.LBB142:
  62:aes.c         ****         br_enc32le(dst, *v ++);
 3316              		.loc 1 62 11 is_stmt 1 view .LVU1132
  62:aes.c         ****         br_enc32le(dst, *v ++);
 3317              		.loc 1 62 11 is_stmt 0 view .LVU1133
 3318 0314 0430     		adds	r0, r0, #4
 3319              	.LVL338:
  62:aes.c         ****         br_enc32le(dst, *v ++);
 3320              		.loc 1 62 11 view .LVU1134
 3321 0316 8142     		cmp	r1, r0
 3322 0318 02D1     		bne	.L32
 3323              	.LBE142:
 3324              	.LBE141:
 498:aes.c         ****     }
 499:aes.c         ****     br_range_enc32le(out, w, 16);
 500:aes.c         **** }
 3325              		.loc 1 500 1 view .LVU1135
 3326 031a 31B0     		add	sp, sp, #196
 3327              	.LCFI19:
 3328              		.cfi_remember_state
 3329              		.cfi_def_cfa_offset 36
 3330              		@ sp needed
 3331 031c BDE8F08F 		pop	{r4, r5, r6, r7, r8, r9, r10, fp, pc}
 3332              	.LVL339:
 3333              	.L32:
 3334              	.LCFI20:
 3335              		.cfi_restore_state
 3336              	.LBB146:
 3337              	.LBB145:
  63:aes.c         ****         dst += 4;
 3338              		.loc 1 63 9 is_stmt 1 view .LVU1136
  63:aes.c         ****         dst += 4;
 3339              		.loc 1 63 9 is_stmt 0 view .LVU1137
 3340 0320 52F8043B 		ldr	r3, [r2], #4
 3341              	.LVL340:
 3342              	.LBB143:
 3343              	.LBI143:
  54:aes.c         ****     dst[0] = (unsigned char)x;
 3344              		.loc 1 54 20 is_stmt 1 view .LVU1138
 3345              	.LBB144:
  55:aes.c         ****     dst[1] = (unsigned char)(x >> 8);
 3346              		.loc 1 55 5 view .LVU1139
  55:aes.c         ****     dst[1] = (unsigned char)(x >> 8);
 3347              		.loc 1 55 14 is_stmt 0 view .LVU1140
 3348 0324 00F8043C 		strb	r3, [r0, #-4]
  56:aes.c         ****     dst[2] = (unsigned char)(x >> 16);
 3349              		.loc 1 56 5 is_stmt 1 view .LVU1141
  56:aes.c         ****     dst[2] = (unsigned char)(x >> 16);
 3350              		.loc 1 56 32 is_stmt 0 view .LVU1142
 3351 0328 1C0A     		lsrs	r4, r3, #8
  56:aes.c         ****     dst[2] = (unsigned char)(x >> 16);
 3352              		.loc 1 56 14 view .LVU1143
 3353 032a 00F8034C 		strb	r4, [r0, #-3]
  57:aes.c         ****     dst[3] = (unsigned char)(x >> 24);
 3354              		.loc 1 57 5 is_stmt 1 view .LVU1144
  57:aes.c         ****     dst[3] = (unsigned char)(x >> 24);
 3355              		.loc 1 57 32 is_stmt 0 view .LVU1145
 3356 032e 1C0C     		lsrs	r4, r3, #16
  58:aes.c         **** }
 3357              		.loc 1 58 32 view .LVU1146
 3358 0330 1B0E     		lsrs	r3, r3, #24
 3359              	.LVL341:
  57:aes.c         ****     dst[3] = (unsigned char)(x >> 24);
 3360              		.loc 1 57 14 view .LVU1147
 3361 0332 00F8024C 		strb	r4, [r0, #-2]
  58:aes.c         **** }
 3362              		.loc 1 58 5 is_stmt 1 view .LVU1148
  58:aes.c         **** }
 3363              		.loc 1 58 14 is_stmt 0 view .LVU1149
 3364 0336 00F8013C 		strb	r3, [r0, #-1]
 3365              	.LVL342:
  58:aes.c         **** }
 3366              		.loc 1 58 14 view .LVU1150
 3367              	.LBE144:
 3368              	.LBE143:
  64:aes.c         ****     }
 3369              		.loc 1 64 9 is_stmt 1 view .LVU1151
  64:aes.c         ****     }
 3370              		.loc 1 64 9 is_stmt 0 view .LVU1152
 3371 033a EBE7     		b	.L31
 3372              	.LBE145:
 3373              	.LBE146:
 3374              		.cfi_endproc
 3375              	.LFE17:
 3377              		.section	.text.aes_ecb,"ax",%progbits
 3378              		.align	1
 3379              		.syntax unified
 3380              		.thumb
 3381              		.thumb_func
 3382              		.fpu softvfp
 3384              	aes_ecb:
 3385              	.LVL343:
 3386              	.LFB19:
 501:aes.c         **** 
 502:aes.c         **** static void aes_ctr4x(unsigned char out[64], uint32_t ivw[16], const uint64_t *sk_exp, unsigned int
 503:aes.c         ****     aes_ecb4x(out, ivw, sk_exp, nrounds);
 504:aes.c         **** 
 505:aes.c         ****     /* Increase counter for next 4 blocks */
 506:aes.c         ****     inc4_be(ivw + 3);
 507:aes.c         ****     inc4_be(ivw + 7);
 508:aes.c         ****     inc4_be(ivw + 11);
 509:aes.c         ****     inc4_be(ivw + 15);
 510:aes.c         **** }
 511:aes.c         **** 
 512:aes.c         **** static void aes_ecb(unsigned char *out, const unsigned char *in, size_t nblocks, const uint64_t *rk
 3387              		.loc 1 512 127 is_stmt 1 view -0
 3388              		.cfi_startproc
 3389              		@ args = 4, pretend = 0, frame = 128
 3390              		@ frame_needed = 0, uses_anonymous_args = 0
 513:aes.c         ****     uint32_t blocks[16];
 3391              		.loc 1 513 5 view .LVU1154
 514:aes.c         ****     unsigned char t[64];
 3392              		.loc 1 514 5 view .LVU1155
 515:aes.c         **** 
 516:aes.c         ****     while (nblocks >= 4) {
 3393              		.loc 1 516 5 view .LVU1156
 512:aes.c         ****     uint32_t blocks[16];
 3394              		.loc 1 512 127 is_stmt 0 view .LVU1157
 3395 0000 2DE9F04F 		push	{r4, r5, r6, r7, r8, r9, r10, fp, lr}
 3396              	.LCFI21:
 3397              		.cfi_def_cfa_offset 36
 3398              		.cfi_offset 4, -36
 3399              		.cfi_offset 5, -32
 3400              		.cfi_offset 6, -28
 3401              		.cfi_offset 7, -24
 3402              		.cfi_offset 8, -20
 3403              		.cfi_offset 9, -16
 3404              		.cfi_offset 10, -12
 3405              		.cfi_offset 11, -8
 3406              		.cfi_offset 14, -4
 3407 0004 A1B0     		sub	sp, sp, #132
 3408              	.LCFI22:
 3409              		.cfi_def_cfa_offset 168
 512:aes.c         ****     uint32_t blocks[16];
 3410              		.loc 1 512 127 view .LVU1158
 3411 0006 0546     		mov	r5, r0
 3412 0008 DDF8A880 		ldr	r8, [sp, #168]
 3413 000c 0E46     		mov	r6, r1
 3414 000e 1446     		mov	r4, r2
 3415 0010 1F46     		mov	r7, r3
 3416              		.loc 1 516 11 view .LVU1159
 3417 0012 9146     		mov	r9, r2
 3418 0014 8B46     		mov	fp, r1
 3419 0016 8246     		mov	r10, r0
 3420              	.LVL344:
 3421              	.L37:
 3422              		.loc 1 516 11 is_stmt 1 view .LVU1160
 3423 0018 B9F1030F 		cmp	r9, #3
 3424 001c 1BD8     		bhi	.L38
 3425              		.loc 1 516 11 is_stmt 0 view .LVU1161
 3426 001e A308     		lsrs	r3, r4, #2
 3427 0020 6FF00301 		mvn	r1, #3
 3428 0024 01FB0344 		mla	r4, r1, r3, r4
 517:aes.c         ****         br_range_dec32le(blocks, 16, in);
 518:aes.c         ****         aes_ecb4x(out, blocks, rkeys, nrounds);
 519:aes.c         ****         nblocks -= 4;
 520:aes.c         ****         in += 64;
 521:aes.c         ****         out += 64;
 522:aes.c         ****     }
 523:aes.c         **** 
 524:aes.c         ****     if (nblocks) {
 3429              		.loc 1 524 5 is_stmt 1 view .LVU1162
 3430 0028 05EB8315 		add	r5, r5, r3, lsl #6
 3431 002c 06EB8312 		add	r2, r6, r3, lsl #6
 3432              		.loc 1 524 8 is_stmt 0 view .LVU1163
 3433 0030 74B1     		cbz	r4, .L36
 525:aes.c         ****         br_range_dec32le(blocks, nblocks * 4, in);
 3434              		.loc 1 525 9 is_stmt 1 view .LVU1164
 3435 0032 A100     		lsls	r1, r4, #2
 3436 0034 6846     		mov	r0, sp
 3437 0036 FFF7FEFF 		bl	br_range_dec32le
 3438              	.LVL345:
 526:aes.c         ****         aes_ecb4x(t, blocks, rkeys, nrounds);
 3439              		.loc 1 526 9 view .LVU1165
 3440 003a 3A46     		mov	r2, r7
 3441 003c 6946     		mov	r1, sp
 3442 003e 10A8     		add	r0, sp, #64
 3443 0040 4346     		mov	r3, r8
 3444 0042 FFF7FEFF 		bl	aes_ecb4x
 3445              	.LVL346:
 527:aes.c         ****         memcpy(out, t, nblocks * 16);
 3446              		.loc 1 527 9 view .LVU1166
 3447 0046 2201     		lsls	r2, r4, #4
 3448 0048 10A9     		add	r1, sp, #64
 3449 004a 2846     		mov	r0, r5
 3450 004c FFF7FEFF 		bl	memcpy
 3451              	.LVL347:
 3452              	.L36:
 528:aes.c         ****     }
 529:aes.c         **** }
 3453              		.loc 1 529 1 is_stmt 0 view .LVU1167
 3454 0050 21B0     		add	sp, sp, #132
 3455              	.LCFI23:
 3456              		.cfi_remember_state
 3457              		.cfi_def_cfa_offset 36
 3458              		@ sp needed
 3459 0052 BDE8F08F 		pop	{r4, r5, r6, r7, r8, r9, r10, fp, pc}
 3460              	.LVL348:
 3461              	.L38:
 3462              	.LCFI24:
 3463              		.cfi_restore_state
 517:aes.c         ****         aes_ecb4x(out, blocks, rkeys, nrounds);
 3464              		.loc 1 517 9 is_stmt 1 view .LVU1168
 3465 0056 5A46     		mov	r2, fp
 3466 0058 1021     		movs	r1, #16
 3467 005a 6846     		mov	r0, sp
 3468 005c FFF7FEFF 		bl	br_range_dec32le
 3469              	.LVL349:
 518:aes.c         ****         nblocks -= 4;
 3470              		.loc 1 518 9 view .LVU1169
 3471 0060 5046     		mov	r0, r10
 3472 0062 4346     		mov	r3, r8
 3473 0064 3A46     		mov	r2, r7
 3474 0066 6946     		mov	r1, sp
 3475 0068 FFF7FEFF 		bl	aes_ecb4x
 3476              	.LVL350:
 519:aes.c         ****         in += 64;
 3477              		.loc 1 519 9 view .LVU1170
 519:aes.c         ****         in += 64;
 3478              		.loc 1 519 17 is_stmt 0 view .LVU1171
 3479 006c A9F10409 		sub	r9, r9, #4
 3480              	.LVL351:
 520:aes.c         ****         out += 64;
 3481              		.loc 1 520 9 is_stmt 1 view .LVU1172
 520:aes.c         ****         out += 64;
 3482              		.loc 1 520 12 is_stmt 0 view .LVU1173
 3483 0070 0BF1400B 		add	fp, fp, #64
 3484              	.LVL352:
 521:aes.c         ****     }
 3485              		.loc 1 521 9 is_stmt 1 view .LVU1174
 521:aes.c         ****     }
 3486              		.loc 1 521 13 is_stmt 0 view .LVU1175
 3487 0074 0AF1400A 		add	r10, r10, #64
 3488              	.LVL353:
 521:aes.c         ****     }
 3489              		.loc 1 521 13 view .LVU1176
 3490 0078 CEE7     		b	.L37
 3491              		.cfi_endproc
 3492              	.LFE19:
 3494              		.section	.text.inc4_be,"ax",%progbits
 3495              		.align	1
 3496              		.syntax unified
 3497              		.thumb
 3498              		.thumb_func
 3499              		.fpu softvfp
 3501              	inc4_be:
 3502              	.LVL354:
 3503              	.LFB16:
 468:aes.c         ****     uint32_t t = br_swap32(*x) + 4;
 3504              		.loc 1 468 34 is_stmt 1 view -0
 3505              		.cfi_startproc
 3506              		@ args = 0, pretend = 0, frame = 0
 3507              		@ frame_needed = 0, uses_anonymous_args = 0
 3508              		@ link register save eliminated.
 469:aes.c         ****     *x = br_swap32(t);
 3509              		.loc 1 469 5 view .LVU1178
 3510 0000 0368     		ldr	r3, [r0]
 3511 0002 1BBA     		rev	r3, r3
 3512              	.LVL355:
  49:aes.c         ****         | ((x >> 8) & (uint32_t)0x00FF00FF);
 3513              		.loc 1 49 5 view .LVU1179
  51:aes.c         **** }
 3514              		.loc 1 51 5 view .LVU1180
 470:aes.c         **** }
 3515              		.loc 1 470 5 view .LVU1181
  49:aes.c         ****         | ((x >> 8) & (uint32_t)0x00FF00FF);
 3516              		.loc 1 49 5 view .LVU1182
  51:aes.c         **** }
 3517              		.loc 1 51 5 view .LVU1183
 469:aes.c         ****     *x = br_swap32(t);
 3518              		.loc 1 469 14 is_stmt 0 view .LVU1184
 3519 0004 0433     		adds	r3, r3, #4
 3520              	.LVL356:
 469:aes.c         ****     *x = br_swap32(t);
 3521              		.loc 1 469 14 view .LVU1185
 3522 0006 1BBA     		rev	r3, r3
 3523              	.LVL357:
 470:aes.c         **** }
 3524              		.loc 1 470 8 view .LVU1186
 3525 0008 0360     		str	r3, [r0]
 3526              	.LVL358:
 471:aes.c         **** 
 3527              		.loc 1 471 1 view .LVU1187
 3528 000a 7047     		bx	lr
 3529              		.cfi_endproc
 3530              	.LFE16:
 3532              		.section	.text.aes_ctr,"ax",%progbits
 3533              		.align	1
 3534              		.syntax unified
 3535              		.thumb
 3536              		.thumb_func
 3537              		.fpu softvfp
 3539              	aes_ctr:
 3540              	.LVL359:
 3541              	.LFB20:
 530:aes.c         **** 
 531:aes.c         **** static void aes_ctr(unsigned char *out, size_t outlen, const unsigned char *iv, const uint64_t *rke
 3542              		.loc 1 531 126 is_stmt 1 view -0
 3543              		.cfi_startproc
 3544              		@ args = 4, pretend = 0, frame = 128
 3545              		@ frame_needed = 0, uses_anonymous_args = 0
 532:aes.c         ****     uint32_t ivw[16];
 3546              		.loc 1 532 5 view .LVU1189
 533:aes.c         ****     size_t i;
 3547              		.loc 1 533 5 view .LVU1190
 534:aes.c         ****     uint32_t cc = 0;
 3548              		.loc 1 534 5 view .LVU1191
 535:aes.c         **** 
 536:aes.c         ****     br_range_dec32le(ivw, 3, iv);
 3549              		.loc 1 536 5 view .LVU1192
 531:aes.c         ****     uint32_t ivw[16];
 3550              		.loc 1 531 126 is_stmt 0 view .LVU1193
 3551 0000 2DE9F043 		push	{r4, r5, r6, r7, r8, r9, lr}
 3552              	.LCFI25:
 3553              		.cfi_def_cfa_offset 28
 3554              		.cfi_offset 4, -28
 3555              		.cfi_offset 5, -24
 3556              		.cfi_offset 6, -20
 3557              		.cfi_offset 7, -16
 3558              		.cfi_offset 8, -12
 3559              		.cfi_offset 9, -8
 3560              		.cfi_offset 14, -4
 3561 0004 A1B0     		sub	sp, sp, #132
 3562              	.LCFI26:
 3563              		.cfi_def_cfa_offset 160
 3564              		.loc 1 536 5 view .LVU1194
 3565 0006 6C46     		mov	r4, sp
 531:aes.c         ****     uint32_t ivw[16];
 3566              		.loc 1 531 126 view .LVU1195
 3567 0008 0646     		mov	r6, r0
 3568 000a 0D46     		mov	r5, r1
 3569              		.loc 1 536 5 view .LVU1196
 3570 000c 2046     		mov	r0, r4
 3571              	.LVL360:
 3572              		.loc 1 536 5 view .LVU1197
 3573 000e 0321     		movs	r1, #3
 3574              	.LVL361:
 531:aes.c         ****     uint32_t ivw[16];
 3575              		.loc 1 531 126 view .LVU1198
 3576 0010 1F46     		mov	r7, r3
 3577 0012 DDF8A080 		ldr	r8, [sp, #160]
 3578              		.loc 1 536 5 view .LVU1199
 3579 0016 FFF7FEFF 		bl	br_range_dec32le
 3580              	.LVL362:
 537:aes.c         ****     memcpy(ivw +  4, ivw, 3 * sizeof(uint32_t));
 3581              		.loc 1 537 5 is_stmt 1 view .LVU1200
 3582 001a 94E80700 		ldm	r4, {r0, r1, r2}
 3583 001e 04AB     		add	r3, sp, #16
 3584 0020 83E80700 		stm	r3, {r0, r1, r2}
 538:aes.c         ****     memcpy(ivw +  8, ivw, 3 * sizeof(uint32_t));
 3585              		.loc 1 538 5 view .LVU1201
 3586 0024 94E80700 		ldm	r4, {r0, r1, r2}
 3587 0028 08AB     		add	r3, sp, #32
 3588 002a 83E80700 		stm	r3, {r0, r1, r2}
 539:aes.c         ****     memcpy(ivw + 12, ivw, 3 * sizeof(uint32_t));
 3589              		.loc 1 539 5 view .LVU1202
 3590 002e 0CAB     		add	r3, sp, #48
 3591 0030 83E80700 		stm	r3, {r0, r1, r2}
 540:aes.c         ****     ivw[ 3] = br_swap32(cc);
 3592              		.loc 1 540 5 view .LVU1203
 3593              	.LVL363:
  49:aes.c         ****         | ((x >> 8) & (uint32_t)0x00FF00FF);
 3594              		.loc 1 49 5 view .LVU1204
  51:aes.c         **** }
 3595              		.loc 1 51 5 view .LVU1205
 3596              		.loc 1 540 13 is_stmt 0 view .LVU1206
 3597 0034 0023     		movs	r3, #0
 3598 0036 0393     		str	r3, [sp, #12]
 541:aes.c         ****     ivw[ 7] = br_swap32(cc + 1);
 3599              		.loc 1 541 5 is_stmt 1 view .LVU1207
 3600              	.LVL364:
  49:aes.c         ****         | ((x >> 8) & (uint32_t)0x00FF00FF);
 3601              		.loc 1 49 5 view .LVU1208
  51:aes.c         **** }
 3602              		.loc 1 51 5 view .LVU1209
 3603              		.loc 1 541 13 is_stmt 0 view .LVU1210
 3604 0038 4FF08073 		mov	r3, #16777216
 3605 003c 0793     		str	r3, [sp, #28]
 542:aes.c         ****     ivw[11] = br_swap32(cc + 2);
 3606              		.loc 1 542 5 is_stmt 1 view .LVU1211
 3607              	.LVL365:
  49:aes.c         ****         | ((x >> 8) & (uint32_t)0x00FF00FF);
 3608              		.loc 1 49 5 view .LVU1212
  51:aes.c         **** }
 3609              		.loc 1 51 5 view .LVU1213
 3610              		.loc 1 542 13 is_stmt 0 view .LVU1214
 3611 003e 4FF00073 		mov	r3, #33554432
 3612 0042 0B93     		str	r3, [sp, #44]
 543:aes.c         ****     ivw[15] = br_swap32(cc + 3);
 3613              		.loc 1 543 5 is_stmt 1 view .LVU1215
 3614              	.LVL366:
  49:aes.c         ****         | ((x >> 8) & (uint32_t)0x00FF00FF);
 3615              		.loc 1 49 5 view .LVU1216
  51:aes.c         **** }
 3616              		.loc 1 51 5 view .LVU1217
 3617              		.loc 1 543 13 is_stmt 0 view .LVU1218
 3618 0044 4FF04073 		mov	r3, #50331648
 3619 0048 0F93     		str	r3, [sp, #60]
 544:aes.c         **** 
 545:aes.c         ****     while (outlen > 64) {
 3620              		.loc 1 545 5 is_stmt 1 view .LVU1219
 3621 004a 2E44     		add	r6, r6, r5
 3622              	.LVL367:
 3623              	.L45:
 3624              		.loc 1 545 11 is_stmt 0 view .LVU1220
 3625 004c 402D     		cmp	r5, #64
 3626 004e A6EB0509 		sub	r9, r6, r5
 3627              	.LVL368:
 3628              		.loc 1 545 11 is_stmt 1 view .LVU1221
 3629 0052 1AD8     		bhi	.L46
 546:aes.c         ****         aes_ctr4x(out, ivw, rkeys, nrounds);
 547:aes.c         ****         out += 64;
 548:aes.c         ****         outlen -= 64;
 549:aes.c         ****     }
 550:aes.c         ****     if (outlen > 0) {
 3630              		.loc 1 550 5 view .LVU1222
 3631              		.loc 1 550 8 is_stmt 0 view .LVU1223
 3632 0054 B5B1     		cbz	r5, .L44
 3633              	.LBB164:
 551:aes.c         ****         unsigned char tmp[64];
 3634              		.loc 1 551 9 is_stmt 1 view .LVU1224
 552:aes.c         ****         aes_ctr4x(tmp, ivw, rkeys, nrounds);
 3635              		.loc 1 552 9 view .LVU1225
 3636              	.LVL369:
 3637              	.LBB165:
 3638              	.LBI165:
 502:aes.c         ****     aes_ecb4x(out, ivw, sk_exp, nrounds);
 3639              		.loc 1 502 13 view .LVU1226
 3640              	.LBB166:
 503:aes.c         **** 
 3641              		.loc 1 503 5 view .LVU1227
 3642 0056 4346     		mov	r3, r8
 3643 0058 3A46     		mov	r2, r7
 3644 005a 2146     		mov	r1, r4
 3645 005c 10A8     		add	r0, sp, #64
 3646              	.LVL370:
 503:aes.c         **** 
 3647              		.loc 1 503 5 is_stmt 0 view .LVU1228
 3648 005e FFF7FEFF 		bl	aes_ecb4x
 3649              	.LVL371:
 506:aes.c         ****     inc4_be(ivw + 7);
 3650              		.loc 1 506 5 is_stmt 1 view .LVU1229
 3651 0062 03A8     		add	r0, sp, #12
 3652 0064 FFF7FEFF 		bl	inc4_be
 3653              	.LVL372:
 507:aes.c         ****     inc4_be(ivw + 11);
 3654              		.loc 1 507 5 view .LVU1230
 3655 0068 07A8     		add	r0, sp, #28
 3656 006a FFF7FEFF 		bl	inc4_be
 3657              	.LVL373:
 508:aes.c         ****     inc4_be(ivw + 15);
 3658              		.loc 1 508 5 view .LVU1231
 3659 006e 0BA8     		add	r0, sp, #44
 3660 0070 FFF7FEFF 		bl	inc4_be
 3661              	.LVL374:
 509:aes.c         **** }
 3662              		.loc 1 509 5 view .LVU1232
 3663 0074 0FA8     		add	r0, sp, #60
 3664 0076 FFF7FEFF 		bl	inc4_be
 3665              	.LVL375:
 509:aes.c         **** }
 3666              		.loc 1 509 5 is_stmt 0 view .LVU1233
 3667              	.LBE166:
 3668              	.LBE165:
 553:aes.c         ****         for (i = 0; i < outlen; i++) {
 3669              		.loc 1 553 21 is_stmt 1 view .LVU1234
 554:aes.c         ****             out[i] = tmp[i];
 3670              		.loc 1 554 20 is_stmt 0 view .LVU1235
 3671 007a 2A46     		mov	r2, r5
 3672 007c 10A9     		add	r1, sp, #64
 3673 007e 4846     		mov	r0, r9
 3674 0080 FFF7FEFF 		bl	memcpy
 3675              	.LVL376:
 3676              	.L44:
 3677              		.loc 1 554 20 view .LVU1236
 3678              	.LBE164:
 555:aes.c         ****         }
 556:aes.c         ****     }
 557:aes.c         **** }
 3679              		.loc 1 557 1 view .LVU1237
 3680 0084 21B0     		add	sp, sp, #132
 3681              	.LCFI27:
 3682              		.cfi_remember_state
 3683              		.cfi_def_cfa_offset 28
 3684              		@ sp needed
 3685 0086 BDE8F083 		pop	{r4, r5, r6, r7, r8, r9, pc}
 3686              	.LVL377:
 3687              	.L46:
 3688              	.LCFI28:
 3689              		.cfi_restore_state
 546:aes.c         ****         out += 64;
 3690              		.loc 1 546 9 is_stmt 1 view .LVU1238
 3691              	.LBB167:
 3692              	.LBI167:
 502:aes.c         ****     aes_ecb4x(out, ivw, sk_exp, nrounds);
 3693              		.loc 1 502 13 view .LVU1239
 3694              	.LBB168:
 503:aes.c         **** 
 3695              		.loc 1 503 5 view .LVU1240
 3696 008a 4346     		mov	r3, r8
 3697 008c 4846     		mov	r0, r9
 3698 008e 3A46     		mov	r2, r7
 3699 0090 2146     		mov	r1, r4
 3700 0092 FFF7FEFF 		bl	aes_ecb4x
 3701              	.LVL378:
 506:aes.c         ****     inc4_be(ivw + 7);
 3702              		.loc 1 506 5 view .LVU1241
 3703 0096 03A8     		add	r0, sp, #12
 3704 0098 FFF7FEFF 		bl	inc4_be
 3705              	.LVL379:
 507:aes.c         ****     inc4_be(ivw + 11);
 3706              		.loc 1 507 5 view .LVU1242
 3707 009c 07A8     		add	r0, sp, #28
 3708 009e FFF7FEFF 		bl	inc4_be
 3709              	.LVL380:
 508:aes.c         ****     inc4_be(ivw + 15);
 3710              		.loc 1 508 5 view .LVU1243
 3711 00a2 0BA8     		add	r0, sp, #44
 3712 00a4 FFF7FEFF 		bl	inc4_be
 3713              	.LVL381:
 509:aes.c         **** }
 3714              		.loc 1 509 5 view .LVU1244
 3715 00a8 0FA8     		add	r0, sp, #60
 3716 00aa FFF7FEFF 		bl	inc4_be
 3717              	.LVL382:
 509:aes.c         **** }
 3718              		.loc 1 509 5 is_stmt 0 view .LVU1245
 3719              	.LBE168:
 3720              	.LBE167:
 547:aes.c         ****         outlen -= 64;
 3721              		.loc 1 547 9 is_stmt 1 view .LVU1246
 548:aes.c         ****     }
 3722              		.loc 1 548 9 view .LVU1247
 548:aes.c         ****     }
 3723              		.loc 1 548 16 is_stmt 0 view .LVU1248
 3724 00ae 403D     		subs	r5, r5, #64
 3725              	.LVL383:
 548:aes.c         ****     }
 3726              		.loc 1 548 16 view .LVU1249
 3727 00b0 CCE7     		b	.L45
 3728              		.cfi_endproc
 3729              	.LFE20:
 3731              		.section	.text.aes128_ecb_keyexp,"ax",%progbits
 3732              		.align	1
 3733              		.global	aes128_ecb_keyexp
 3734              		.syntax unified
 3735              		.thumb
 3736              		.thumb_func
 3737              		.fpu softvfp
 3739              	aes128_ecb_keyexp:
 3740              	.LVL384:
 3741              	.LFB21:
 558:aes.c         **** 
 559:aes.c         **** void aes128_ecb_keyexp(aes128ctx *r, const unsigned char *key) {
 3742              		.loc 1 559 64 is_stmt 1 view -0
 3743              		.cfi_startproc
 3744              		@ args = 0, pretend = 0, frame = 176
 3745              		@ frame_needed = 0, uses_anonymous_args = 0
 560:aes.c         ****     uint64_t skey[22];
 3746              		.loc 1 560 5 view .LVU1251
 561:aes.c         **** 
 562:aes.c         ****     r->sk_exp = malloc(sizeof(uint64_t) * PQC_AES128_STATESIZE);
 3747              		.loc 1 562 5 view .LVU1252
 559:aes.c         ****     uint64_t skey[22];
 3748              		.loc 1 559 64 is_stmt 0 view .LVU1253
 3749 0000 30B5     		push	{r4, r5, lr}
 3750              	.LCFI29:
 3751              		.cfi_def_cfa_offset 12
 3752              		.cfi_offset 4, -12
 3753              		.cfi_offset 5, -8
 3754              		.cfi_offset 14, -4
 3755 0002 0446     		mov	r4, r0
 3756 0004 ADB0     		sub	sp, sp, #180
 3757              	.LCFI30:
 3758              		.cfi_def_cfa_offset 192
 3759              		.loc 1 562 17 view .LVU1254
 3760 0006 4FF43070 		mov	r0, #704
 3761              	.LVL385:
 559:aes.c         ****     uint64_t skey[22];
 3762              		.loc 1 559 64 view .LVU1255
 3763 000a 0D46     		mov	r5, r1
 3764              		.loc 1 562 17 view .LVU1256
 3765 000c FFF7FEFF 		bl	malloc
 3766              	.LVL386:
 3767              		.loc 1 562 15 view .LVU1257
 3768 0010 2060     		str	r0, [r4]
 563:aes.c         ****     if (r->sk_exp == NULL) {
 3769              		.loc 1 563 5 is_stmt 1 view .LVU1258
 3770              		.loc 1 563 8 is_stmt 0 view .LVU1259
 3771 0012 10B9     		cbnz	r0, .L52
 564:aes.c         ****         exit(111);
 3772              		.loc 1 564 9 is_stmt 1 view .LVU1260
 3773 0014 6F20     		movs	r0, #111
 3774 0016 FFF7FEFF 		bl	exit
 3775              	.LVL387:
 3776              	.L52:
 565:aes.c         ****     }
 566:aes.c         **** 
 567:aes.c         ****     br_aes_ct64_keysched(skey, key, 16);
 3777              		.loc 1 567 5 view .LVU1261
 3778 001a 2946     		mov	r1, r5
 3779 001c 6846     		mov	r0, sp
 3780 001e 1022     		movs	r2, #16
 3781 0020 FFF7FEFF 		bl	br_aes_ct64_keysched
 3782              	.LVL388:
 568:aes.c         ****     br_aes_ct64_skey_expand(r->sk_exp, skey, 10);
 3783              		.loc 1 568 5 view .LVU1262
 3784 0024 2068     		ldr	r0, [r4]
 3785 0026 0A22     		movs	r2, #10
 3786 0028 6946     		mov	r1, sp
 3787 002a FFF7FEFF 		bl	br_aes_ct64_skey_expand
 3788              	.LVL389:
 569:aes.c         **** }
 3789              		.loc 1 569 1 is_stmt 0 view .LVU1263
 3790 002e 2DB0     		add	sp, sp, #180
 3791              	.LCFI31:
 3792              		.cfi_def_cfa_offset 12
 3793              		@ sp needed
 3794 0030 30BD     		pop	{r4, r5, pc}
 3795              		.loc 1 569 1 view .LVU1264
 3796              		.cfi_endproc
 3797              	.LFE21:
 3799              		.section	.text.aes128_ctr_keyexp,"ax",%progbits
 3800              		.align	1
 3801              		.global	aes128_ctr_keyexp
 3802              		.syntax unified
 3803              		.thumb
 3804              		.thumb_func
 3805              		.fpu softvfp
 3807              	aes128_ctr_keyexp:
 3808              	.LVL390:
 3809              	.LFB22:
 570:aes.c         **** 
 571:aes.c         **** void aes128_ctr_keyexp(aes128ctx *r, const unsigned char *key) {
 3810              		.loc 1 571 64 is_stmt 1 view -0
 3811              		.cfi_startproc
 3812              		@ args = 0, pretend = 0, frame = 0
 3813              		@ frame_needed = 0, uses_anonymous_args = 0
 3814              		@ link register save eliminated.
 572:aes.c         ****     aes128_ecb_keyexp(r, key);
 3815              		.loc 1 572 5 view .LVU1266
 3816 0000 FFF7FEBF 		b	aes128_ecb_keyexp
 3817              	.LVL391:
 3818              		.loc 1 572 5 is_stmt 0 view .LVU1267
 3819              		.cfi_endproc
 3820              	.LFE22:
 3822              		.section	.text.aes192_ecb_keyexp,"ax",%progbits
 3823              		.align	1
 3824              		.global	aes192_ecb_keyexp
 3825              		.syntax unified
 3826              		.thumb
 3827              		.thumb_func
 3828              		.fpu softvfp
 3830              	aes192_ecb_keyexp:
 3831              	.LVL392:
 3832              	.LFB23:
 573:aes.c         **** }
 574:aes.c         **** 
 575:aes.c         **** void aes192_ecb_keyexp(aes192ctx *r, const unsigned char *key) {
 3833              		.loc 1 575 64 is_stmt 1 view -0
 3834              		.cfi_startproc
 3835              		@ args = 0, pretend = 0, frame = 208
 3836              		@ frame_needed = 0, uses_anonymous_args = 0
 576:aes.c         ****     uint64_t skey[26];
 3837              		.loc 1 576 5 view .LVU1269
 577:aes.c         ****     r->sk_exp = malloc(sizeof(uint64_t) * PQC_AES192_STATESIZE);
 3838              		.loc 1 577 5 view .LVU1270
 575:aes.c         ****     uint64_t skey[26];
 3839              		.loc 1 575 64 is_stmt 0 view .LVU1271
 3840 0000 30B5     		push	{r4, r5, lr}
 3841              	.LCFI32:
 3842              		.cfi_def_cfa_offset 12
 3843              		.cfi_offset 4, -12
 3844              		.cfi_offset 5, -8
 3845              		.cfi_offset 14, -4
 3846 0002 0446     		mov	r4, r0
 3847 0004 B5B0     		sub	sp, sp, #212
 3848              	.LCFI33:
 3849              		.cfi_def_cfa_offset 224
 3850              		.loc 1 577 17 view .LVU1272
 3851 0006 4FF45070 		mov	r0, #832
 3852              	.LVL393:
 575:aes.c         ****     uint64_t skey[26];
 3853              		.loc 1 575 64 view .LVU1273
 3854 000a 0D46     		mov	r5, r1
 3855              		.loc 1 577 17 view .LVU1274
 3856 000c FFF7FEFF 		bl	malloc
 3857              	.LVL394:
 3858              		.loc 1 577 15 view .LVU1275
 3859 0010 2060     		str	r0, [r4]
 578:aes.c         ****     if (r->sk_exp == NULL) {
 3860              		.loc 1 578 5 is_stmt 1 view .LVU1276
 3861              		.loc 1 578 8 is_stmt 0 view .LVU1277
 3862 0012 10B9     		cbnz	r0, .L55
 579:aes.c         ****         exit(111);
 3863              		.loc 1 579 9 is_stmt 1 view .LVU1278
 3864 0014 6F20     		movs	r0, #111
 3865 0016 FFF7FEFF 		bl	exit
 3866              	.LVL395:
 3867              	.L55:
 580:aes.c         ****     }
 581:aes.c         **** 
 582:aes.c         ****     br_aes_ct64_keysched(skey, key, 24);
 3868              		.loc 1 582 5 view .LVU1279
 3869 001a 2946     		mov	r1, r5
 3870 001c 6846     		mov	r0, sp
 3871 001e 1822     		movs	r2, #24
 3872 0020 FFF7FEFF 		bl	br_aes_ct64_keysched
 3873              	.LVL396:
 583:aes.c         ****     br_aes_ct64_skey_expand(r->sk_exp, skey, 12);
 3874              		.loc 1 583 5 view .LVU1280
 3875 0024 2068     		ldr	r0, [r4]
 3876 0026 0C22     		movs	r2, #12
 3877 0028 6946     		mov	r1, sp
 3878 002a FFF7FEFF 		bl	br_aes_ct64_skey_expand
 3879              	.LVL397:
 584:aes.c         **** }
 3880              		.loc 1 584 1 is_stmt 0 view .LVU1281
 3881 002e 35B0     		add	sp, sp, #212
 3882              	.LCFI34:
 3883              		.cfi_def_cfa_offset 12
 3884              		@ sp needed
 3885 0030 30BD     		pop	{r4, r5, pc}
 3886              		.loc 1 584 1 view .LVU1282
 3887              		.cfi_endproc
 3888              	.LFE23:
 3890              		.section	.text.aes192_ctr_keyexp,"ax",%progbits
 3891              		.align	1
 3892              		.global	aes192_ctr_keyexp
 3893              		.syntax unified
 3894              		.thumb
 3895              		.thumb_func
 3896              		.fpu softvfp
 3898              	aes192_ctr_keyexp:
 3899              	.LVL398:
 3900              	.LFB24:
 585:aes.c         **** 
 586:aes.c         **** void aes192_ctr_keyexp(aes192ctx *r, const unsigned char *key) {
 3901              		.loc 1 586 64 is_stmt 1 view -0
 3902              		.cfi_startproc
 3903              		@ args = 0, pretend = 0, frame = 0
 3904              		@ frame_needed = 0, uses_anonymous_args = 0
 3905              		@ link register save eliminated.
 587:aes.c         ****     aes192_ecb_keyexp(r, key);
 3906              		.loc 1 587 5 view .LVU1284
 3907 0000 FFF7FEBF 		b	aes192_ecb_keyexp
 3908              	.LVL399:
 3909              		.loc 1 587 5 is_stmt 0 view .LVU1285
 3910              		.cfi_endproc
 3911              	.LFE24:
 3913              		.section	.text.aes256_ecb_keyexp,"ax",%progbits
 3914              		.align	1
 3915              		.global	aes256_ecb_keyexp
 3916              		.syntax unified
 3917              		.thumb
 3918              		.thumb_func
 3919              		.fpu softvfp
 3921              	aes256_ecb_keyexp:
 3922              	.LVL400:
 3923              	.LFB25:
 588:aes.c         **** }
 589:aes.c         **** 
 590:aes.c         **** void aes256_ecb_keyexp(aes256ctx *r, const unsigned char *key) {
 3924              		.loc 1 590 64 is_stmt 1 view -0
 3925              		.cfi_startproc
 3926              		@ args = 0, pretend = 0, frame = 240
 3927              		@ frame_needed = 0, uses_anonymous_args = 0
 591:aes.c         ****     uint64_t skey[30];
 3928              		.loc 1 591 5 view .LVU1287
 592:aes.c         ****     r->sk_exp = malloc(sizeof(uint64_t) * PQC_AES256_STATESIZE);
 3929              		.loc 1 592 5 view .LVU1288
 590:aes.c         ****     uint64_t skey[30];
 3930              		.loc 1 590 64 is_stmt 0 view .LVU1289
 3931 0000 30B5     		push	{r4, r5, lr}
 3932              	.LCFI35:
 3933              		.cfi_def_cfa_offset 12
 3934              		.cfi_offset 4, -12
 3935              		.cfi_offset 5, -8
 3936              		.cfi_offset 14, -4
 3937 0002 0446     		mov	r4, r0
 3938 0004 BDB0     		sub	sp, sp, #244
 3939              	.LCFI36:
 3940              		.cfi_def_cfa_offset 256
 3941              		.loc 1 592 17 view .LVU1290
 3942 0006 4FF47070 		mov	r0, #960
 3943              	.LVL401:
 590:aes.c         ****     uint64_t skey[30];
 3944              		.loc 1 590 64 view .LVU1291
 3945 000a 0D46     		mov	r5, r1
 3946              		.loc 1 592 17 view .LVU1292
 3947 000c FFF7FEFF 		bl	malloc
 3948              	.LVL402:
 3949              		.loc 1 592 15 view .LVU1293
 3950 0010 2060     		str	r0, [r4]
 593:aes.c         ****     if (r->sk_exp == NULL) {
 3951              		.loc 1 593 5 is_stmt 1 view .LVU1294
 3952              		.loc 1 593 8 is_stmt 0 view .LVU1295
 3953 0012 10B9     		cbnz	r0, .L58
 594:aes.c         ****         exit(111);
 3954              		.loc 1 594 9 is_stmt 1 view .LVU1296
 3955 0014 6F20     		movs	r0, #111
 3956 0016 FFF7FEFF 		bl	exit
 3957              	.LVL403:
 3958              	.L58:
 595:aes.c         ****     }
 596:aes.c         **** 
 597:aes.c         ****     br_aes_ct64_keysched(skey, key, 32);
 3959              		.loc 1 597 5 view .LVU1297
 3960 001a 2946     		mov	r1, r5
 3961 001c 6846     		mov	r0, sp
 3962 001e 2022     		movs	r2, #32
 3963 0020 FFF7FEFF 		bl	br_aes_ct64_keysched
 3964              	.LVL404:
 598:aes.c         ****     br_aes_ct64_skey_expand(r->sk_exp, skey, 14);
 3965              		.loc 1 598 5 view .LVU1298
 3966 0024 2068     		ldr	r0, [r4]
 3967 0026 0E22     		movs	r2, #14
 3968 0028 6946     		mov	r1, sp
 3969 002a FFF7FEFF 		bl	br_aes_ct64_skey_expand
 3970              	.LVL405:
 599:aes.c         **** }
 3971              		.loc 1 599 1 is_stmt 0 view .LVU1299
 3972 002e 3DB0     		add	sp, sp, #244
 3973              	.LCFI37:
 3974              		.cfi_def_cfa_offset 12
 3975              		@ sp needed
 3976 0030 30BD     		pop	{r4, r5, pc}
 3977              		.loc 1 599 1 view .LVU1300
 3978              		.cfi_endproc
 3979              	.LFE25:
 3981              		.section	.text.aes256_ctr_keyexp,"ax",%progbits
 3982              		.align	1
 3983              		.global	aes256_ctr_keyexp
 3984              		.syntax unified
 3985              		.thumb
 3986              		.thumb_func
 3987              		.fpu softvfp
 3989              	aes256_ctr_keyexp:
 3990              	.LVL406:
 3991              	.LFB26:
 600:aes.c         **** 
 601:aes.c         **** void aes256_ctr_keyexp(aes256ctx *r, const unsigned char *key) {
 3992              		.loc 1 601 64 is_stmt 1 view -0
 3993              		.cfi_startproc
 3994              		@ args = 0, pretend = 0, frame = 0
 3995              		@ frame_needed = 0, uses_anonymous_args = 0
 3996              		@ link register save eliminated.
 602:aes.c         ****     aes256_ecb_keyexp(r, key);
 3997              		.loc 1 602 5 view .LVU1302
 3998 0000 FFF7FEBF 		b	aes256_ecb_keyexp
 3999              	.LVL407:
 4000              		.loc 1 602 5 is_stmt 0 view .LVU1303
 4001              		.cfi_endproc
 4002              	.LFE26:
 4004              		.section	.text.aes128_ecb,"ax",%progbits
 4005              		.align	1
 4006              		.global	aes128_ecb
 4007              		.syntax unified
 4008              		.thumb
 4009              		.thumb_func
 4010              		.fpu softvfp
 4012              	aes128_ecb:
 4013              	.LVL408:
 4014              	.LFB27:
 603:aes.c         **** }
 604:aes.c         **** 
 605:aes.c         **** void aes128_ecb(unsigned char *out, const unsigned char *in, size_t nblocks, const aes128ctx *ctx) 
 4015              		.loc 1 605 100 is_stmt 1 view -0
 4016              		.cfi_startproc
 4017              		@ args = 0, pretend = 0, frame = 0
 4018              		@ frame_needed = 0, uses_anonymous_args = 0
 606:aes.c         ****     aes_ecb(out, in, nblocks, ctx->sk_exp, 10);
 4019              		.loc 1 606 5 view .LVU1305
 605:aes.c         ****     aes_ecb(out, in, nblocks, ctx->sk_exp, 10);
 4020              		.loc 1 605 100 is_stmt 0 view .LVU1306
 4021 0000 13B5     		push	{r0, r1, r4, lr}
 4022              	.LCFI38:
 4023              		.cfi_def_cfa_offset 16
 4024              		.cfi_offset 4, -8
 4025              		.cfi_offset 14, -4
 4026              		.loc 1 606 5 view .LVU1307
 4027 0002 0A24     		movs	r4, #10
 4028 0004 0094     		str	r4, [sp]
 4029 0006 1B68     		ldr	r3, [r3]
 4030              	.LVL409:
 4031              		.loc 1 606 5 view .LVU1308
 4032 0008 FFF7FEFF 		bl	aes_ecb
 4033              	.LVL410:
 607:aes.c         **** }
 4034              		.loc 1 607 1 view .LVU1309
 4035 000c 02B0     		add	sp, sp, #8
 4036              	.LCFI39:
 4037              		.cfi_def_cfa_offset 8
 4038              		@ sp needed
 4039 000e 10BD     		pop	{r4, pc}
 4040              		.cfi_endproc
 4041              	.LFE27:
 4043              		.section	.text.aes128_ctr,"ax",%progbits
 4044              		.align	1
 4045              		.global	aes128_ctr
 4046              		.syntax unified
 4047              		.thumb
 4048              		.thumb_func
 4049              		.fpu softvfp
 4051              	aes128_ctr:
 4052              	.LVL411:
 4053              	.LFB28:
 608:aes.c         **** 
 609:aes.c         **** void aes128_ctr(unsigned char *out, size_t outlen, const unsigned char *iv, const aes128ctx *ctx) {
 4054              		.loc 1 609 99 is_stmt 1 view -0
 4055              		.cfi_startproc
 4056              		@ args = 0, pretend = 0, frame = 0
 4057              		@ frame_needed = 0, uses_anonymous_args = 0
 610:aes.c         ****     aes_ctr(out, outlen, iv, ctx->sk_exp, 10);
 4058              		.loc 1 610 5 view .LVU1311
 609:aes.c         ****     aes_ctr(out, outlen, iv, ctx->sk_exp, 10);
 4059              		.loc 1 609 99 is_stmt 0 view .LVU1312
 4060 0000 13B5     		push	{r0, r1, r4, lr}
 4061              	.LCFI40:
 4062              		.cfi_def_cfa_offset 16
 4063              		.cfi_offset 4, -8
 4064              		.cfi_offset 14, -4
 4065              		.loc 1 610 5 view .LVU1313
 4066 0002 0A24     		movs	r4, #10
 4067 0004 0094     		str	r4, [sp]
 4068 0006 1B68     		ldr	r3, [r3]
 4069              	.LVL412:
 4070              		.loc 1 610 5 view .LVU1314
 4071 0008 FFF7FEFF 		bl	aes_ctr
 4072              	.LVL413:
 611:aes.c         **** }
 4073              		.loc 1 611 1 view .LVU1315
 4074 000c 02B0     		add	sp, sp, #8
 4075              	.LCFI41:
 4076              		.cfi_def_cfa_offset 8
 4077              		@ sp needed
 4078 000e 10BD     		pop	{r4, pc}
 4079              		.cfi_endproc
 4080              	.LFE28:
 4082              		.section	.text.aes192_ecb,"ax",%progbits
 4083              		.align	1
 4084              		.global	aes192_ecb
 4085              		.syntax unified
 4086              		.thumb
 4087              		.thumb_func
 4088              		.fpu softvfp
 4090              	aes192_ecb:
 4091              	.LVL414:
 4092              	.LFB29:
 612:aes.c         **** 
 613:aes.c         **** void aes192_ecb(unsigned char *out, const unsigned char *in, size_t nblocks, const aes192ctx *ctx) 
 4093              		.loc 1 613 100 is_stmt 1 view -0
 4094              		.cfi_startproc
 4095              		@ args = 0, pretend = 0, frame = 0
 4096              		@ frame_needed = 0, uses_anonymous_args = 0
 614:aes.c         ****     aes_ecb(out, in, nblocks, ctx->sk_exp, 12);
 4097              		.loc 1 614 5 view .LVU1317
 613:aes.c         ****     aes_ecb(out, in, nblocks, ctx->sk_exp, 12);
 4098              		.loc 1 613 100 is_stmt 0 view .LVU1318
 4099 0000 13B5     		push	{r0, r1, r4, lr}
 4100              	.LCFI42:
 4101              		.cfi_def_cfa_offset 16
 4102              		.cfi_offset 4, -8
 4103              		.cfi_offset 14, -4
 4104              		.loc 1 614 5 view .LVU1319
 4105 0002 0C24     		movs	r4, #12
 4106 0004 0094     		str	r4, [sp]
 4107 0006 1B68     		ldr	r3, [r3]
 4108              	.LVL415:
 4109              		.loc 1 614 5 view .LVU1320
 4110 0008 FFF7FEFF 		bl	aes_ecb
 4111              	.LVL416:
 615:aes.c         **** }
 4112              		.loc 1 615 1 view .LVU1321
 4113 000c 02B0     		add	sp, sp, #8
 4114              	.LCFI43:
 4115              		.cfi_def_cfa_offset 8
 4116              		@ sp needed
 4117 000e 10BD     		pop	{r4, pc}
 4118              		.cfi_endproc
 4119              	.LFE29:
 4121              		.section	.text.aes192_ctr,"ax",%progbits
 4122              		.align	1
 4123              		.global	aes192_ctr
 4124              		.syntax unified
 4125              		.thumb
 4126              		.thumb_func
 4127              		.fpu softvfp
 4129              	aes192_ctr:
 4130              	.LVL417:
 4131              	.LFB30:
 616:aes.c         **** 
 617:aes.c         **** void aes192_ctr(unsigned char *out, size_t outlen, const unsigned char *iv, const aes192ctx *ctx) {
 4132              		.loc 1 617 99 is_stmt 1 view -0
 4133              		.cfi_startproc
 4134              		@ args = 0, pretend = 0, frame = 0
 4135              		@ frame_needed = 0, uses_anonymous_args = 0
 618:aes.c         ****     aes_ctr(out, outlen, iv, ctx->sk_exp, 12);
 4136              		.loc 1 618 5 view .LVU1323
 617:aes.c         ****     aes_ctr(out, outlen, iv, ctx->sk_exp, 12);
 4137              		.loc 1 617 99 is_stmt 0 view .LVU1324
 4138 0000 13B5     		push	{r0, r1, r4, lr}
 4139              	.LCFI44:
 4140              		.cfi_def_cfa_offset 16
 4141              		.cfi_offset 4, -8
 4142              		.cfi_offset 14, -4
 4143              		.loc 1 618 5 view .LVU1325
 4144 0002 0C24     		movs	r4, #12
 4145 0004 0094     		str	r4, [sp]
 4146 0006 1B68     		ldr	r3, [r3]
 4147              	.LVL418:
 4148              		.loc 1 618 5 view .LVU1326
 4149 0008 FFF7FEFF 		bl	aes_ctr
 4150              	.LVL419:
 619:aes.c         **** }
 4151              		.loc 1 619 1 view .LVU1327
 4152 000c 02B0     		add	sp, sp, #8
 4153              	.LCFI45:
 4154              		.cfi_def_cfa_offset 8
 4155              		@ sp needed
 4156 000e 10BD     		pop	{r4, pc}
 4157              		.cfi_endproc
 4158              	.LFE30:
 4160              		.section	.text.aes256_ecb,"ax",%progbits
 4161              		.align	1
 4162              		.global	aes256_ecb
 4163              		.syntax unified
 4164              		.thumb
 4165              		.thumb_func
 4166              		.fpu softvfp
 4168              	aes256_ecb:
 4169              	.LVL420:
 4170              	.LFB31:
 620:aes.c         **** 
 621:aes.c         **** void aes256_ecb(unsigned char *out, const unsigned char *in, size_t nblocks, const aes256ctx *ctx) 
 4171              		.loc 1 621 100 is_stmt 1 view -0
 4172              		.cfi_startproc
 4173              		@ args = 0, pretend = 0, frame = 0
 4174              		@ frame_needed = 0, uses_anonymous_args = 0
 622:aes.c         ****     aes_ecb(out, in, nblocks, ctx->sk_exp, 14);
 4175              		.loc 1 622 5 view .LVU1329
 621:aes.c         ****     aes_ecb(out, in, nblocks, ctx->sk_exp, 14);
 4176              		.loc 1 621 100 is_stmt 0 view .LVU1330
 4177 0000 13B5     		push	{r0, r1, r4, lr}
 4178              	.LCFI46:
 4179              		.cfi_def_cfa_offset 16
 4180              		.cfi_offset 4, -8
 4181              		.cfi_offset 14, -4
 4182              		.loc 1 622 5 view .LVU1331
 4183 0002 0E24     		movs	r4, #14
 4184 0004 0094     		str	r4, [sp]
 4185 0006 1B68     		ldr	r3, [r3]
 4186              	.LVL421:
 4187              		.loc 1 622 5 view .LVU1332
 4188 0008 FFF7FEFF 		bl	aes_ecb
 4189              	.LVL422:
 623:aes.c         **** }
 4190              		.loc 1 623 1 view .LVU1333
 4191 000c 02B0     		add	sp, sp, #8
 4192              	.LCFI47:
 4193              		.cfi_def_cfa_offset 8
 4194              		@ sp needed
 4195 000e 10BD     		pop	{r4, pc}
 4196              		.cfi_endproc
 4197              	.LFE31:
 4199              		.section	.text.aes256_ctr,"ax",%progbits
 4200              		.align	1
 4201              		.global	aes256_ctr
 4202              		.syntax unified
 4203              		.thumb
 4204              		.thumb_func
 4205              		.fpu softvfp
 4207              	aes256_ctr:
 4208              	.LVL423:
 4209              	.LFB32:
 624:aes.c         **** 
 625:aes.c         **** void aes256_ctr(unsigned char *out, size_t outlen, const unsigned char *iv, const aes256ctx *ctx) {
 4210              		.loc 1 625 99 is_stmt 1 view -0
 4211              		.cfi_startproc
 4212              		@ args = 0, pretend = 0, frame = 0
 4213              		@ frame_needed = 0, uses_anonymous_args = 0
 626:aes.c         ****     aes_ctr(out, outlen, iv, ctx->sk_exp, 14);
 4214              		.loc 1 626 5 view .LVU1335
 625:aes.c         ****     aes_ctr(out, outlen, iv, ctx->sk_exp, 14);
 4215              		.loc 1 625 99 is_stmt 0 view .LVU1336
 4216 0000 13B5     		push	{r0, r1, r4, lr}
 4217              	.LCFI48:
 4218              		.cfi_def_cfa_offset 16
 4219              		.cfi_offset 4, -8
 4220              		.cfi_offset 14, -4
 4221              		.loc 1 626 5 view .LVU1337
 4222 0002 0E24     		movs	r4, #14
 4223 0004 0094     		str	r4, [sp]
 4224 0006 1B68     		ldr	r3, [r3]
 4225              	.LVL424:
 4226              		.loc 1 626 5 view .LVU1338
 4227 0008 FFF7FEFF 		bl	aes_ctr
 4228              	.LVL425:
 627:aes.c         **** }
 4229              		.loc 1 627 1 view .LVU1339
 4230 000c 02B0     		add	sp, sp, #8
 4231              	.LCFI49:
 4232              		.cfi_def_cfa_offset 8
 4233              		@ sp needed
 4234 000e 10BD     		pop	{r4, pc}
 4235              		.cfi_endproc
 4236              	.LFE32:
 4238              		.section	.text.aes128_ctx_release,"ax",%progbits
 4239              		.align	1
 4240              		.global	aes128_ctx_release
 4241              		.syntax unified
 4242              		.thumb
 4243              		.thumb_func
 4244              		.fpu softvfp
 4246              	aes128_ctx_release:
 4247              	.LVL426:
 4248              	.LFB33:
 628:aes.c         **** 
 629:aes.c         **** void aes128_ctx_release(aes128ctx *r) {
 4249              		.loc 1 629 39 is_stmt 1 view -0
 4250              		.cfi_startproc
 4251              		@ args = 0, pretend = 0, frame = 0
 4252              		@ frame_needed = 0, uses_anonymous_args = 0
 4253              		@ link register save eliminated.
 630:aes.c         ****     free(r->sk_exp);
 4254              		.loc 1 630 5 view .LVU1341
 4255 0000 0068     		ldr	r0, [r0]
 4256              	.LVL427:
 4257              		.loc 1 630 5 is_stmt 0 view .LVU1342
 4258 0002 FFF7FEBF 		b	free
 4259              	.LVL428:
 4260              		.cfi_endproc
 4261              	.LFE33:
 4263              		.section	.text.aes192_ctx_release,"ax",%progbits
 4264              		.align	1
 4265              		.global	aes192_ctx_release
 4266              		.syntax unified
 4267              		.thumb
 4268              		.thumb_func
 4269              		.fpu softvfp
 4271              	aes192_ctx_release:
 4272              	.LVL429:
 4273              	.LFB34:
 631:aes.c         **** }
 632:aes.c         **** 
 633:aes.c         **** void aes192_ctx_release(aes192ctx *r) {
 4274              		.loc 1 633 39 is_stmt 1 view -0
 4275              		.cfi_startproc
 4276              		@ args = 0, pretend = 0, frame = 0
 4277              		@ frame_needed = 0, uses_anonymous_args = 0
 4278              		@ link register save eliminated.
 634:aes.c         ****     free(r->sk_exp);
 4279              		.loc 1 634 5 view .LVU1344
 4280 0000 0068     		ldr	r0, [r0]
 4281              	.LVL430:
 4282              		.loc 1 634 5 is_stmt 0 view .LVU1345
 4283 0002 FFF7FEBF 		b	free
 4284              	.LVL431:
 4285              		.cfi_endproc
 4286              	.LFE34:
 4288              		.section	.text.aes256_ctx_release,"ax",%progbits
 4289              		.align	1
 4290              		.global	aes256_ctx_release
 4291              		.syntax unified
 4292              		.thumb
 4293              		.thumb_func
 4294              		.fpu softvfp
 4296              	aes256_ctx_release:
