   1              		.cpu cortex-m4
   2              		.eabi_attribute 20, 1
   3              		.eabi_attribute 21, 1
   4              		.eabi_attribute 23, 3
   5              		.eabi_attribute 24, 1
   6              		.eabi_attribute 25, 1
   7              		.eabi_attribute 26, 1
   8              		.eabi_attribute 30, 4
   9              		.eabi_attribute 34, 1
  10              		.eabi_attribute 18, 4
  11              		.file	"sha2.c"
  12              		.text
  13              	.Ltext0:
  14              		.cfi_sections	.debug_frame
  15              		.section	.text.load_bigendian_32,"ax",%progbits
  16              		.align	1
  17              		.arch armv7e-m
  18              		.syntax unified
  19              		.thumb
  20              		.thumb_func
  21              		.fpu softvfp
  23              	load_bigendian_32:
  24              	.LVL0:
  25              	.LFB0:
  26              		.file 1 "sha2.c"
   1:sha2.c        **** /* Based on the public domain implementation in
   2:sha2.c        ****  * crypto_hash/sha512/ref/ from http://bench.cr.yp.to/supercop.html
   3:sha2.c        ****  * by D. J. Bernstein */
   4:sha2.c        **** 
   5:sha2.c        **** #include <stddef.h>
   6:sha2.c        **** #include <stdint.h>
   7:sha2.c        **** #include <stdlib.h>
   8:sha2.c        **** #include <string.h>
   9:sha2.c        **** 
  10:sha2.c        **** #include "sha2.h"
  11:sha2.c        **** 
  12:sha2.c        **** static uint32_t load_bigendian_32(const uint8_t *x) {
  27              		.loc 1 12 53 view -0
  28              		.cfi_startproc
  29              		@ args = 0, pretend = 0, frame = 0
  30              		@ frame_needed = 0, uses_anonymous_args = 0
  31              		@ link register save eliminated.
  13:sha2.c        ****     return (uint32_t)(x[3]) | (((uint32_t)(x[2])) << 8) |
  32              		.loc 1 13 5 view .LVU1
  33 0000 0068     		ldr	r0, [r0]	@ unaligned
  34              	.LVL1:
  14:sha2.c        ****            (((uint32_t)(x[1])) << 16) | (((uint32_t)(x[0])) << 24);
  15:sha2.c        **** }
  35              		.loc 1 15 1 is_stmt 0 view .LVU2
  36 0002 00BA     		rev	r0, r0
  37 0004 7047     		bx	lr
  38              		.cfi_endproc
  39              	.LFE0:
  41              		.section	.text.load_bigendian_64,"ax",%progbits
  42              		.align	1
  43              		.syntax unified
  44              		.thumb
  45              		.thumb_func
  46              		.fpu softvfp
  48              	load_bigendian_64:
  49              	.LVL2:
  50              	.LFB1:
  16:sha2.c        **** 
  17:sha2.c        **** static uint64_t load_bigendian_64(const uint8_t *x) {
  51              		.loc 1 17 53 is_stmt 1 view -0
  52              		.cfi_startproc
  53              		@ args = 0, pretend = 0, frame = 0
  54              		@ frame_needed = 0, uses_anonymous_args = 0
  55              		@ link register save eliminated.
  18:sha2.c        ****     return (uint64_t)(x[7]) | (((uint64_t)(x[6])) << 8) |
  56              		.loc 1 18 5 view .LVU4
  57 0000 0168     		ldr	r1, [r0]	@ unaligned
  58 0002 4068     		ldr	r0, [r0, #4]	@ unaligned
  59              	.LVL3:
  19:sha2.c        ****            (((uint64_t)(x[5])) << 16) | (((uint64_t)(x[4])) << 24) |
  20:sha2.c        ****            (((uint64_t)(x[3])) << 32) | (((uint64_t)(x[2])) << 40) |
  21:sha2.c        ****            (((uint64_t)(x[1])) << 48) | (((uint64_t)(x[0])) << 56);
  22:sha2.c        **** }
  60              		.loc 1 22 1 is_stmt 0 view .LVU5
  61 0004 09BA     		rev	r1, r1
  62 0006 00BA     		rev	r0, r0
  63 0008 7047     		bx	lr
  64              		.cfi_endproc
  65              	.LFE1:
  67              		.section	.text.store_bigendian_64,"ax",%progbits
  68              		.align	1
  69              		.syntax unified
  70              		.thumb
  71              		.thumb_func
  72              		.fpu softvfp
  74              	store_bigendian_64:
  75              	.LVL4:
  76              	.LFB3:
  23:sha2.c        **** 
  24:sha2.c        **** static void store_bigendian_32(uint8_t *x, uint64_t u) {
  25:sha2.c        ****     x[3] = (uint8_t) u;
  26:sha2.c        ****     u >>= 8;
  27:sha2.c        ****     x[2] = (uint8_t) u;
  28:sha2.c        ****     u >>= 8;
  29:sha2.c        ****     x[1] = (uint8_t) u;
  30:sha2.c        ****     u >>= 8;
  31:sha2.c        ****     x[0] = (uint8_t) u;
  32:sha2.c        **** }
  33:sha2.c        **** 
  34:sha2.c        **** static void store_bigendian_64(uint8_t *x, uint64_t u) {
  77              		.loc 1 34 56 is_stmt 1 view -0
  78              		.cfi_startproc
  79              		@ args = 0, pretend = 0, frame = 0
  80              		@ frame_needed = 0, uses_anonymous_args = 0
  81              		@ link register save eliminated.
  35:sha2.c        ****     x[7] = (uint8_t) u;
  82              		.loc 1 35 5 view .LVU7
  36:sha2.c        ****     u >>= 8;
  83              		.loc 1 36 7 is_stmt 0 view .LVU8
  84 0000 110A     		lsrs	r1, r2, #8
  35:sha2.c        ****     x[7] = (uint8_t) u;
  85              		.loc 1 35 12 view .LVU9
  86 0002 C271     		strb	r2, [r0, #7]
  87              		.loc 1 36 5 is_stmt 1 view .LVU10
  88              	.LVL5:
  37:sha2.c        ****     x[6] = (uint8_t) u;
  89              		.loc 1 37 5 view .LVU11
  90              		.loc 1 37 12 is_stmt 0 view .LVU12
  91 0004 8171     		strb	r1, [r0, #6]
  38:sha2.c        ****     u >>= 8;
  92              		.loc 1 38 5 is_stmt 1 view .LVU13
  93              	.LVL6:
  39:sha2.c        ****     x[5] = (uint8_t) u;
  94              		.loc 1 39 5 view .LVU14
  38:sha2.c        ****     u >>= 8;
  95              		.loc 1 38 7 is_stmt 0 view .LVU15
  96 0006 110C     		lsrs	r1, r2, #16
  40:sha2.c        ****     u >>= 8;
  97              		.loc 1 40 7 view .LVU16
  98 0008 120E     		lsrs	r2, r2, #24
  99              	.LVL7:
  41:sha2.c        ****     x[4] = (uint8_t) u;
 100              		.loc 1 41 12 view .LVU17
 101 000a 0271     		strb	r2, [r0, #4]
  42:sha2.c        ****     u >>= 8;
  43:sha2.c        ****     x[3] = (uint8_t) u;
  44:sha2.c        ****     u >>= 8;
 102              		.loc 1 44 7 view .LVU18
 103 000c 1A0A     		lsrs	r2, r3, #8
  43:sha2.c        ****     u >>= 8;
 104              		.loc 1 43 12 view .LVU19
 105 000e C370     		strb	r3, [r0, #3]
  45:sha2.c        ****     x[2] = (uint8_t) u;
 106              		.loc 1 45 12 view .LVU20
 107 0010 8270     		strb	r2, [r0, #2]
  46:sha2.c        ****     u >>= 8;
 108              		.loc 1 46 7 view .LVU21
 109 0012 1A0C     		lsrs	r2, r3, #16
  47:sha2.c        ****     x[1] = (uint8_t) u;
  48:sha2.c        ****     u >>= 8;
 110              		.loc 1 48 7 view .LVU22
 111 0014 1B0E     		lsrs	r3, r3, #24
  39:sha2.c        ****     u >>= 8;
 112              		.loc 1 39 12 view .LVU23
 113 0016 4171     		strb	r1, [r0, #5]
  40:sha2.c        ****     x[4] = (uint8_t) u;
 114              		.loc 1 40 5 is_stmt 1 view .LVU24
  41:sha2.c        ****     u >>= 8;
 115              		.loc 1 41 5 view .LVU25
  42:sha2.c        ****     x[3] = (uint8_t) u;
 116              		.loc 1 42 5 view .LVU26
  43:sha2.c        ****     u >>= 8;
 117              		.loc 1 43 5 view .LVU27
  44:sha2.c        ****     x[2] = (uint8_t) u;
 118              		.loc 1 44 5 view .LVU28
  45:sha2.c        ****     u >>= 8;
 119              		.loc 1 45 5 view .LVU29
  46:sha2.c        ****     x[1] = (uint8_t) u;
 120              		.loc 1 46 5 view .LVU30
  47:sha2.c        ****     u >>= 8;
 121              		.loc 1 47 5 view .LVU31
  47:sha2.c        ****     u >>= 8;
 122              		.loc 1 47 12 is_stmt 0 view .LVU32
 123 0018 4270     		strb	r2, [r0, #1]
 124              		.loc 1 48 5 is_stmt 1 view .LVU33
  49:sha2.c        ****     x[0] = (uint8_t) u;
 125              		.loc 1 49 5 view .LVU34
 126              		.loc 1 49 12 is_stmt 0 view .LVU35
 127 001a 0370     		strb	r3, [r0]
  50:sha2.c        **** }
 128              		.loc 1 50 1 view .LVU36
 129 001c 7047     		bx	lr
 130              		.cfi_endproc
 131              	.LFE3:
 133              		.section	.text.crypto_hashblocks_sha512.isra.0,"ax",%progbits
 134              		.align	1
 135              		.syntax unified
 136              		.thumb
 137              		.thumb_func
 138              		.fpu softvfp
 140              	crypto_hashblocks_sha512.isra.0:
 141              	.LVL8:
 142              	.LFB35:
  51:sha2.c        **** 
  52:sha2.c        **** #define SHR(x, c) ((x) >> (c))
  53:sha2.c        **** #define ROTR_32(x, c) (((x) >> (c)) | ((x) << (32 - (c))))
  54:sha2.c        **** #define ROTR_64(x, c) (((x) >> (c)) | ((x) << (64 - (c))))
  55:sha2.c        **** 
  56:sha2.c        **** #define Ch(x, y, z) (((x) & (y)) ^ (~(x) & (z)))
  57:sha2.c        **** #define Maj(x, y, z) (((x) & (y)) ^ ((x) & (z)) ^ ((y) & (z)))
  58:sha2.c        **** 
  59:sha2.c        **** #define Sigma0_32(x) (ROTR_32(x, 2) ^ ROTR_32(x,13) ^ ROTR_32(x,22))
  60:sha2.c        **** #define Sigma1_32(x) (ROTR_32(x, 6) ^ ROTR_32(x,11) ^ ROTR_32(x,25))
  61:sha2.c        **** #define sigma0_32(x) (ROTR_32(x, 7) ^ ROTR_32(x,18) ^ SHR(x, 3))
  62:sha2.c        **** #define sigma1_32(x) (ROTR_32(x,17) ^ ROTR_32(x,19) ^ SHR(x,10))
  63:sha2.c        **** 
  64:sha2.c        **** #define Sigma0_64(x) (ROTR_64(x, 28) ^ ROTR_64(x, 34) ^ ROTR_64(x, 39))
  65:sha2.c        **** #define Sigma1_64(x) (ROTR_64(x, 14) ^ ROTR_64(x, 18) ^ ROTR_64(x, 41))
  66:sha2.c        **** #define sigma0_64(x) (ROTR_64(x, 1) ^ ROTR_64(x, 8) ^ SHR(x, 7))
  67:sha2.c        **** #define sigma1_64(x) (ROTR_64(x, 19) ^ ROTR_64(x, 61) ^ SHR(x, 6))
  68:sha2.c        **** 
  69:sha2.c        **** #define M_32(w0, w14, w9, w1) w0 = sigma1_32(w14) + (w9) + sigma0_32(w1) + (w0);
  70:sha2.c        **** #define M_64(w0, w14, w9, w1) w0 = sigma1_64(w14) + (w9) + sigma0_64(w1) + (w0);
  71:sha2.c        **** 
  72:sha2.c        **** #define EXPAND_32           \
  73:sha2.c        ****     M_32(w0, w14, w9, w1)   \
  74:sha2.c        ****     M_32(w1, w15, w10, w2)  \
  75:sha2.c        ****     M_32(w2, w0, w11, w3)   \
  76:sha2.c        ****     M_32(w3, w1, w12, w4)   \
  77:sha2.c        ****     M_32(w4, w2, w13, w5)   \
  78:sha2.c        ****     M_32(w5, w3, w14, w6)   \
  79:sha2.c        ****     M_32(w6, w4, w15, w7)   \
  80:sha2.c        ****     M_32(w7, w5, w0, w8)    \
  81:sha2.c        ****     M_32(w8, w6, w1, w9)    \
  82:sha2.c        ****     M_32(w9, w7, w2, w10)   \
  83:sha2.c        ****     M_32(w10, w8, w3, w11)  \
  84:sha2.c        ****     M_32(w11, w9, w4, w12)  \
  85:sha2.c        ****     M_32(w12, w10, w5, w13) \
  86:sha2.c        ****     M_32(w13, w11, w6, w14) \
  87:sha2.c        ****     M_32(w14, w12, w7, w15) \
  88:sha2.c        ****     M_32(w15, w13, w8, w0)
  89:sha2.c        **** 
  90:sha2.c        **** #define EXPAND_64           \
  91:sha2.c        ****     M_64(w0, w14, w9, w1)   \
  92:sha2.c        ****     M_64(w1, w15, w10, w2)  \
  93:sha2.c        ****     M_64(w2, w0, w11, w3)   \
  94:sha2.c        ****     M_64(w3, w1, w12, w4)   \
  95:sha2.c        ****     M_64(w4, w2, w13, w5)   \
  96:sha2.c        ****     M_64(w5, w3, w14, w6)   \
  97:sha2.c        ****     M_64(w6, w4, w15, w7)   \
  98:sha2.c        ****     M_64(w7, w5, w0, w8)    \
  99:sha2.c        ****     M_64(w8, w6, w1, w9)    \
 100:sha2.c        ****     M_64(w9, w7, w2, w10)   \
 101:sha2.c        ****     M_64(w10, w8, w3, w11)  \
 102:sha2.c        ****     M_64(w11, w9, w4, w12)  \
 103:sha2.c        ****     M_64(w12, w10, w5, w13) \
 104:sha2.c        ****     M_64(w13, w11, w6, w14) \
 105:sha2.c        ****     M_64(w14, w12, w7, w15) \
 106:sha2.c        ****     M_64(w15, w13, w8, w0)
 107:sha2.c        **** 
 108:sha2.c        **** #define F_32(w, k)                                   \
 109:sha2.c        ****     T1 = h + Sigma1_32(e) + Ch(e, f, g) + (k) + (w); \
 110:sha2.c        ****     T2 = Sigma0_32(a) + Maj(a, b, c);                \
 111:sha2.c        ****     h = g;                                           \
 112:sha2.c        ****     g = f;                                           \
 113:sha2.c        ****     f = e;                                           \
 114:sha2.c        ****     e = d + T1;                                      \
 115:sha2.c        ****     d = c;                                           \
 116:sha2.c        ****     c = b;                                           \
 117:sha2.c        ****     b = a;                                           \
 118:sha2.c        ****     a = T1 + T2;
 119:sha2.c        **** 
 120:sha2.c        **** #define F_64(w, k)                                   \
 121:sha2.c        ****     T1 = h + Sigma1_64(e) + Ch(e, f, g) + (k) + (w); \
 122:sha2.c        ****     T2 = Sigma0_64(a) + Maj(a, b, c);                \
 123:sha2.c        ****     h = g;                                           \
 124:sha2.c        ****     g = f;                                           \
 125:sha2.c        ****     f = e;                                           \
 126:sha2.c        ****     e = d + T1;                                      \
 127:sha2.c        ****     d = c;                                           \
 128:sha2.c        ****     c = b;                                           \
 129:sha2.c        ****     b = a;                                           \
 130:sha2.c        ****     a = T1 + T2;
 131:sha2.c        **** 
 132:sha2.c        **** static size_t crypto_hashblocks_sha256(uint8_t *statebytes,
 133:sha2.c        ****                                        const uint8_t *in, size_t inlen) {
 134:sha2.c        ****     uint32_t state[8];
 135:sha2.c        ****     uint32_t a;
 136:sha2.c        ****     uint32_t b;
 137:sha2.c        ****     uint32_t c;
 138:sha2.c        ****     uint32_t d;
 139:sha2.c        ****     uint32_t e;
 140:sha2.c        ****     uint32_t f;
 141:sha2.c        ****     uint32_t g;
 142:sha2.c        ****     uint32_t h;
 143:sha2.c        ****     uint32_t T1;
 144:sha2.c        ****     uint32_t T2;
 145:sha2.c        **** 
 146:sha2.c        ****     a = load_bigendian_32(statebytes + 0);
 147:sha2.c        ****     state[0] = a;
 148:sha2.c        ****     b = load_bigendian_32(statebytes + 4);
 149:sha2.c        ****     state[1] = b;
 150:sha2.c        ****     c = load_bigendian_32(statebytes + 8);
 151:sha2.c        ****     state[2] = c;
 152:sha2.c        ****     d = load_bigendian_32(statebytes + 12);
 153:sha2.c        ****     state[3] = d;
 154:sha2.c        ****     e = load_bigendian_32(statebytes + 16);
 155:sha2.c        ****     state[4] = e;
 156:sha2.c        ****     f = load_bigendian_32(statebytes + 20);
 157:sha2.c        ****     state[5] = f;
 158:sha2.c        ****     g = load_bigendian_32(statebytes + 24);
 159:sha2.c        ****     state[6] = g;
 160:sha2.c        ****     h = load_bigendian_32(statebytes + 28);
 161:sha2.c        ****     state[7] = h;
 162:sha2.c        **** 
 163:sha2.c        ****     while (inlen >= 64) {
 164:sha2.c        ****         uint32_t w0  = load_bigendian_32(in + 0);
 165:sha2.c        ****         uint32_t w1  = load_bigendian_32(in + 4);
 166:sha2.c        ****         uint32_t w2  = load_bigendian_32(in + 8);
 167:sha2.c        ****         uint32_t w3  = load_bigendian_32(in + 12);
 168:sha2.c        ****         uint32_t w4  = load_bigendian_32(in + 16);
 169:sha2.c        ****         uint32_t w5  = load_bigendian_32(in + 20);
 170:sha2.c        ****         uint32_t w6  = load_bigendian_32(in + 24);
 171:sha2.c        ****         uint32_t w7  = load_bigendian_32(in + 28);
 172:sha2.c        ****         uint32_t w8  = load_bigendian_32(in + 32);
 173:sha2.c        ****         uint32_t w9  = load_bigendian_32(in + 36);
 174:sha2.c        ****         uint32_t w10 = load_bigendian_32(in + 40);
 175:sha2.c        ****         uint32_t w11 = load_bigendian_32(in + 44);
 176:sha2.c        ****         uint32_t w12 = load_bigendian_32(in + 48);
 177:sha2.c        ****         uint32_t w13 = load_bigendian_32(in + 52);
 178:sha2.c        ****         uint32_t w14 = load_bigendian_32(in + 56);
 179:sha2.c        ****         uint32_t w15 = load_bigendian_32(in + 60);
 180:sha2.c        **** 
 181:sha2.c        ****         F_32(w0, 0x428a2f98)
 182:sha2.c        ****         F_32(w1, 0x71374491)
 183:sha2.c        ****         F_32(w2, 0xb5c0fbcf)
 184:sha2.c        ****         F_32(w3, 0xe9b5dba5)
 185:sha2.c        ****         F_32(w4, 0x3956c25b)
 186:sha2.c        ****         F_32(w5, 0x59f111f1)
 187:sha2.c        ****         F_32(w6, 0x923f82a4)
 188:sha2.c        ****         F_32(w7, 0xab1c5ed5)
 189:sha2.c        ****         F_32(w8, 0xd807aa98)
 190:sha2.c        ****         F_32(w9, 0x12835b01)
 191:sha2.c        ****         F_32(w10, 0x243185be)
 192:sha2.c        ****         F_32(w11, 0x550c7dc3)
 193:sha2.c        ****         F_32(w12, 0x72be5d74)
 194:sha2.c        ****         F_32(w13, 0x80deb1fe)
 195:sha2.c        ****         F_32(w14, 0x9bdc06a7)
 196:sha2.c        ****         F_32(w15, 0xc19bf174)
 197:sha2.c        **** 
 198:sha2.c        ****         EXPAND_32
 199:sha2.c        **** 
 200:sha2.c        ****         F_32(w0, 0xe49b69c1)
 201:sha2.c        ****         F_32(w1, 0xefbe4786)
 202:sha2.c        ****         F_32(w2, 0x0fc19dc6)
 203:sha2.c        ****         F_32(w3, 0x240ca1cc)
 204:sha2.c        ****         F_32(w4, 0x2de92c6f)
 205:sha2.c        ****         F_32(w5, 0x4a7484aa)
 206:sha2.c        ****         F_32(w6, 0x5cb0a9dc)
 207:sha2.c        ****         F_32(w7, 0x76f988da)
 208:sha2.c        ****         F_32(w8, 0x983e5152)
 209:sha2.c        ****         F_32(w9, 0xa831c66d)
 210:sha2.c        ****         F_32(w10, 0xb00327c8)
 211:sha2.c        ****         F_32(w11, 0xbf597fc7)
 212:sha2.c        ****         F_32(w12, 0xc6e00bf3)
 213:sha2.c        ****         F_32(w13, 0xd5a79147)
 214:sha2.c        ****         F_32(w14, 0x06ca6351)
 215:sha2.c        ****         F_32(w15, 0x14292967)
 216:sha2.c        **** 
 217:sha2.c        ****         EXPAND_32
 218:sha2.c        **** 
 219:sha2.c        ****         F_32(w0, 0x27b70a85)
 220:sha2.c        ****         F_32(w1, 0x2e1b2138)
 221:sha2.c        ****         F_32(w2, 0x4d2c6dfc)
 222:sha2.c        ****         F_32(w3, 0x53380d13)
 223:sha2.c        ****         F_32(w4, 0x650a7354)
 224:sha2.c        ****         F_32(w5, 0x766a0abb)
 225:sha2.c        ****         F_32(w6, 0x81c2c92e)
 226:sha2.c        ****         F_32(w7, 0x92722c85)
 227:sha2.c        ****         F_32(w8, 0xa2bfe8a1)
 228:sha2.c        ****         F_32(w9, 0xa81a664b)
 229:sha2.c        ****         F_32(w10, 0xc24b8b70)
 230:sha2.c        ****         F_32(w11, 0xc76c51a3)
 231:sha2.c        ****         F_32(w12, 0xd192e819)
 232:sha2.c        ****         F_32(w13, 0xd6990624)
 233:sha2.c        ****         F_32(w14, 0xf40e3585)
 234:sha2.c        ****         F_32(w15, 0x106aa070)
 235:sha2.c        **** 
 236:sha2.c        ****         EXPAND_32
 237:sha2.c        **** 
 238:sha2.c        ****         F_32(w0, 0x19a4c116)
 239:sha2.c        ****         F_32(w1, 0x1e376c08)
 240:sha2.c        ****         F_32(w2, 0x2748774c)
 241:sha2.c        ****         F_32(w3, 0x34b0bcb5)
 242:sha2.c        ****         F_32(w4, 0x391c0cb3)
 243:sha2.c        ****         F_32(w5, 0x4ed8aa4a)
 244:sha2.c        ****         F_32(w6, 0x5b9cca4f)
 245:sha2.c        ****         F_32(w7, 0x682e6ff3)
 246:sha2.c        ****         F_32(w8, 0x748f82ee)
 247:sha2.c        ****         F_32(w9, 0x78a5636f)
 248:sha2.c        ****         F_32(w10, 0x84c87814)
 249:sha2.c        ****         F_32(w11, 0x8cc70208)
 250:sha2.c        ****         F_32(w12, 0x90befffa)
 251:sha2.c        ****         F_32(w13, 0xa4506ceb)
 252:sha2.c        ****         F_32(w14, 0xbef9a3f7)
 253:sha2.c        ****         F_32(w15, 0xc67178f2)
 254:sha2.c        **** 
 255:sha2.c        ****         a += state[0];
 256:sha2.c        ****         b += state[1];
 257:sha2.c        ****         c += state[2];
 258:sha2.c        ****         d += state[3];
 259:sha2.c        ****         e += state[4];
 260:sha2.c        ****         f += state[5];
 261:sha2.c        ****         g += state[6];
 262:sha2.c        ****         h += state[7];
 263:sha2.c        **** 
 264:sha2.c        ****         state[0] = a;
 265:sha2.c        ****         state[1] = b;
 266:sha2.c        ****         state[2] = c;
 267:sha2.c        ****         state[3] = d;
 268:sha2.c        ****         state[4] = e;
 269:sha2.c        ****         state[5] = f;
 270:sha2.c        ****         state[6] = g;
 271:sha2.c        ****         state[7] = h;
 272:sha2.c        **** 
 273:sha2.c        ****         in += 64;
 274:sha2.c        ****         inlen -= 64;
 275:sha2.c        ****     }
 276:sha2.c        **** 
 277:sha2.c        ****     store_bigendian_32(statebytes + 0, state[0]);
 278:sha2.c        ****     store_bigendian_32(statebytes + 4, state[1]);
 279:sha2.c        ****     store_bigendian_32(statebytes + 8, state[2]);
 280:sha2.c        ****     store_bigendian_32(statebytes + 12, state[3]);
 281:sha2.c        ****     store_bigendian_32(statebytes + 16, state[4]);
 282:sha2.c        ****     store_bigendian_32(statebytes + 20, state[5]);
 283:sha2.c        ****     store_bigendian_32(statebytes + 24, state[6]);
 284:sha2.c        ****     store_bigendian_32(statebytes + 28, state[7]);
 285:sha2.c        **** 
 286:sha2.c        ****     return inlen;
 287:sha2.c        **** }
 288:sha2.c        **** 
 289:sha2.c        **** static size_t crypto_hashblocks_sha512(uint8_t *statebytes,
 143              		.loc 1 289 15 is_stmt 1 view -0
 144              		.cfi_startproc
 145              		@ args = 0, pretend = 0, frame = 320
 146              		@ frame_needed = 0, uses_anonymous_args = 0
 147              		.loc 1 289 15 is_stmt 0 view .LVU38
 148 0000 2DE9F04F 		push	{r4, r5, r6, r7, r8, r9, r10, fp, lr}
 149              	.LCFI0:
 150              		.cfi_def_cfa_offset 36
 151              		.cfi_offset 4, -36
 152              		.cfi_offset 5, -32
 153              		.cfi_offset 6, -28
 154              		.cfi_offset 7, -24
 155              		.cfi_offset 8, -20
 156              		.cfi_offset 9, -16
 157              		.cfi_offset 10, -12
 158              		.cfi_offset 11, -8
 159              		.cfi_offset 14, -4
 160 0004 D1B0     		sub	sp, sp, #324
 161              	.LCFI1:
 162              		.cfi_def_cfa_offset 360
 163 0006 22F07F02 		bic	r2, r2, #127
 164              	.LVL9:
 165              		.loc 1 289 15 view .LVU39
 166 000a 3490     		str	r0, [sp, #208]
 167 000c 0191     		str	r1, [sp, #4]
 290:sha2.c        ****                                        const uint8_t *in, size_t inlen) {
 291:sha2.c        ****     uint64_t state[8];
 168              		.loc 1 291 5 is_stmt 1 view .LVU40
 292:sha2.c        ****     uint64_t a;
 169              		.loc 1 292 5 view .LVU41
 293:sha2.c        ****     uint64_t b;
 170              		.loc 1 293 5 view .LVU42
 294:sha2.c        ****     uint64_t c;
 171              		.loc 1 294 5 view .LVU43
 295:sha2.c        ****     uint64_t d;
 172              		.loc 1 295 5 view .LVU44
 296:sha2.c        ****     uint64_t e;
 173              		.loc 1 296 5 view .LVU45
 297:sha2.c        ****     uint64_t f;
 174              		.loc 1 297 5 view .LVU46
 298:sha2.c        ****     uint64_t g;
 175              		.loc 1 298 5 view .LVU47
 299:sha2.c        ****     uint64_t h;
 176              		.loc 1 299 5 view .LVU48
 300:sha2.c        ****     uint64_t T1;
 177              		.loc 1 300 5 view .LVU49
 301:sha2.c        ****     uint64_t T2;
 178              		.loc 1 301 5 view .LVU50
 302:sha2.c        **** 
 303:sha2.c        ****     a = load_bigendian_64(statebytes + 0);
 179              		.loc 1 303 5 view .LVU51
 180              		.loc 1 303 9 is_stmt 0 view .LVU52
 181 000e FFF7FEFF 		bl	load_bigendian_64
 182              	.LVL10:
 304:sha2.c        ****     state[0] = a;
 305:sha2.c        ****     b = load_bigendian_64(statebytes + 8);
 183              		.loc 1 305 38 view .LVU53
 184 0012 349B     		ldr	r3, [sp, #208]
 185 0014 0833     		adds	r3, r3, #8
 303:sha2.c        ****     state[0] = a;
 186              		.loc 1 303 9 view .LVU54
 187 0016 CDE90401 		strd	r0, r1, [sp, #16]
 188              	.LVL11:
 304:sha2.c        ****     state[0] = a;
 189              		.loc 1 304 5 is_stmt 1 view .LVU55
 190              		.loc 1 305 5 view .LVU56
 191              		.loc 1 305 9 is_stmt 0 view .LVU57
 192 001a 1846     		mov	r0, r3
 193              	.LVL12:
 194              		.loc 1 305 38 view .LVU58
 195 001c 4893     		str	r3, [sp, #288]
 196              		.loc 1 305 9 view .LVU59
 197 001e FFF7FEFF 		bl	load_bigendian_64
 198              	.LVL13:
 306:sha2.c        ****     state[1] = b;
 307:sha2.c        ****     c = load_bigendian_64(statebytes + 16);
 199              		.loc 1 307 38 view .LVU60
 200 0022 349B     		ldr	r3, [sp, #208]
 201 0024 1033     		adds	r3, r3, #16
 305:sha2.c        ****     state[1] = b;
 202              		.loc 1 305 9 view .LVU61
 203 0026 CDE93501 		strd	r0, r1, [sp, #212]
 204              	.LVL14:
 306:sha2.c        ****     state[1] = b;
 205              		.loc 1 306 5 is_stmt 1 view .LVU62
 206              		.loc 1 307 5 view .LVU63
 207              		.loc 1 307 9 is_stmt 0 view .LVU64
 208 002a 1846     		mov	r0, r3
 209              	.LVL15:
 210              		.loc 1 307 38 view .LVU65
 211 002c 4993     		str	r3, [sp, #292]
 212              		.loc 1 307 9 view .LVU66
 213 002e FFF7FEFF 		bl	load_bigendian_64
 214              	.LVL16:
 308:sha2.c        ****     state[2] = c;
 309:sha2.c        ****     d = load_bigendian_64(statebytes + 24);
 215              		.loc 1 309 38 view .LVU67
 216 0032 349B     		ldr	r3, [sp, #208]
 217 0034 1833     		adds	r3, r3, #24
 307:sha2.c        ****     state[2] = c;
 218              		.loc 1 307 9 view .LVU68
 219 0036 CDE93F01 		strd	r0, r1, [sp, #252]
 220              	.LVL17:
 308:sha2.c        ****     state[2] = c;
 221              		.loc 1 308 5 is_stmt 1 view .LVU69
 222              		.loc 1 309 5 view .LVU70
 223              		.loc 1 309 9 is_stmt 0 view .LVU71
 224 003a 1846     		mov	r0, r3
 225              	.LVL18:
 226              		.loc 1 309 38 view .LVU72
 227 003c 4A93     		str	r3, [sp, #296]
 228              		.loc 1 309 9 view .LVU73
 229 003e FFF7FEFF 		bl	load_bigendian_64
 230              	.LVL19:
 310:sha2.c        ****     state[3] = d;
 311:sha2.c        ****     e = load_bigendian_64(statebytes + 32);
 231              		.loc 1 311 38 view .LVU74
 232 0042 349B     		ldr	r3, [sp, #208]
 233 0044 2033     		adds	r3, r3, #32
 309:sha2.c        ****     state[3] = d;
 234              		.loc 1 309 9 view .LVU75
 235 0046 CDE94601 		strd	r0, r1, [sp, #280]
 236              	.LVL20:
 310:sha2.c        ****     state[3] = d;
 237              		.loc 1 310 5 is_stmt 1 view .LVU76
 238              		.loc 1 311 5 view .LVU77
 239              		.loc 1 311 9 is_stmt 0 view .LVU78
 240 004a 1846     		mov	r0, r3
 241              	.LVL21:
 242              		.loc 1 311 38 view .LVU79
 243 004c 4B93     		str	r3, [sp, #300]
 244              		.loc 1 311 9 view .LVU80
 245 004e FFF7FEFF 		bl	load_bigendian_64
 246              	.LVL22:
 312:sha2.c        ****     state[4] = e;
 313:sha2.c        ****     f = load_bigendian_64(statebytes + 40);
 247              		.loc 1 313 38 view .LVU81
 248 0052 349B     		ldr	r3, [sp, #208]
 249 0054 2833     		adds	r3, r3, #40
 311:sha2.c        ****     state[4] = e;
 250              		.loc 1 311 9 view .LVU82
 251 0056 CDE91401 		strd	r0, r1, [sp, #80]
 252              	.LVL23:
 312:sha2.c        ****     state[4] = e;
 253              		.loc 1 312 5 is_stmt 1 view .LVU83
 254              		.loc 1 313 5 view .LVU84
 255              		.loc 1 313 9 is_stmt 0 view .LVU85
 256 005a 1846     		mov	r0, r3
 257              	.LVL24:
 258              		.loc 1 313 38 view .LVU86
 259 005c 4C93     		str	r3, [sp, #304]
 260              		.loc 1 313 9 view .LVU87
 261 005e FFF7FEFF 		bl	load_bigendian_64
 262              	.LVL25:
 314:sha2.c        ****     state[5] = f;
 315:sha2.c        ****     g = load_bigendian_64(statebytes + 48);
 263              		.loc 1 315 38 view .LVU88
 264 0062 349B     		ldr	r3, [sp, #208]
 265 0064 3033     		adds	r3, r3, #48
 313:sha2.c        ****     state[5] = f;
 266              		.loc 1 313 9 view .LVU89
 267 0066 CDE93D01 		strd	r0, r1, [sp, #244]
 268              	.LVL26:
 314:sha2.c        ****     state[5] = f;
 269              		.loc 1 314 5 is_stmt 1 view .LVU90
 270              		.loc 1 315 5 view .LVU91
 271              		.loc 1 315 9 is_stmt 0 view .LVU92
 272 006a 1846     		mov	r0, r3
 273              	.LVL27:
 274              		.loc 1 315 38 view .LVU93
 275 006c 4D93     		str	r3, [sp, #308]
 276              		.loc 1 315 9 view .LVU94
 277 006e FFF7FEFF 		bl	load_bigendian_64
 278              	.LVL28:
 316:sha2.c        ****     state[6] = g;
 317:sha2.c        ****     h = load_bigendian_64(statebytes + 56);
 279              		.loc 1 317 38 view .LVU95
 280 0072 349B     		ldr	r3, [sp, #208]
 281 0074 3833     		adds	r3, r3, #56
 315:sha2.c        ****     state[6] = g;
 282              		.loc 1 315 9 view .LVU96
 283 0076 CDE94201 		strd	r0, r1, [sp, #264]
 284              	.LVL29:
 316:sha2.c        ****     state[6] = g;
 285              		.loc 1 316 5 is_stmt 1 view .LVU97
 286              		.loc 1 317 5 view .LVU98
 287              		.loc 1 317 9 is_stmt 0 view .LVU99
 288 007a 1846     		mov	r0, r3
 289              	.LVL30:
 290              		.loc 1 317 38 view .LVU100
 291 007c 4E93     		str	r3, [sp, #312]
 292              		.loc 1 317 9 view .LVU101
 293 007e FFF7FEFF 		bl	load_bigendian_64
 294              	.LVL31:
 295              		.loc 1 317 9 view .LVU102
 296 0082 019B     		ldr	r3, [sp, #4]
 297 0084 CDE94401 		strd	r0, r1, [sp, #272]
 298              	.LVL32:
 318:sha2.c        ****     state[7] = h;
 299              		.loc 1 318 5 is_stmt 1 view .LVU103
 319:sha2.c        **** 
 320:sha2.c        ****     while (inlen >= 128) {
 300              		.loc 1 320 5 view .LVU104
 301 0088 1344     		add	r3, r3, r2
 302 008a 4F93     		str	r3, [sp, #316]
 303              	.LVL33:
 304              	.L5:
 305              		.loc 1 320 11 view .LVU105
 306 008c 019B     		ldr	r3, [sp, #4]
 307 008e 4F9A     		ldr	r2, [sp, #316]
 308 0090 9342     		cmp	r3, r2
 309 0092 2AD1     		bne	.L6
 321:sha2.c        ****         uint64_t w0 = load_bigendian_64(in + 0);
 322:sha2.c        ****         uint64_t w1 = load_bigendian_64(in + 8);
 323:sha2.c        ****         uint64_t w2 = load_bigendian_64(in + 16);
 324:sha2.c        ****         uint64_t w3 = load_bigendian_64(in + 24);
 325:sha2.c        ****         uint64_t w4 = load_bigendian_64(in + 32);
 326:sha2.c        ****         uint64_t w5 = load_bigendian_64(in + 40);
 327:sha2.c        ****         uint64_t w6 = load_bigendian_64(in + 48);
 328:sha2.c        ****         uint64_t w7 = load_bigendian_64(in + 56);
 329:sha2.c        ****         uint64_t w8 = load_bigendian_64(in + 64);
 330:sha2.c        ****         uint64_t w9 = load_bigendian_64(in + 72);
 331:sha2.c        ****         uint64_t w10 = load_bigendian_64(in + 80);
 332:sha2.c        ****         uint64_t w11 = load_bigendian_64(in + 88);
 333:sha2.c        ****         uint64_t w12 = load_bigendian_64(in + 96);
 334:sha2.c        ****         uint64_t w13 = load_bigendian_64(in + 104);
 335:sha2.c        ****         uint64_t w14 = load_bigendian_64(in + 112);
 336:sha2.c        ****         uint64_t w15 = load_bigendian_64(in + 120);
 337:sha2.c        **** 
 338:sha2.c        ****         F_64(w0, 0x428a2f98d728ae22ULL)
 339:sha2.c        ****         F_64(w1, 0x7137449123ef65cdULL)
 340:sha2.c        ****         F_64(w2, 0xb5c0fbcfec4d3b2fULL)
 341:sha2.c        ****         F_64(w3, 0xe9b5dba58189dbbcULL)
 342:sha2.c        ****         F_64(w4, 0x3956c25bf348b538ULL)
 343:sha2.c        ****         F_64(w5, 0x59f111f1b605d019ULL)
 344:sha2.c        ****         F_64(w6, 0x923f82a4af194f9bULL)
 345:sha2.c        ****         F_64(w7, 0xab1c5ed5da6d8118ULL)
 346:sha2.c        ****         F_64(w8, 0xd807aa98a3030242ULL)
 347:sha2.c        ****         F_64(w9, 0x12835b0145706fbeULL)
 348:sha2.c        ****         F_64(w10, 0x243185be4ee4b28cULL)
 349:sha2.c        ****         F_64(w11, 0x550c7dc3d5ffb4e2ULL)
 350:sha2.c        ****         F_64(w12, 0x72be5d74f27b896fULL)
 351:sha2.c        ****         F_64(w13, 0x80deb1fe3b1696b1ULL)
 352:sha2.c        ****         F_64(w14, 0x9bdc06a725c71235ULL)
 353:sha2.c        ****         F_64(w15, 0xc19bf174cf692694ULL)
 354:sha2.c        **** 
 355:sha2.c        ****         EXPAND_64
 356:sha2.c        **** 
 357:sha2.c        ****         F_64(w0, 0xe49b69c19ef14ad2ULL)
 358:sha2.c        ****         F_64(w1, 0xefbe4786384f25e3ULL)
 359:sha2.c        ****         F_64(w2, 0x0fc19dc68b8cd5b5ULL)
 360:sha2.c        ****         F_64(w3, 0x240ca1cc77ac9c65ULL)
 361:sha2.c        ****         F_64(w4, 0x2de92c6f592b0275ULL)
 362:sha2.c        ****         F_64(w5, 0x4a7484aa6ea6e483ULL)
 363:sha2.c        ****         F_64(w6, 0x5cb0a9dcbd41fbd4ULL)
 364:sha2.c        ****         F_64(w7, 0x76f988da831153b5ULL)
 365:sha2.c        ****         F_64(w8, 0x983e5152ee66dfabULL)
 366:sha2.c        ****         F_64(w9, 0xa831c66d2db43210ULL)
 367:sha2.c        ****         F_64(w10, 0xb00327c898fb213fULL)
 368:sha2.c        ****         F_64(w11, 0xbf597fc7beef0ee4ULL)
 369:sha2.c        ****         F_64(w12, 0xc6e00bf33da88fc2ULL)
 370:sha2.c        ****         F_64(w13, 0xd5a79147930aa725ULL)
 371:sha2.c        ****         F_64(w14, 0x06ca6351e003826fULL)
 372:sha2.c        ****         F_64(w15, 0x142929670a0e6e70ULL)
 373:sha2.c        **** 
 374:sha2.c        ****         EXPAND_64
 375:sha2.c        **** 
 376:sha2.c        ****         F_64(w0, 0x27b70a8546d22ffcULL)
 377:sha2.c        ****         F_64(w1, 0x2e1b21385c26c926ULL)
 378:sha2.c        ****         F_64(w2, 0x4d2c6dfc5ac42aedULL)
 379:sha2.c        ****         F_64(w3, 0x53380d139d95b3dfULL)
 380:sha2.c        ****         F_64(w4, 0x650a73548baf63deULL)
 381:sha2.c        ****         F_64(w5, 0x766a0abb3c77b2a8ULL)
 382:sha2.c        ****         F_64(w6, 0x81c2c92e47edaee6ULL)
 383:sha2.c        ****         F_64(w7, 0x92722c851482353bULL)
 384:sha2.c        ****         F_64(w8, 0xa2bfe8a14cf10364ULL)
 385:sha2.c        ****         F_64(w9, 0xa81a664bbc423001ULL)
 386:sha2.c        ****         F_64(w10, 0xc24b8b70d0f89791ULL)
 387:sha2.c        ****         F_64(w11, 0xc76c51a30654be30ULL)
 388:sha2.c        ****         F_64(w12, 0xd192e819d6ef5218ULL)
 389:sha2.c        ****         F_64(w13, 0xd69906245565a910ULL)
 390:sha2.c        ****         F_64(w14, 0xf40e35855771202aULL)
 391:sha2.c        ****         F_64(w15, 0x106aa07032bbd1b8ULL)
 392:sha2.c        **** 
 393:sha2.c        ****         EXPAND_64
 394:sha2.c        **** 
 395:sha2.c        ****         F_64(w0, 0x19a4c116b8d2d0c8ULL)
 396:sha2.c        ****         F_64(w1, 0x1e376c085141ab53ULL)
 397:sha2.c        ****         F_64(w2, 0x2748774cdf8eeb99ULL)
 398:sha2.c        ****         F_64(w3, 0x34b0bcb5e19b48a8ULL)
 399:sha2.c        ****         F_64(w4, 0x391c0cb3c5c95a63ULL)
 400:sha2.c        ****         F_64(w5, 0x4ed8aa4ae3418acbULL)
 401:sha2.c        ****         F_64(w6, 0x5b9cca4f7763e373ULL)
 402:sha2.c        ****         F_64(w7, 0x682e6ff3d6b2b8a3ULL)
 403:sha2.c        ****         F_64(w8, 0x748f82ee5defb2fcULL)
 404:sha2.c        ****         F_64(w9, 0x78a5636f43172f60ULL)
 405:sha2.c        ****         F_64(w10, 0x84c87814a1f0ab72ULL)
 406:sha2.c        ****         F_64(w11, 0x8cc702081a6439ecULL)
 407:sha2.c        ****         F_64(w12, 0x90befffa23631e28ULL)
 408:sha2.c        ****         F_64(w13, 0xa4506cebde82bde9ULL)
 409:sha2.c        ****         F_64(w14, 0xbef9a3f7b2c67915ULL)
 410:sha2.c        ****         F_64(w15, 0xc67178f2e372532bULL)
 411:sha2.c        **** 
 412:sha2.c        ****         EXPAND_64
 413:sha2.c        **** 
 414:sha2.c        ****         F_64(w0, 0xca273eceea26619cULL)
 415:sha2.c        ****         F_64(w1, 0xd186b8c721c0c207ULL)
 416:sha2.c        ****         F_64(w2, 0xeada7dd6cde0eb1eULL)
 417:sha2.c        ****         F_64(w3, 0xf57d4f7fee6ed178ULL)
 418:sha2.c        ****         F_64(w4, 0x06f067aa72176fbaULL)
 419:sha2.c        ****         F_64(w5, 0x0a637dc5a2c898a6ULL)
 420:sha2.c        ****         F_64(w6, 0x113f9804bef90daeULL)
 421:sha2.c        ****         F_64(w7, 0x1b710b35131c471bULL)
 422:sha2.c        ****         F_64(w8, 0x28db77f523047d84ULL)
 423:sha2.c        ****         F_64(w9, 0x32caab7b40c72493ULL)
 424:sha2.c        ****         F_64(w10, 0x3c9ebe0a15c9bebcULL)
 425:sha2.c        ****         F_64(w11, 0x431d67c49c100d4cULL)
 426:sha2.c        ****         F_64(w12, 0x4cc5d4becb3e42b6ULL)
 427:sha2.c        ****         F_64(w13, 0x597f299cfc657e2aULL)
 428:sha2.c        ****         F_64(w14, 0x5fcb6fab3ad6faecULL)
 429:sha2.c        ****         F_64(w15, 0x6c44198c4a475817ULL)
 430:sha2.c        **** 
 431:sha2.c        ****         a += state[0];
 432:sha2.c        ****         b += state[1];
 433:sha2.c        ****         c += state[2];
 434:sha2.c        ****         d += state[3];
 435:sha2.c        ****         e += state[4];
 436:sha2.c        ****         f += state[5];
 437:sha2.c        ****         g += state[6];
 438:sha2.c        ****         h += state[7];
 439:sha2.c        **** 
 440:sha2.c        ****         state[0] = a;
 441:sha2.c        ****         state[1] = b;
 442:sha2.c        ****         state[2] = c;
 443:sha2.c        ****         state[3] = d;
 444:sha2.c        ****         state[4] = e;
 445:sha2.c        ****         state[5] = f;
 446:sha2.c        ****         state[6] = g;
 447:sha2.c        ****         state[7] = h;
 448:sha2.c        **** 
 449:sha2.c        ****         in += 128;
 450:sha2.c        ****         inlen -= 128;
 451:sha2.c        ****     }
 452:sha2.c        **** 
 453:sha2.c        ****     store_bigendian_64(statebytes + 0, state[0]);
 310              		.loc 1 453 5 view .LVU106
 311 0094 DDE90423 		ldrd	r2, r3, [sp, #16]
 312 0098 3498     		ldr	r0, [sp, #208]
 313 009a FFF7FEFF 		bl	store_bigendian_64
 314              	.LVL34:
 454:sha2.c        ****     store_bigendian_64(statebytes + 8, state[1]);
 315              		.loc 1 454 5 view .LVU107
 316 009e DDE93523 		ldrd	r2, r3, [sp, #212]
 317 00a2 4898     		ldr	r0, [sp, #288]
 318 00a4 FFF7FEFF 		bl	store_bigendian_64
 319              	.LVL35:
 455:sha2.c        ****     store_bigendian_64(statebytes + 16, state[2]);
 320              		.loc 1 455 5 view .LVU108
 321 00a8 DDE93F23 		ldrd	r2, r3, [sp, #252]
 322 00ac 4998     		ldr	r0, [sp, #292]
 323 00ae FFF7FEFF 		bl	store_bigendian_64
 324              	.LVL36:
 456:sha2.c        ****     store_bigendian_64(statebytes + 24, state[3]);
 325              		.loc 1 456 5 view .LVU109
 326 00b2 DDE94623 		ldrd	r2, r3, [sp, #280]
 327 00b6 4A98     		ldr	r0, [sp, #296]
 328 00b8 FFF7FEFF 		bl	store_bigendian_64
 329              	.LVL37:
 457:sha2.c        ****     store_bigendian_64(statebytes + 32, state[4]);
 330              		.loc 1 457 5 view .LVU110
 331 00bc DDE91423 		ldrd	r2, r3, [sp, #80]
 332 00c0 4B98     		ldr	r0, [sp, #300]
 333 00c2 FFF7FEFF 		bl	store_bigendian_64
 334              	.LVL38:
 458:sha2.c        ****     store_bigendian_64(statebytes + 40, state[5]);
 335              		.loc 1 458 5 view .LVU111
 336 00c6 DDE93D23 		ldrd	r2, r3, [sp, #244]
 337 00ca 4C98     		ldr	r0, [sp, #304]
 338 00cc FFF7FEFF 		bl	store_bigendian_64
 339              	.LVL39:
 459:sha2.c        ****     store_bigendian_64(statebytes + 48, state[6]);
 340              		.loc 1 459 5 view .LVU112
 341 00d0 DDE94223 		ldrd	r2, r3, [sp, #264]
 342 00d4 4D98     		ldr	r0, [sp, #308]
 343 00d6 FFF7FEFF 		bl	store_bigendian_64
 344              	.LVL40:
 460:sha2.c        ****     store_bigendian_64(statebytes + 56, state[7]);
 345              		.loc 1 460 5 view .LVU113
 346 00da DDE94423 		ldrd	r2, r3, [sp, #272]
 347 00de 4E98     		ldr	r0, [sp, #312]
 461:sha2.c        **** 
 462:sha2.c        ****     return inlen;
 463:sha2.c        **** }
 348              		.loc 1 463 1 is_stmt 0 view .LVU114
 349 00e0 51B0     		add	sp, sp, #324
 350              	.LCFI2:
 351              		.cfi_remember_state
 352              		.cfi_def_cfa_offset 36
 353              		@ sp needed
 354 00e2 BDE8F04F 		pop	{r4, r5, r6, r7, r8, r9, r10, fp, lr}
 355              	.LCFI3:
 356              		.cfi_restore 14
 357              		.cfi_restore 11
 358              		.cfi_restore 10
 359              		.cfi_restore 9
 360              		.cfi_restore 8
 361              		.cfi_restore 7
 362              		.cfi_restore 6
 363              		.cfi_restore 5
 364              		.cfi_restore 4
 365              		.cfi_def_cfa_offset 0
 366              	.LVL41:
 460:sha2.c        ****     store_bigendian_64(statebytes + 56, state[7]);
 367              		.loc 1 460 5 view .LVU115
 368 00e6 FFF7FEBF 		b	store_bigendian_64
 369              	.LVL42:
 370              	.L6:
 371              	.LCFI4:
 372              		.cfi_restore_state
 373              	.LBB12:
 321:sha2.c        ****         uint64_t w1 = load_bigendian_64(in + 8);
 374              		.loc 1 321 9 is_stmt 1 view .LVU116
 321:sha2.c        ****         uint64_t w1 = load_bigendian_64(in + 8);
 375              		.loc 1 321 23 is_stmt 0 view .LVU117
 376 00ea 0198     		ldr	r0, [sp, #4]
 377 00ec FFF7FEFF 		bl	load_bigendian_64
 378              	.LVL43:
 322:sha2.c        ****         uint64_t w2 = load_bigendian_64(in + 16);
 379              		.loc 1 322 23 view .LVU118
 380 00f0 019B     		ldr	r3, [sp, #4]
 381              	.LVL44:
 321:sha2.c        ****         uint64_t w1 = load_bigendian_64(in + 8);
 382              		.loc 1 321 23 view .LVU119
 383 00f2 1890     		str	r0, [sp, #96]
 322:sha2.c        ****         uint64_t w2 = load_bigendian_64(in + 16);
 384              		.loc 1 322 23 view .LVU120
 385 00f4 03F10800 		add	r0, r3, #8
 321:sha2.c        ****         uint64_t w1 = load_bigendian_64(in + 8);
 386              		.loc 1 321 23 view .LVU121
 387 00f8 3A91     		str	r1, [sp, #232]
 388              	.LVL45:
 322:sha2.c        ****         uint64_t w2 = load_bigendian_64(in + 16);
 389              		.loc 1 322 9 is_stmt 1 view .LVU122
 322:sha2.c        ****         uint64_t w2 = load_bigendian_64(in + 16);
 390              		.loc 1 322 23 is_stmt 0 view .LVU123
 391 00fa FFF7FEFF 		bl	load_bigendian_64
 392              	.LVL46:
 322:sha2.c        ****         uint64_t w2 = load_bigendian_64(in + 16);
 393              		.loc 1 322 23 view .LVU124
 394 00fe 2F90     		str	r0, [sp, #188]
 323:sha2.c        ****         uint64_t w3 = load_bigendian_64(in + 24);
 395              		.loc 1 323 23 view .LVU125
 396 0100 03F11000 		add	r0, r3, #16
 322:sha2.c        ****         uint64_t w2 = load_bigendian_64(in + 16);
 397              		.loc 1 322 23 view .LVU126
 398 0104 1991     		str	r1, [sp, #100]
 399              	.LVL47:
 323:sha2.c        ****         uint64_t w3 = load_bigendian_64(in + 24);
 400              		.loc 1 323 9 is_stmt 1 view .LVU127
 323:sha2.c        ****         uint64_t w3 = load_bigendian_64(in + 24);
 401              		.loc 1 323 23 is_stmt 0 view .LVU128
 402 0106 FFF7FEFF 		bl	load_bigendian_64
 403              	.LVL48:
 323:sha2.c        ****         uint64_t w3 = load_bigendian_64(in + 24);
 404              		.loc 1 323 23 view .LVU129
 405 010a 3090     		str	r0, [sp, #192]
 324:sha2.c        ****         uint64_t w4 = load_bigendian_64(in + 32);
 406              		.loc 1 324 23 view .LVU130
 407 010c 03F11800 		add	r0, r3, #24
 323:sha2.c        ****         uint64_t w3 = load_bigendian_64(in + 24);
 408              		.loc 1 323 23 view .LVU131
 409 0110 1A91     		str	r1, [sp, #104]
 410              	.LVL49:
 324:sha2.c        ****         uint64_t w4 = load_bigendian_64(in + 32);
 411              		.loc 1 324 9 is_stmt 1 view .LVU132
 324:sha2.c        ****         uint64_t w4 = load_bigendian_64(in + 32);
 412              		.loc 1 324 23 is_stmt 0 view .LVU133
 413 0112 FFF7FEFF 		bl	load_bigendian_64
 414              	.LVL50:
 324:sha2.c        ****         uint64_t w4 = load_bigendian_64(in + 32);
 415              		.loc 1 324 23 view .LVU134
 416 0116 3190     		str	r0, [sp, #196]
 325:sha2.c        ****         uint64_t w5 = load_bigendian_64(in + 40);
 417              		.loc 1 325 23 view .LVU135
 418 0118 03F12000 		add	r0, r3, #32
 324:sha2.c        ****         uint64_t w4 = load_bigendian_64(in + 32);
 419              		.loc 1 324 23 view .LVU136
 420 011c 1B91     		str	r1, [sp, #108]
 421              	.LVL51:
 325:sha2.c        ****         uint64_t w5 = load_bigendian_64(in + 40);
 422              		.loc 1 325 9 is_stmt 1 view .LVU137
 325:sha2.c        ****         uint64_t w5 = load_bigendian_64(in + 40);
 423              		.loc 1 325 23 is_stmt 0 view .LVU138
 424 011e FFF7FEFF 		bl	load_bigendian_64
 425              	.LVL52:
 325:sha2.c        ****         uint64_t w5 = load_bigendian_64(in + 40);
 426              		.loc 1 325 23 view .LVU139
 427 0122 3290     		str	r0, [sp, #200]
 326:sha2.c        ****         uint64_t w6 = load_bigendian_64(in + 48);
 428              		.loc 1 326 23 view .LVU140
 429 0124 03F12800 		add	r0, r3, #40
 325:sha2.c        ****         uint64_t w5 = load_bigendian_64(in + 40);
 430              		.loc 1 325 23 view .LVU141
 431 0128 1C91     		str	r1, [sp, #112]
 432              	.LVL53:
 326:sha2.c        ****         uint64_t w6 = load_bigendian_64(in + 48);
 433              		.loc 1 326 9 is_stmt 1 view .LVU142
 326:sha2.c        ****         uint64_t w6 = load_bigendian_64(in + 48);
 434              		.loc 1 326 23 is_stmt 0 view .LVU143
 435 012a FFF7FEFF 		bl	load_bigendian_64
 436              	.LVL54:
 326:sha2.c        ****         uint64_t w6 = load_bigendian_64(in + 48);
 437              		.loc 1 326 23 view .LVU144
 438 012e 3390     		str	r0, [sp, #204]
 327:sha2.c        ****         uint64_t w7 = load_bigendian_64(in + 56);
 439              		.loc 1 327 23 view .LVU145
 440 0130 03F13000 		add	r0, r3, #48
 326:sha2.c        ****         uint64_t w6 = load_bigendian_64(in + 48);
 441              		.loc 1 326 23 view .LVU146
 442 0134 1D91     		str	r1, [sp, #116]
 443              	.LVL55:
 327:sha2.c        ****         uint64_t w7 = load_bigendian_64(in + 56);
 444              		.loc 1 327 9 is_stmt 1 view .LVU147
 327:sha2.c        ****         uint64_t w7 = load_bigendian_64(in + 56);
 445              		.loc 1 327 23 is_stmt 0 view .LVU148
 446 0136 FFF7FEFF 		bl	load_bigendian_64
 447              	.LVL56:
 327:sha2.c        ****         uint64_t w7 = load_bigendian_64(in + 56);
 448              		.loc 1 327 23 view .LVU149
 449 013a 3790     		str	r0, [sp, #220]
 328:sha2.c        ****         uint64_t w8 = load_bigendian_64(in + 64);
 450              		.loc 1 328 23 view .LVU150
 451 013c 03F13800 		add	r0, r3, #56
 327:sha2.c        ****         uint64_t w7 = load_bigendian_64(in + 56);
 452              		.loc 1 327 23 view .LVU151
 453 0140 1E91     		str	r1, [sp, #120]
 454              	.LVL57:
 328:sha2.c        ****         uint64_t w8 = load_bigendian_64(in + 64);
 455              		.loc 1 328 9 is_stmt 1 view .LVU152
 328:sha2.c        ****         uint64_t w8 = load_bigendian_64(in + 64);
 456              		.loc 1 328 23 is_stmt 0 view .LVU153
 457 0142 FFF7FEFF 		bl	load_bigendian_64
 458              	.LVL58:
 328:sha2.c        ****         uint64_t w8 = load_bigendian_64(in + 64);
 459              		.loc 1 328 23 view .LVU154
 460 0146 3890     		str	r0, [sp, #224]
 329:sha2.c        ****         uint64_t w9 = load_bigendian_64(in + 72);
 461              		.loc 1 329 23 view .LVU155
 462 0148 03F14000 		add	r0, r3, #64
 328:sha2.c        ****         uint64_t w8 = load_bigendian_64(in + 64);
 463              		.loc 1 328 23 view .LVU156
 464 014c 1F91     		str	r1, [sp, #124]
 465              	.LVL59:
 329:sha2.c        ****         uint64_t w9 = load_bigendian_64(in + 72);
 466              		.loc 1 329 9 is_stmt 1 view .LVU157
 329:sha2.c        ****         uint64_t w9 = load_bigendian_64(in + 72);
 467              		.loc 1 329 23 is_stmt 0 view .LVU158
 468 014e FFF7FEFF 		bl	load_bigendian_64
 469              	.LVL60:
 329:sha2.c        ****         uint64_t w9 = load_bigendian_64(in + 72);
 470              		.loc 1 329 23 view .LVU159
 471 0152 3990     		str	r0, [sp, #228]
 330:sha2.c        ****         uint64_t w10 = load_bigendian_64(in + 80);
 472              		.loc 1 330 23 view .LVU160
 473 0154 03F14800 		add	r0, r3, #72
 329:sha2.c        ****         uint64_t w9 = load_bigendian_64(in + 72);
 474              		.loc 1 329 23 view .LVU161
 475 0158 2091     		str	r1, [sp, #128]
 476              	.LVL61:
 330:sha2.c        ****         uint64_t w10 = load_bigendian_64(in + 80);
 477              		.loc 1 330 9 is_stmt 1 view .LVU162
 330:sha2.c        ****         uint64_t w10 = load_bigendian_64(in + 80);
 478              		.loc 1 330 23 is_stmt 0 view .LVU163
 479 015a FFF7FEFF 		bl	load_bigendian_64
 480              	.LVL62:
 330:sha2.c        ****         uint64_t w10 = load_bigendian_64(in + 80);
 481              		.loc 1 330 23 view .LVU164
 482 015e 2190     		str	r0, [sp, #132]
 331:sha2.c        ****         uint64_t w11 = load_bigendian_64(in + 88);
 483              		.loc 1 331 24 view .LVU165
 484 0160 03F15000 		add	r0, r3, #80
 330:sha2.c        ****         uint64_t w10 = load_bigendian_64(in + 80);
 485              		.loc 1 330 23 view .LVU166
 486 0164 0F91     		str	r1, [sp, #60]
 487              	.LVL63:
 331:sha2.c        ****         uint64_t w11 = load_bigendian_64(in + 88);
 488              		.loc 1 331 9 is_stmt 1 view .LVU167
 331:sha2.c        ****         uint64_t w11 = load_bigendian_64(in + 88);
 489              		.loc 1 331 24 is_stmt 0 view .LVU168
 490 0166 FFF7FEFF 		bl	load_bigendian_64
 491              	.LVL64:
 331:sha2.c        ****         uint64_t w11 = load_bigendian_64(in + 88);
 492              		.loc 1 331 24 view .LVU169
 493 016a 2290     		str	r0, [sp, #136]
 332:sha2.c        ****         uint64_t w12 = load_bigendian_64(in + 96);
 494              		.loc 1 332 24 view .LVU170
 495 016c 03F15800 		add	r0, r3, #88
 331:sha2.c        ****         uint64_t w11 = load_bigendian_64(in + 88);
 496              		.loc 1 331 24 view .LVU171
 497 0170 1091     		str	r1, [sp, #64]
 498              	.LVL65:
 332:sha2.c        ****         uint64_t w12 = load_bigendian_64(in + 96);
 499              		.loc 1 332 9 is_stmt 1 view .LVU172
 332:sha2.c        ****         uint64_t w12 = load_bigendian_64(in + 96);
 500              		.loc 1 332 24 is_stmt 0 view .LVU173
 501 0172 FFF7FEFF 		bl	load_bigendian_64
 502              	.LVL66:
 332:sha2.c        ****         uint64_t w12 = load_bigendian_64(in + 96);
 503              		.loc 1 332 24 view .LVU174
 504 0176 2390     		str	r0, [sp, #140]
 333:sha2.c        ****         uint64_t w13 = load_bigendian_64(in + 104);
 505              		.loc 1 333 24 view .LVU175
 506 0178 03F16000 		add	r0, r3, #96
 332:sha2.c        ****         uint64_t w12 = load_bigendian_64(in + 96);
 507              		.loc 1 332 24 view .LVU176
 508 017c 1191     		str	r1, [sp, #68]
 509              	.LVL67:
 333:sha2.c        ****         uint64_t w13 = load_bigendian_64(in + 104);
 510              		.loc 1 333 9 is_stmt 1 view .LVU177
 333:sha2.c        ****         uint64_t w13 = load_bigendian_64(in + 104);
 511              		.loc 1 333 24 is_stmt 0 view .LVU178
 512 017e FFF7FEFF 		bl	load_bigendian_64
 513              	.LVL68:
 333:sha2.c        ****         uint64_t w13 = load_bigendian_64(in + 104);
 514              		.loc 1 333 24 view .LVU179
 515 0182 2490     		str	r0, [sp, #144]
 334:sha2.c        ****         uint64_t w14 = load_bigendian_64(in + 112);
 516              		.loc 1 334 24 view .LVU180
 517 0184 03F16800 		add	r0, r3, #104
 333:sha2.c        ****         uint64_t w13 = load_bigendian_64(in + 104);
 518              		.loc 1 333 24 view .LVU181
 519 0188 1291     		str	r1, [sp, #72]
 520              	.LVL69:
 334:sha2.c        ****         uint64_t w14 = load_bigendian_64(in + 112);
 521              		.loc 1 334 9 is_stmt 1 view .LVU182
 334:sha2.c        ****         uint64_t w14 = load_bigendian_64(in + 112);
 522              		.loc 1 334 24 is_stmt 0 view .LVU183
 523 018a FFF7FEFF 		bl	load_bigendian_64
 524              	.LVL70:
 334:sha2.c        ****         uint64_t w14 = load_bigendian_64(in + 112);
 525              		.loc 1 334 24 view .LVU184
 526 018e 2590     		str	r0, [sp, #148]
 335:sha2.c        ****         uint64_t w15 = load_bigendian_64(in + 120);
 527              		.loc 1 335 24 view .LVU185
 528 0190 03F17000 		add	r0, r3, #112
 334:sha2.c        ****         uint64_t w14 = load_bigendian_64(in + 112);
 529              		.loc 1 334 24 view .LVU186
 530 0194 1391     		str	r1, [sp, #76]
 531              	.LVL71:
 335:sha2.c        ****         uint64_t w15 = load_bigendian_64(in + 120);
 532              		.loc 1 335 9 is_stmt 1 view .LVU187
 335:sha2.c        ****         uint64_t w15 = load_bigendian_64(in + 120);
 533              		.loc 1 335 24 is_stmt 0 view .LVU188
 534 0196 FFF7FEFF 		bl	load_bigendian_64
 535              	.LVL72:
 335:sha2.c        ****         uint64_t w15 = load_bigendian_64(in + 120);
 536              		.loc 1 335 24 view .LVU189
 537 019a 1690     		str	r0, [sp, #88]
 336:sha2.c        **** 
 538              		.loc 1 336 24 view .LVU190
 539 019c 03F17800 		add	r0, r3, #120
 335:sha2.c        ****         uint64_t w15 = load_bigendian_64(in + 120);
 540              		.loc 1 335 24 view .LVU191
 541 01a0 0291     		str	r1, [sp, #8]
 542              	.LVL73:
 336:sha2.c        **** 
 543              		.loc 1 336 9 is_stmt 1 view .LVU192
 336:sha2.c        **** 
 544              		.loc 1 336 24 is_stmt 0 view .LVU193
 545 01a2 FFF7FEFF 		bl	load_bigendian_64
 546              	.LVL74:
 338:sha2.c        ****         F_64(w1, 0x7137449123ef65cdULL)
 547              		.loc 1 338 9 view .LVU194
 548 01a6 149B     		ldr	r3, [sp, #80]
 336:sha2.c        **** 
 549              		.loc 1 336 24 view .LVU195
 550 01a8 0391     		str	r1, [sp, #12]
 551              	.LVL75:
 338:sha2.c        ****         F_64(w1, 0x7137449123ef65cdULL)
 552              		.loc 1 338 9 is_stmt 1 view .LVU196
 553 01aa 990B     		lsrs	r1, r3, #14
 554              	.LVL76:
 338:sha2.c        ****         F_64(w1, 0x7137449123ef65cdULL)
 555              		.loc 1 338 9 is_stmt 0 view .LVU197
 556 01ac 159B     		ldr	r3, [sp, #84]
 336:sha2.c        **** 
 557              		.loc 1 336 24 view .LVU198
 558 01ae 1790     		str	r0, [sp, #92]
 559              	.LVL77:
 338:sha2.c        ****         F_64(w1, 0x7137449123ef65cdULL)
 560              		.loc 1 338 9 view .LVU199
 561 01b0 41EA8341 		orr	r1, r1, r3, lsl #18
 562 01b4 980B     		lsrs	r0, r3, #14
 563 01b6 149B     		ldr	r3, [sp, #80]
 564 01b8 159A     		ldr	r2, [sp, #84]
 565 01ba 40EA8344 		orr	r4, r0, r3, lsl #18
 566 01be 9B0C     		lsrs	r3, r3, #18
 567 01c0 43EA8235 		orr	r5, r3, r2, lsl #14
 568 01c4 149B     		ldr	r3, [sp, #80]
 569 01c6 900C     		lsrs	r0, r2, #18
 570 01c8 40EA8332 		orr	r2, r0, r3, lsl #14
 571 01cc 84EA0200 		eor	r0, r4, r2
 572 01d0 159A     		ldr	r2, [sp, #84]
 573 01d2 159C     		ldr	r4, [sp, #84]
 574 01d4 81EA0503 		eor	r3, r1, r5
 575 01d8 1499     		ldr	r1, [sp, #80]
 576 01da D205     		lsls	r2, r2, #23
 577 01dc 42EA5122 		orr	r2, r2, r1, lsr #9
 578 01e0 C905     		lsls	r1, r1, #23
 579 01e2 41EA5421 		orr	r1, r1, r4, lsr #9
 580 01e6 5940     		eors	r1, r1, r3
 581 01e8 4240     		eors	r2, r2, r0
 582 01ea 449B     		ldr	r3, [sp, #272]
 583 01ec D248     		ldr	r0, .L7
 584 01ee 459C     		ldr	r4, [sp, #276]
 585 01f0 1B18     		adds	r3, r3, r0
 586 01f2 D248     		ldr	r0, .L7+4
 587 01f4 40EB0400 		adc	r0, r0, r4
 588 01f8 C918     		adds	r1, r1, r3
 589 01fa 42EB0002 		adc	r2, r2, r0
 590 01fe 429B     		ldr	r3, [sp, #264]
 591 0200 1498     		ldr	r0, [sp, #80]
 592 0202 23EA0003 		bic	r3, r3, r0
 593 0206 4398     		ldr	r0, [sp, #268]
 594 0208 159C     		ldr	r4, [sp, #84]
 595 020a 3D9D     		ldr	r5, [sp, #244]
 596 020c 3E9E     		ldr	r6, [sp, #248]
 597 020e 3F9F     		ldr	r7, [sp, #252]
 598 0210 DDF800C1 		ldr	ip, [sp, #256]
 599 0214 20EA0400 		bic	r0, r0, r4
 600 0218 149C     		ldr	r4, [sp, #80]
 601 021a 2540     		ands	r5, r5, r4
 602 021c 159C     		ldr	r4, [sp, #84]
 603 021e 6B40     		eors	r3, r3, r5
 604 0220 3440     		ands	r4, r4, r6
 605 0222 CB18     		adds	r3, r1, r3
 606 0224 1899     		ldr	r1, [sp, #96]
 607 0226 059E     		ldr	r6, [sp, #20]
 608 0228 80EA0400 		eor	r0, r0, r4
 609 022c 42EB0002 		adc	r2, r2, r0
 610 0230 5B18     		adds	r3, r3, r1
 611 0232 3A99     		ldr	r1, [sp, #232]
 612 0234 0598     		ldr	r0, [sp, #20]
 613 0236 049C     		ldr	r4, [sp, #16]
 614 0238 41EB0202 		adc	r2, r1, r2
 615              	.LVL78:
 338:sha2.c        ****         F_64(w1, 0x7137449123ef65cdULL)
 616              		.loc 1 338 9 is_stmt 1 view .LVU200
 617 023c 0499     		ldr	r1, [sp, #16]
 618 023e 090F     		lsrs	r1, r1, #28
 619 0240 41EA0011 		orr	r1, r1, r0, lsl #4
 620 0244 050F     		lsrs	r5, r0, #28
 621 0246 0498     		ldr	r0, [sp, #16]
 622 0248 45EA0015 		orr	r5, r5, r0, lsl #4
 623 024c 0598     		ldr	r0, [sp, #20]
 624 024e 8007     		lsls	r0, r0, #30
 625 0250 40EA9400 		orr	r0, r0, r4, lsr #2
 626 0254 A407     		lsls	r4, r4, #30
 627 0256 44EA9604 		orr	r4, r4, r6, lsr #2
 628 025a 6140     		eors	r1, r1, r4
 629 025c 049C     		ldr	r4, [sp, #16]
 630 025e 4540     		eors	r5, r5, r0
 631 0260 7006     		lsls	r0, r6, #25
 632 0262 40EAD410 		orr	r0, r0, r4, lsr #7
 633 0266 6406     		lsls	r4, r4, #25
 634 0268 44EAD614 		orr	r4, r4, r6, lsr #7
 635 026c 6140     		eors	r1, r1, r4
 636 026e 4540     		eors	r5, r5, r0
 637 0270 3F9C     		ldr	r4, [sp, #252]
 638 0272 3598     		ldr	r0, [sp, #212]
 639 0274 80EA0406 		eor	r6, r0, r4
 640 0278 409C     		ldr	r4, [sp, #256]
 641 027a 3698     		ldr	r0, [sp, #216]
 642 027c 6040     		eors	r0, r0, r4
 643 027e 049C     		ldr	r4, [sp, #16]
 644 0280 2640     		ands	r6, r6, r4
 645 0282 059C     		ldr	r4, [sp, #20]
 646 0284 2040     		ands	r0, r0, r4
 647 0286 359C     		ldr	r4, [sp, #212]
 648 0288 3C40     		ands	r4, r4, r7
 649 028a 369F     		ldr	r7, [sp, #216]
 650 028c 7440     		eors	r4, r4, r6
 651 028e 07EA0C07 		and	r7, r7, ip
 652 0292 0919     		adds	r1, r1, r4
 653 0294 80EA0700 		eor	r0, r0, r7
 654 0298 45EB0005 		adc	r5, r5, r0
 655              	.LVL79:
 338:sha2.c        ****         F_64(w1, 0x7137449123ef65cdULL)
 656              		.loc 1 338 9 view .LVU201
 338:sha2.c        ****         F_64(w1, 0x7137449123ef65cdULL)
 657              		.loc 1 338 9 view .LVU202
 338:sha2.c        ****         F_64(w1, 0x7137449123ef65cdULL)
 658              		.loc 1 338 9 view .LVU203
 338:sha2.c        ****         F_64(w1, 0x7137449123ef65cdULL)
 659              		.loc 1 338 9 view .LVU204
 660 029c 4698     		ldr	r0, [sp, #280]
 661 029e 13EB000E 		adds	lr, r3, r0
 662 02a2 4798     		ldr	r0, [sp, #284]
 663 02a4 42EB0004 		adc	r4, r2, r0
 664              	.LVL80:
 338:sha2.c        ****         F_64(w1, 0x7137449123ef65cdULL)
 665              		.loc 1 338 9 view .LVU205
 338:sha2.c        ****         F_64(w1, 0x7137449123ef65cdULL)
 666              		.loc 1 338 9 view .LVU206
 338:sha2.c        ****         F_64(w1, 0x7137449123ef65cdULL)
 667              		.loc 1 338 9 view .LVU207
 338:sha2.c        ****         F_64(w1, 0x7137449123ef65cdULL)
 668              		.loc 1 338 9 view .LVU208
 669 02a8 13EB010A 		adds	r10, r3, r1
 670 02ac 42EB050B 		adc	fp, r2, r5
 671              	.LVL81:
 339:sha2.c        ****         F_64(w2, 0xb5c0fbcfec4d3b2fULL)
 672              		.loc 1 339 9 view .LVU209
 673 02b0 4FEA9438 		lsr	r8, r4, #14
 674 02b4 A20C     		lsrs	r2, r4, #18
 675              	.LVL82:
 339:sha2.c        ****         F_64(w2, 0xb5c0fbcfec4d3b2fULL)
 676              		.loc 1 339 9 is_stmt 0 view .LVU210
 677 02b6 42EA8E32 		orr	r2, r2, lr, lsl #14
 678 02ba 48EA8E48 		orr	r8, r8, lr, lsl #18
 679 02be 4FEA9E33 		lsr	r3, lr, #14
 680              	.LVL83:
 339:sha2.c        ****         F_64(w2, 0xb5c0fbcfec4d3b2fULL)
 681              		.loc 1 339 9 view .LVU211
 682 02c2 4FEA9E41 		lsr	r1, lr, #18
 683              	.LVL84:
 339:sha2.c        ****         F_64(w2, 0xb5c0fbcfec4d3b2fULL)
 684              		.loc 1 339 9 view .LVU212
 685 02c6 88EA0208 		eor	r8, r8, r2
 686 02ca E205     		lsls	r2, r4, #23
 687 02cc 41EA8431 		orr	r1, r1, r4, lsl #14
 688 02d0 42EA5E22 		orr	r2, r2, lr, lsr #9
 689 02d4 43EA8443 		orr	r3, r3, r4, lsl #18
 690 02d8 4B40     		eors	r3, r3, r1
 691 02da 4FEACE55 		lsl	r5, lr, #23
 692              	.LVL85:
 339:sha2.c        ****         F_64(w2, 0xb5c0fbcfec4d3b2fULL)
 693              		.loc 1 339 9 view .LVU213
 694 02de 9849     		ldr	r1, .L7+8
 695 02e0 88EA0208 		eor	r8, r8, r2
 696 02e4 429A     		ldr	r2, [sp, #264]
 697 02e6 45EA5425 		orr	r5, r5, r4, lsr #9
 698 02ea 6B40     		eors	r3, r3, r5
 699 02ec 5518     		adds	r5, r2, r1
 700 02ee 4399     		ldr	r1, [sp, #268]
 701 02f0 944A     		ldr	r2, .L7+12
 702 02f2 42EB0102 		adc	r2, r2, r1
 703 02f6 2F99     		ldr	r1, [sp, #188]
 704 02f8 6D18     		adds	r5, r5, r1
 705 02fa 1999     		ldr	r1, [sp, #100]
 706 02fc 41EB0202 		adc	r2, r1, r2
 707 0300 5B19     		adds	r3, r3, r5
 708 0302 48EB0208 		adc	r8, r8, r2
 709 0306 3D9A     		ldr	r2, [sp, #244]
 710 0308 22EA0E00 		bic	r0, r2, lr
 711 030c 3E9A     		ldr	r2, [sp, #248]
 712 030e 1499     		ldr	r1, [sp, #80]
 713 0310 359F     		ldr	r7, [sp, #212]
 714              	.LVL86:
 339:sha2.c        ****         F_64(w2, 0xb5c0fbcfec4d3b2fULL)
 715              		.loc 1 339 9 view .LVU214
 716 0312 DDF8D8C0 		ldr	ip, [sp, #216]
 717              	.LVL87:
 339:sha2.c        ****         F_64(w2, 0xb5c0fbcfec4d3b2fULL)
 718              		.loc 1 339 9 view .LVU215
 719 0316 01EA0E05 		and	r5, r1, lr
 720 031a 1599     		ldr	r1, [sp, #84]
 721 031c 4540     		eors	r5, r5, r0
 722 031e 2140     		ands	r1, r1, r4
 723 0320 22EA0402 		bic	r2, r2, r4
 724 0324 5B19     		adds	r3, r3, r5
 725 0326 82EA0102 		eor	r2, r2, r1
 726 032a 48EB0208 		adc	r8, r8, r2
 727              	.LVL88:
 339:sha2.c        ****         F_64(w2, 0xb5c0fbcfec4d3b2fULL)
 728              		.loc 1 339 9 is_stmt 1 view .LVU216
 729 032e 4FEA1B70 		lsr	r0, fp, #28
 730 0332 4FEA1A72 		lsr	r2, r10, #28
 731 0336 4FEA8B71 		lsl	r1, fp, #30
 732 033a 4FEA8A75 		lsl	r5, r10, #30
 733 033e 41EA9A01 		orr	r1, r1, r10, lsr #2
 734 0342 45EA9B05 		orr	r5, r5, fp, lsr #2
 735 0346 42EA0B12 		orr	r2, r2, fp, lsl #4
 736 034a 40EA0A10 		orr	r0, r0, r10, lsl #4
 737 034e 6A40     		eors	r2, r2, r5
 738 0350 4840     		eors	r0, r0, r1
 739 0352 4FEA4A65 		lsl	r5, r10, #25
 740 0356 4FEA4B61 		lsl	r1, fp, #25
 741 035a 41EADA11 		orr	r1, r1, r10, lsr #7
 742 035e 45EADB15 		orr	r5, r5, fp, lsr #7
 743 0362 6A40     		eors	r2, r2, r5
 744 0364 4840     		eors	r0, r0, r1
 745 0366 359D     		ldr	r5, [sp, #212]
 746 0368 0499     		ldr	r1, [sp, #16]
 747 036a 81EA0506 		eor	r6, r1, r5
 748              	.LVL89:
 339:sha2.c        ****         F_64(w2, 0xb5c0fbcfec4d3b2fULL)
 749              		.loc 1 339 9 is_stmt 0 view .LVU217
 750 036e 369D     		ldr	r5, [sp, #216]
 751 0370 0599     		ldr	r1, [sp, #20]
 752 0372 6940     		eors	r1, r1, r5
 753 0374 049D     		ldr	r5, [sp, #16]
 754 0376 3D40     		ands	r5, r5, r7
 755 0378 059F     		ldr	r7, [sp, #20]
 756 037a 06EA0A06 		and	r6, r6, r10
 757 037e 07EA0C07 		and	r7, r7, ip
 758 0382 7540     		eors	r5, r5, r6
 759 0384 01EA0B01 		and	r1, r1, fp
 760 0388 5219     		adds	r2, r2, r5
 761 038a 81EA0701 		eor	r1, r1, r7
 762 038e 40EB0100 		adc	r0, r0, r1
 763              	.LVL90:
 339:sha2.c        ****         F_64(w2, 0xb5c0fbcfec4d3b2fULL)
 764              		.loc 1 339 9 is_stmt 1 view .LVU218
 339:sha2.c        ****         F_64(w2, 0xb5c0fbcfec4d3b2fULL)
 765              		.loc 1 339 9 view .LVU219
 339:sha2.c        ****         F_64(w2, 0xb5c0fbcfec4d3b2fULL)
 766              		.loc 1 339 9 view .LVU220
 339:sha2.c        ****         F_64(w2, 0xb5c0fbcfec4d3b2fULL)
 767              		.loc 1 339 9 view .LVU221
 768 0392 3F99     		ldr	r1, [sp, #252]
 769 0394 CD18     		adds	r5, r1, r3
 770 0396 4099     		ldr	r1, [sp, #256]
 771 0398 41EB0801 		adc	r1, r1, r8
 772              	.LVL91:
 339:sha2.c        ****         F_64(w2, 0xb5c0fbcfec4d3b2fULL)
 773              		.loc 1 339 9 view .LVU222
 339:sha2.c        ****         F_64(w2, 0xb5c0fbcfec4d3b2fULL)
 774              		.loc 1 339 9 view .LVU223
 339:sha2.c        ****         F_64(w2, 0xb5c0fbcfec4d3b2fULL)
 775              		.loc 1 339 9 view .LVU224
 339:sha2.c        ****         F_64(w2, 0xb5c0fbcfec4d3b2fULL)
 776              		.loc 1 339 9 view .LVU225
 777 039c 9B18     		adds	r3, r3, r2
 778              	.LVL92:
 339:sha2.c        ****         F_64(w2, 0xb5c0fbcfec4d3b2fULL)
 779              		.loc 1 339 9 is_stmt 0 view .LVU226
 780 039e 0693     		str	r3, [sp, #24]
 340:sha2.c        ****         F_64(w3, 0xe9b5dba58189dbbcULL)
 781              		.loc 1 340 9 view .LVU227
 782 03a0 4FEA9132 		lsr	r2, r1, #14
 783              	.LVL93:
 339:sha2.c        ****         F_64(w2, 0xb5c0fbcfec4d3b2fULL)
 784              		.loc 1 339 9 view .LVU228
 785 03a4 48EB0003 		adc	r3, r8, r0
 340:sha2.c        ****         F_64(w3, 0xe9b5dba58189dbbcULL)
 786              		.loc 1 340 9 view .LVU229
 787 03a8 880C     		lsrs	r0, r1, #18
 788              	.LVL94:
 340:sha2.c        ****         F_64(w3, 0xe9b5dba58189dbbcULL)
 789              		.loc 1 340 9 view .LVU230
 790 03aa 40EA8530 		orr	r0, r0, r5, lsl #14
 791 03ae 42EA8542 		orr	r2, r2, r5, lsl #18
 339:sha2.c        ****         F_64(w2, 0xb5c0fbcfec4d3b2fULL)
 792              		.loc 1 339 9 view .LVU231
 793 03b2 0793     		str	r3, [sp, #28]
 794              	.LVL95:
 340:sha2.c        ****         F_64(w3, 0xe9b5dba58189dbbcULL)
 795              		.loc 1 340 9 is_stmt 1 view .LVU232
 796 03b4 AE0C     		lsrs	r6, r5, #18
 797              	.LVL96:
 340:sha2.c        ****         F_64(w3, 0xe9b5dba58189dbbcULL)
 798              		.loc 1 340 9 is_stmt 0 view .LVU233
 799 03b6 AB0B     		lsrs	r3, r5, #14
 800              	.LVL97:
 340:sha2.c        ****         F_64(w3, 0xe9b5dba58189dbbcULL)
 801              		.loc 1 340 9 view .LVU234
 802 03b8 4240     		eors	r2, r2, r0
 803 03ba C805     		lsls	r0, r1, #23
 804 03bc 46EA8136 		orr	r6, r6, r1, lsl #14
 805 03c0 40EA5520 		orr	r0, r0, r5, lsr #9
 806 03c4 43EA8143 		orr	r3, r3, r1, lsl #18
 807 03c8 7340     		eors	r3, r3, r6
 808 03ca 4FEAC55C 		lsl	ip, r5, #23
 809 03ce 3D9E     		ldr	r6, [sp, #244]
 810 03d0 DDF81C80 		ldr	r8, [sp, #28]
 811              	.LVL98:
 340:sha2.c        ****         F_64(w3, 0xe9b5dba58189dbbcULL)
 812              		.loc 1 340 9 view .LVU235
 813 03d4 4240     		eors	r2, r2, r0
 814 03d6 5C48     		ldr	r0, .L7+16
 815 03d8 4CEA512C 		orr	ip, ip, r1, lsr #9
 816 03dc 83EA0C03 		eor	r3, r3, ip
 817 03e0 16EB000C 		adds	ip, r6, r0
 818 03e4 3E9E     		ldr	r6, [sp, #248]
 819 03e6 5948     		ldr	r0, .L7+20
 820 03e8 40EB0600 		adc	r0, r0, r6
 821 03ec 309E     		ldr	r6, [sp, #192]
 822 03ee 1CEB060C 		adds	ip, ip, r6
 823 03f2 1A9E     		ldr	r6, [sp, #104]
 824 03f4 46EB0000 		adc	r0, r6, r0
 825 03f8 13EB0C03 		adds	r3, r3, ip
 826 03fc 42EB0002 		adc	r2, r2, r0
 827 0400 1498     		ldr	r0, [sp, #80]
 828 0402 20EA0507 		bic	r7, r0, r5
 829              	.LVL99:
 340:sha2.c        ****         F_64(w3, 0xe9b5dba58189dbbcULL)
 830              		.loc 1 340 9 view .LVU236
 831 0406 1598     		ldr	r0, [sp, #84]
 832 0408 0EEA050C 		and	ip, lr, r5
 833 040c 04EA0106 		and	r6, r4, r1
 834 0410 87EA0C0C 		eor	ip, r7, ip
 835 0414 20EA0100 		bic	r0, r0, r1
 836 0418 13EB0C03 		adds	r3, r3, ip
 837 041c 80EA0600 		eor	r0, r0, r6
 838 0420 42EB0002 		adc	r2, r2, r0
 839              	.LVL100:
 340:sha2.c        ****         F_64(w3, 0xe9b5dba58189dbbcULL)
 840              		.loc 1 340 9 is_stmt 1 view .LVU237
 841 0424 0698     		ldr	r0, [sp, #24]
 842 0426 069E     		ldr	r6, [sp, #24]
 843 0428 069F     		ldr	r7, [sp, #24]
 844 042a 4FEA107C 		lsr	ip, r0, #28
 845 042e 0798     		ldr	r0, [sp, #28]
 846 0430 4CEA001C 		orr	ip, ip, r0, lsl #4
 847 0434 000F     		lsrs	r0, r0, #28
 848 0436 40EA0610 		orr	r0, r0, r6, lsl #4
 849 043a 079E     		ldr	r6, [sp, #28]
 850 043c B607     		lsls	r6, r6, #30
 851 043e 46EA9706 		orr	r6, r6, r7, lsr #2
 852 0442 BF07     		lsls	r7, r7, #30
 853 0444 47EA9807 		orr	r7, r7, r8, lsr #2
 854 0448 8CEA070C 		eor	ip, ip, r7
 855 044c 7040     		eors	r0, r0, r6
 856 044e 069F     		ldr	r7, [sp, #24]
 857 0450 4646     		mov	r6, r8
 858 0452 7606     		lsls	r6, r6, #25
 859 0454 46EAD716 		orr	r6, r6, r7, lsr #7
 860 0458 7F06     		lsls	r7, r7, #25
 861 045a 47EAD817 		orr	r7, r7, r8, lsr #7
 862 045e 7040     		eors	r0, r0, r6
 863 0460 049E     		ldr	r6, [sp, #16]
 864 0462 8CEA070C 		eor	ip, ip, r7
 865 0466 069F     		ldr	r7, [sp, #24]
 866 0468 86EA0A08 		eor	r8, r6, r10
 867 046c 059E     		ldr	r6, [sp, #20]
 868 046e 08EA0708 		and	r8, r8, r7
 869 0472 079F     		ldr	r7, [sp, #28]
 870 0474 86EA0B06 		eor	r6, r6, fp
 871 0478 3E40     		ands	r6, r6, r7
 872 047a 049F     		ldr	r7, [sp, #16]
 873 047c DDF81490 		ldr	r9, [sp, #20]
 874 0480 07EA0A07 		and	r7, r7, r10
 875 0484 09EA0B09 		and	r9, r9, fp
 876 0488 88EA0707 		eor	r7, r8, r7
 877 048c 1CEB0707 		adds	r7, ip, r7
 878 0490 86EA0906 		eor	r6, r6, r9
 879 0494 40EB0606 		adc	r6, r0, r6
 880              	.LVL101:
 340:sha2.c        ****         F_64(w3, 0xe9b5dba58189dbbcULL)
 881              		.loc 1 340 9 view .LVU238
 340:sha2.c        ****         F_64(w3, 0xe9b5dba58189dbbcULL)
 882              		.loc 1 340 9 view .LVU239
 340:sha2.c        ****         F_64(w3, 0xe9b5dba58189dbbcULL)
 883              		.loc 1 340 9 view .LVU240
 340:sha2.c        ****         F_64(w3, 0xe9b5dba58189dbbcULL)
 884              		.loc 1 340 9 view .LVU241
 885 0498 3598     		ldr	r0, [sp, #212]
 886 049a 10EB030C 		adds	ip, r0, r3
 887 049e 3698     		ldr	r0, [sp, #216]
 888 04a0 40EB0200 		adc	r0, r0, r2
 889 04a4 DB19     		adds	r3, r3, r7
 890              	.LVL102:
 340:sha2.c        ****         F_64(w3, 0xe9b5dba58189dbbcULL)
 891              		.loc 1 340 9 is_stmt 0 view .LVU242
 892 04a6 0893     		str	r3, [sp, #32]
 893 04a8 42EB0603 		adc	r3, r2, r6
 894 04ac 0993     		str	r3, [sp, #36]
 341:sha2.c        ****         F_64(w4, 0x3956c25bf348b538ULL)
 895              		.loc 1 341 9 view .LVU243
 896 04ae 4FEA9C32 		lsr	r2, ip, #14
 897              	.LVL103:
 341:sha2.c        ****         F_64(w4, 0x3956c25bf348b538ULL)
 898              		.loc 1 341 9 view .LVU244
 899 04b2 830B     		lsrs	r3, r0, #14
 900 04b4 4FEA9C47 		lsr	r7, ip, #18
 901              	.LVL104:
 341:sha2.c        ****         F_64(w4, 0x3956c25bf348b538ULL)
 902              		.loc 1 341 9 view .LVU245
 903 04b8 860C     		lsrs	r6, r0, #18
 904              	.LVL105:
 341:sha2.c        ****         F_64(w4, 0x3956c25bf348b538ULL)
 905              		.loc 1 341 9 view .LVU246
 906 04ba 47EA8037 		orr	r7, r7, r0, lsl #14
 907 04be 46EA8C36 		orr	r6, r6, ip, lsl #14
 908 04c2 42EA8042 		orr	r2, r2, r0, lsl #18
 909 04c6 43EA8C43 		orr	r3, r3, ip, lsl #18
 910 04ca 7A40     		eors	r2, r2, r7
 911 04cc 7340     		eors	r3, r3, r6
 912 04ce 4FEACC57 		lsl	r7, ip, #23
 913 04d2 C605     		lsls	r6, r0, #23
 914 04d4 46EA5C26 		orr	r6, r6, ip, lsr #9
 915 04d8 47EA5027 		orr	r7, r7, r0, lsr #9
 916 04dc 7A40     		eors	r2, r2, r7
 917 04de 7340     		eors	r3, r3, r6
 918 04e0 1B4F     		ldr	r7, .L7+24
 919 04e2 149E     		ldr	r6, [sp, #80]
 340:sha2.c        ****         F_64(w3, 0xe9b5dba58189dbbcULL)
 920              		.loc 1 340 9 view .LVU247
 921 04e4 0E90     		str	r0, [sp, #56]
 922              	.LVL106:
 340:sha2.c        ****         F_64(w3, 0xe9b5dba58189dbbcULL)
 923              		.loc 1 340 9 is_stmt 1 view .LVU248
 340:sha2.c        ****         F_64(w3, 0xe9b5dba58189dbbcULL)
 924              		.loc 1 340 9 view .LVU249
 340:sha2.c        ****         F_64(w3, 0xe9b5dba58189dbbcULL)
 925              		.loc 1 340 9 view .LVU250
 340:sha2.c        ****         F_64(w3, 0xe9b5dba58189dbbcULL)
 926              		.loc 1 340 9 view .LVU251
 341:sha2.c        ****         F_64(w4, 0x3956c25bf348b538ULL)
 927              		.loc 1 341 9 view .LVU252
 928 04e6 F619     		adds	r6, r6, r7
 929 04e8 1598     		ldr	r0, [sp, #84]
 930              	.LVL107:
 341:sha2.c        ****         F_64(w4, 0x3956c25bf348b538ULL)
 931              		.loc 1 341 9 is_stmt 0 view .LVU253
 932 04ea 1A4F     		ldr	r7, .L7+28
 933 04ec 47EB0007 		adc	r7, r7, r0
 934 04f0 3198     		ldr	r0, [sp, #196]
 935 04f2 3618     		adds	r6, r6, r0
 936 04f4 1B98     		ldr	r0, [sp, #108]
 937 04f6 40EB0707 		adc	r7, r0, r7
 938 04fa 0E98     		ldr	r0, [sp, #56]
 939 04fc 9219     		adds	r2, r2, r6
 940 04fe 2EEA0C09 		bic	r9, lr, ip
 941              	.LVL108:
 341:sha2.c        ****         F_64(w4, 0x3956c25bf348b538ULL)
 942              		.loc 1 341 9 view .LVU254
 943 0502 01EA0008 		and	r8, r1, r0
 944              	.LVL109:
 341:sha2.c        ****         F_64(w4, 0x3956c25bf348b538ULL)
 945              		.loc 1 341 9 view .LVU255
 946 0506 43EB0703 		adc	r3, r3, r7
 947 050a 05EA0C06 		and	r6, r5, ip
 948 050e 24EA0007 		bic	r7, r4, r0
 949 0512 0898     		ldr	r0, [sp, #32]
 950 0514 89EA0606 		eor	r6, r9, r6
 951 0518 9219     		adds	r2, r2, r6
 952 051a 4FEA1076 		lsr	r6, r0, #28
 953 051e 0998     		ldr	r0, [sp, #36]
 954 0520 87EA0807 		eor	r7, r7, r8
 955 0524 43EB0703 		adc	r3, r3, r7
 956              	.LVL110:
 341:sha2.c        ****         F_64(w4, 0x3956c25bf348b538ULL)
 957              		.loc 1 341 9 is_stmt 1 view .LVU256
 958 0528 46EA0016 		orr	r6, r6, r0, lsl #4
 959 052c 070F     		lsrs	r7, r0, #28
 960 052e 0898     		ldr	r0, [sp, #32]
 961 0530 47EA0017 		orr	r7, r7, r0, lsl #4
 962 0534 0998     		ldr	r0, [sp, #36]
 963 0536 0FE0     		b	.L8
 964              	.L9:
 965              		.align	2
 966              	.L7:
 967 0538 22AE28D7 		.word	-685199838
 968 053c 982F8A42 		.word	1116352408
 969 0540 CD65EF23 		.word	602891725
 970 0544 91443771 		.word	1899447441
 971 0548 2F3B4DEC 		.word	-330482897
 972 054c CFFBC0B5 		.word	-1245643825
 973 0550 BCDB8981 		.word	-2121671748
 974 0554 A5DBB5E9 		.word	-373957723
 975              	.L8:
 976 0558 4FEA8078 		lsl	r8, r0, #30
 977 055c 0898     		ldr	r0, [sp, #32]
 978 055e 48EA9008 		orr	r8, r8, r0, lsr #2
 979 0562 4FEA8079 		lsl	r9, r0, #30
 980 0566 0998     		ldr	r0, [sp, #36]
 981 0568 87EA0807 		eor	r7, r7, r8
 982 056c 49EA9009 		orr	r9, r9, r0, lsr #2
 983 0570 4FEA4068 		lsl	r8, r0, #25
 984 0574 0898     		ldr	r0, [sp, #32]
 985 0576 86EA0906 		eor	r6, r6, r9
 986 057a 48EAD018 		orr	r8, r8, r0, lsr #7
 987 057e 4FEA4069 		lsl	r9, r0, #25
 988 0582 0998     		ldr	r0, [sp, #36]
 989 0584 49EAD019 		orr	r9, r9, r0, lsr #7
 990 0588 0698     		ldr	r0, [sp, #24]
 991 058a 86EA0906 		eor	r6, r6, r9
 992 058e 8AEA0009 		eor	r9, r10, r0
 993 0592 0798     		ldr	r0, [sp, #28]
 994 0594 87EA0807 		eor	r7, r7, r8
 995 0598 8BEA0008 		eor	r8, fp, r0
 996 059c 0898     		ldr	r0, [sp, #32]
 997 059e 09EA0000 		and	r0, r9, r0
 998 05a2 0A90     		str	r0, [sp, #40]
 999 05a4 0998     		ldr	r0, [sp, #36]
 1000 05a6 08EA0008 		and	r8, r8, r0
 1001 05aa 0698     		ldr	r0, [sp, #24]
 1002 05ac 0AEA0009 		and	r9, r10, r0
 1003 05b0 0798     		ldr	r0, [sp, #28]
 1004 05b2 0BEA0000 		and	r0, fp, r0
 1005 05b6 0B90     		str	r0, [sp, #44]
 1006 05b8 0A98     		ldr	r0, [sp, #40]
 1007 05ba 80EA0909 		eor	r9, r0, r9
 1008 05be 0B98     		ldr	r0, [sp, #44]
 1009 05c0 88EA0008 		eor	r8, r8, r0
 1010 05c4 0498     		ldr	r0, [sp, #16]
 1011 05c6 16EB0909 		adds	r9, r6, r9
 1012 05ca 47EB0808 		adc	r8, r7, r8
 1013              	.LVL111:
 341:sha2.c        ****         F_64(w4, 0x3956c25bf348b538ULL)
 1014              		.loc 1 341 9 view .LVU257
 341:sha2.c        ****         F_64(w4, 0x3956c25bf348b538ULL)
 1015              		.loc 1 341 9 view .LVU258
 341:sha2.c        ****         F_64(w4, 0x3956c25bf348b538ULL)
 1016              		.loc 1 341 9 view .LVU259
 341:sha2.c        ****         F_64(w4, 0x3956c25bf348b538ULL)
 1017              		.loc 1 341 9 view .LVU260
 1018 05ce 8718     		adds	r7, r0, r2
 1019 05d0 0598     		ldr	r0, [sp, #20]
 1020 05d2 40EB0306 		adc	r6, r0, r3
 1021              	.LVL112:
 341:sha2.c        ****         F_64(w4, 0x3956c25bf348b538ULL)
 1022              		.loc 1 341 9 view .LVU261
 341:sha2.c        ****         F_64(w4, 0x3956c25bf348b538ULL)
 1023              		.loc 1 341 9 view .LVU262
 341:sha2.c        ****         F_64(w4, 0x3956c25bf348b538ULL)
 1024              		.loc 1 341 9 view .LVU263
 341:sha2.c        ****         F_64(w4, 0x3956c25bf348b538ULL)
 1025              		.loc 1 341 9 view .LVU264
 1026 05d6 12EB0902 		adds	r2, r2, r9
 1027              	.LVL113:
 341:sha2.c        ****         F_64(w4, 0x3956c25bf348b538ULL)
 1028              		.loc 1 341 9 is_stmt 0 view .LVU265
 1029 05da 43EB0803 		adc	r3, r3, r8
 1030              	.LVL114:
 341:sha2.c        ****         F_64(w4, 0x3956c25bf348b538ULL)
 1031              		.loc 1 341 9 view .LVU266
 1032 05de 0A92     		str	r2, [sp, #40]
 342:sha2.c        ****         F_64(w5, 0x59f111f1b605d019ULL)
 1033              		.loc 1 342 9 view .LVU267
 1034 05e0 4FEA9738 		lsr	r8, r7, #14
 1035              	.LVL115:
 341:sha2.c        ****         F_64(w4, 0x3956c25bf348b538ULL)
 1036              		.loc 1 341 9 view .LVU268
 1037 05e4 0B93     		str	r3, [sp, #44]
 1038              	.LVL116:
 342:sha2.c        ****         F_64(w5, 0x59f111f1b605d019ULL)
 1039              		.loc 1 342 9 is_stmt 1 view .LVU269
 1040 05e6 4FEA9639 		lsr	r9, r6, #14
 1041              	.LVL117:
 342:sha2.c        ****         F_64(w5, 0x59f111f1b605d019ULL)
 1042              		.loc 1 342 9 is_stmt 0 view .LVU270
 1043 05ea BB0C     		lsrs	r3, r7, #18
 1044              	.LVL118:
 342:sha2.c        ****         F_64(w5, 0x59f111f1b605d019ULL)
 1045              		.loc 1 342 9 view .LVU271
 1046 05ec B20C     		lsrs	r2, r6, #18
 1047              	.LVL119:
 342:sha2.c        ****         F_64(w5, 0x59f111f1b605d019ULL)
 1048              		.loc 1 342 9 view .LVU272
 1049 05ee 48EA8648 		orr	r8, r8, r6, lsl #18
 1050 05f2 42EA8732 		orr	r2, r2, r7, lsl #14
 1051 05f6 49EA8749 		orr	r9, r9, r7, lsl #18
 1052 05fa 43EA8633 		orr	r3, r3, r6, lsl #14
 1053 05fe 88EA0303 		eor	r3, r8, r3
 1054 0602 89EA0209 		eor	r9, r9, r2
 1055 0606 4FEAC758 		lsl	r8, r7, #23
 1056 060a F205     		lsls	r2, r6, #23
 1057 060c 42EA5722 		orr	r2, r2, r7, lsr #9
 1058 0610 48EA5628 		orr	r8, r8, r6, lsr #9
 1059 0614 83EA0808 		eor	r8, r3, r8
 1060 0618 89EA0209 		eor	r9, r9, r2
 1061 061c 329B     		ldr	r3, [sp, #200]
 1062 061e D84A     		ldr	r2, .L10
 1063 0620 1C98     		ldr	r0, [sp, #112]
 1064 0622 9A18     		adds	r2, r3, r2
 1065 0624 D74B     		ldr	r3, .L10+4
 1066 0626 43EB0003 		adc	r3, r3, r0
 1067 062a 1846     		mov	r0, r3
 1068 062c 12EB0E03 		adds	r3, r2, lr
 1069 0630 44EB0004 		adc	r4, r4, r0
 1070              	.LVL120:
 342:sha2.c        ****         F_64(w5, 0x59f111f1b605d019ULL)
 1071              		.loc 1 342 9 view .LVU273
 1072 0634 18EB0303 		adds	r3, r8, r3
 1073 0638 49EB0404 		adc	r4, r9, r4
 1074 063c 0CEA0702 		and	r2, ip, r7
 1075 0640 25EA0709 		bic	r9, r5, r7
 1076 0644 0E98     		ldr	r0, [sp, #56]
 1077 0646 89EA0202 		eor	r2, r9, r2
 1078 064a 9B18     		adds	r3, r3, r2
 1079 064c 0A9A     		ldr	r2, [sp, #40]
 1080 064e 00EA0608 		and	r8, r0, r6
 1081 0652 21EA060E 		bic	lr, r1, r6
 1082              	.LVL121:
 342:sha2.c        ****         F_64(w5, 0x59f111f1b605d019ULL)
 1083              		.loc 1 342 9 view .LVU274
 1084 0656 8EEA080E 		eor	lr, lr, r8
 1085 065a 4FEA1278 		lsr	r8, r2, #28
 1086 065e 0B9A     		ldr	r2, [sp, #44]
 1087 0660 0A98     		ldr	r0, [sp, #40]
 1088 0662 48EA0218 		orr	r8, r8, r2, lsl #4
 1089 0666 4FEA1272 		lsr	r2, r2, #28
 1090 066a 42EA0012 		orr	r2, r2, r0, lsl #4
 1091 066e 0B98     		ldr	r0, [sp, #44]
 1092 0670 44EB0E04 		adc	r4, r4, lr
 1093              	.LVL122:
 342:sha2.c        ****         F_64(w5, 0x59f111f1b605d019ULL)
 1094              		.loc 1 342 9 is_stmt 1 view .LVU275
 1095 0674 4FEA807E 		lsl	lr, r0, #30
 1096 0678 0A98     		ldr	r0, [sp, #40]
 1097 067a 4EEA900E 		orr	lr, lr, r0, lsr #2
 1098 067e 4FEA8079 		lsl	r9, r0, #30
 1099 0682 0B98     		ldr	r0, [sp, #44]
 1100 0684 82EA0E02 		eor	r2, r2, lr
 1101 0688 49EA9009 		orr	r9, r9, r0, lsr #2
 1102 068c 4FEA406E 		lsl	lr, r0, #25
 1103 0690 0A98     		ldr	r0, [sp, #40]
 1104 0692 88EA0908 		eor	r8, r8, r9
 1105 0696 4EEAD01E 		orr	lr, lr, r0, lsr #7
 1106 069a 4FEA4069 		lsl	r9, r0, #25
 1107 069e 0B98     		ldr	r0, [sp, #44]
 1108 06a0 82EA0E02 		eor	r2, r2, lr
 1109 06a4 49EAD019 		orr	r9, r9, r0, lsr #7
 1110 06a8 DDF820E0 		ldr	lr, [sp, #32]
 1111 06ac 0698     		ldr	r0, [sp, #24]
 1112 06ae 88EA0908 		eor	r8, r8, r9
 1113 06b2 80EA0E0E 		eor	lr, r0, lr
 1114 06b6 DDF82490 		ldr	r9, [sp, #36]
 1115 06ba 0798     		ldr	r0, [sp, #28]
 1116 06bc 80EA0909 		eor	r9, r0, r9
 1117 06c0 0A98     		ldr	r0, [sp, #40]
 1118 06c2 0EEA000E 		and	lr, lr, r0
 1119 06c6 0B98     		ldr	r0, [sp, #44]
 1120 06c8 09EA0000 		and	r0, r9, r0
 1121 06cc 0C90     		str	r0, [sp, #48]
 1122 06ce DDF82090 		ldr	r9, [sp, #32]
 1123 06d2 0698     		ldr	r0, [sp, #24]
 1124 06d4 00EA0900 		and	r0, r0, r9
 1125 06d8 0D90     		str	r0, [sp, #52]
 1126 06da DDF82490 		ldr	r9, [sp, #36]
 1127 06de 0798     		ldr	r0, [sp, #28]
 1128 06e0 00EA0909 		and	r9, r0, r9
 1129 06e4 0D98     		ldr	r0, [sp, #52]
 1130 06e6 8EEA000E 		eor	lr, lr, r0
 1131 06ea 0C98     		ldr	r0, [sp, #48]
 1132 06ec 18EB0E0E 		adds	lr, r8, lr
 1133 06f0 80EA0909 		eor	r9, r0, r9
 1134 06f4 42EB0909 		adc	r9, r2, r9
 1135              	.LVL123:
 342:sha2.c        ****         F_64(w5, 0x59f111f1b605d019ULL)
 1136              		.loc 1 342 9 view .LVU276
 342:sha2.c        ****         F_64(w5, 0x59f111f1b605d019ULL)
 1137              		.loc 1 342 9 view .LVU277
 342:sha2.c        ****         F_64(w5, 0x59f111f1b605d019ULL)
 1138              		.loc 1 342 9 view .LVU278
 342:sha2.c        ****         F_64(w5, 0x59f111f1b605d019ULL)
 1139              		.loc 1 342 9 view .LVU279
 1140 06f8 1AEB030A 		adds	r10, r10, r3
 1141              	.LVL124:
 342:sha2.c        ****         F_64(w5, 0x59f111f1b605d019ULL)
 1142              		.loc 1 342 9 is_stmt 0 view .LVU280
 1143 06fc 4BEB040B 		adc	fp, fp, r4
 1144              	.LVL125:
 342:sha2.c        ****         F_64(w5, 0x59f111f1b605d019ULL)
 1145              		.loc 1 342 9 is_stmt 1 view .LVU281
 342:sha2.c        ****         F_64(w5, 0x59f111f1b605d019ULL)
 1146              		.loc 1 342 9 view .LVU282
 342:sha2.c        ****         F_64(w5, 0x59f111f1b605d019ULL)
 1147              		.loc 1 342 9 view .LVU283
 342:sha2.c        ****         F_64(w5, 0x59f111f1b605d019ULL)
 1148              		.loc 1 342 9 view .LVU284
 1149 0700 13EB0E03 		adds	r3, r3, lr
 1150              	.LVL126:
 342:sha2.c        ****         F_64(w5, 0x59f111f1b605d019ULL)
 1151              		.loc 1 342 9 is_stmt 0 view .LVU285
 1152 0704 0C93     		str	r3, [sp, #48]
 1153 0706 44EB0903 		adc	r3, r4, r9
 1154 070a 0D93     		str	r3, [sp, #52]
 1155              	.LVL127:
 343:sha2.c        ****         F_64(w6, 0x923f82a4af194f9bULL)
 1156              		.loc 1 343 9 is_stmt 1 view .LVU286
 1157 070c 4FEA9A32 		lsr	r2, r10, #14
 1158 0710 4FEA9A43 		lsr	r3, r10, #18
 1159              	.LVL128:
 343:sha2.c        ****         F_64(w6, 0x923f82a4af194f9bULL)
 1160              		.loc 1 343 9 is_stmt 0 view .LVU287
 1161 0714 43EA8B33 		orr	r3, r3, fp, lsl #14
 1162 0718 42EA8B42 		orr	r2, r2, fp, lsl #18
 1163 071c 4FEA9B34 		lsr	r4, fp, #14
 1164              	.LVL129:
 343:sha2.c        ****         F_64(w6, 0x923f82a4af194f9bULL)
 1165              		.loc 1 343 9 view .LVU288
 1166 0720 4FEA9B4E 		lsr	lr, fp, #18
 1167              	.LVL130:
 343:sha2.c        ****         F_64(w6, 0x923f82a4af194f9bULL)
 1168              		.loc 1 343 9 view .LVU289
 1169 0724 5A40     		eors	r2, r2, r3
 1170 0726 4FEACA53 		lsl	r3, r10, #23
 1171 072a 4EEA8A3E 		orr	lr, lr, r10, lsl #14
 1172 072e 43EA5B23 		orr	r3, r3, fp, lsr #9
 1173 0732 44EA8A44 		orr	r4, r4, r10, lsl #18
 1174 0736 3398     		ldr	r0, [sp, #204]
 1175 0738 5A40     		eors	r2, r2, r3
 1176 073a 84EA0E04 		eor	r4, r4, lr
 1177 073e 924B     		ldr	r3, .L10+8
 1178 0740 4FEACB5E 		lsl	lr, fp, #23
 1179 0744 4EEA5A2E 		orr	lr, lr, r10, lsr #9
 1180 0748 C318     		adds	r3, r0, r3
 1181 074a 84EA0E04 		eor	r4, r4, lr
 1182 074e 1D98     		ldr	r0, [sp, #116]
 1183 0750 DFF838E2 		ldr	lr, .L10+12
 1184 0754 4EEB000E 		adc	lr, lr, r0
 1185 0758 5D19     		adds	r5, r3, r5
 1186              	.LVL131:
 343:sha2.c        ****         F_64(w6, 0x923f82a4af194f9bULL)
 1187              		.loc 1 343 9 view .LVU290
 1188 075a 0E9B     		ldr	r3, [sp, #56]
 1189 075c 41EB0E01 		adc	r1, r1, lr
 1190 0760 5519     		adds	r5, r2, r5
 1191 0762 2CEA0A0E 		bic	lr, ip, r10
 1192 0766 23EA0B02 		bic	r2, r3, fp
 1193 076a 07EA0A03 		and	r3, r7, r10
 1194 076e 44EB0101 		adc	r1, r4, r1
 1195 0772 8EEA0303 		eor	r3, lr, r3
 1196 0776 06EA0B04 		and	r4, r6, fp
 1197 077a EB18     		adds	r3, r5, r3
 1198 077c 82EA0402 		eor	r2, r2, r4
 1199 0780 41EB0201 		adc	r1, r1, r2
 1200              	.LVL132:
 343:sha2.c        ****         F_64(w6, 0x923f82a4af194f9bULL)
 1201              		.loc 1 343 9 is_stmt 1 view .LVU291
 1202 0784 0C9A     		ldr	r2, [sp, #48]
 1203 0786 0D98     		ldr	r0, [sp, #52]
 1204 0788 DDF82C90 		ldr	r9, [sp, #44]
 1205              	.LVL133:
 343:sha2.c        ****         F_64(w6, 0x923f82a4af194f9bULL)
 1206              		.loc 1 343 9 is_stmt 0 view .LVU292
 1207 078c 120F     		lsrs	r2, r2, #28
 1208 078e 42EA0012 		orr	r2, r2, r0, lsl #4
 1209 0792 4FEA107E 		lsr	lr, r0, #28
 1210 0796 0C98     		ldr	r0, [sp, #48]
 1211 0798 4EEA001E 		orr	lr, lr, r0, lsl #4
 1212 079c 0D98     		ldr	r0, [sp, #52]
 1213 079e 8407     		lsls	r4, r0, #30
 1214 07a0 0C98     		ldr	r0, [sp, #48]
 1215 07a2 44EA9004 		orr	r4, r4, r0, lsr #2
 1216 07a6 8507     		lsls	r5, r0, #30
 1217 07a8 0D98     		ldr	r0, [sp, #52]
 1218 07aa 8EEA040E 		eor	lr, lr, r4
 1219 07ae 45EA9005 		orr	r5, r5, r0, lsr #2
 1220 07b2 4406     		lsls	r4, r0, #25
 1221 07b4 0C98     		ldr	r0, [sp, #48]
 1222 07b6 6A40     		eors	r2, r2, r5
 1223 07b8 44EAD014 		orr	r4, r4, r0, lsr #7
 1224 07bc 4506     		lsls	r5, r0, #25
 1225 07be 0D98     		ldr	r0, [sp, #52]
 1226 07c0 8EEA040E 		eor	lr, lr, r4
 1227 07c4 45EAD015 		orr	r5, r5, r0, lsr #7
 1228 07c8 0A9C     		ldr	r4, [sp, #40]
 1229 07ca 0898     		ldr	r0, [sp, #32]
 1230 07cc 80EA0408 		eor	r8, r0, r4
 1231              	.LVL134:
 343:sha2.c        ****         F_64(w6, 0x923f82a4af194f9bULL)
 1232              		.loc 1 343 9 view .LVU293
 1233 07d0 0998     		ldr	r0, [sp, #36]
 1234 07d2 0B9C     		ldr	r4, [sp, #44]
 1235 07d4 4440     		eors	r4, r4, r0
 1236 07d6 0C98     		ldr	r0, [sp, #48]
 1237 07d8 08EA0008 		and	r8, r8, r0
 1238 07dc 0D98     		ldr	r0, [sp, #52]
 1239 07de 6A40     		eors	r2, r2, r5
 1240 07e0 0440     		ands	r4, r4, r0
 1241 07e2 0A9D     		ldr	r5, [sp, #40]
 1242 07e4 0898     		ldr	r0, [sp, #32]
 1243 07e6 0540     		ands	r5, r5, r0
 1244 07e8 0998     		ldr	r0, [sp, #36]
 1245 07ea 88EA0505 		eor	r5, r8, r5
 1246 07ee 00EA0909 		and	r9, r0, r9
 1247 07f2 0698     		ldr	r0, [sp, #24]
 1248 07f4 5219     		adds	r2, r2, r5
 1249 07f6 84EA0904 		eor	r4, r4, r9
 1250 07fa 4EEB040E 		adc	lr, lr, r4
 1251              	.LVL135:
 343:sha2.c        ****         F_64(w6, 0x923f82a4af194f9bULL)
 1252              		.loc 1 343 9 is_stmt 1 view .LVU294
 343:sha2.c        ****         F_64(w6, 0x923f82a4af194f9bULL)
 1253              		.loc 1 343 9 view .LVU295
 343:sha2.c        ****         F_64(w6, 0x923f82a4af194f9bULL)
 1254              		.loc 1 343 9 view .LVU296
 343:sha2.c        ****         F_64(w6, 0x923f82a4af194f9bULL)
 1255              		.loc 1 343 9 view .LVU297
 1256 07fe C518     		adds	r5, r0, r3
 1257 0800 0798     		ldr	r0, [sp, #28]
 1258 0802 40EB0108 		adc	r8, r0, r1
 1259              	.LVL136:
 343:sha2.c        ****         F_64(w6, 0x923f82a4af194f9bULL)
 1260              		.loc 1 343 9 view .LVU298
 343:sha2.c        ****         F_64(w6, 0x923f82a4af194f9bULL)
 1261              		.loc 1 343 9 view .LVU299
 343:sha2.c        ****         F_64(w6, 0x923f82a4af194f9bULL)
 1262              		.loc 1 343 9 view .LVU300
 343:sha2.c        ****         F_64(w6, 0x923f82a4af194f9bULL)
 1263              		.loc 1 343 9 view .LVU301
 1264 0806 9B18     		adds	r3, r3, r2
 1265              	.LVL137:
 343:sha2.c        ****         F_64(w6, 0x923f82a4af194f9bULL)
 1266              		.loc 1 343 9 is_stmt 0 view .LVU302
 1267 0808 0693     		str	r3, [sp, #24]
 1268 080a 41EB0E03 		adc	r3, r1, lr
 1269 080e 0793     		str	r3, [sp, #28]
 1270              	.LVL138:
 344:sha2.c        ****         F_64(w7, 0xab1c5ed5da6d8118ULL)
 1271              		.loc 1 344 9 is_stmt 1 view .LVU303
 1272 0810 AC0C     		lsrs	r4, r5, #18
 1273 0812 4FEA9842 		lsr	r2, r8, #18
 1274              	.LVL139:
 344:sha2.c        ****         F_64(w7, 0xab1c5ed5da6d8118ULL)
 1275              		.loc 1 344 9 is_stmt 0 view .LVU304
 1276 0816 AB0B     		lsrs	r3, r5, #14
 1277              	.LVL140:
 344:sha2.c        ****         F_64(w7, 0xab1c5ed5da6d8118ULL)
 1278              		.loc 1 344 9 view .LVU305
 1279 0818 4FEA9831 		lsr	r1, r8, #14
 1280 081c 43EA8843 		orr	r3, r3, r8, lsl #18
 1281 0820 41EA8541 		orr	r1, r1, r5, lsl #18
 1282 0824 44EA8839 		orr	r9, r4, r8, lsl #14
 1283 0828 42EA853E 		orr	lr, r2, r5, lsl #14
 1284              	.LVL141:
 344:sha2.c        ****         F_64(w7, 0xab1c5ed5da6d8118ULL)
 1285              		.loc 1 344 9 view .LVU306
 1286 082c 83EA0904 		eor	r4, r3, r9
 1287 0830 81EA0E02 		eor	r2, r1, lr
 1288 0834 EB05     		lsls	r3, r5, #23
 1289 0836 4FEAC851 		lsl	r1, r8, #23
 1290 083a 41EA5521 		orr	r1, r1, r5, lsr #9
 1291 083e 43EA5823 		orr	r3, r3, r8, lsr #9
 1292 0842 6340     		eors	r3, r3, r4
 1293 0844 5140     		eors	r1, r1, r2
 1294 0846 524C     		ldr	r4, .L10+16
 1295 0848 379A     		ldr	r2, [sp, #220]
 1296 084a 1E98     		ldr	r0, [sp, #120]
 1297 084c DDF81CE0 		ldr	lr, [sp, #28]
 1298 0850 1419     		adds	r4, r2, r4
 1299 0852 504A     		ldr	r2, .L10+20
 1300 0854 42EB0002 		adc	r2, r2, r0
 1301 0858 0E98     		ldr	r0, [sp, #56]
 1302 085a 14EB0C04 		adds	r4, r4, ip
 1303 085e 40EB0202 		adc	r2, r0, r2
 1304 0862 1C19     		adds	r4, r3, r4
 1305 0864 41EB0202 		adc	r2, r1, r2
 1306 0868 0BEA0803 		and	r3, fp, r8
 1307 086c 27EA0501 		bic	r1, r7, r5
 1308 0870 26EA0800 		bic	r0, r6, r8
 1309 0874 0AEA050C 		and	ip, r10, r5
 1310              	.LVL142:
 344:sha2.c        ****         F_64(w7, 0xab1c5ed5da6d8118ULL)
 1311              		.loc 1 344 9 view .LVU307
 1312 0878 81EA0C0C 		eor	ip, r1, ip
 1313 087c 5840     		eors	r0, r0, r3
 1314 087e 069B     		ldr	r3, [sp, #24]
 1315 0880 0799     		ldr	r1, [sp, #28]
 1316 0882 14EB0C04 		adds	r4, r4, ip
 1317 0886 42EB0002 		adc	r2, r2, r0
 1318              	.LVL143:
 344:sha2.c        ****         F_64(w7, 0xab1c5ed5da6d8118ULL)
 1319              		.loc 1 344 9 is_stmt 1 view .LVU308
 1320 088a 1B0F     		lsrs	r3, r3, #28
 1321 088c 0698     		ldr	r0, [sp, #24]
 1322 088e DDF818C0 		ldr	ip, [sp, #24]
 1323 0892 43EA0113 		orr	r3, r3, r1, lsl #4
 1324 0896 090F     		lsrs	r1, r1, #28
 1325 0898 41EA0011 		orr	r1, r1, r0, lsl #4
 1326 089c 0798     		ldr	r0, [sp, #28]
 1327 089e 8007     		lsls	r0, r0, #30
 1328 08a0 40EA9C00 		orr	r0, r0, ip, lsr #2
 1329 08a4 4FEA8C7C 		lsl	ip, ip, #30
 1330 08a8 4CEA9E0C 		orr	ip, ip, lr, lsr #2
 1331 08ac 83EA0C03 		eor	r3, r3, ip
 1332 08b0 4140     		eors	r1, r1, r0
 1333 08b2 DDF818C0 		ldr	ip, [sp, #24]
 1334 08b6 7046     		mov	r0, lr
 1335 08b8 4006     		lsls	r0, r0, #25
 1336 08ba 40EADC10 		orr	r0, r0, ip, lsr #7
 1337 08be 4FEA4C6C 		lsl	ip, ip, #25
 1338 08c2 4CEADE1C 		orr	ip, ip, lr, lsr #7
 1339 08c6 83EA0C03 		eor	r3, r3, ip
 1340 08ca 4140     		eors	r1, r1, r0
 1341 08cc 0E93     		str	r3, [sp, #56]
 1342 08ce 0A9B     		ldr	r3, [sp, #40]
 1343 08d0 0C98     		ldr	r0, [sp, #48]
 1344 08d2 DDF830C0 		ldr	ip, [sp, #48]
 1345 08d6 DDF83490 		ldr	r9, [sp, #52]
 1346 08da 83EA000E 		eor	lr, r3, r0
 1347 08de 0B9B     		ldr	r3, [sp, #44]
 1348 08e0 0D98     		ldr	r0, [sp, #52]
 1349 08e2 5840     		eors	r0, r0, r3
 1350 08e4 069B     		ldr	r3, [sp, #24]
 1351 08e6 0EEA030E 		and	lr, lr, r3
 1352 08ea 079B     		ldr	r3, [sp, #28]
 1353 08ec 1840     		ands	r0, r0, r3
 1354 08ee 0A9B     		ldr	r3, [sp, #40]
 1355 08f0 03EA0C0C 		and	ip, r3, ip
 1356 08f4 0B9B     		ldr	r3, [sp, #44]
 1357 08f6 03EA0909 		and	r9, r3, r9
 1358 08fa 0E9B     		ldr	r3, [sp, #56]
 1359 08fc 8EEA0C0C 		eor	ip, lr, ip
 1360 0900 13EB0C03 		adds	r3, r3, ip
 1361 0904 80EA0900 		eor	r0, r0, r9
 1362 0908 41EB0000 		adc	r0, r1, r0
 1363              	.LVL144:
 344:sha2.c        ****         F_64(w7, 0xab1c5ed5da6d8118ULL)
 1364              		.loc 1 344 9 view .LVU309
 344:sha2.c        ****         F_64(w7, 0xab1c5ed5da6d8118ULL)
 1365              		.loc 1 344 9 view .LVU310
 344:sha2.c        ****         F_64(w7, 0xab1c5ed5da6d8118ULL)
 1366              		.loc 1 344 9 view .LVU311
 344:sha2.c        ****         F_64(w7, 0xab1c5ed5da6d8118ULL)
 1367              		.loc 1 344 9 view .LVU312
 1368 090c 0899     		ldr	r1, [sp, #32]
 1369 090e 11EB040C 		adds	ip, r1, r4
 1370 0912 0999     		ldr	r1, [sp, #36]
 1371 0914 41EB020E 		adc	lr, r1, r2
 1372              	.LVL145:
 344:sha2.c        ****         F_64(w7, 0xab1c5ed5da6d8118ULL)
 1373              		.loc 1 344 9 view .LVU313
 344:sha2.c        ****         F_64(w7, 0xab1c5ed5da6d8118ULL)
 1374              		.loc 1 344 9 view .LVU314
 344:sha2.c        ****         F_64(w7, 0xab1c5ed5da6d8118ULL)
 1375              		.loc 1 344 9 view .LVU315
 344:sha2.c        ****         F_64(w7, 0xab1c5ed5da6d8118ULL)
 1376              		.loc 1 344 9 view .LVU316
 345:sha2.c        ****         F_64(w8, 0xd807aa98a3030242ULL)
 1377              		.loc 1 345 9 is_stmt 0 view .LVU317
 1378 0918 4FEA9E31 		lsr	r1, lr, #14
 344:sha2.c        ****         F_64(w7, 0xab1c5ed5da6d8118ULL)
 1379              		.loc 1 344 9 view .LVU318
 1380 091c E318     		adds	r3, r4, r3
 1381              	.LVL146:
 344:sha2.c        ****         F_64(w7, 0xab1c5ed5da6d8118ULL)
 1382              		.loc 1 344 9 view .LVU319
 1383 091e 0893     		str	r3, [sp, #32]
 345:sha2.c        ****         F_64(w8, 0xd807aa98a3030242ULL)
 1384              		.loc 1 345 9 view .LVU320
 1385 0920 41EA8C49 		orr	r9, r1, ip, lsl #18
 344:sha2.c        ****         F_64(w7, 0xab1c5ed5da6d8118ULL)
 1386              		.loc 1 344 9 view .LVU321
 1387 0924 42EB0003 		adc	r3, r2, r0
 345:sha2.c        ****         F_64(w8, 0xd807aa98a3030242ULL)
 1388              		.loc 1 345 9 view .LVU322
 1389 0928 4FEA9C44 		lsr	r4, ip, #18
 1390              	.LVL147:
 345:sha2.c        ****         F_64(w8, 0xd807aa98a3030242ULL)
 1391              		.loc 1 345 9 view .LVU323
 1392 092c 4FEA9E41 		lsr	r1, lr, #18
 1393 0930 4FEA9C32 		lsr	r2, ip, #14
 344:sha2.c        ****         F_64(w7, 0xab1c5ed5da6d8118ULL)
 1394              		.loc 1 344 9 view .LVU324
 1395 0934 0993     		str	r3, [sp, #36]
 1396              	.LVL148:
 345:sha2.c        ****         F_64(w8, 0xd807aa98a3030242ULL)
 1397              		.loc 1 345 9 is_stmt 1 view .LVU325
 1398 0936 42EA8E42 		orr	r2, r2, lr, lsl #18
 1399 093a 44EA8E30 		orr	r0, r4, lr, lsl #14
 1400              	.LVL149:
 345:sha2.c        ****         F_64(w8, 0xd807aa98a3030242ULL)
 1401              		.loc 1 345 9 is_stmt 0 view .LVU326
 1402 093e 41EA8C33 		orr	r3, r1, ip, lsl #14
 1403              	.LVL150:
 345:sha2.c        ****         F_64(w8, 0xd807aa98a3030242ULL)
 1404              		.loc 1 345 9 view .LVU327
 1405 0942 89EA0301 		eor	r1, r9, r3
 1406 0946 82EA0004 		eor	r4, r2, r0
 1407 094a 4FEACE53 		lsl	r3, lr, #23
 1408 094e 4FEACC50 		lsl	r0, ip, #23
 1409 0952 40EA5E20 		orr	r0, r0, lr, lsr #9
 1410 0956 43EA5C23 		orr	r3, r3, ip, lsr #9
 1411 095a 84EA0002 		eor	r2, r4, r0
 1412 095e 4B40     		eors	r3, r3, r1
 1413 0960 0D48     		ldr	r0, .L10+24
 1414 0962 3899     		ldr	r1, [sp, #224]
 1415 0964 0D4C     		ldr	r4, .L10+28
 1416 0966 0818     		adds	r0, r1, r0
 1417 0968 1F99     		ldr	r1, [sp, #124]
 1418 096a 41EB0401 		adc	r1, r1, r4
 1419 096e C019     		adds	r0, r0, r7
 1420 0970 46EB0106 		adc	r6, r6, r1
 1421              	.LVL151:
 345:sha2.c        ****         F_64(w8, 0xd807aa98a3030242ULL)
 1422              		.loc 1 345 9 view .LVU328
 1423 0974 05EA0C07 		and	r7, r5, ip
 345:sha2.c        ****         F_64(w8, 0xd807aa98a3030242ULL)
 1424              		.loc 1 345 9 view .LVU329
 1425 0978 2AEA0C01 		bic	r1, r10, ip
 1426 097c 1018     		adds	r0, r2, r0
 1427 097e 0FE0     		b	.L11
 1428              	.L12:
 1429              		.align	2
 1430              	.L10:
 1431 0980 38B548F3 		.word	-213338824
 1432 0984 5BC25639 		.word	961987163
 1433 0988 19D005B6 		.word	-1241133031
 1434 098c F111F159 		.word	1508970993
 1435 0990 9B4F19AF 		.word	-1357295717
 1436 0994 A4823F92 		.word	-1841331548
 1437 0998 18816DDA 		.word	-630357736
 1438 099c D55E1CAB 		.word	-1424204075
 1439              	.L11:
 1440 09a0 43EB0606 		adc	r6, r3, r6
 1441 09a4 2BEA0E02 		bic	r2, fp, lr
 1442 09a8 08EA0E03 		and	r3, r8, lr
 1443 09ac 4F40     		eors	r7, r7, r1
 1444 09ae C019     		adds	r0, r0, r7
 1445 09b0 83EA0203 		eor	r3, r3, r2
 1446 09b4 46EB0306 		adc	r6, r6, r3
 1447              	.LVL152:
 345:sha2.c        ****         F_64(w8, 0xd807aa98a3030242ULL)
 1448              		.loc 1 345 9 is_stmt 1 view .LVU330
 1449 09b8 089B     		ldr	r3, [sp, #32]
 1450 09ba 0899     		ldr	r1, [sp, #32]
 1451 09bc 089C     		ldr	r4, [sp, #32]
 1452 09be 099F     		ldr	r7, [sp, #36]
 1453 09c0 1A0F     		lsrs	r2, r3, #28
 1454 09c2 099B     		ldr	r3, [sp, #36]
 1455 09c4 42EA0312 		orr	r2, r2, r3, lsl #4
 1456 09c8 1B0F     		lsrs	r3, r3, #28
 1457 09ca 43EA0113 		orr	r3, r3, r1, lsl #4
 1458 09ce 0999     		ldr	r1, [sp, #36]
 1459 09d0 8907     		lsls	r1, r1, #30
 1460 09d2 41EA9401 		orr	r1, r1, r4, lsr #2
 1461 09d6 A407     		lsls	r4, r4, #30
 1462 09d8 44EA9704 		orr	r4, r4, r7, lsr #2
 1463 09dc 6240     		eors	r2, r2, r4
 1464 09de 089C     		ldr	r4, [sp, #32]
 1465 09e0 4B40     		eors	r3, r3, r1
 1466 09e2 7906     		lsls	r1, r7, #25
 1467 09e4 41EAD411 		orr	r1, r1, r4, lsr #7
 1468 09e8 6406     		lsls	r4, r4, #25
 1469 09ea 44EAD714 		orr	r4, r4, r7, lsr #7
 1470 09ee 4B40     		eors	r3, r3, r1
 1471 09f0 6240     		eors	r2, r2, r4
 1472 09f2 0C99     		ldr	r1, [sp, #48]
 1473 09f4 069C     		ldr	r4, [sp, #24]
 1474 09f6 0E93     		str	r3, [sp, #56]
 1475              	.LVL153:
 345:sha2.c        ****         F_64(w8, 0xd807aa98a3030242ULL)
 1476              		.loc 1 345 9 is_stmt 0 view .LVU331
 1477 09f8 81EA0407 		eor	r7, r1, r4
 1478 09fc 079C     		ldr	r4, [sp, #28]
 1479 09fe 0D99     		ldr	r1, [sp, #52]
 1480 0a00 6140     		eors	r1, r1, r4
 1481 0a02 089C     		ldr	r4, [sp, #32]
 1482 0a04 2740     		ands	r7, r7, r4
 1483 0a06 099C     		ldr	r4, [sp, #36]
 1484 0a08 2140     		ands	r1, r1, r4
 1485 0a0a 0C9C     		ldr	r4, [sp, #48]
 1486 0a0c DDF81890 		ldr	r9, [sp, #24]
 1487 0a10 079B     		ldr	r3, [sp, #28]
 1488 0a12 04EA0904 		and	r4, r4, r9
 1489 0a16 DDF83490 		ldr	r9, [sp, #52]
 1490 0a1a 7C40     		eors	r4, r4, r7
 1491 0a1c 09EA0309 		and	r9, r9, r3
 1492 0a20 0E9B     		ldr	r3, [sp, #56]
 1493 0a22 1219     		adds	r2, r2, r4
 1494 0a24 81EA0901 		eor	r1, r1, r9
 1495 0a28 43EB0101 		adc	r1, r3, r1
 1496              	.LVL154:
 345:sha2.c        ****         F_64(w8, 0xd807aa98a3030242ULL)
 1497              		.loc 1 345 9 is_stmt 1 view .LVU332
 345:sha2.c        ****         F_64(w8, 0xd807aa98a3030242ULL)
 1498              		.loc 1 345 9 view .LVU333
 345:sha2.c        ****         F_64(w8, 0xd807aa98a3030242ULL)
 1499              		.loc 1 345 9 view .LVU334
 345:sha2.c        ****         F_64(w8, 0xd807aa98a3030242ULL)
 1500              		.loc 1 345 9 view .LVU335
 1501 0a2c 0A9B     		ldr	r3, [sp, #40]
 1502 0a2e 13EB0009 		adds	r9, r3, r0
 1503 0a32 0B9B     		ldr	r3, [sp, #44]
 1504 0a34 43EB0603 		adc	r3, r3, r6
 1505              	.LVL155:
 345:sha2.c        ****         F_64(w8, 0xd807aa98a3030242ULL)
 1506              		.loc 1 345 9 view .LVU336
 345:sha2.c        ****         F_64(w8, 0xd807aa98a3030242ULL)
 1507              		.loc 1 345 9 view .LVU337
 345:sha2.c        ****         F_64(w8, 0xd807aa98a3030242ULL)
 1508              		.loc 1 345 9 view .LVU338
 345:sha2.c        ****         F_64(w8, 0xd807aa98a3030242ULL)
 1509              		.loc 1 345 9 view .LVU339
 1510 0a38 8218     		adds	r2, r0, r2
 1511              	.LVL156:
 345:sha2.c        ****         F_64(w8, 0xd807aa98a3030242ULL)
 1512              		.loc 1 345 9 is_stmt 0 view .LVU340
 1513 0a3a 0A92     		str	r2, [sp, #40]
 1514 0a3c 46EB0102 		adc	r2, r6, r1
 1515 0a40 0B92     		str	r2, [sp, #44]
 1516              	.LVL157:
 346:sha2.c        ****         F_64(w9, 0x12835b0145706fbeULL)
 1517              		.loc 1 346 9 is_stmt 1 view .LVU341
 1518 0a42 4FEA9934 		lsr	r4, r9, #14
 1519              	.LVL158:
 346:sha2.c        ****         F_64(w9, 0x12835b0145706fbeULL)
 1520              		.loc 1 346 9 is_stmt 0 view .LVU342
 1521 0a46 4FEA9942 		lsr	r2, r9, #18
 1522              	.LVL159:
 346:sha2.c        ****         F_64(w9, 0x12835b0145706fbeULL)
 1523              		.loc 1 346 9 view .LVU343
 1524 0a4a 42EA8332 		orr	r2, r2, r3, lsl #14
 1525 0a4e 44EA8344 		orr	r4, r4, r3, lsl #18
 1526 0a52 990C     		lsrs	r1, r3, #18
 1527              	.LVL160:
 346:sha2.c        ****         F_64(w9, 0x12835b0145706fbeULL)
 1528              		.loc 1 346 9 view .LVU344
 1529 0a54 9E0B     		lsrs	r6, r3, #14
 1530              	.LVL161:
 346:sha2.c        ****         F_64(w9, 0x12835b0145706fbeULL)
 1531              		.loc 1 346 9 view .LVU345
 1532 0a56 5440     		eors	r4, r4, r2
 1533 0a58 4FEAC952 		lsl	r2, r9, #23
 1534 0a5c 46EA8946 		orr	r6, r6, r9, lsl #18
 1535 0a60 41EA8930 		orr	r0, r1, r9, lsl #14
 346:sha2.c        ****         F_64(w9, 0x12835b0145706fbeULL)
 1536              		.loc 1 346 9 view .LVU346
 1537 0a64 42EA5322 		orr	r2, r2, r3, lsr #9
 1538 0a68 86EA0001 		eor	r1, r6, r0
 1539 0a6c 5440     		eors	r4, r4, r2
 1540 0a6e DE05     		lsls	r6, r3, #23
 1541 0a70 399A     		ldr	r2, [sp, #228]
 1542 0a72 D548     		ldr	r0, .L13
 1543 0a74 0A9F     		ldr	r7, [sp, #40]
 1544              	.LVL162:
 346:sha2.c        ****         F_64(w9, 0x12835b0145706fbeULL)
 1545              		.loc 1 346 9 view .LVU347
 1546 0a76 46EA5926 		orr	r6, r6, r9, lsr #9
 1547 0a7a 1018     		adds	r0, r2, r0
 1548 0a7c 86EA0106 		eor	r6, r6, r1
 1549 0a80 209A     		ldr	r2, [sp, #128]
 1550 0a82 D249     		ldr	r1, .L13+4
 1551 0a84 41EB0201 		adc	r1, r1, r2
 1552 0a88 10EB0A02 		adds	r2, r0, r10
 1553 0a8c 4BEB0101 		adc	r1, fp, r1
 1554 0a90 A418     		adds	r4, r4, r2
 1555 0a92 0EEA0300 		and	r0, lr, r3
 1556 0a96 46EB0101 		adc	r1, r6, r1
 1557 0a9a 25EA0902 		bic	r2, r5, r9
 1558 0a9e 0CEA0906 		and	r6, ip, r9
 1559 0aa2 28EA030B 		bic	fp, r8, r3
 1560              	.LVL163:
 346:sha2.c        ****         F_64(w9, 0x12835b0145706fbeULL)
 1561              		.loc 1 346 9 view .LVU348
 1562 0aa6 8BEA000B 		eor	fp, fp, r0
 1563 0aaa 7240     		eors	r2, r2, r6
 1564 0aac 0A98     		ldr	r0, [sp, #40]
 1565 0aae 0A9E     		ldr	r6, [sp, #40]
 1566 0ab0 DDF82CA0 		ldr	r10, [sp, #44]
 346:sha2.c        ****         F_64(w9, 0x12835b0145706fbeULL)
 1567              		.loc 1 346 9 view .LVU349
 1568 0ab4 A218     		adds	r2, r4, r2
 1569 0ab6 0B9C     		ldr	r4, [sp, #44]
 1570 0ab8 4FEA1070 		lsr	r0, r0, #28
 1571 0abc 40EA0410 		orr	r0, r0, r4, lsl #4
 1572 0ac0 4FEA1474 		lsr	r4, r4, #28
 1573 0ac4 44EA0614 		orr	r4, r4, r6, lsl #4
 1574 0ac8 0B9E     		ldr	r6, [sp, #44]
 1575 0aca 4FEA8676 		lsl	r6, r6, #30
 1576 0ace 46EA9706 		orr	r6, r6, r7, lsr #2
 1577 0ad2 4FEA8777 		lsl	r7, r7, #30
 1578 0ad6 47EA9A07 		orr	r7, r7, r10, lsr #2
 1579 0ada 80EA0700 		eor	r0, r0, r7
 1580 0ade 84EA0604 		eor	r4, r4, r6
 1581 0ae2 0A9F     		ldr	r7, [sp, #40]
 1582 0ae4 5646     		mov	r6, r10
 1583 0ae6 4FEA4666 		lsl	r6, r6, #25
 1584 0aea 46EAD716 		orr	r6, r6, r7, lsr #7
 1585 0aee 4FEA4767 		lsl	r7, r7, #25
 1586 0af2 47EADA17 		orr	r7, r7, r10, lsr #7
 1587 0af6 80EA0700 		eor	r0, r0, r7
 1588 0afa 84EA0604 		eor	r4, r4, r6
 1589 0afe 089F     		ldr	r7, [sp, #32]
 1590 0b00 069E     		ldr	r6, [sp, #24]
 1591 0b02 0E90     		str	r0, [sp, #56]
 1592              	.LVL164:
 346:sha2.c        ****         F_64(w9, 0x12835b0145706fbeULL)
 1593              		.loc 1 346 9 view .LVU350
 1594 0b04 86EA070A 		eor	r10, r6, r7
 1595 0b08 099F     		ldr	r7, [sp, #36]
 1596 0b0a 079E     		ldr	r6, [sp, #28]
 1597 0b0c 0998     		ldr	r0, [sp, #36]
 1598 0b0e 86EA0706 		eor	r6, r6, r7
 1599 0b12 0A9F     		ldr	r7, [sp, #40]
 1600 0b14 0AEA070A 		and	r10, r10, r7
 1601 0b18 0B9F     		ldr	r7, [sp, #44]
 1602 0b1a 41EB0B01 		adc	r1, r1, fp
 1603              	.LVL165:
 346:sha2.c        ****         F_64(w9, 0x12835b0145706fbeULL)
 1604              		.loc 1 346 9 is_stmt 1 view .LVU351
 1605 0b1e 3E40     		ands	r6, r6, r7
 1606 0b20 DDF820B0 		ldr	fp, [sp, #32]
 1607 0b24 069F     		ldr	r7, [sp, #24]
 1608 0b26 07EA0B07 		and	r7, r7, fp
 1609 0b2a DDF81CB0 		ldr	fp, [sp, #28]
 1610 0b2e 0BEA000B 		and	fp, fp, r0
 1611 0b32 0E98     		ldr	r0, [sp, #56]
 1612 0b34 8AEA0707 		eor	r7, r10, r7
 1613 0b38 C019     		adds	r0, r0, r7
 1614 0b3a 86EA0B06 		eor	r6, r6, fp
 1615 0b3e 44EB0606 		adc	r6, r4, r6
 1616              	.LVL166:
 346:sha2.c        ****         F_64(w9, 0x12835b0145706fbeULL)
 1617              		.loc 1 346 9 view .LVU352
 346:sha2.c        ****         F_64(w9, 0x12835b0145706fbeULL)
 1618              		.loc 1 346 9 view .LVU353
 346:sha2.c        ****         F_64(w9, 0x12835b0145706fbeULL)
 1619              		.loc 1 346 9 view .LVU354
 346:sha2.c        ****         F_64(w9, 0x12835b0145706fbeULL)
 1620              		.loc 1 346 9 view .LVU355
 1621 0b42 0C9C     		ldr	r4, [sp, #48]
 1622 0b44 14EB020B 		adds	fp, r4, r2
 1623 0b48 0D9C     		ldr	r4, [sp, #52]
 1624 0b4a 44EB010A 		adc	r10, r4, r1
 1625              	.LVL167:
 346:sha2.c        ****         F_64(w9, 0x12835b0145706fbeULL)
 1626              		.loc 1 346 9 view .LVU356
 346:sha2.c        ****         F_64(w9, 0x12835b0145706fbeULL)
 1627              		.loc 1 346 9 view .LVU357
 346:sha2.c        ****         F_64(w9, 0x12835b0145706fbeULL)
 1628              		.loc 1 346 9 view .LVU358
 346:sha2.c        ****         F_64(w9, 0x12835b0145706fbeULL)
 1629              		.loc 1 346 9 view .LVU359
 1630 0b4e 1218     		adds	r2, r2, r0
 1631              	.LVL168:
 346:sha2.c        ****         F_64(w9, 0x12835b0145706fbeULL)
 1632              		.loc 1 346 9 is_stmt 0 view .LVU360
 1633 0b50 0C92     		str	r2, [sp, #48]
 1634 0b52 41EB0602 		adc	r2, r1, r6
 1635 0b56 0D92     		str	r2, [sp, #52]
 1636              	.LVL169:
 347:sha2.c        ****         F_64(w10, 0x243185be4ee4b28cULL)
 1637              		.loc 1 347 9 is_stmt 1 view .LVU361
 1638 0b58 4FEA9B30 		lsr	r0, fp, #14
 1639              	.LVL170:
 347:sha2.c        ****         F_64(w10, 0x243185be4ee4b28cULL)
 1640              		.loc 1 347 9 is_stmt 0 view .LVU362
 1641 0b5c 4FEA9A34 		lsr	r4, r10, #14
 1642 0b60 4FEA9B42 		lsr	r2, fp, #18
 1643              	.LVL171:
 347:sha2.c        ****         F_64(w10, 0x243185be4ee4b28cULL)
 1644              		.loc 1 347 9 view .LVU363
 1645 0b64 4FEA9A41 		lsr	r1, r10, #18
 1646 0b68 42EA8A32 		orr	r2, r2, r10, lsl #14
 1647 0b6c 41EA8B31 		orr	r1, r1, fp, lsl #14
 1648 0b70 40EA8A40 		orr	r0, r0, r10, lsl #18
 1649 0b74 44EA8B44 		orr	r4, r4, fp, lsl #18
 1650 0b78 5040     		eors	r0, r0, r2
 1651 0b7a 4C40     		eors	r4, r4, r1
 1652 0b7c 4FEACB52 		lsl	r2, fp, #23
 1653 0b80 4FEACA51 		lsl	r1, r10, #23
 1654 0b84 41EA5B21 		orr	r1, r1, fp, lsr #9
 1655 0b88 42EA5A22 		orr	r2, r2, r10, lsr #9
 1656 0b8c 4C40     		eors	r4, r4, r1
 1657 0b8e 5040     		eors	r0, r0, r2
 1658 0b90 8F49     		ldr	r1, .L13+8
 1659 0b92 219A     		ldr	r2, [sp, #132]
 1660 0b94 8F4E     		ldr	r6, .L13+12
 1661              	.LVL172:
 347:sha2.c        ****         F_64(w10, 0x243185be4ee4b28cULL)
 1662              		.loc 1 347 9 view .LVU364
 1663 0b96 0A9F     		ldr	r7, [sp, #40]
 1664              	.LVL173:
 347:sha2.c        ****         F_64(w10, 0x243185be4ee4b28cULL)
 1665              		.loc 1 347 9 view .LVU365
 1666 0b98 5118     		adds	r1, r2, r1
 1667 0b9a 0F9A     		ldr	r2, [sp, #60]
 1668 0b9c 46EB0206 		adc	r6, r6, r2
 1669 0ba0 4A19     		adds	r2, r1, r5
 1670 0ba2 48EB0608 		adc	r8, r8, r6
 1671              	.LVL174:
 347:sha2.c        ****         F_64(w10, 0x243185be4ee4b28cULL)
 1672              		.loc 1 347 9 view .LVU366
 1673 0ba6 8018     		adds	r0, r0, r2
 1674 0ba8 44EB0808 		adc	r8, r4, r8
 1675 0bac 2CEA0B02 		bic	r2, ip, fp
 1676 0bb0 09EA0B04 		and	r4, r9, fp
 1677 0bb4 2EEA0A06 		bic	r6, lr, r10
 1678 0bb8 03EA0A01 		and	r1, r3, r10
 1679 0bbc 6240     		eors	r2, r2, r4
 1680 0bbe 8218     		adds	r2, r0, r2
 1681 0bc0 81EA0601 		eor	r1, r1, r6
 1682 0bc4 48EB0108 		adc	r8, r8, r1
 1683              	.LVL175:
 347:sha2.c        ****         F_64(w10, 0x243185be4ee4b28cULL)
 1684              		.loc 1 347 9 is_stmt 1 view .LVU367
 1685 0bc8 0C99     		ldr	r1, [sp, #48]
 1686 0bca 0D98     		ldr	r0, [sp, #52]
 1687 0bcc 0C9C     		ldr	r4, [sp, #48]
 1688 0bce 0C9D     		ldr	r5, [sp, #48]
 347:sha2.c        ****         F_64(w10, 0x243185be4ee4b28cULL)
 1689              		.loc 1 347 9 is_stmt 0 view .LVU368
 1690 0bd0 0D9E     		ldr	r6, [sp, #52]
 1691 0bd2 090F     		lsrs	r1, r1, #28
 1692 0bd4 41EA0011 		orr	r1, r1, r0, lsl #4
 1693 0bd8 000F     		lsrs	r0, r0, #28
 1694 0bda 40EA0410 		orr	r0, r0, r4, lsl #4
 1695 0bde 0D9C     		ldr	r4, [sp, #52]
 1696 0be0 A407     		lsls	r4, r4, #30
 1697 0be2 44EA9504 		orr	r4, r4, r5, lsr #2
 1698 0be6 AD07     		lsls	r5, r5, #30
 1699 0be8 45EA9605 		orr	r5, r5, r6, lsr #2
 1700 0bec 6940     		eors	r1, r1, r5
 1701 0bee 0C9D     		ldr	r5, [sp, #48]
 1702 0bf0 6040     		eors	r0, r0, r4
 1703 0bf2 7406     		lsls	r4, r6, #25
 1704 0bf4 44EAD514 		orr	r4, r4, r5, lsr #7
 1705 0bf8 6D06     		lsls	r5, r5, #25
 1706 0bfa 45EAD615 		orr	r5, r5, r6, lsr #7
 1707 0bfe 6940     		eors	r1, r1, r5
 1708 0c00 6040     		eors	r0, r0, r4
 1709 0c02 0A9D     		ldr	r5, [sp, #40]
 1710 0c04 089C     		ldr	r4, [sp, #32]
 1711 0c06 0E91     		str	r1, [sp, #56]
 1712              	.LVL176:
 347:sha2.c        ****         F_64(w10, 0x243185be4ee4b28cULL)
 1713              		.loc 1 347 9 view .LVU369
 1714 0c08 84EA0506 		eor	r6, r4, r5
 1715 0c0c 0B9D     		ldr	r5, [sp, #44]
 1716 0c0e 099C     		ldr	r4, [sp, #36]
 1717 0c10 0B99     		ldr	r1, [sp, #44]
 1718 0c12 6C40     		eors	r4, r4, r5
 1719 0c14 0C9D     		ldr	r5, [sp, #48]
 1720 0c16 2E40     		ands	r6, r6, r5
 1721 0c18 0D9D     		ldr	r5, [sp, #52]
 1722 0c1a 2C40     		ands	r4, r4, r5
 1723 0c1c 089D     		ldr	r5, [sp, #32]
 1724 0c1e 3D40     		ands	r5, r5, r7
 1725 0c20 099F     		ldr	r7, [sp, #36]
 1726 0c22 0F40     		ands	r7, r7, r1
 1727 0c24 0E99     		ldr	r1, [sp, #56]
 1728 0c26 6E40     		eors	r6, r6, r5
 1729 0c28 8E19     		adds	r6, r1, r6
 1730 0c2a 0699     		ldr	r1, [sp, #24]
 1731 0c2c 84EA0704 		eor	r4, r4, r7
 1732 0c30 40EB0404 		adc	r4, r0, r4
 1733              	.LVL177:
 347:sha2.c        ****         F_64(w10, 0x243185be4ee4b28cULL)
 1734              		.loc 1 347 9 is_stmt 1 view .LVU370
 347:sha2.c        ****         F_64(w10, 0x243185be4ee4b28cULL)
 1735              		.loc 1 347 9 view .LVU371
 347:sha2.c        ****         F_64(w10, 0x243185be4ee4b28cULL)
 1736              		.loc 1 347 9 view .LVU372
 347:sha2.c        ****         F_64(w10, 0x243185be4ee4b28cULL)
 1737              		.loc 1 347 9 view .LVU373
 1738 0c34 8D18     		adds	r5, r1, r2
 1739 0c36 0799     		ldr	r1, [sp, #28]
 348:sha2.c        ****         F_64(w11, 0x550c7dc3d5ffb4e2ULL)
 1740              		.loc 1 348 9 is_stmt 0 view .LVU374
 1741 0c38 109F     		ldr	r7, [sp, #64]
 347:sha2.c        ****         F_64(w10, 0x243185be4ee4b28cULL)
 1742              		.loc 1 347 9 view .LVU375
 1743 0c3a 41EB0801 		adc	r1, r1, r8
 1744              	.LVL178:
 347:sha2.c        ****         F_64(w10, 0x243185be4ee4b28cULL)
 1745              		.loc 1 347 9 is_stmt 1 view .LVU376
 347:sha2.c        ****         F_64(w10, 0x243185be4ee4b28cULL)
 1746              		.loc 1 347 9 view .LVU377
 347:sha2.c        ****         F_64(w10, 0x243185be4ee4b28cULL)
 1747              		.loc 1 347 9 view .LVU378
 347:sha2.c        ****         F_64(w10, 0x243185be4ee4b28cULL)
 1748              		.loc 1 347 9 view .LVU379
 1749 0c3e 9219     		adds	r2, r2, r6
 1750              	.LVL179:
 347:sha2.c        ****         F_64(w10, 0x243185be4ee4b28cULL)
 1751              		.loc 1 347 9 is_stmt 0 view .LVU380
 1752 0c40 0692     		str	r2, [sp, #24]
 1753 0c42 48EB0402 		adc	r2, r8, r4
 1754 0c46 0792     		str	r2, [sp, #28]
 1755              	.LVL180:
 348:sha2.c        ****         F_64(w11, 0x550c7dc3d5ffb4e2ULL)
 1756              		.loc 1 348 9 is_stmt 1 view .LVU381
 1757 0c48 A80B     		lsrs	r0, r5, #14
 1758 0c4a 8C0B     		lsrs	r4, r1, #14
 1759              	.LVL181:
 348:sha2.c        ****         F_64(w11, 0x550c7dc3d5ffb4e2ULL)
 1760              		.loc 1 348 9 is_stmt 0 view .LVU382
 1761 0c4c AE0C     		lsrs	r6, r5, #18
 1762              	.LVL182:
 348:sha2.c        ****         F_64(w11, 0x550c7dc3d5ffb4e2ULL)
 1763              		.loc 1 348 9 view .LVU383
 1764 0c4e 8A0C     		lsrs	r2, r1, #18
 1765              	.LVL183:
 348:sha2.c        ****         F_64(w11, 0x550c7dc3d5ffb4e2ULL)
 1766              		.loc 1 348 9 view .LVU384
 1767 0c50 46EA8136 		orr	r6, r6, r1, lsl #14
 1768 0c54 42EA8532 		orr	r2, r2, r5, lsl #14
 1769 0c58 40EA8140 		orr	r0, r0, r1, lsl #18
 1770 0c5c 44EA8544 		orr	r4, r4, r5, lsl #18
 1771 0c60 7040     		eors	r0, r0, r6
 1772 0c62 5440     		eors	r4, r4, r2
 1773 0c64 EE05     		lsls	r6, r5, #23
 1774 0c66 CA05     		lsls	r2, r1, #23
 1775 0c68 42EA5522 		orr	r2, r2, r5, lsr #9
 1776 0c6c 46EA5126 		orr	r6, r6, r1, lsr #9
 1777 0c70 7040     		eors	r0, r0, r6
 1778 0c72 5440     		eors	r4, r4, r2
 1779 0c74 229E     		ldr	r6, [sp, #136]
 1780 0c76 584A     		ldr	r2, .L13+16
 1781 0c78 B218     		adds	r2, r6, r2
 1782 0c7a 584E     		ldr	r6, .L13+20
 1783 0c7c 46EB0706 		adc	r6, r6, r7
 1784 0c80 12EB0C0C 		adds	ip, r2, ip
 1785              	.LVL184:
 348:sha2.c        ****         F_64(w11, 0x550c7dc3d5ffb4e2ULL)
 1786              		.loc 1 348 9 view .LVU385
 1787 0c84 4EEB060E 		adc	lr, lr, r6
 1788 0c88 0BEA0502 		and	r2, fp, r5
 1789 0c8c 29EA0506 		bic	r6, r9, r5
 1790 0c90 10EB0C0C 		adds	ip, r0, ip
 1791 0c94 44EB0E0E 		adc	lr, r4, lr
 1792 0c98 23EA0100 		bic	r0, r3, r1
 1793 0c9c 0AEA0104 		and	r4, r10, r1
 1794 0ca0 7240     		eors	r2, r2, r6
 1795 0ca2 1CEB020C 		adds	ip, ip, r2
 1796 0ca6 80EA0400 		eor	r0, r0, r4
 1797 0caa 069A     		ldr	r2, [sp, #24]
 1798 0cac 069C     		ldr	r4, [sp, #24]
 1799 0cae 069E     		ldr	r6, [sp, #24]
 1800 0cb0 4EEB000E 		adc	lr, lr, r0
 1801              	.LVL185:
 348:sha2.c        ****         F_64(w11, 0x550c7dc3d5ffb4e2ULL)
 1802              		.loc 1 348 9 is_stmt 1 view .LVU386
 1803 0cb4 0798     		ldr	r0, [sp, #28]
 1804 0cb6 120F     		lsrs	r2, r2, #28
 1805 0cb8 42EA0012 		orr	r2, r2, r0, lsl #4
 1806 0cbc 000F     		lsrs	r0, r0, #28
 1807 0cbe 40EA0410 		orr	r0, r0, r4, lsl #4
 1808 0cc2 079C     		ldr	r4, [sp, #28]
 1809 0cc4 079F     		ldr	r7, [sp, #28]
 1810 0cc6 DDF83080 		ldr	r8, [sp, #48]
 1811 0cca A407     		lsls	r4, r4, #30
 1812 0ccc 44EA9604 		orr	r4, r4, r6, lsr #2
 1813 0cd0 B607     		lsls	r6, r6, #30
 1814 0cd2 46EA9706 		orr	r6, r6, r7, lsr #2
 1815 0cd6 7240     		eors	r2, r2, r6
 1816 0cd8 069E     		ldr	r6, [sp, #24]
 1817 0cda 6040     		eors	r0, r0, r4
 1818 0cdc 7C06     		lsls	r4, r7, #25
 1819 0cde 44EAD614 		orr	r4, r4, r6, lsr #7
 1820 0ce2 7606     		lsls	r6, r6, #25
 1821 0ce4 46EAD716 		orr	r6, r6, r7, lsr #7
 1822 0ce8 7240     		eors	r2, r2, r6
 1823 0cea 6040     		eors	r0, r0, r4
 1824 0cec 0C9E     		ldr	r6, [sp, #48]
 1825 0cee 0A9C     		ldr	r4, [sp, #40]
 1826 0cf0 0E92     		str	r2, [sp, #56]
 1827              	.LVL186:
 348:sha2.c        ****         F_64(w11, 0x550c7dc3d5ffb4e2ULL)
 1828              		.loc 1 348 9 is_stmt 0 view .LVU387
 1829 0cf2 84EA0607 		eor	r7, r4, r6
 1830 0cf6 0D9E     		ldr	r6, [sp, #52]
 1831 0cf8 0B9C     		ldr	r4, [sp, #44]
 1832 0cfa 0D9A     		ldr	r2, [sp, #52]
 1833 0cfc 7440     		eors	r4, r4, r6
 1834 0cfe 069E     		ldr	r6, [sp, #24]
 1835 0d00 3740     		ands	r7, r7, r6
 1836 0d02 079E     		ldr	r6, [sp, #28]
 1837 0d04 3440     		ands	r4, r4, r6
 1838 0d06 0A9E     		ldr	r6, [sp, #40]
 1839 0d08 06EA0806 		and	r6, r6, r8
 1840 0d0c DDF82C80 		ldr	r8, [sp, #44]
 1841 0d10 08EA0208 		and	r8, r8, r2
 1842 0d14 0E9A     		ldr	r2, [sp, #56]
 1843 0d16 7E40     		eors	r6, r6, r7
 1844 0d18 9619     		adds	r6, r2, r6
 1845 0d1a 089A     		ldr	r2, [sp, #32]
 1846 0d1c 84EA0804 		eor	r4, r4, r8
 1847 0d20 40EB0408 		adc	r8, r0, r4
 1848              	.LVL187:
 348:sha2.c        ****         F_64(w11, 0x550c7dc3d5ffb4e2ULL)
 1849              		.loc 1 348 9 is_stmt 1 view .LVU388
 348:sha2.c        ****         F_64(w11, 0x550c7dc3d5ffb4e2ULL)
 1850              		.loc 1 348 9 view .LVU389
 348:sha2.c        ****         F_64(w11, 0x550c7dc3d5ffb4e2ULL)
 1851              		.loc 1 348 9 view .LVU390
 348:sha2.c        ****         F_64(w11, 0x550c7dc3d5ffb4e2ULL)
 1852              		.loc 1 348 9 view .LVU391
 1853 0d24 12EB0C04 		adds	r4, r2, ip
 1854 0d28 099A     		ldr	r2, [sp, #36]
 1855 0d2a 42EB0E02 		adc	r2, r2, lr
 1856              	.LVL188:
 348:sha2.c        ****         F_64(w11, 0x550c7dc3d5ffb4e2ULL)
 1857              		.loc 1 348 9 view .LVU392
 348:sha2.c        ****         F_64(w11, 0x550c7dc3d5ffb4e2ULL)
 1858              		.loc 1 348 9 view .LVU393
 348:sha2.c        ****         F_64(w11, 0x550c7dc3d5ffb4e2ULL)
 1859              		.loc 1 348 9 view .LVU394
 348:sha2.c        ****         F_64(w11, 0x550c7dc3d5ffb4e2ULL)
 1860              		.loc 1 348 9 view .LVU395
 1861 0d2e 1CEB0600 		adds	r0, ip, r6
 1862 0d32 0890     		str	r0, [sp, #32]
 349:sha2.c        ****         F_64(w12, 0x72be5d74f27b896fULL)
 1863              		.loc 1 349 9 is_stmt 0 view .LVU396
 1864 0d34 4FEA9246 		lsr	r6, r2, #18
 1865              	.LVL189:
 348:sha2.c        ****         F_64(w11, 0x550c7dc3d5ffb4e2ULL)
 1866              		.loc 1 348 9 view .LVU397
 1867 0d38 4EEB0800 		adc	r0, lr, r8
 349:sha2.c        ****         F_64(w12, 0x72be5d74f27b896fULL)
 1868              		.loc 1 349 9 view .LVU398
 1869 0d3c 4FEA923E 		lsr	lr, r2, #14
 1870              	.LVL190:
 348:sha2.c        ****         F_64(w11, 0x550c7dc3d5ffb4e2ULL)
 1871              		.loc 1 348 9 view .LVU399
 1872 0d40 0990     		str	r0, [sp, #36]
 1873              	.LVL191:
 349:sha2.c        ****         F_64(w12, 0x72be5d74f27b896fULL)
 1874              		.loc 1 349 9 is_stmt 1 view .LVU400
 1875 0d42 4EEA844E 		orr	lr, lr, r4, lsl #18
 1876 0d46 46EA8430 		orr	r0, r6, r4, lsl #14
 1877              	.LVL192:
 349:sha2.c        ****         F_64(w12, 0x72be5d74f27b896fULL)
 1878              		.loc 1 349 9 is_stmt 0 view .LVU401
 1879 0d4a 4FEA943C 		lsr	ip, r4, #14
 349:sha2.c        ****         F_64(w12, 0x72be5d74f27b896fULL)
 1880              		.loc 1 349 9 view .LVU402
 1881 0d4e A70C     		lsrs	r7, r4, #18
 1882              	.LVL193:
 349:sha2.c        ****         F_64(w12, 0x72be5d74f27b896fULL)
 1883              		.loc 1 349 9 view .LVU403
 1884 0d50 8EEA0006 		eor	r6, lr, r0
 1885 0d54 47EA8237 		orr	r7, r7, r2, lsl #14
 1886 0d58 4CEA824C 		orr	ip, ip, r2, lsl #18
 1887 0d5c 4FEAC25E 		lsl	lr, r2, #23
 1888 0d60 E005     		lsls	r0, r4, #23
 1889 0d62 40EA5220 		orr	r0, r0, r2, lsr #9
 1890 0d66 8CEA070C 		eor	ip, ip, r7
 1891 0d6a 4EEA542E 		orr	lr, lr, r4, lsr #9
 1892 0d6e 8CEA000C 		eor	ip, ip, r0
 1893 0d72 86EA0E0E 		eor	lr, r6, lr
 1894 0d76 1A48     		ldr	r0, .L13+24
 1895 0d78 239E     		ldr	r6, [sp, #140]
 1896 0d7a 119F     		ldr	r7, [sp, #68]
 1897 0d7c 3018     		adds	r0, r6, r0
 1898 0d7e 194E     		ldr	r6, .L13+28
 1899 0d80 46EB0706 		adc	r6, r6, r7
 1900 0d84 10EB0909 		adds	r9, r0, r9
 1901              	.LVL194:
 349:sha2.c        ****         F_64(w12, 0x72be5d74f27b896fULL)
 1902              		.loc 1 349 9 view .LVU404
 1903 0d88 43EB0606 		adc	r6, r3, r6
 1904 0d8c 05EA0400 		and	r0, r5, r4
 1905 0d90 1CEB0909 		adds	r9, ip, r9
 1906 0d94 2BEA040C 		bic	ip, fp, r4
 1907 0d98 01EA0207 		and	r7, r1, r2
 1908 0d9c 2AEA0203 		bic	r3, r10, r2
 1909 0da0 8CEA0000 		eor	r0, ip, r0
 1910 0da4 4EEB0606 		adc	r6, lr, r6
 1911 0da8 7B40     		eors	r3, r3, r7
 1912 0daa 19EB0009 		adds	r9, r9, r0
 1913 0dae 46EB0306 		adc	r6, r6, r3
 1914              	.LVL195:
 349:sha2.c        ****         F_64(w12, 0x72be5d74f27b896fULL)
 1915              		.loc 1 349 9 is_stmt 1 view .LVU405
 1916 0db2 089B     		ldr	r3, [sp, #32]
 1917 0db4 0998     		ldr	r0, [sp, #36]
 1918 0db6 089F     		ldr	r7, [sp, #32]
 1919 0db8 DDF824E0 		ldr	lr, [sp, #36]
 1920 0dbc 1B0F     		lsrs	r3, r3, #28
 1921 0dbe 43EA0013 		orr	r3, r3, r0, lsl #4
 1922 0dc2 4FEA107C 		lsr	ip, r0, #28
 1923 0dc6 0FE0     		b	.L14
 1924              	.L15:
 1925              		.align	2
 1926              	.L13:
 1927 0dc8 420203A3 		.word	-1560083902
 1928 0dcc 98AA07D8 		.word	-670586216
 1929 0dd0 BE6F7045 		.word	1164996542
 1930 0dd4 015B8312 		.word	310598401
 1931 0dd8 8CB2E44E 		.word	1323610764
 1932 0ddc BE853124 		.word	607225278
 1933 0de0 E2B4FFD5 		.word	-704662302
 1934 0de4 C37D0C55 		.word	1426881987
 1935              	.L14:
 1936 0de8 0898     		ldr	r0, [sp, #32]
 1937 0dea 4CEA001C 		orr	ip, ip, r0, lsl #4
 1938 0dee 0998     		ldr	r0, [sp, #36]
 1939 0df0 8007     		lsls	r0, r0, #30
 1940 0df2 40EA9700 		orr	r0, r0, r7, lsr #2
 1941 0df6 BF07     		lsls	r7, r7, #30
 1942 0df8 47EA9E07 		orr	r7, r7, lr, lsr #2
 1943 0dfc 7B40     		eors	r3, r3, r7
 1944 0dfe 8CEA000C 		eor	ip, ip, r0
 1945 0e02 089F     		ldr	r7, [sp, #32]
 1946 0e04 7046     		mov	r0, lr
 1947 0e06 4006     		lsls	r0, r0, #25
 1948 0e08 40EAD710 		orr	r0, r0, r7, lsr #7
 1949 0e0c 7F06     		lsls	r7, r7, #25
 1950 0e0e 47EADE17 		orr	r7, r7, lr, lsr #7
 1951 0e12 7B40     		eors	r3, r3, r7
 1952 0e14 8CEA000C 		eor	ip, ip, r0
 1953 0e18 069F     		ldr	r7, [sp, #24]
 1954 0e1a 0C98     		ldr	r0, [sp, #48]
 1955 0e1c 0E93     		str	r3, [sp, #56]
 1956              	.LVL196:
 349:sha2.c        ****         F_64(w12, 0x72be5d74f27b896fULL)
 1957              		.loc 1 349 9 is_stmt 0 view .LVU406
 1958 0e1e 80EA070E 		eor	lr, r0, r7
 1959 0e22 0D98     		ldr	r0, [sp, #52]
 1960 0e24 079F     		ldr	r7, [sp, #28]
 1961 0e26 7840     		eors	r0, r0, r7
 1962 0e28 089F     		ldr	r7, [sp, #32]
 1963 0e2a DDF81880 		ldr	r8, [sp, #24]
 1964              	.LVL197:
 349:sha2.c        ****         F_64(w12, 0x72be5d74f27b896fULL)
 1965              		.loc 1 349 9 view .LVU407
 1966 0e2e 079B     		ldr	r3, [sp, #28]
 1967 0e30 0EEA070E 		and	lr, lr, r7
 1968 0e34 099F     		ldr	r7, [sp, #36]
 1969 0e36 3840     		ands	r0, r0, r7
 1970 0e38 0C9F     		ldr	r7, [sp, #48]
 1971 0e3a 07EA0807 		and	r7, r7, r8
 1972 0e3e DDF83480 		ldr	r8, [sp, #52]
 1973 0e42 08EA0308 		and	r8, r8, r3
 1974 0e46 0E9B     		ldr	r3, [sp, #56]
 1975 0e48 8EEA0707 		eor	r7, lr, r7
 1976 0e4c DF19     		adds	r7, r3, r7
 1977 0e4e 0A9B     		ldr	r3, [sp, #40]
 1978 0e50 80EA0800 		eor	r0, r0, r8
 1979 0e54 4CEB000C 		adc	ip, ip, r0
 1980              	.LVL198:
 349:sha2.c        ****         F_64(w12, 0x72be5d74f27b896fULL)
 1981              		.loc 1 349 9 is_stmt 1 view .LVU408
 349:sha2.c        ****         F_64(w12, 0x72be5d74f27b896fULL)
 1982              		.loc 1 349 9 view .LVU409
 349:sha2.c        ****         F_64(w12, 0x72be5d74f27b896fULL)
 1983              		.loc 1 349 9 view .LVU410
 349:sha2.c        ****         F_64(w12, 0x72be5d74f27b896fULL)
 1984              		.loc 1 349 9 view .LVU411
 1985 0e58 13EB0900 		adds	r0, r3, r9
 1986 0e5c 0B9B     		ldr	r3, [sp, #44]
 1987 0e5e 43EB0603 		adc	r3, r3, r6
 1988              	.LVL199:
 349:sha2.c        ****         F_64(w12, 0x72be5d74f27b896fULL)
 1989              		.loc 1 349 9 view .LVU412
 349:sha2.c        ****         F_64(w12, 0x72be5d74f27b896fULL)
 1990              		.loc 1 349 9 view .LVU413
 349:sha2.c        ****         F_64(w12, 0x72be5d74f27b896fULL)
 1991              		.loc 1 349 9 view .LVU414
 349:sha2.c        ****         F_64(w12, 0x72be5d74f27b896fULL)
 1992              		.loc 1 349 9 view .LVU415
 350:sha2.c        ****         F_64(w13, 0x80deb1fe3b1696b1ULL)
 1993              		.loc 1 350 9 is_stmt 0 view .LVU416
 1994 0e62 4FEA933E 		lsr	lr, r3, #14
 349:sha2.c        ****         F_64(w12, 0x72be5d74f27b896fULL)
 1995              		.loc 1 349 9 view .LVU417
 1996 0e66 19EB0707 		adds	r7, r9, r7
 1997              	.LVL200:
 349:sha2.c        ****         F_64(w12, 0x72be5d74f27b896fULL)
 1998              		.loc 1 349 9 view .LVU418
 1999 0e6a 0A97     		str	r7, [sp, #40]
 2000 0e6c 46EB0C06 		adc	r6, r6, ip
 2001              	.LVL201:
 350:sha2.c        ****         F_64(w13, 0x80deb1fe3b1696b1ULL)
 2002              		.loc 1 350 9 view .LVU419
 2003 0e70 4EEA8049 		orr	r9, lr, r0, lsl #18
 350:sha2.c        ****         F_64(w13, 0x80deb1fe3b1696b1ULL)
 2004              		.loc 1 350 9 view .LVU420
 2005 0e74 4FEA9048 		lsr	r8, r0, #18
 2006 0e78 4FEA934E 		lsr	lr, r3, #18
 2007 0e7c 870B     		lsrs	r7, r0, #14
 349:sha2.c        ****         F_64(w12, 0x72be5d74f27b896fULL)
 2008              		.loc 1 349 9 view .LVU421
 2009 0e7e 0B96     		str	r6, [sp, #44]
 2010              	.LVL202:
 350:sha2.c        ****         F_64(w13, 0x80deb1fe3b1696b1ULL)
 2011              		.loc 1 350 9 is_stmt 1 view .LVU422
 2012 0e80 47EA8347 		orr	r7, r7, r3, lsl #18
 2013 0e84 48EA8336 		orr	r6, r8, r3, lsl #14
 2014              	.LVL203:
 350:sha2.c        ****         F_64(w13, 0x80deb1fe3b1696b1ULL)
 2015              		.loc 1 350 9 is_stmt 0 view .LVU423
 2016 0e88 4EEA803C 		orr	ip, lr, r0, lsl #14
 2017              	.LVL204:
 350:sha2.c        ****         F_64(w13, 0x80deb1fe3b1696b1ULL)
 2018              		.loc 1 350 9 view .LVU424
 2019 0e8c 89EA0C0E 		eor	lr, r9, ip
 2020 0e90 87EA0608 		eor	r8, r7, r6
 2021 0e94 4FEAC35C 		lsl	ip, r3, #23
 2022 0e98 C605     		lsls	r6, r0, #23
 2023 0e9a 46EA5326 		orr	r6, r6, r3, lsr #9
 2024 0e9e 4CEA502C 		orr	ip, ip, r0, lsr #9
 2025 0ea2 88EA0607 		eor	r7, r8, r6
 2026 0ea6 8EEA0C0C 		eor	ip, lr, ip
 2027 0eaa E04E     		ldr	r6, .L16
 2028 0eac DDF890E0 		ldr	lr, [sp, #144]
 2029 0eb0 DFF87C83 		ldr	r8, .L16+4
 2030 0eb4 1EEB060E 		adds	lr, lr, r6
 2031 0eb8 129E     		ldr	r6, [sp, #72]
 2032 0eba 46EB0809 		adc	r9, r6, r8
 2033 0ebe 1EEB0B06 		adds	r6, lr, fp
 2034 0ec2 4AEB090A 		adc	r10, r10, r9
 2035              	.LVL205:
 350:sha2.c        ****         F_64(w13, 0x80deb1fe3b1696b1ULL)
 2036              		.loc 1 350 9 view .LVU425
 2037 0ec6 25EA0009 		bic	r9, r5, r0
 2038 0eca BE19     		adds	r6, r7, r6
 2039 0ecc 04EA0007 		and	r7, r4, r0
 2040 0ed0 02EA0308 		and	r8, r2, r3
 2041 0ed4 21EA030E 		bic	lr, r1, r3
 2042 0ed8 89EA0707 		eor	r7, r9, r7
 2043 0edc 4CEB0A0C 		adc	ip, ip, r10
 2044 0ee0 8EEA080E 		eor	lr, lr, r8
 2045 0ee4 F619     		adds	r6, r6, r7
 2046 0ee6 0A9F     		ldr	r7, [sp, #40]
 2047 0ee8 DDF82880 		ldr	r8, [sp, #40]
 2048 0eec DDF82890 		ldr	r9, [sp, #40]
 2049 0ef0 DDF82CA0 		ldr	r10, [sp, #44]
 2050 0ef4 DDF820B0 		ldr	fp, [sp, #32]
 350:sha2.c        ****         F_64(w13, 0x80deb1fe3b1696b1ULL)
 2051              		.loc 1 350 9 view .LVU426
 2052 0ef8 4CEB0E0C 		adc	ip, ip, lr
 2053              	.LVL206:
 350:sha2.c        ****         F_64(w13, 0x80deb1fe3b1696b1ULL)
 2054              		.loc 1 350 9 is_stmt 1 view .LVU427
 2055 0efc DDF82CE0 		ldr	lr, [sp, #44]
 2056 0f00 3F0F     		lsrs	r7, r7, #28
 2057 0f02 47EA0E17 		orr	r7, r7, lr, lsl #4
 2058 0f06 4FEA1E7E 		lsr	lr, lr, #28
 2059 0f0a 4EEA081E 		orr	lr, lr, r8, lsl #4
 2060 0f0e DDF82C80 		ldr	r8, [sp, #44]
 2061 0f12 4FEA8878 		lsl	r8, r8, #30
 2062 0f16 48EA9908 		orr	r8, r8, r9, lsr #2
 2063 0f1a 4FEA8979 		lsl	r9, r9, #30
 2064 0f1e 49EA9A09 		orr	r9, r9, r10, lsr #2
 2065 0f22 87EA0907 		eor	r7, r7, r9
 2066 0f26 DDF82890 		ldr	r9, [sp, #40]
 2067 0f2a 8EEA080E 		eor	lr, lr, r8
 2068 0f2e 4FEA4A68 		lsl	r8, r10, #25
 2069 0f32 48EAD918 		orr	r8, r8, r9, lsr #7
 2070 0f36 4FEA4969 		lsl	r9, r9, #25
 2071 0f3a 49EADA19 		orr	r9, r9, r10, lsr #7
 2072 0f3e 87EA0907 		eor	r7, r7, r9
 2073 0f42 8EEA080E 		eor	lr, lr, r8
 2074 0f46 DDF82090 		ldr	r9, [sp, #32]
 2075 0f4a DDF81880 		ldr	r8, [sp, #24]
 2076 0f4e DDF824A0 		ldr	r10, [sp, #36]
 2077 0f52 0E97     		str	r7, [sp, #56]
 2078              	.LVL207:
 350:sha2.c        ****         F_64(w13, 0x80deb1fe3b1696b1ULL)
 2079              		.loc 1 350 9 is_stmt 0 view .LVU428
 2080 0f54 88EA0908 		eor	r8, r8, r9
 2081 0f58 DDF81C90 		ldr	r9, [sp, #28]
 2082 0f5c 099F     		ldr	r7, [sp, #36]
 2083 0f5e 89EA0A09 		eor	r9, r9, r10
 2084 0f62 DDF828A0 		ldr	r10, [sp, #40]
 2085 0f66 08EA0A08 		and	r8, r8, r10
 2086 0f6a DDF82CA0 		ldr	r10, [sp, #44]
 2087 0f6e 09EA0A09 		and	r9, r9, r10
 2088 0f72 DDF818A0 		ldr	r10, [sp, #24]
 2089 0f76 0AEA0B0B 		and	fp, r10, fp
 2090 0f7a DDF81CA0 		ldr	r10, [sp, #28]
 2091 0f7e 0AEA070A 		and	r10, r10, r7
 2092 0f82 0E9F     		ldr	r7, [sp, #56]
 2093 0f84 88EA0B08 		eor	r8, r8, fp
 2094 0f88 17EB0808 		adds	r8, r7, r8
 2095 0f8c 0C9F     		ldr	r7, [sp, #48]
 2096 0f8e 89EA0A09 		eor	r9, r9, r10
 2097 0f92 4EEB0909 		adc	r9, lr, r9
 2098              	.LVL208:
 350:sha2.c        ****         F_64(w13, 0x80deb1fe3b1696b1ULL)
 2099              		.loc 1 350 9 is_stmt 1 view .LVU429
 350:sha2.c        ****         F_64(w13, 0x80deb1fe3b1696b1ULL)
 2100              		.loc 1 350 9 view .LVU430
 350:sha2.c        ****         F_64(w13, 0x80deb1fe3b1696b1ULL)
 2101              		.loc 1 350 9 view .LVU431
 350:sha2.c        ****         F_64(w13, 0x80deb1fe3b1696b1ULL)
 2102              		.loc 1 350 9 view .LVU432
 2103 0f96 BF19     		adds	r7, r7, r6
 2104 0f98 2897     		str	r7, [sp, #160]
 2105 0f9a 0D9F     		ldr	r7, [sp, #52]
 351:sha2.c        ****         F_64(w14, 0x9bdc06a725c71235ULL)
 2106              		.loc 1 351 9 is_stmt 0 view .LVU433
 2107 0f9c DDF82CA0 		ldr	r10, [sp, #44]
 350:sha2.c        ****         F_64(w13, 0x80deb1fe3b1696b1ULL)
 2108              		.loc 1 350 9 view .LVU434
 2109 0fa0 47EB0C07 		adc	r7, r7, ip
 2110 0fa4 16EB080B 		adds	fp, r6, r8
 2111 0fa8 4CEB0906 		adc	r6, ip, r9
 2112              	.LVL209:
 350:sha2.c        ****         F_64(w13, 0x80deb1fe3b1696b1ULL)
 2113              		.loc 1 350 9 view .LVU435
 2114 0fac 2696     		str	r6, [sp, #152]
 351:sha2.c        ****         F_64(w14, 0x9bdc06a725c71235ULL)
 2115              		.loc 1 351 9 view .LVU436
 2116 0fae 289E     		ldr	r6, [sp, #160]
 350:sha2.c        ****         F_64(w13, 0x80deb1fe3b1696b1ULL)
 2117              		.loc 1 350 9 view .LVU437
 2118 0fb0 2997     		str	r7, [sp, #164]
 2119              	.LVL210:
 350:sha2.c        ****         F_64(w13, 0x80deb1fe3b1696b1ULL)
 2120              		.loc 1 350 9 is_stmt 1 view .LVU438
 350:sha2.c        ****         F_64(w13, 0x80deb1fe3b1696b1ULL)
 2121              		.loc 1 350 9 view .LVU439
 350:sha2.c        ****         F_64(w13, 0x80deb1fe3b1696b1ULL)
 2122              		.loc 1 350 9 view .LVU440
 350:sha2.c        ****         F_64(w13, 0x80deb1fe3b1696b1ULL)
 2123              		.loc 1 350 9 view .LVU441
 351:sha2.c        ****         F_64(w14, 0x9bdc06a725c71235ULL)
 2124              		.loc 1 351 9 view .LVU442
 2125 0fb2 B70B     		lsrs	r7, r6, #14
 2126              	.LVL211:
 351:sha2.c        ****         F_64(w14, 0x9bdc06a725c71235ULL)
 2127              		.loc 1 351 9 is_stmt 0 view .LVU443
 2128 0fb4 299E     		ldr	r6, [sp, #164]
 2129              	.LVL212:
 351:sha2.c        ****         F_64(w14, 0x9bdc06a725c71235ULL)
 2130              		.loc 1 351 9 view .LVU444
 2131 0fb6 DDF8A080 		ldr	r8, [sp, #160]
 2132              	.LVL213:
 351:sha2.c        ****         F_64(w14, 0x9bdc06a725c71235ULL)
 2133              		.loc 1 351 9 view .LVU445
 2134 0fba DDF82890 		ldr	r9, [sp, #40]
 2135              	.LVL214:
 351:sha2.c        ****         F_64(w14, 0x9bdc06a725c71235ULL)
 2136              		.loc 1 351 9 view .LVU446
 2137 0fbe 47EA8647 		orr	r7, r7, r6, lsl #18
 2138 0fc2 4FEA963C 		lsr	ip, r6, #14
 2139 0fc6 289E     		ldr	r6, [sp, #160]
 2140 0fc8 4CEA864C 		orr	ip, ip, r6, lsl #18
 2141 0fcc 4FEA964E 		lsr	lr, r6, #18
 2142              	.LVL215:
 351:sha2.c        ****         F_64(w14, 0x9bdc06a725c71235ULL)
 2143              		.loc 1 351 9 view .LVU447
 2144 0fd0 299E     		ldr	r6, [sp, #164]
 2145 0fd2 4EEA863E 		orr	lr, lr, r6, lsl #14
 2146 0fd6 B60C     		lsrs	r6, r6, #18
 2147 0fd8 46EA8836 		orr	r6, r6, r8, lsl #14
 2148 0fdc 8CEA060C 		eor	ip, ip, r6
 2149 0fe0 299E     		ldr	r6, [sp, #164]
 2150 0fe2 F605     		lsls	r6, r6, #23
 2151 0fe4 87EA0E07 		eor	r7, r7, lr
 2152 0fe8 46EA5826 		orr	r6, r6, r8, lsr #9
 2153 0fec 4FEAC85E 		lsl	lr, r8, #23
 2154 0ff0 DDF8A480 		ldr	r8, [sp, #164]
 2155 0ff4 4EEA582E 		orr	lr, lr, r8, lsr #9
 2156 0ff8 87EA0E08 		eor	r8, r7, lr
 2157 0ffc 8CEA060C 		eor	ip, ip, r6
 2158 1000 8C4F     		ldr	r7, .L16+8
 2159 1002 259E     		ldr	r6, [sp, #148]
 2160 1004 DFF830E2 		ldr	lr, .L16+12
 2161 1008 F619     		adds	r6, r6, r7
 2162 100a 139F     		ldr	r7, [sp, #76]
 2163 100c 4EEB070E 		adc	lr, lr, r7
 2164 1010 7519     		adds	r5, r6, r5
 2165              	.LVL216:
 351:sha2.c        ****         F_64(w14, 0x9bdc06a725c71235ULL)
 2166              		.loc 1 351 9 view .LVU448
 2167 1012 289E     		ldr	r6, [sp, #160]
 2168 1014 41EB0E01 		adc	r1, r1, lr
 2169 1018 24EA060E 		bic	lr, r4, r6
 2170 101c 299E     		ldr	r6, [sp, #164]
 2171 101e 18EB0505 		adds	r5, r8, r5
 2172 1022 22EA0607 		bic	r7, r2, r6
 2173 1026 289E     		ldr	r6, [sp, #160]
 2174 1028 DDF89880 		ldr	r8, [sp, #152]
 2175 102c 4CEB0101 		adc	r1, ip, r1
 2176 1030 DDF8A4C0 		ldr	ip, [sp, #164]
 2177 1034 0640     		ands	r6, r6, r0
 2178 1036 03EA0C0C 		and	ip, r3, ip
 2179 103a 8EEA0606 		eor	r6, lr, r6
 2180 103e AD19     		adds	r5, r5, r6
 2181 1040 87EA0C07 		eor	r7, r7, ip
 2182 1044 41EB0701 		adc	r1, r1, r7
 2183              	.LVL217:
 351:sha2.c        ****         F_64(w14, 0x9bdc06a725c71235ULL)
 2184              		.loc 1 351 9 is_stmt 1 view .LVU449
 2185 1048 DDF898C0 		ldr	ip, [sp, #152]
 2186 104c 269F     		ldr	r7, [sp, #152]
 2187 104e 4FEA1B76 		lsr	r6, fp, #28
 2188 1052 46EA0716 		orr	r6, r6, r7, lsl #4
 2189 1056 4FEA8B7E 		lsl	lr, fp, #30
 2190 105a 3F0F     		lsrs	r7, r7, #28
 2191 105c 4FEA8C7C 		lsl	ip, ip, #30
 2192 1060 4CEA9B0C 		orr	ip, ip, fp, lsr #2
 2193 1064 4EEA980E 		orr	lr, lr, r8, lsr #2
 2194 1068 47EA0B17 		orr	r7, r7, fp, lsl #4
 2195 106c 86EA0E06 		eor	r6, r6, lr
 2196 1070 87EA0C07 		eor	r7, r7, ip
 2197 1074 4FEA4B6E 		lsl	lr, fp, #25
 2198 1078 4FEA486C 		lsl	ip, r8, #25
 2199 107c 4CEADB1C 		orr	ip, ip, fp, lsr #7
 2200 1080 4EEAD81E 		orr	lr, lr, r8, lsr #7
 2201 1084 86EA0E06 		eor	r6, r6, lr
 2202 1088 87EA0C07 		eor	r7, r7, ip
 2203 108c DDF828E0 		ldr	lr, [sp, #40]
 2204 1090 DDF820C0 		ldr	ip, [sp, #32]
 2205 1094 DDF82C80 		ldr	r8, [sp, #44]
 2206 1098 8CEA0E0C 		eor	ip, ip, lr
 2207 109c DDF824E0 		ldr	lr, [sp, #36]
 2208 10a0 8EEA080E 		eor	lr, lr, r8
 2209 10a4 DDF89880 		ldr	r8, [sp, #152]
 2210 10a8 0EEA080E 		and	lr, lr, r8
 2211 10ac DDF82080 		ldr	r8, [sp, #32]
 2212 10b0 0CEA0B0C 		and	ip, ip, fp
 2213 10b4 08EA0909 		and	r9, r8, r9
 2214 10b8 DDF82480 		ldr	r8, [sp, #36]
 2215 10bc 8CEA090C 		eor	ip, ip, r9
 2216 10c0 16EB0C0C 		adds	ip, r6, ip
 2217 10c4 08EA0A08 		and	r8, r8, r10
 2218 10c8 069E     		ldr	r6, [sp, #24]
 2219 10ca 8EEA080E 		eor	lr, lr, r8
 2220 10ce 47EB0E0E 		adc	lr, r7, lr
 2221              	.LVL218:
 351:sha2.c        ****         F_64(w14, 0x9bdc06a725c71235ULL)
 2222              		.loc 1 351 9 view .LVU450
 351:sha2.c        ****         F_64(w14, 0x9bdc06a725c71235ULL)
 2223              		.loc 1 351 9 view .LVU451
 351:sha2.c        ****         F_64(w14, 0x9bdc06a725c71235ULL)
 2224              		.loc 1 351 9 view .LVU452
 351:sha2.c        ****         F_64(w14, 0x9bdc06a725c71235ULL)
 2225              		.loc 1 351 9 view .LVU453
 2226 10d2 7619     		adds	r6, r6, r5
 2227 10d4 2A96     		str	r6, [sp, #168]
 2228 10d6 079E     		ldr	r6, [sp, #28]
 352:sha2.c        ****         F_64(w15, 0xc19bf174cf692694ULL)
 2229              		.loc 1 352 9 is_stmt 0 view .LVU454
 2230 10d8 DDF89880 		ldr	r8, [sp, #152]
 351:sha2.c        ****         F_64(w14, 0x9bdc06a725c71235ULL)
 2231              		.loc 1 351 9 view .LVU455
 2232 10dc 46EB0106 		adc	r6, r6, r1
 2233 10e0 15EB0C05 		adds	r5, r5, ip
 2234              	.LVL219:
 351:sha2.c        ****         F_64(w14, 0x9bdc06a725c71235ULL)
 2235              		.loc 1 351 9 view .LVU456
 2236 10e4 41EB0E0E 		adc	lr, r1, lr
 2237              	.LVL220:
 352:sha2.c        ****         F_64(w15, 0xc19bf174cf692694ULL)
 2238              		.loc 1 352 9 view .LVU457
 2239 10e8 2A99     		ldr	r1, [sp, #168]
 351:sha2.c        ****         F_64(w14, 0x9bdc06a725c71235ULL)
 2240              		.loc 1 351 9 view .LVU458
 2241 10ea 2B96     		str	r6, [sp, #172]
 2242              	.LVL221:
 351:sha2.c        ****         F_64(w14, 0x9bdc06a725c71235ULL)
 2243              		.loc 1 351 9 is_stmt 1 view .LVU459
 351:sha2.c        ****         F_64(w14, 0x9bdc06a725c71235ULL)
 2244              		.loc 1 351 9 view .LVU460
 351:sha2.c        ****         F_64(w14, 0x9bdc06a725c71235ULL)
 2245              		.loc 1 351 9 view .LVU461
 351:sha2.c        ****         F_64(w14, 0x9bdc06a725c71235ULL)
 2246              		.loc 1 351 9 view .LVU462
 352:sha2.c        ****         F_64(w15, 0xc19bf174cf692694ULL)
 2247              		.loc 1 352 9 view .LVU463
 2248 10ec 890B     		lsrs	r1, r1, #14
 2249              	.LVL222:
 351:sha2.c        ****         F_64(w14, 0x9bdc06a725c71235ULL)
 2250              		.loc 1 351 9 is_stmt 0 view .LVU464
 2251 10ee 2795     		str	r5, [sp, #156]
 2252              	.LVL223:
 352:sha2.c        ****         F_64(w15, 0xc19bf174cf692694ULL)
 2253              		.loc 1 352 9 view .LVU465
 2254 10f0 41EA8641 		orr	r1, r1, r6, lsl #18
 2255 10f4 B50B     		lsrs	r5, r6, #14
 2256 10f6 2A9E     		ldr	r6, [sp, #168]
 2257              	.LVL224:
 352:sha2.c        ****         F_64(w15, 0xc19bf174cf692694ULL)
 2258              		.loc 1 352 9 view .LVU466
 2259 10f8 DDF8A8C0 		ldr	ip, [sp, #168]
 2260              	.LVL225:
 352:sha2.c        ****         F_64(w15, 0xc19bf174cf692694ULL)
 2261              		.loc 1 352 9 view .LVU467
 2262 10fc 4FEA964A 		lsr	r10, r6, #18
 2263 1100 45EA8645 		orr	r5, r5, r6, lsl #18
 2264 1104 2B9E     		ldr	r6, [sp, #172]
 2265 1106 4AEA8637 		orr	r7, r10, r6, lsl #14
 2266              	.LVL226:
 352:sha2.c        ****         F_64(w15, 0xc19bf174cf692694ULL)
 2267              		.loc 1 352 9 view .LVU468
 2268 110a 81EA070A 		eor	r10, r1, r7
 2269 110e B60C     		lsrs	r6, r6, #18
 2270 1110 2B99     		ldr	r1, [sp, #172]
 2271 1112 2B9F     		ldr	r7, [sp, #172]
 2272 1114 46EA8C36 		orr	r6, r6, ip, lsl #14
 2273 1118 7540     		eors	r5, r5, r6
 2274 111a CE05     		lsls	r6, r1, #23
 2275 111c 6146     		mov	r1, ip
 2276 111e 46EA5C26 		orr	r6, r6, ip, lsr #9
 2277 1122 C905     		lsls	r1, r1, #23
 2278 1124 7540     		eors	r5, r5, r6
 2279 1126 41EA5721 		orr	r1, r1, r7, lsr #9
 2280 112a 444E     		ldr	r6, .L16+16
 2281 112c 169F     		ldr	r7, [sp, #88]
 2282 112e 8AEA0101 		eor	r1, r10, r1
 2283 1132 17EB060A 		adds	r10, r7, r6
 2284 1136 029F     		ldr	r7, [sp, #8]
 2285 1138 414E     		ldr	r6, .L16+20
 2286 113a 46EB0706 		adc	r6, r6, r7
 2287 113e 1AEB040A 		adds	r10, r10, r4
 2288 1142 42EB0602 		adc	r2, r2, r6
 2289              	.LVL227:
 352:sha2.c        ****         F_64(w15, 0xc19bf174cf692694ULL)
 2290              		.loc 1 352 9 view .LVU469
 2291 1146 11EB0A0A 		adds	r10, r1, r10
 2292 114a 2B99     		ldr	r1, [sp, #172]
 2293 114c 2B9F     		ldr	r7, [sp, #172]
 2294 114e 23EA0104 		bic	r4, r3, r1
 352:sha2.c        ****         F_64(w15, 0xc19bf174cf692694ULL)
 2295              		.loc 1 352 9 view .LVU470
 2296 1152 2899     		ldr	r1, [sp, #160]
 2297 1154 45EB0202 		adc	r2, r5, r2
 2298 1158 6546     		mov	r5, ip
 2299 115a 2940     		ands	r1, r1, r5
 2300 115c 299D     		ldr	r5, [sp, #164]
 2301 115e 20EA0C06 		bic	r6, r0, ip
 2302 1162 3D40     		ands	r5, r5, r7
 2303 1164 7140     		eors	r1, r1, r6
 2304 1166 1AEB010A 		adds	r10, r10, r1
 2305 116a 84EA0504 		eor	r4, r4, r5
 2306 116e 279D     		ldr	r5, [sp, #156]
 2307 1170 279E     		ldr	r6, [sp, #156]
 2308 1172 269F     		ldr	r7, [sp, #152]
 2309 1174 42EB0404 		adc	r4, r2, r4
 2310              	.LVL228:
 352:sha2.c        ****         F_64(w15, 0xc19bf174cf692694ULL)
 2311              		.loc 1 352 9 is_stmt 1 view .LVU471
 2312 1178 4FEA1E71 		lsr	r1, lr, #28
 2313 117c 279A     		ldr	r2, [sp, #156]
 2314 117e 41EA0511 		orr	r1, r1, r5, lsl #4
 2315 1182 4FEA8E75 		lsl	r5, lr, #30
 2316 1186 45EA9605 		orr	r5, r5, r6, lsr #2
 2317 118a 120F     		lsrs	r2, r2, #28
 2318 118c B607     		lsls	r6, r6, #30
 2319 118e 46EA9E06 		orr	r6, r6, lr, lsr #2
 2320 1192 42EA0E12 		orr	r2, r2, lr, lsl #4
 2321 1196 7240     		eors	r2, r2, r6
 2322 1198 279E     		ldr	r6, [sp, #156]
 2323 119a 6940     		eors	r1, r1, r5
 2324 119c 4FEA4E65 		lsl	r5, lr, #25
 2325 11a0 45EAD615 		orr	r5, r5, r6, lsr #7
 2326 11a4 7606     		lsls	r6, r6, #25
 2327 11a6 46EADE16 		orr	r6, r6, lr, lsr #7
 2328 11aa 7240     		eors	r2, r2, r6
 2329 11ac 0B9E     		ldr	r6, [sp, #44]
 2330 11ae 6940     		eors	r1, r1, r5
 2331 11b0 0A9D     		ldr	r5, [sp, #40]
 2332 11b2 7E40     		eors	r6, r6, r7
 2333 11b4 279F     		ldr	r7, [sp, #156]
 2334 11b6 85EA0B05 		eor	r5, r5, fp
 2335 11ba 3D40     		ands	r5, r5, r7
 2336 11bc 0A9F     		ldr	r7, [sp, #40]
 2337 11be 07EA0B0C 		and	ip, r7, fp
 2338 11c2 0B9F     		ldr	r7, [sp, #44]
 2339 11c4 85EA0C05 		eor	r5, r5, ip
 2340 11c8 5519     		adds	r5, r2, r5
 2341 11ca 07EA0807 		and	r7, r7, r8
 2342 11ce 089A     		ldr	r2, [sp, #32]
 2343 11d0 06EA0E06 		and	r6, r6, lr
 2344 11d4 86EA0706 		eor	r6, r6, r7
 2345 11d8 41EB0606 		adc	r6, r1, r6
 2346              	.LVL229:
 352:sha2.c        ****         F_64(w15, 0xc19bf174cf692694ULL)
 2347              		.loc 1 352 9 view .LVU472
 352:sha2.c        ****         F_64(w15, 0xc19bf174cf692694ULL)
 2348              		.loc 1 352 9 view .LVU473
 352:sha2.c        ****         F_64(w15, 0xc19bf174cf692694ULL)
 2349              		.loc 1 352 9 view .LVU474
 352:sha2.c        ****         F_64(w15, 0xc19bf174cf692694ULL)
 2350              		.loc 1 352 9 view .LVU475
 2351 11dc 12EB0A02 		adds	r2, r2, r10
 2352 11e0 2C92     		str	r2, [sp, #176]
 2353 11e2 099A     		ldr	r2, [sp, #36]
 2354 11e4 42EB0407 		adc	r7, r2, r4
 2355              	.LVL230:
 352:sha2.c        ****         F_64(w15, 0xc19bf174cf692694ULL)
 2356              		.loc 1 352 9 view .LVU476
 352:sha2.c        ****         F_64(w15, 0xc19bf174cf692694ULL)
 2357              		.loc 1 352 9 view .LVU477
 352:sha2.c        ****         F_64(w15, 0xc19bf174cf692694ULL)
 2358              		.loc 1 352 9 view .LVU478
 352:sha2.c        ****         F_64(w15, 0xc19bf174cf692694ULL)
 2359              		.loc 1 352 9 view .LVU479
 2360 11e8 1AEB050A 		adds	r10, r10, r5
 2361              	.LVL231:
 353:sha2.c        **** 
 2362              		.loc 1 353 9 is_stmt 0 view .LVU480
 2363 11ec 2C9A     		ldr	r2, [sp, #176]
 352:sha2.c        ****         F_64(w15, 0xc19bf174cf692694ULL)
 2364              		.loc 1 352 9 view .LVU481
 2365 11ee 44EB060C 		adc	ip, r4, r6
 2366              	.LVL232:
 353:sha2.c        **** 
 2367              		.loc 1 353 9 is_stmt 1 view .LVU482
 2368 11f2 BC0B     		lsrs	r4, r7, #14
 2369 11f4 910B     		lsrs	r1, r2, #14
 2370 11f6 44EA8244 		orr	r4, r4, r2, lsl #18
 2371 11fa 920C     		lsrs	r2, r2, #18
 2372 11fc 42EA8736 		orr	r6, r2, r7, lsl #14
 2373              	.LVL233:
 353:sha2.c        **** 
 2374              		.loc 1 353 9 is_stmt 0 view .LVU483
 2375 1200 2C9A     		ldr	r2, [sp, #176]
 2376 1202 41EA8741 		orr	r1, r1, r7, lsl #18
 2377 1206 BD0C     		lsrs	r5, r7, #18
 2378              	.LVL234:
 353:sha2.c        **** 
 2379              		.loc 1 353 9 view .LVU484
 2380 1208 45EA8235 		orr	r5, r5, r2, lsl #14
 2381 120c 81EA0602 		eor	r2, r1, r6
 2382 1210 2C99     		ldr	r1, [sp, #176]
 2383 1212 6C40     		eors	r4, r4, r5
 2384 1214 FD05     		lsls	r5, r7, #23
 2385 1216 45EA5125 		orr	r5, r5, r1, lsr #9
 2386 121a C905     		lsls	r1, r1, #23
 2387 121c 41EA5721 		orr	r1, r1, r7, lsr #9
 2388 1220 5140     		eors	r1, r1, r2
 2389 1222 6C40     		eors	r4, r4, r5
 2390 1224 179A     		ldr	r2, [sp, #92]
 2391 1226 074D     		ldr	r5, .L16+24
 2392 1228 039E     		ldr	r6, [sp, #12]
 2393 122a 0DE0     		b	.L17
 2394              	.L18:
 2395              		.align	2
 2396              	.L16:
 2397 122c 6F897BF2 		.word	-226784913
 2398 1230 745DBE72 		.word	1925078388
 2399 1234 B196163B 		.word	991336113
 2400 1238 FEB1DE80 		.word	-2132889090
 2401 123c 3512C725 		.word	633803317
 2402 1240 A706DC9B 		.word	-1680079193
 2403 1244 942669CF 		.word	-815192428
 2404              	.L17:
 2405 1248 5219     		adds	r2, r2, r5
 2406 124a CB4D     		ldr	r5, .L19
 2407 124c 45EB0605 		adc	r5, r5, r6
 2408 1250 1218     		adds	r2, r2, r0
 2409 1252 43EB0503 		adc	r3, r3, r5
 2410              	.LVL235:
 353:sha2.c        **** 
 2411              		.loc 1 353 9 view .LVU485
 2412 1256 2C98     		ldr	r0, [sp, #176]
 353:sha2.c        **** 
 2413              		.loc 1 353 9 view .LVU486
 2414 1258 279E     		ldr	r6, [sp, #156]
 2415 125a 8A18     		adds	r2, r1, r2
 2416 125c 2899     		ldr	r1, [sp, #160]
 2417 125e 21EA0005 		bic	r5, r1, r0
 2418 1262 2999     		ldr	r1, [sp, #164]
 2419 1264 44EB0303 		adc	r3, r4, r3
 2420 1268 21EA0700 		bic	r0, r1, r7
 2421 126c 2C9C     		ldr	r4, [sp, #176]
 2422 126e 2A99     		ldr	r1, [sp, #168]
 2423 1270 2140     		ands	r1, r1, r4
 2424 1272 2B9C     		ldr	r4, [sp, #172]
 2425 1274 6940     		eors	r1, r1, r5
 2426 1276 3C40     		ands	r4, r4, r7
 2427 1278 5218     		adds	r2, r2, r1
 2428 127a 80EA0400 		eor	r0, r0, r4
 2429 127e 43EB0003 		adc	r3, r3, r0
 2430              	.LVL236:
 353:sha2.c        **** 
 2431              		.loc 1 353 9 is_stmt 1 view .LVU487
 2432 1282 4FEA8C71 		lsl	r1, ip, #30
 2433 1286 4FEA1C70 		lsr	r0, ip, #28
 2434 128a 41EA9A01 		orr	r1, r1, r10, lsr #2
 2435 128e 40EA0A10 		orr	r0, r0, r10, lsl #4
 2436 1292 4840     		eors	r0, r0, r1
 2437 1294 4FEA4C61 		lsl	r1, ip, #25
 2438 1298 41EADA11 		orr	r1, r1, r10, lsr #7
 2439 129c 4FEA1A74 		lsr	r4, r10, #28
 2440 12a0 4FEA8A75 		lsl	r5, r10, #30
 2441 12a4 45EA9C05 		orr	r5, r5, ip, lsr #2
 2442 12a8 44EA0C14 		orr	r4, r4, ip, lsl #4
 2443 12ac 4840     		eors	r0, r0, r1
 2444 12ae 2799     		ldr	r1, [sp, #156]
 2445 12b0 6C40     		eors	r4, r4, r5
 2446 12b2 4FEA4A65 		lsl	r5, r10, #25
 2447 12b6 45EADC15 		orr	r5, r5, ip, lsr #7
 2448 12ba 8BEA0101 		eor	r1, fp, r1
 2449 12be 6C40     		eors	r4, r4, r5
 2450 12c0 01EA0A01 		and	r1, r1, r10
 2451 12c4 88EA0E05 		eor	r5, r8, lr
 2452 12c8 0BEA0608 		and	r8, fp, r6
 2453 12cc 269E     		ldr	r6, [sp, #152]
 2454 12ce 81EA0801 		eor	r1, r1, r8
 2455 12d2 6118     		adds	r1, r4, r1
 2456 12d4 05EA0C05 		and	r5, r5, ip
 2457 12d8 0A9C     		ldr	r4, [sp, #40]
 2458 12da 06EA0E06 		and	r6, r6, lr
 2459 12de 86EA0506 		eor	r6, r6, r5
 2460 12e2 40EB0600 		adc	r0, r0, r6
 2461              	.LVL237:
 353:sha2.c        **** 
 2462              		.loc 1 353 9 view .LVU488
 353:sha2.c        **** 
 2463              		.loc 1 353 9 view .LVU489
 353:sha2.c        **** 
 2464              		.loc 1 353 9 view .LVU490
 353:sha2.c        **** 
 2465              		.loc 1 353 9 view .LVU491
 2466 12e6 A418     		adds	r4, r4, r2
 2467 12e8 2D94     		str	r4, [sp, #180]
 2468 12ea 0B9C     		ldr	r4, [sp, #44]
 355:sha2.c        **** 
 2469              		.loc 1 355 9 is_stmt 0 view .LVU492
 2470 12ec 2F9E     		ldr	r6, [sp, #188]
 353:sha2.c        **** 
 2471              		.loc 1 353 9 view .LVU493
 2472 12ee 44EB0304 		adc	r4, r4, r3
 2473 12f2 12EB0109 		adds	r9, r2, r1
 2474 12f6 43EB0008 		adc	r8, r3, r0
 355:sha2.c        **** 
 2475              		.loc 1 355 9 view .LVU494
 2476 12fa 169B     		ldr	r3, [sp, #88]
 2477              	.LVL238:
 355:sha2.c        **** 
 2478              		.loc 1 355 9 view .LVU495
 2479 12fc 1699     		ldr	r1, [sp, #88]
 2480              	.LVL239:
 355:sha2.c        **** 
 2481              		.loc 1 355 9 view .LVU496
 2482 12fe 1698     		ldr	r0, [sp, #88]
 2483              	.LVL240:
 353:sha2.c        **** 
 2484              		.loc 1 353 9 view .LVU497
 2485 1300 2E94     		str	r4, [sp, #184]
 2486              	.LVL241:
 353:sha2.c        **** 
 2487              		.loc 1 353 9 is_stmt 1 view .LVU498
 353:sha2.c        **** 
 2488              		.loc 1 353 9 view .LVU499
 353:sha2.c        **** 
 2489              		.loc 1 353 9 view .LVU500
 353:sha2.c        **** 
 2490              		.loc 1 353 9 view .LVU501
 355:sha2.c        **** 
 2491              		.loc 1 355 9 view .LVU502
 2492 1302 DA0C     		lsrs	r2, r3, #19
 355:sha2.c        **** 
 2493              		.loc 1 355 9 is_stmt 0 view .LVU503
 2494 1304 029B     		ldr	r3, [sp, #8]
 2495 1306 029C     		ldr	r4, [sp, #8]
 2496              	.LVL242:
 355:sha2.c        **** 
 2497              		.loc 1 355 9 view .LVU504
 2498 1308 42EA4332 		orr	r2, r2, r3, lsl #13
 2499 130c DB0C     		lsrs	r3, r3, #19
 2500 130e 43EA4133 		orr	r3, r3, r1, lsl #13
 2501 1312 0299     		ldr	r1, [sp, #8]
 2502 1314 C900     		lsls	r1, r1, #3
 2503 1316 41EA5071 		orr	r1, r1, r0, lsr #29
 2504 131a 5940     		eors	r1, r1, r3
 2505 131c 169B     		ldr	r3, [sp, #88]
 2506 131e C000     		lsls	r0, r0, #3
 2507 1320 40EA5470 		orr	r0, r0, r4, lsr #29
 2508 1324 9B09     		lsrs	r3, r3, #6
 2509 1326 43EA8463 		orr	r3, r3, r4, lsl #26
 2510 132a 5040     		eors	r0, r0, r2
 2511 132c 5840     		eors	r0, r0, r3
 2512 132e 219A     		ldr	r2, [sp, #132]
 2513 1330 189B     		ldr	r3, [sp, #96]
 2514 1332 81EA9411 		eor	r1, r1, r4, lsr #6
 2515 1336 9A18     		adds	r2, r3, r2
 2516 1338 0F9C     		ldr	r4, [sp, #60]
 2517 133a 3A9B     		ldr	r3, [sp, #232]
 2518 133c 43EB0403 		adc	r3, r3, r4
 2519 1340 8018     		adds	r0, r0, r2
 2520 1342 41EB0301 		adc	r1, r1, r3
 2521 1346 2F9B     		ldr	r3, [sp, #188]
 2522 1348 2F9A     		ldr	r2, [sp, #188]
 2523 134a 199C     		ldr	r4, [sp, #100]
 2524 134c 5D08     		lsrs	r5, r3, #1
 2525              	.LVL243:
 355:sha2.c        **** 
 2526              		.loc 1 355 9 view .LVU505
 2527 134e 199B     		ldr	r3, [sp, #100]
 2528 1350 45EAC375 		orr	r5, r5, r3, lsl #31
 2529 1354 5B08     		lsrs	r3, r3, #1
 2530 1356 43EAC273 		orr	r3, r3, r2, lsl #31
 2531 135a 120A     		lsrs	r2, r2, #8
 2532 135c 42EA0462 		orr	r2, r2, r4, lsl #24
 2533 1360 240A     		lsrs	r4, r4, #8
 2534 1362 44EA0664 		orr	r4, r4, r6, lsl #24
 2535 1366 6340     		eors	r3, r3, r4
 2536 1368 199C     		ldr	r4, [sp, #100]
 2537 136a 6A40     		eors	r2, r2, r5
 2538 136c F509     		lsrs	r5, r6, #7
 2539 136e 45EA4465 		orr	r5, r5, r4, lsl #25
 2540 1372 6A40     		eors	r2, r2, r5
 2541 1374 1218     		adds	r2, r2, r0
 2542 1376 83EAD413 		eor	r3, r3, r4, lsr #7
 2543 137a 41EB0303 		adc	r3, r1, r3
 2544 137e 1892     		str	r2, [sp, #96]
 2545              	.LVL244:
 355:sha2.c        **** 
 2546              		.loc 1 355 9 view .LVU506
 2547 1380 0693     		str	r3, [sp, #24]
 2548              	.LVL245:
 355:sha2.c        **** 
 2549              		.loc 1 355 9 is_stmt 1 view .LVU507
 2550 1382 179B     		ldr	r3, [sp, #92]
 2551              	.LVL246:
 355:sha2.c        **** 
 2552              		.loc 1 355 9 is_stmt 0 view .LVU508
 2553 1384 179A     		ldr	r2, [sp, #92]
 2554              	.LVL247:
 355:sha2.c        **** 
 2555              		.loc 1 355 9 view .LVU509
 2556 1386 DC0C     		lsrs	r4, r3, #19
 2557 1388 039B     		ldr	r3, [sp, #12]
 2558 138a 44EA4334 		orr	r4, r4, r3, lsl #13
 2559 138e DB0C     		lsrs	r3, r3, #19
 2560 1390 43EA4233 		orr	r3, r3, r2, lsl #13
 2561 1394 039A     		ldr	r2, [sp, #12]
 2562 1396 D100     		lsls	r1, r2, #3
 2563 1398 179A     		ldr	r2, [sp, #92]
 2564 139a 41EA5271 		orr	r1, r1, r2, lsr #29
 2565 139e D000     		lsls	r0, r2, #3
 2566 13a0 5940     		eors	r1, r1, r3
 2567 13a2 039A     		ldr	r2, [sp, #12]
 2568 13a4 179B     		ldr	r3, [sp, #92]
 2569 13a6 40EA5270 		orr	r0, r0, r2, lsr #29
 2570 13aa 9A09     		lsrs	r2, r3, #6
 2571 13ac 039B     		ldr	r3, [sp, #12]
 2572 13ae 6040     		eors	r0, r0, r4
 2573 13b0 42EA8362 		orr	r2, r2, r3, lsl #26
 2574 13b4 4240     		eors	r2, r2, r0
 2575 13b6 2298     		ldr	r0, [sp, #136]
 2576 13b8 109C     		ldr	r4, [sp, #64]
 2577 13ba 81EA9311 		eor	r1, r1, r3, lsr #6
 2578 13be 199B     		ldr	r3, [sp, #100]
 2579 13c0 3018     		adds	r0, r6, r0
 2580 13c2 43EB0403 		adc	r3, r3, r4
 2581 13c6 1018     		adds	r0, r2, r0
 2582 13c8 41EB0301 		adc	r1, r1, r3
 2583 13cc 309B     		ldr	r3, [sp, #192]
 2584 13ce 309A     		ldr	r2, [sp, #192]
 2585 13d0 1A9C     		ldr	r4, [sp, #104]
 2586 13d2 309E     		ldr	r6, [sp, #192]
 2587 13d4 5D08     		lsrs	r5, r3, #1
 2588 13d6 1A9B     		ldr	r3, [sp, #104]
 2589 13d8 45EAC375 		orr	r5, r5, r3, lsl #31
 2590 13dc 5B08     		lsrs	r3, r3, #1
 2591 13de 43EAC273 		orr	r3, r3, r2, lsl #31
 2592 13e2 120A     		lsrs	r2, r2, #8
 2593 13e4 42EA0462 		orr	r2, r2, r4, lsl #24
 2594 13e8 240A     		lsrs	r4, r4, #8
 2595 13ea 44EA0664 		orr	r4, r4, r6, lsl #24
 2596 13ee 6340     		eors	r3, r3, r4
 2597 13f0 1A9C     		ldr	r4, [sp, #104]
 2598 13f2 6A40     		eors	r2, r2, r5
 2599 13f4 F509     		lsrs	r5, r6, #7
 2600 13f6 45EA4465 		orr	r5, r5, r4, lsl #25
 2601 13fa 6A40     		eors	r2, r2, r5
 2602 13fc 1218     		adds	r2, r2, r0
 2603 13fe 83EAD413 		eor	r3, r3, r4, lsr #7
 2604 1402 41EB0303 		adc	r3, r1, r3
 2605 1406 0793     		str	r3, [sp, #28]
 2606              	.LVL248:
 355:sha2.c        **** 
 2607              		.loc 1 355 9 is_stmt 1 view .LVU510
 2608 1408 319B     		ldr	r3, [sp, #196]
 2609              	.LVL249:
 355:sha2.c        **** 
 2610              		.loc 1 355 9 is_stmt 0 view .LVU511
 2611 140a 1992     		str	r2, [sp, #100]
 2612              	.LVL250:
 355:sha2.c        **** 
 2613              		.loc 1 355 9 view .LVU512
 2614 140c 5C08     		lsrs	r4, r3, #1
 2615 140e 1B9B     		ldr	r3, [sp, #108]
 2616 1410 319A     		ldr	r2, [sp, #196]
 2617 1412 44EAC374 		orr	r4, r4, r3, lsl #31
 2618 1416 5B08     		lsrs	r3, r3, #1
 2619 1418 43EAC273 		orr	r3, r3, r2, lsl #31
 2620 141c 100A     		lsrs	r0, r2, #8
 2621 141e 1B9A     		ldr	r2, [sp, #108]
 2622 1420 40EA0260 		orr	r0, r0, r2, lsl #24
 2623 1424 110A     		lsrs	r1, r2, #8
 2624 1426 319A     		ldr	r2, [sp, #196]
 2625 1428 41EA0261 		orr	r1, r1, r2, lsl #24
 2626 142c 5940     		eors	r1, r1, r3
 2627 142e 1B9B     		ldr	r3, [sp, #108]
 2628 1430 D209     		lsrs	r2, r2, #7
 2629 1432 6040     		eors	r0, r0, r4
 2630 1434 42EA4362 		orr	r2, r2, r3, lsl #25
 2631 1438 4240     		eors	r2, r2, r0
 2632 143a 2398     		ldr	r0, [sp, #140]
 2633 143c 119C     		ldr	r4, [sp, #68]
 2634 143e 81EAD311 		eor	r1, r1, r3, lsr #7
 2635 1442 1A9B     		ldr	r3, [sp, #104]
 2636 1444 3018     		adds	r0, r6, r0
 2637 1446 43EB0403 		adc	r3, r3, r4
 2638 144a 1018     		adds	r0, r2, r0
 2639 144c 41EB0301 		adc	r1, r1, r3
 2640 1450 189B     		ldr	r3, [sp, #96]
 2641 1452 189A     		ldr	r2, [sp, #96]
 2642 1454 DD0C     		lsrs	r5, r3, #19
 2643 1456 069B     		ldr	r3, [sp, #24]
 2644 1458 45EA4335 		orr	r5, r5, r3, lsl #13
 2645 145c DB0C     		lsrs	r3, r3, #19
 2646 145e 43EA4233 		orr	r3, r3, r2, lsl #13
 2647 1462 069A     		ldr	r2, [sp, #24]
 2648 1464 069E     		ldr	r6, [sp, #24]
 2649 1466 D400     		lsls	r4, r2, #3
 2650 1468 189A     		ldr	r2, [sp, #96]
 2651 146a 44EA5274 		orr	r4, r4, r2, lsr #29
 2652 146e 6340     		eors	r3, r3, r4
 2653 1470 D200     		lsls	r2, r2, #3
 2654 1472 189C     		ldr	r4, [sp, #96]
 2655 1474 42EA5672 		orr	r2, r2, r6, lsr #29
 2656 1478 6A40     		eors	r2, r2, r5
 2657 147a A509     		lsrs	r5, r4, #6
 2658 147c 45EA8665 		orr	r5, r5, r6, lsl #26
 2659 1480 6A40     		eors	r2, r2, r5
 2660 1482 1218     		adds	r2, r2, r0
 2661 1484 83EA9613 		eor	r3, r3, r6, lsr #6
 2662 1488 41EB0303 		adc	r3, r1, r3
 2663 148c 0893     		str	r3, [sp, #32]
 2664              	.LVL251:
 355:sha2.c        **** 
 2665              		.loc 1 355 9 is_stmt 1 view .LVU513
 2666 148e 329B     		ldr	r3, [sp, #200]
 2667              	.LVL252:
 355:sha2.c        **** 
 2668              		.loc 1 355 9 is_stmt 0 view .LVU514
 2669 1490 1A92     		str	r2, [sp, #104]
 2670              	.LVL253:
 355:sha2.c        **** 
 2671              		.loc 1 355 9 view .LVU515
 2672 1492 5C08     		lsrs	r4, r3, #1
 2673 1494 1C9B     		ldr	r3, [sp, #112]
 2674 1496 329A     		ldr	r2, [sp, #200]
 2675 1498 079E     		ldr	r6, [sp, #28]
 2676 149a 44EAC374 		orr	r4, r4, r3, lsl #31
 2677 149e 5B08     		lsrs	r3, r3, #1
 2678 14a0 43EAC273 		orr	r3, r3, r2, lsl #31
 2679 14a4 100A     		lsrs	r0, r2, #8
 2680 14a6 1C9A     		ldr	r2, [sp, #112]
 2681 14a8 40EA0260 		orr	r0, r0, r2, lsl #24
 2682 14ac 110A     		lsrs	r1, r2, #8
 2683 14ae 329A     		ldr	r2, [sp, #200]
 2684 14b0 41EA0261 		orr	r1, r1, r2, lsl #24
 2685 14b4 5940     		eors	r1, r1, r3
 2686 14b6 1C9B     		ldr	r3, [sp, #112]
 2687 14b8 D209     		lsrs	r2, r2, #7
 2688 14ba 6040     		eors	r0, r0, r4
 2689 14bc 42EA4362 		orr	r2, r2, r3, lsl #25
 2690 14c0 4240     		eors	r2, r2, r0
 2691 14c2 81EAD311 		eor	r1, r1, r3, lsr #7
 2692 14c6 2498     		ldr	r0, [sp, #144]
 2693 14c8 319B     		ldr	r3, [sp, #196]
 2694 14ca 129C     		ldr	r4, [sp, #72]
 2695 14cc 1818     		adds	r0, r3, r0
 2696 14ce 1B9B     		ldr	r3, [sp, #108]
 2697 14d0 43EB0403 		adc	r3, r3, r4
 2698 14d4 1018     		adds	r0, r2, r0
 2699 14d6 41EB0301 		adc	r1, r1, r3
 2700 14da 199B     		ldr	r3, [sp, #100]
 2701 14dc 199A     		ldr	r2, [sp, #100]
 2702 14de DD0C     		lsrs	r5, r3, #19
 2703 14e0 079B     		ldr	r3, [sp, #28]
 2704 14e2 45EA4335 		orr	r5, r5, r3, lsl #13
 2705 14e6 DB0C     		lsrs	r3, r3, #19
 2706 14e8 43EA4233 		orr	r3, r3, r2, lsl #13
 2707 14ec 079A     		ldr	r2, [sp, #28]
 2708 14ee D400     		lsls	r4, r2, #3
 2709 14f0 199A     		ldr	r2, [sp, #100]
 2710 14f2 44EA5274 		orr	r4, r4, r2, lsr #29
 2711 14f6 6340     		eors	r3, r3, r4
 2712 14f8 D200     		lsls	r2, r2, #3
 2713 14fa 199C     		ldr	r4, [sp, #100]
 2714 14fc 42EA5672 		orr	r2, r2, r6, lsr #29
 2715 1500 6A40     		eors	r2, r2, r5
 2716 1502 A509     		lsrs	r5, r4, #6
 2717 1504 45EA8665 		orr	r5, r5, r6, lsl #26
 2718 1508 6A40     		eors	r2, r2, r5
 2719 150a 1218     		adds	r2, r2, r0
 2720 150c 83EA9613 		eor	r3, r3, r6, lsr #6
 2721 1510 41EB0303 		adc	r3, r1, r3
 2722 1514 0993     		str	r3, [sp, #36]
 2723              	.LVL254:
 355:sha2.c        **** 
 2724              		.loc 1 355 9 is_stmt 1 view .LVU516
 2725 1516 339B     		ldr	r3, [sp, #204]
 2726              	.LVL255:
 355:sha2.c        **** 
 2727              		.loc 1 355 9 is_stmt 0 view .LVU517
 2728 1518 1B92     		str	r2, [sp, #108]
 2729              	.LVL256:
 355:sha2.c        **** 
 2730              		.loc 1 355 9 view .LVU518
 2731 151a 5C08     		lsrs	r4, r3, #1
 2732 151c 1D9B     		ldr	r3, [sp, #116]
 2733 151e 339A     		ldr	r2, [sp, #204]
 2734 1520 44EAC374 		orr	r4, r4, r3, lsl #31
 2735 1524 5B08     		lsrs	r3, r3, #1
 2736 1526 43EAC273 		orr	r3, r3, r2, lsl #31
 2737 152a 100A     		lsrs	r0, r2, #8
 2738 152c 1D9A     		ldr	r2, [sp, #116]
 2739 152e 40EA0260 		orr	r0, r0, r2, lsl #24
 2740 1532 110A     		lsrs	r1, r2, #8
 2741 1534 339A     		ldr	r2, [sp, #204]
 2742 1536 41EA0261 		orr	r1, r1, r2, lsl #24
 2743 153a 5940     		eors	r1, r1, r3
 2744 153c 1D9B     		ldr	r3, [sp, #116]
 2745 153e D209     		lsrs	r2, r2, #7
 2746 1540 6040     		eors	r0, r0, r4
 2747 1542 42EA4362 		orr	r2, r2, r3, lsl #25
 2748 1546 4240     		eors	r2, r2, r0
 2749 1548 81EAD311 		eor	r1, r1, r3, lsr #7
 2750 154c 329B     		ldr	r3, [sp, #200]
 2751 154e 2598     		ldr	r0, [sp, #148]
 2752 1550 139C     		ldr	r4, [sp, #76]
 2753 1552 089E     		ldr	r6, [sp, #32]
 2754 1554 1818     		adds	r0, r3, r0
 2755 1556 1C9B     		ldr	r3, [sp, #112]
 2756 1558 43EB0403 		adc	r3, r3, r4
 2757 155c 1018     		adds	r0, r2, r0
 2758 155e 41EB0301 		adc	r1, r1, r3
 2759 1562 1A9B     		ldr	r3, [sp, #104]
 2760 1564 1A9A     		ldr	r2, [sp, #104]
 2761 1566 DD0C     		lsrs	r5, r3, #19
 2762 1568 089B     		ldr	r3, [sp, #32]
 2763 156a 45EA4335 		orr	r5, r5, r3, lsl #13
 2764 156e DB0C     		lsrs	r3, r3, #19
 2765 1570 43EA4233 		orr	r3, r3, r2, lsl #13
 2766 1574 02E0     		b	.L20
 2767              	.L21:
 2768 1576 00BF     		.align	2
 2769              	.L19:
 2770 1578 74F19BC1 		.word	-1046744716
 2771              	.L20:
 2772 157c 089A     		ldr	r2, [sp, #32]
 2773 157e D400     		lsls	r4, r2, #3
 2774 1580 1A9A     		ldr	r2, [sp, #104]
 2775 1582 44EA5274 		orr	r4, r4, r2, lsr #29
 2776 1586 6340     		eors	r3, r3, r4
 2777 1588 D200     		lsls	r2, r2, #3
 2778 158a 1A9C     		ldr	r4, [sp, #104]
 2779 158c 42EA5672 		orr	r2, r2, r6, lsr #29
 2780 1590 6A40     		eors	r2, r2, r5
 2781 1592 A509     		lsrs	r5, r4, #6
 2782 1594 45EA8665 		orr	r5, r5, r6, lsl #26
 2783 1598 6A40     		eors	r2, r2, r5
 2784 159a 1218     		adds	r2, r2, r0
 2785 159c 83EA9613 		eor	r3, r3, r6, lsr #6
 2786 15a0 41EB0303 		adc	r3, r1, r3
 2787 15a4 0A93     		str	r3, [sp, #40]
 2788              	.LVL257:
 355:sha2.c        **** 
 2789              		.loc 1 355 9 is_stmt 1 view .LVU519
 2790 15a6 379B     		ldr	r3, [sp, #220]
 2791              	.LVL258:
 355:sha2.c        **** 
 2792              		.loc 1 355 9 is_stmt 0 view .LVU520
 2793 15a8 1C92     		str	r2, [sp, #112]
 2794              	.LVL259:
 355:sha2.c        **** 
 2795              		.loc 1 355 9 view .LVU521
 2796 15aa 5C08     		lsrs	r4, r3, #1
 2797 15ac 1E9B     		ldr	r3, [sp, #120]
 2798 15ae 379A     		ldr	r2, [sp, #220]
 2799 15b0 099E     		ldr	r6, [sp, #36]
 2800 15b2 44EAC374 		orr	r4, r4, r3, lsl #31
 2801 15b6 5B08     		lsrs	r3, r3, #1
 2802 15b8 43EAC273 		orr	r3, r3, r2, lsl #31
 2803 15bc 100A     		lsrs	r0, r2, #8
 2804 15be 1E9A     		ldr	r2, [sp, #120]
 2805 15c0 40EA0260 		orr	r0, r0, r2, lsl #24
 2806 15c4 110A     		lsrs	r1, r2, #8
 2807 15c6 379A     		ldr	r2, [sp, #220]
 2808 15c8 41EA0261 		orr	r1, r1, r2, lsl #24
 2809 15cc 5940     		eors	r1, r1, r3
 2810 15ce 1E9B     		ldr	r3, [sp, #120]
 2811 15d0 D209     		lsrs	r2, r2, #7
 2812 15d2 6040     		eors	r0, r0, r4
 2813 15d4 42EA4362 		orr	r2, r2, r3, lsl #25
 2814 15d8 4240     		eors	r2, r2, r0
 2815 15da 81EAD311 		eor	r1, r1, r3, lsr #7
 2816 15de 1698     		ldr	r0, [sp, #88]
 2817 15e0 339B     		ldr	r3, [sp, #204]
 2818 15e2 029C     		ldr	r4, [sp, #8]
 2819 15e4 1818     		adds	r0, r3, r0
 2820 15e6 1D9B     		ldr	r3, [sp, #116]
 2821 15e8 43EB0403 		adc	r3, r3, r4
 2822 15ec 1018     		adds	r0, r2, r0
 2823 15ee 41EB0301 		adc	r1, r1, r3
 2824 15f2 1B9B     		ldr	r3, [sp, #108]
 2825 15f4 1B9A     		ldr	r2, [sp, #108]
 2826 15f6 DD0C     		lsrs	r5, r3, #19
 2827 15f8 099B     		ldr	r3, [sp, #36]
 2828 15fa 45EA4335 		orr	r5, r5, r3, lsl #13
 2829 15fe DB0C     		lsrs	r3, r3, #19
 2830 1600 43EA4233 		orr	r3, r3, r2, lsl #13
 2831 1604 099A     		ldr	r2, [sp, #36]
 2832 1606 D400     		lsls	r4, r2, #3
 2833 1608 1B9A     		ldr	r2, [sp, #108]
 2834 160a 44EA5274 		orr	r4, r4, r2, lsr #29
 2835 160e 6340     		eors	r3, r3, r4
 2836 1610 D200     		lsls	r2, r2, #3
 2837 1612 1B9C     		ldr	r4, [sp, #108]
 2838 1614 42EA5672 		orr	r2, r2, r6, lsr #29
 2839 1618 6A40     		eors	r2, r2, r5
 2840 161a A509     		lsrs	r5, r4, #6
 2841 161c 45EA8665 		orr	r5, r5, r6, lsl #26
 2842 1620 6A40     		eors	r2, r2, r5
 2843 1622 1218     		adds	r2, r2, r0
 2844 1624 83EA9613 		eor	r3, r3, r6, lsr #6
 2845 1628 41EB0303 		adc	r3, r1, r3
 2846 162c 0B93     		str	r3, [sp, #44]
 2847              	.LVL260:
 355:sha2.c        **** 
 2848              		.loc 1 355 9 is_stmt 1 view .LVU522
 2849 162e 389B     		ldr	r3, [sp, #224]
 2850              	.LVL261:
 355:sha2.c        **** 
 2851              		.loc 1 355 9 is_stmt 0 view .LVU523
 2852 1630 1D92     		str	r2, [sp, #116]
 2853              	.LVL262:
 355:sha2.c        **** 
 2854              		.loc 1 355 9 view .LVU524
 2855 1632 5C08     		lsrs	r4, r3, #1
 2856 1634 1F9B     		ldr	r3, [sp, #124]
 2857 1636 389A     		ldr	r2, [sp, #224]
 2858 1638 0A9E     		ldr	r6, [sp, #40]
 2859 163a 44EAC374 		orr	r4, r4, r3, lsl #31
 2860 163e 5B08     		lsrs	r3, r3, #1
 2861 1640 43EAC273 		orr	r3, r3, r2, lsl #31
 2862 1644 100A     		lsrs	r0, r2, #8
 2863 1646 1F9A     		ldr	r2, [sp, #124]
 2864 1648 40EA0260 		orr	r0, r0, r2, lsl #24
 2865 164c 110A     		lsrs	r1, r2, #8
 2866 164e 389A     		ldr	r2, [sp, #224]
 2867 1650 41EA0261 		orr	r1, r1, r2, lsl #24
 2868 1654 5940     		eors	r1, r1, r3
 2869 1656 1F9B     		ldr	r3, [sp, #124]
 2870 1658 D209     		lsrs	r2, r2, #7
 2871 165a 6040     		eors	r0, r0, r4
 2872 165c 42EA4362 		orr	r2, r2, r3, lsl #25
 2873 1660 4240     		eors	r2, r2, r0
 2874 1662 81EAD311 		eor	r1, r1, r3, lsr #7
 2875 1666 1798     		ldr	r0, [sp, #92]
 2876 1668 379B     		ldr	r3, [sp, #220]
 2877 166a 039C     		ldr	r4, [sp, #12]
 2878 166c 1818     		adds	r0, r3, r0
 2879 166e 1E9B     		ldr	r3, [sp, #120]
 2880 1670 43EB0403 		adc	r3, r3, r4
 2881 1674 1018     		adds	r0, r2, r0
 2882 1676 41EB0301 		adc	r1, r1, r3
 2883 167a 1C9B     		ldr	r3, [sp, #112]
 2884 167c 1C9A     		ldr	r2, [sp, #112]
 2885 167e DD0C     		lsrs	r5, r3, #19
 2886 1680 0A9B     		ldr	r3, [sp, #40]
 2887 1682 45EA4335 		orr	r5, r5, r3, lsl #13
 2888 1686 DB0C     		lsrs	r3, r3, #19
 2889 1688 43EA4233 		orr	r3, r3, r2, lsl #13
 2890 168c 0A9A     		ldr	r2, [sp, #40]
 2891 168e D400     		lsls	r4, r2, #3
 2892 1690 1C9A     		ldr	r2, [sp, #112]
 2893 1692 44EA5274 		orr	r4, r4, r2, lsr #29
 2894 1696 6340     		eors	r3, r3, r4
 2895 1698 D200     		lsls	r2, r2, #3
 2896 169a 1C9C     		ldr	r4, [sp, #112]
 2897 169c 42EA5672 		orr	r2, r2, r6, lsr #29
 2898 16a0 6A40     		eors	r2, r2, r5
 2899 16a2 A509     		lsrs	r5, r4, #6
 2900 16a4 45EA8665 		orr	r5, r5, r6, lsl #26
 2901 16a8 6A40     		eors	r2, r2, r5
 2902 16aa 1218     		adds	r2, r2, r0
 2903 16ac 83EA9613 		eor	r3, r3, r6, lsr #6
 2904 16b0 41EB0303 		adc	r3, r1, r3
 2905 16b4 0C93     		str	r3, [sp, #48]
 2906              	.LVL263:
 355:sha2.c        **** 
 2907              		.loc 1 355 9 is_stmt 1 view .LVU525
 2908 16b6 399B     		ldr	r3, [sp, #228]
 2909              	.LVL264:
 355:sha2.c        **** 
 2910              		.loc 1 355 9 is_stmt 0 view .LVU526
 2911 16b8 1E92     		str	r2, [sp, #120]
 2912              	.LVL265:
 355:sha2.c        **** 
 2913              		.loc 1 355 9 view .LVU527
 2914 16ba 5A08     		lsrs	r2, r3, #1
 2915 16bc 209B     		ldr	r3, [sp, #128]
 2916 16be 3999     		ldr	r1, [sp, #228]
 2917 16c0 399C     		ldr	r4, [sp, #228]
 2918 16c2 42EAC372 		orr	r2, r2, r3, lsl #31
 2919 16c6 5B08     		lsrs	r3, r3, #1
 2920 16c8 43EAC173 		orr	r3, r3, r1, lsl #31
 2921 16cc 080A     		lsrs	r0, r1, #8
 2922 16ce 2099     		ldr	r1, [sp, #128]
 2923 16d0 40EA0160 		orr	r0, r0, r1, lsl #24
 2924 16d4 090A     		lsrs	r1, r1, #8
 2925 16d6 41EA0461 		orr	r1, r1, r4, lsl #24
 2926 16da 5940     		eors	r1, r1, r3
 2927 16dc 209B     		ldr	r3, [sp, #128]
 2928 16de 5040     		eors	r0, r0, r2
 2929 16e0 E209     		lsrs	r2, r4, #7
 2930 16e2 42EA4362 		orr	r2, r2, r3, lsl #25
 2931 16e6 81EAD311 		eor	r1, r1, r3, lsr #7
 2932 16ea 389B     		ldr	r3, [sp, #224]
 2933 16ec 5040     		eors	r0, r0, r2
 2934 16ee C018     		adds	r0, r0, r3
 2935 16f0 1F9B     		ldr	r3, [sp, #124]
 2936 16f2 1D9A     		ldr	r2, [sp, #116]
 2937 16f4 43EB0101 		adc	r1, r3, r1
 2938 16f8 189B     		ldr	r3, [sp, #96]
 2939 16fa C018     		adds	r0, r0, r3
 2940 16fc 069B     		ldr	r3, [sp, #24]
 2941 16fe 43EB0101 		adc	r1, r3, r1
 2942 1702 1D9B     		ldr	r3, [sp, #116]
 2943 1704 DD0C     		lsrs	r5, r3, #19
 2944 1706 0B9B     		ldr	r3, [sp, #44]
 2945 1708 45EA4335 		orr	r5, r5, r3, lsl #13
 2946 170c DB0C     		lsrs	r3, r3, #19
 2947 170e 43EA4233 		orr	r3, r3, r2, lsl #13
 2948 1712 0B9A     		ldr	r2, [sp, #44]
 2949 1714 D400     		lsls	r4, r2, #3
 2950 1716 1D9A     		ldr	r2, [sp, #116]
 2951 1718 0B9E     		ldr	r6, [sp, #44]
 2952 171a 44EA5274 		orr	r4, r4, r2, lsr #29
 2953 171e 6340     		eors	r3, r3, r4
 2954 1720 D200     		lsls	r2, r2, #3
 2955 1722 1D9C     		ldr	r4, [sp, #116]
 2956 1724 42EA5672 		orr	r2, r2, r6, lsr #29
 2957 1728 6A40     		eors	r2, r2, r5
 2958 172a A509     		lsrs	r5, r4, #6
 2959 172c 45EA8665 		orr	r5, r5, r6, lsl #26
 2960 1730 6A40     		eors	r2, r2, r5
 2961 1732 1218     		adds	r2, r2, r0
 2962 1734 83EA9613 		eor	r3, r3, r6, lsr #6
 2963 1738 41EB0303 		adc	r3, r1, r3
 2964 173c 0D93     		str	r3, [sp, #52]
 2965              	.LVL266:
 355:sha2.c        **** 
 2966              		.loc 1 355 9 is_stmt 1 view .LVU528
 2967 173e 219B     		ldr	r3, [sp, #132]
 2968              	.LVL267:
 355:sha2.c        **** 
 2969              		.loc 1 355 9 is_stmt 0 view .LVU529
 2970 1740 1F92     		str	r2, [sp, #124]
 2971              	.LVL268:
 355:sha2.c        **** 
 2972              		.loc 1 355 9 view .LVU530
 2973 1742 5A08     		lsrs	r2, r3, #1
 2974 1744 0F9B     		ldr	r3, [sp, #60]
 2975 1746 2199     		ldr	r1, [sp, #132]
 2976 1748 219C     		ldr	r4, [sp, #132]
 2977 174a 0C9E     		ldr	r6, [sp, #48]
 2978 174c 42EAC372 		orr	r2, r2, r3, lsl #31
 2979 1750 5B08     		lsrs	r3, r3, #1
 2980 1752 43EAC173 		orr	r3, r3, r1, lsl #31
 2981 1756 080A     		lsrs	r0, r1, #8
 2982 1758 0F99     		ldr	r1, [sp, #60]
 2983 175a 40EA0160 		orr	r0, r0, r1, lsl #24
 2984 175e 090A     		lsrs	r1, r1, #8
 2985 1760 41EA0461 		orr	r1, r1, r4, lsl #24
 2986 1764 5940     		eors	r1, r1, r3
 2987 1766 0F9B     		ldr	r3, [sp, #60]
 2988 1768 5040     		eors	r0, r0, r2
 2989 176a E209     		lsrs	r2, r4, #7
 2990 176c 42EA4362 		orr	r2, r2, r3, lsl #25
 2991 1770 81EAD311 		eor	r1, r1, r3, lsr #7
 2992 1774 399B     		ldr	r3, [sp, #228]
 2993 1776 5040     		eors	r0, r0, r2
 2994 1778 C018     		adds	r0, r0, r3
 2995 177a 209B     		ldr	r3, [sp, #128]
 2996 177c 1E9A     		ldr	r2, [sp, #120]
 2997 177e 43EB0101 		adc	r1, r3, r1
 2998 1782 199B     		ldr	r3, [sp, #100]
 2999 1784 C018     		adds	r0, r0, r3
 3000 1786 079B     		ldr	r3, [sp, #28]
 3001 1788 43EB0101 		adc	r1, r3, r1
 3002 178c 1E9B     		ldr	r3, [sp, #120]
 3003 178e DD0C     		lsrs	r5, r3, #19
 3004 1790 0C9B     		ldr	r3, [sp, #48]
 3005 1792 45EA4335 		orr	r5, r5, r3, lsl #13
 3006 1796 DB0C     		lsrs	r3, r3, #19
 3007 1798 43EA4233 		orr	r3, r3, r2, lsl #13
 3008 179c 0C9A     		ldr	r2, [sp, #48]
 3009 179e D400     		lsls	r4, r2, #3
 3010 17a0 1E9A     		ldr	r2, [sp, #120]
 3011 17a2 44EA5274 		orr	r4, r4, r2, lsr #29
 3012 17a6 6340     		eors	r3, r3, r4
 3013 17a8 D200     		lsls	r2, r2, #3
 3014 17aa 1E9C     		ldr	r4, [sp, #120]
 3015 17ac 42EA5672 		orr	r2, r2, r6, lsr #29
 3016 17b0 6A40     		eors	r2, r2, r5
 3017 17b2 A509     		lsrs	r5, r4, #6
 3018 17b4 45EA8665 		orr	r5, r5, r6, lsl #26
 3019 17b8 6A40     		eors	r2, r2, r5
 3020 17ba 1218     		adds	r2, r2, r0
 3021 17bc 83EA9613 		eor	r3, r3, r6, lsr #6
 3022 17c0 41EB0303 		adc	r3, r1, r3
 3023 17c4 0E93     		str	r3, [sp, #56]
 3024              	.LVL269:
 355:sha2.c        **** 
 3025              		.loc 1 355 9 is_stmt 1 view .LVU531
 3026 17c6 229B     		ldr	r3, [sp, #136]
 3027              	.LVL270:
 355:sha2.c        **** 
 3028              		.loc 1 355 9 is_stmt 0 view .LVU532
 3029 17c8 2092     		str	r2, [sp, #128]
 3030              	.LVL271:
 355:sha2.c        **** 
 3031              		.loc 1 355 9 view .LVU533
 3032 17ca 5A08     		lsrs	r2, r3, #1
 3033 17cc 109B     		ldr	r3, [sp, #64]
 3034 17ce 2299     		ldr	r1, [sp, #136]
 3035 17d0 229C     		ldr	r4, [sp, #136]
 3036 17d2 42EAC372 		orr	r2, r2, r3, lsl #31
 3037 17d6 5B08     		lsrs	r3, r3, #1
 3038 17d8 43EAC173 		orr	r3, r3, r1, lsl #31
 3039 17dc 080A     		lsrs	r0, r1, #8
 3040 17de 1099     		ldr	r1, [sp, #64]
 3041 17e0 40EA0160 		orr	r0, r0, r1, lsl #24
 3042 17e4 090A     		lsrs	r1, r1, #8
 3043 17e6 41EA0461 		orr	r1, r1, r4, lsl #24
 3044 17ea 5940     		eors	r1, r1, r3
 3045 17ec 109B     		ldr	r3, [sp, #64]
 3046 17ee 5040     		eors	r0, r0, r2
 3047 17f0 E209     		lsrs	r2, r4, #7
 3048 17f2 42EA4362 		orr	r2, r2, r3, lsl #25
 3049 17f6 81EAD311 		eor	r1, r1, r3, lsr #7
 3050 17fa 219B     		ldr	r3, [sp, #132]
 3051 17fc 5040     		eors	r0, r0, r2
 3052 17fe C018     		adds	r0, r0, r3
 3053 1800 0F9B     		ldr	r3, [sp, #60]
 3054 1802 43EB0101 		adc	r1, r3, r1
 3055 1806 1A9B     		ldr	r3, [sp, #104]
 3056 1808 1F9A     		ldr	r2, [sp, #124]
 3057 180a 0D9E     		ldr	r6, [sp, #52]
 3058 180c C018     		adds	r0, r0, r3
 3059 180e 089B     		ldr	r3, [sp, #32]
 3060 1810 43EB0101 		adc	r1, r3, r1
 3061 1814 1F9B     		ldr	r3, [sp, #124]
 3062 1816 DD0C     		lsrs	r5, r3, #19
 3063 1818 0D9B     		ldr	r3, [sp, #52]
 3064 181a 45EA4335 		orr	r5, r5, r3, lsl #13
 3065 181e DB0C     		lsrs	r3, r3, #19
 3066 1820 43EA4233 		orr	r3, r3, r2, lsl #13
 3067 1824 0D9A     		ldr	r2, [sp, #52]
 3068 1826 D400     		lsls	r4, r2, #3
 3069 1828 1F9A     		ldr	r2, [sp, #124]
 3070 182a 44EA5274 		orr	r4, r4, r2, lsr #29
 3071 182e 6340     		eors	r3, r3, r4
 3072 1830 D200     		lsls	r2, r2, #3
 3073 1832 1F9C     		ldr	r4, [sp, #124]
 3074 1834 42EA5672 		orr	r2, r2, r6, lsr #29
 3075 1838 6A40     		eors	r2, r2, r5
 3076 183a A509     		lsrs	r5, r4, #6
 3077 183c 45EA8665 		orr	r5, r5, r6, lsl #26
 3078 1840 6A40     		eors	r2, r2, r5
 3079 1842 1218     		adds	r2, r2, r0
 3080 1844 83EA9613 		eor	r3, r3, r6, lsr #6
 3081 1848 41EB0303 		adc	r3, r1, r3
 3082 184c 0F93     		str	r3, [sp, #60]
 3083              	.LVL272:
 355:sha2.c        **** 
 3084              		.loc 1 355 9 is_stmt 1 view .LVU534
 3085 184e 239B     		ldr	r3, [sp, #140]
 3086              	.LVL273:
 355:sha2.c        **** 
 3087              		.loc 1 355 9 is_stmt 0 view .LVU535
 3088 1850 2192     		str	r2, [sp, #132]
 3089              	.LVL274:
 355:sha2.c        **** 
 3090              		.loc 1 355 9 view .LVU536
 3091 1852 5A08     		lsrs	r2, r3, #1
 3092 1854 119B     		ldr	r3, [sp, #68]
 3093 1856 2399     		ldr	r1, [sp, #140]
 3094 1858 239C     		ldr	r4, [sp, #140]
 3095 185a 0E9E     		ldr	r6, [sp, #56]
 3096 185c 42EAC372 		orr	r2, r2, r3, lsl #31
 3097 1860 5B08     		lsrs	r3, r3, #1
 3098 1862 43EAC173 		orr	r3, r3, r1, lsl #31
 3099 1866 080A     		lsrs	r0, r1, #8
 3100 1868 1199     		ldr	r1, [sp, #68]
 3101 186a 40EA0160 		orr	r0, r0, r1, lsl #24
 3102 186e 090A     		lsrs	r1, r1, #8
 3103 1870 41EA0461 		orr	r1, r1, r4, lsl #24
 3104 1874 5940     		eors	r1, r1, r3
 3105 1876 119B     		ldr	r3, [sp, #68]
 3106 1878 5040     		eors	r0, r0, r2
 3107 187a E209     		lsrs	r2, r4, #7
 3108 187c 42EA4362 		orr	r2, r2, r3, lsl #25
 3109 1880 81EAD311 		eor	r1, r1, r3, lsr #7
 3110 1884 229B     		ldr	r3, [sp, #136]
 3111 1886 5040     		eors	r0, r0, r2
 3112 1888 C018     		adds	r0, r0, r3
 3113 188a 109B     		ldr	r3, [sp, #64]
 3114 188c 209A     		ldr	r2, [sp, #128]
 3115 188e 43EB0101 		adc	r1, r3, r1
 3116 1892 1B9B     		ldr	r3, [sp, #108]
 3117 1894 C018     		adds	r0, r0, r3
 3118 1896 099B     		ldr	r3, [sp, #36]
 3119 1898 43EB0101 		adc	r1, r3, r1
 3120 189c 209B     		ldr	r3, [sp, #128]
 3121 189e DD0C     		lsrs	r5, r3, #19
 3122 18a0 0E9B     		ldr	r3, [sp, #56]
 3123 18a2 45EA4335 		orr	r5, r5, r3, lsl #13
 3124 18a6 DB0C     		lsrs	r3, r3, #19
 3125 18a8 43EA4233 		orr	r3, r3, r2, lsl #13
 3126 18ac 0E9A     		ldr	r2, [sp, #56]
 3127 18ae D400     		lsls	r4, r2, #3
 3128 18b0 209A     		ldr	r2, [sp, #128]
 3129 18b2 44EA5274 		orr	r4, r4, r2, lsr #29
 3130 18b6 6340     		eors	r3, r3, r4
 3131 18b8 D200     		lsls	r2, r2, #3
 3132 18ba 209C     		ldr	r4, [sp, #128]
 3133 18bc 42EA5672 		orr	r2, r2, r6, lsr #29
 3134 18c0 6A40     		eors	r2, r2, r5
 3135 18c2 A509     		lsrs	r5, r4, #6
 3136 18c4 45EA8665 		orr	r5, r5, r6, lsl #26
 3137 18c8 6A40     		eors	r2, r2, r5
 3138 18ca 1218     		adds	r2, r2, r0
 3139 18cc 83EA9613 		eor	r3, r3, r6, lsr #6
 3140 18d0 41EB0303 		adc	r3, r1, r3
 3141 18d4 1093     		str	r3, [sp, #64]
 3142              	.LVL275:
 355:sha2.c        **** 
 3143              		.loc 1 355 9 is_stmt 1 view .LVU537
 3144 18d6 249B     		ldr	r3, [sp, #144]
 3145              	.LVL276:
 355:sha2.c        **** 
 3146              		.loc 1 355 9 is_stmt 0 view .LVU538
 3147 18d8 2292     		str	r2, [sp, #136]
 3148              	.LVL277:
 355:sha2.c        **** 
 3149              		.loc 1 355 9 view .LVU539
 3150 18da 5A08     		lsrs	r2, r3, #1
 3151 18dc 129B     		ldr	r3, [sp, #72]
 3152 18de 2499     		ldr	r1, [sp, #144]
 3153 18e0 249C     		ldr	r4, [sp, #144]
 3154 18e2 0F9E     		ldr	r6, [sp, #60]
 3155 18e4 42EAC372 		orr	r2, r2, r3, lsl #31
 3156 18e8 5B08     		lsrs	r3, r3, #1
 3157 18ea 43EAC173 		orr	r3, r3, r1, lsl #31
 3158 18ee 080A     		lsrs	r0, r1, #8
 3159 18f0 1299     		ldr	r1, [sp, #72]
 3160 18f2 40EA0160 		orr	r0, r0, r1, lsl #24
 3161 18f6 090A     		lsrs	r1, r1, #8
 3162 18f8 41EA0461 		orr	r1, r1, r4, lsl #24
 3163 18fc 5940     		eors	r1, r1, r3
 3164 18fe 129B     		ldr	r3, [sp, #72]
 3165 1900 5040     		eors	r0, r0, r2
 3166 1902 E209     		lsrs	r2, r4, #7
 3167 1904 42EA4362 		orr	r2, r2, r3, lsl #25
 3168 1908 81EAD311 		eor	r1, r1, r3, lsr #7
 3169 190c 239B     		ldr	r3, [sp, #140]
 3170 190e 5040     		eors	r0, r0, r2
 3171 1910 C018     		adds	r0, r0, r3
 3172 1912 119B     		ldr	r3, [sp, #68]
 3173 1914 219A     		ldr	r2, [sp, #132]
 3174 1916 43EB0101 		adc	r1, r3, r1
 3175 191a 1C9B     		ldr	r3, [sp, #112]
 3176 191c C018     		adds	r0, r0, r3
 3177 191e 0A9B     		ldr	r3, [sp, #40]
 3178 1920 43EB0101 		adc	r1, r3, r1
 3179 1924 219B     		ldr	r3, [sp, #132]
 3180 1926 DD0C     		lsrs	r5, r3, #19
 3181 1928 0F9B     		ldr	r3, [sp, #60]
 3182 192a 45EA4335 		orr	r5, r5, r3, lsl #13
 3183 192e DB0C     		lsrs	r3, r3, #19
 3184 1930 43EA4233 		orr	r3, r3, r2, lsl #13
 3185 1934 0F9A     		ldr	r2, [sp, #60]
 3186 1936 D400     		lsls	r4, r2, #3
 3187 1938 219A     		ldr	r2, [sp, #132]
 3188 193a 44EA5274 		orr	r4, r4, r2, lsr #29
 3189 193e 6340     		eors	r3, r3, r4
 3190 1940 D200     		lsls	r2, r2, #3
 3191 1942 219C     		ldr	r4, [sp, #132]
 3192 1944 42EA5672 		orr	r2, r2, r6, lsr #29
 3193 1948 6A40     		eors	r2, r2, r5
 3194 194a A509     		lsrs	r5, r4, #6
 3195 194c 45EA8665 		orr	r5, r5, r6, lsl #26
 3196 1950 6A40     		eors	r2, r2, r5
 3197 1952 1218     		adds	r2, r2, r0
 3198 1954 83EA9613 		eor	r3, r3, r6, lsr #6
 3199 1958 41EB0303 		adc	r3, r1, r3
 3200 195c 1193     		str	r3, [sp, #68]
 3201              	.LVL278:
 355:sha2.c        **** 
 3202              		.loc 1 355 9 is_stmt 1 view .LVU540
 3203 195e 259B     		ldr	r3, [sp, #148]
 3204              	.LVL279:
 355:sha2.c        **** 
 3205              		.loc 1 355 9 is_stmt 0 view .LVU541
 3206 1960 2392     		str	r2, [sp, #140]
 3207              	.LVL280:
 355:sha2.c        **** 
 3208              		.loc 1 355 9 view .LVU542
 3209 1962 5A08     		lsrs	r2, r3, #1
 3210 1964 139B     		ldr	r3, [sp, #76]
 3211 1966 2599     		ldr	r1, [sp, #148]
 3212 1968 259C     		ldr	r4, [sp, #148]
 3213 196a 42EAC372 		orr	r2, r2, r3, lsl #31
 3214 196e 5B08     		lsrs	r3, r3, #1
 3215 1970 43EAC173 		orr	r3, r3, r1, lsl #31
 3216 1974 080A     		lsrs	r0, r1, #8
 3217 1976 1399     		ldr	r1, [sp, #76]
 3218 1978 40EA0160 		orr	r0, r0, r1, lsl #24
 3219 197c 090A     		lsrs	r1, r1, #8
 3220 197e 41EA0461 		orr	r1, r1, r4, lsl #24
 3221 1982 5940     		eors	r1, r1, r3
 3222 1984 139B     		ldr	r3, [sp, #76]
 3223 1986 5040     		eors	r0, r0, r2
 3224 1988 E209     		lsrs	r2, r4, #7
 3225 198a 42EA4362 		orr	r2, r2, r3, lsl #25
 3226 198e 81EAD311 		eor	r1, r1, r3, lsr #7
 3227 1992 249B     		ldr	r3, [sp, #144]
 3228 1994 5040     		eors	r0, r0, r2
 3229 1996 C018     		adds	r0, r0, r3
 3230 1998 129B     		ldr	r3, [sp, #72]
 3231 199a 229A     		ldr	r2, [sp, #136]
 3232 199c 43EB0101 		adc	r1, r3, r1
 3233 19a0 1D9B     		ldr	r3, [sp, #116]
 3234 19a2 C018     		adds	r0, r0, r3
 3235 19a4 0B9B     		ldr	r3, [sp, #44]
 3236 19a6 43EB0101 		adc	r1, r3, r1
 3237 19aa 229B     		ldr	r3, [sp, #136]
 3238 19ac DD0C     		lsrs	r5, r3, #19
 3239 19ae 109B     		ldr	r3, [sp, #64]
 3240 19b0 45EA4335 		orr	r5, r5, r3, lsl #13
 3241 19b4 DB0C     		lsrs	r3, r3, #19
 3242 19b6 43EA4233 		orr	r3, r3, r2, lsl #13
 3243 19ba 109A     		ldr	r2, [sp, #64]
 3244 19bc D400     		lsls	r4, r2, #3
 3245 19be 229A     		ldr	r2, [sp, #136]
 3246 19c0 109E     		ldr	r6, [sp, #64]
 3247 19c2 44EA5274 		orr	r4, r4, r2, lsr #29
 3248 19c6 6340     		eors	r3, r3, r4
 3249 19c8 D200     		lsls	r2, r2, #3
 3250 19ca 229C     		ldr	r4, [sp, #136]
 3251 19cc 42EA5672 		orr	r2, r2, r6, lsr #29
 3252 19d0 6A40     		eors	r2, r2, r5
 3253 19d2 A509     		lsrs	r5, r4, #6
 3254 19d4 45EA8665 		orr	r5, r5, r6, lsl #26
 3255 19d8 6A40     		eors	r2, r2, r5
 3256 19da 1218     		adds	r2, r2, r0
 3257 19dc 83EA9613 		eor	r3, r3, r6, lsr #6
 3258 19e0 41EB0303 		adc	r3, r1, r3
 3259 19e4 1293     		str	r3, [sp, #72]
 3260              	.LVL281:
 355:sha2.c        **** 
 3261              		.loc 1 355 9 is_stmt 1 view .LVU543
 3262 19e6 169B     		ldr	r3, [sp, #88]
 3263              	.LVL282:
 355:sha2.c        **** 
 3264              		.loc 1 355 9 is_stmt 0 view .LVU544
 3265 19e8 2492     		str	r2, [sp, #144]
 3266              	.LVL283:
 355:sha2.c        **** 
 3267              		.loc 1 355 9 view .LVU545
 3268 19ea 5A08     		lsrs	r2, r3, #1
 3269 19ec 029B     		ldr	r3, [sp, #8]
 3270 19ee 1699     		ldr	r1, [sp, #88]
 3271 19f0 169C     		ldr	r4, [sp, #88]
 3272 19f2 119E     		ldr	r6, [sp, #68]
 3273 19f4 42EAC372 		orr	r2, r2, r3, lsl #31
 3274 19f8 5B08     		lsrs	r3, r3, #1
 3275 19fa 43EAC173 		orr	r3, r3, r1, lsl #31
 3276 19fe 080A     		lsrs	r0, r1, #8
 3277 1a00 0299     		ldr	r1, [sp, #8]
 3278 1a02 40EA0160 		orr	r0, r0, r1, lsl #24
 3279 1a06 090A     		lsrs	r1, r1, #8
 3280 1a08 41EA0461 		orr	r1, r1, r4, lsl #24
 3281 1a0c 5940     		eors	r1, r1, r3
 3282 1a0e 029B     		ldr	r3, [sp, #8]
 3283 1a10 5040     		eors	r0, r0, r2
 3284 1a12 E209     		lsrs	r2, r4, #7
 3285 1a14 42EA4362 		orr	r2, r2, r3, lsl #25
 3286 1a18 81EAD311 		eor	r1, r1, r3, lsr #7
 3287 1a1c 259B     		ldr	r3, [sp, #148]
 3288 1a1e 5040     		eors	r0, r0, r2
 3289 1a20 C018     		adds	r0, r0, r3
 3290 1a22 139B     		ldr	r3, [sp, #76]
 3291 1a24 239A     		ldr	r2, [sp, #140]
 3292 1a26 43EB0101 		adc	r1, r3, r1
 3293 1a2a 1E9B     		ldr	r3, [sp, #120]
 3294 1a2c C018     		adds	r0, r0, r3
 3295 1a2e 0C9B     		ldr	r3, [sp, #48]
 3296 1a30 43EB0101 		adc	r1, r3, r1
 3297 1a34 239B     		ldr	r3, [sp, #140]
 3298 1a36 DD0C     		lsrs	r5, r3, #19
 3299 1a38 119B     		ldr	r3, [sp, #68]
 3300 1a3a 45EA4335 		orr	r5, r5, r3, lsl #13
 3301 1a3e DB0C     		lsrs	r3, r3, #19
 3302 1a40 43EA4233 		orr	r3, r3, r2, lsl #13
 3303 1a44 119A     		ldr	r2, [sp, #68]
 3304 1a46 D400     		lsls	r4, r2, #3
 3305 1a48 239A     		ldr	r2, [sp, #140]
 3306 1a4a 44EA5274 		orr	r4, r4, r2, lsr #29
 3307 1a4e 6340     		eors	r3, r3, r4
 3308 1a50 D200     		lsls	r2, r2, #3
 3309 1a52 239C     		ldr	r4, [sp, #140]
 3310 1a54 42EA5672 		orr	r2, r2, r6, lsr #29
 3311 1a58 6A40     		eors	r2, r2, r5
 3312 1a5a A509     		lsrs	r5, r4, #6
 3313 1a5c 45EA8665 		orr	r5, r5, r6, lsl #26
 3314 1a60 6A40     		eors	r2, r2, r5
 3315 1a62 1218     		adds	r2, r2, r0
 3316 1a64 83EA9613 		eor	r3, r3, r6, lsr #6
 3317 1a68 41EB0303 		adc	r3, r1, r3
 3318 1a6c 1393     		str	r3, [sp, #76]
 3319              	.LVL284:
 355:sha2.c        **** 
 3320              		.loc 1 355 9 is_stmt 1 view .LVU546
 3321 1a6e 179B     		ldr	r3, [sp, #92]
 3322              	.LVL285:
 355:sha2.c        **** 
 3323              		.loc 1 355 9 is_stmt 0 view .LVU547
 3324 1a70 2592     		str	r2, [sp, #148]
 3325              	.LVL286:
 355:sha2.c        **** 
 3326              		.loc 1 355 9 view .LVU548
 3327 1a72 5A08     		lsrs	r2, r3, #1
 3328 1a74 039B     		ldr	r3, [sp, #12]
 3329 1a76 1799     		ldr	r1, [sp, #92]
 3330 1a78 179C     		ldr	r4, [sp, #92]
 3331 1a7a 42EAC372 		orr	r2, r2, r3, lsl #31
 3332 1a7e 5B08     		lsrs	r3, r3, #1
 3333 1a80 43EAC173 		orr	r3, r3, r1, lsl #31
 3334 1a84 080A     		lsrs	r0, r1, #8
 3335 1a86 0399     		ldr	r1, [sp, #12]
 3336 1a88 40EA0160 		orr	r0, r0, r1, lsl #24
 3337 1a8c 090A     		lsrs	r1, r1, #8
 3338 1a8e 41EA0461 		orr	r1, r1, r4, lsl #24
 3339 1a92 5940     		eors	r1, r1, r3
 3340 1a94 039B     		ldr	r3, [sp, #12]
 3341 1a96 5040     		eors	r0, r0, r2
 3342 1a98 E209     		lsrs	r2, r4, #7
 3343 1a9a 42EA4362 		orr	r2, r2, r3, lsl #25
 3344 1a9e 81EAD311 		eor	r1, r1, r3, lsr #7
 3345 1aa2 169B     		ldr	r3, [sp, #88]
 3346 1aa4 5040     		eors	r0, r0, r2
 3347 1aa6 C018     		adds	r0, r0, r3
 3348 1aa8 029B     		ldr	r3, [sp, #8]
 3349 1aaa 43EB0101 		adc	r1, r3, r1
 3350 1aae 1F9B     		ldr	r3, [sp, #124]
 3351 1ab0 C018     		adds	r0, r0, r3
 3352 1ab2 0D9B     		ldr	r3, [sp, #52]
 3353 1ab4 249A     		ldr	r2, [sp, #144]
 3354 1ab6 129E     		ldr	r6, [sp, #72]
 3355 1ab8 43EB0101 		adc	r1, r3, r1
 3356 1abc 249B     		ldr	r3, [sp, #144]
 3357 1abe DD0C     		lsrs	r5, r3, #19
 3358 1ac0 129B     		ldr	r3, [sp, #72]
 3359 1ac2 45EA4335 		orr	r5, r5, r3, lsl #13
 3360 1ac6 DB0C     		lsrs	r3, r3, #19
 3361 1ac8 43EA4233 		orr	r3, r3, r2, lsl #13
 3362 1acc 129A     		ldr	r2, [sp, #72]
 3363 1ace D400     		lsls	r4, r2, #3
 3364 1ad0 249A     		ldr	r2, [sp, #144]
 3365 1ad2 44EA5274 		orr	r4, r4, r2, lsr #29
 3366 1ad6 6340     		eors	r3, r3, r4
 3367 1ad8 D200     		lsls	r2, r2, #3
 3368 1ada 249C     		ldr	r4, [sp, #144]
 3369 1adc 42EA5672 		orr	r2, r2, r6, lsr #29
 3370 1ae0 6A40     		eors	r2, r2, r5
 3371 1ae2 A509     		lsrs	r5, r4, #6
 3372 1ae4 45EA8665 		orr	r5, r5, r6, lsl #26
 3373 1ae8 6A40     		eors	r2, r2, r5
 3374 1aea 1218     		adds	r2, r2, r0
 3375 1aec 83EA9613 		eor	r3, r3, r6, lsr #6
 3376 1af0 41EB0303 		adc	r3, r1, r3
 3377 1af4 0293     		str	r3, [sp, #8]
 3378              	.LVL287:
 355:sha2.c        **** 
 3379              		.loc 1 355 9 is_stmt 1 view .LVU549
 3380 1af6 189B     		ldr	r3, [sp, #96]
 3381              	.LVL288:
 355:sha2.c        **** 
 3382              		.loc 1 355 9 is_stmt 0 view .LVU550
 3383 1af8 1692     		str	r2, [sp, #88]
 3384              	.LVL289:
 355:sha2.c        **** 
 3385              		.loc 1 355 9 view .LVU551
 3386 1afa 5A08     		lsrs	r2, r3, #1
 3387 1afc 069B     		ldr	r3, [sp, #24]
 3388 1afe 1899     		ldr	r1, [sp, #96]
 3389 1b00 189C     		ldr	r4, [sp, #96]
 3390 1b02 139E     		ldr	r6, [sp, #76]
 3391 1b04 42EAC372 		orr	r2, r2, r3, lsl #31
 3392 1b08 5B08     		lsrs	r3, r3, #1
 3393 1b0a 43EAC173 		orr	r3, r3, r1, lsl #31
 3394 1b0e 080A     		lsrs	r0, r1, #8
 3395 1b10 0699     		ldr	r1, [sp, #24]
 3396 1b12 40EA0160 		orr	r0, r0, r1, lsl #24
 3397 1b16 090A     		lsrs	r1, r1, #8
 3398 1b18 41EA0461 		orr	r1, r1, r4, lsl #24
 3399 1b1c 5940     		eors	r1, r1, r3
 3400 1b1e 069B     		ldr	r3, [sp, #24]
 3401 1b20 5040     		eors	r0, r0, r2
 3402 1b22 E209     		lsrs	r2, r4, #7
 3403 1b24 42EA4362 		orr	r2, r2, r3, lsl #25
 3404 1b28 81EAD311 		eor	r1, r1, r3, lsr #7
 3405 1b2c 179B     		ldr	r3, [sp, #92]
 3406 1b2e 5040     		eors	r0, r0, r2
 3407 1b30 C018     		adds	r0, r0, r3
 3408 1b32 039B     		ldr	r3, [sp, #12]
 3409 1b34 259A     		ldr	r2, [sp, #148]
 3410 1b36 43EB0101 		adc	r1, r3, r1
 3411 1b3a 209B     		ldr	r3, [sp, #128]
 3412 1b3c C018     		adds	r0, r0, r3
 3413 1b3e 0E9B     		ldr	r3, [sp, #56]
 3414 1b40 43EB0101 		adc	r1, r3, r1
 3415 1b44 259B     		ldr	r3, [sp, #148]
 3416 1b46 DD0C     		lsrs	r5, r3, #19
 3417 1b48 139B     		ldr	r3, [sp, #76]
 3418 1b4a 45EA4335 		orr	r5, r5, r3, lsl #13
 3419 1b4e DB0C     		lsrs	r3, r3, #19
 3420 1b50 43EA4233 		orr	r3, r3, r2, lsl #13
 3421 1b54 139A     		ldr	r2, [sp, #76]
 3422 1b56 D400     		lsls	r4, r2, #3
 3423 1b58 259A     		ldr	r2, [sp, #148]
 3424 1b5a 44EA5274 		orr	r4, r4, r2, lsr #29
 3425 1b5e 6340     		eors	r3, r3, r4
 3426 1b60 D200     		lsls	r2, r2, #3
 3427 1b62 259C     		ldr	r4, [sp, #148]
 3428 1b64 42EA5672 		orr	r2, r2, r6, lsr #29
 3429 1b68 6A40     		eors	r2, r2, r5
 3430 1b6a A509     		lsrs	r5, r4, #6
 3431 1b6c 45EA8665 		orr	r5, r5, r6, lsl #26
 3432 1b70 6A40     		eors	r2, r2, r5
 3433 1b72 1218     		adds	r2, r2, r0
 3434 1b74 83EA9613 		eor	r3, r3, r6, lsr #6
 3435 1b78 41EB0303 		adc	r3, r1, r3
 3436 1b7c 0393     		str	r3, [sp, #12]
 3437              	.LVL290:
 357:sha2.c        ****         F_64(w1, 0xefbe4786384f25e3ULL)
 3438              		.loc 1 357 9 is_stmt 1 view .LVU552
 3439 1b7e 2D9B     		ldr	r3, [sp, #180]
 3440              	.LVL291:
 355:sha2.c        **** 
 3441              		.loc 1 355 9 is_stmt 0 view .LVU553
 3442 1b80 1792     		str	r2, [sp, #92]
 3443              	.LVL292:
 357:sha2.c        ****         F_64(w1, 0xefbe4786384f25e3ULL)
 3444              		.loc 1 357 9 view .LVU554
 3445 1b82 2E9A     		ldr	r2, [sp, #184]
 3446 1b84 9B0B     		lsrs	r3, r3, #14
 3447 1b86 43EA8243 		orr	r3, r3, r2, lsl #18
 3448 1b8a 950B     		lsrs	r5, r2, #14
 3449 1b8c 2D9A     		ldr	r2, [sp, #180]
 3450 1b8e 45EA8245 		orr	r5, r5, r2, lsl #18
 3451 1b92 900C     		lsrs	r0, r2, #18
 3452 1b94 2E9A     		ldr	r2, [sp, #184]
 3453 1b96 40EA8231 		orr	r1, r0, r2, lsl #14
 3454 1b9a 960C     		lsrs	r6, r2, #18
 3455 1b9c 2D9A     		ldr	r2, [sp, #180]
 3456 1b9e 83EA0100 		eor	r0, r3, r1
 3457 1ba2 2E9B     		ldr	r3, [sp, #184]
 3458 1ba4 46EA8232 		orr	r2, r6, r2, lsl #14
 3459 1ba8 85EA0206 		eor	r6, r5, r2
 3460 1bac DD05     		lsls	r5, r3, #23
 3461 1bae 2D9B     		ldr	r3, [sp, #180]
 3462 1bb0 2E9A     		ldr	r2, [sp, #184]
 3463 1bb2 45EA5325 		orr	r5, r5, r3, lsr #9
 3464 1bb6 DB05     		lsls	r3, r3, #23
 3465 1bb8 43EA5223 		orr	r3, r3, r2, lsr #9
 3466 1bbc 4340     		eors	r3, r3, r0
 3467 1bbe 189A     		ldr	r2, [sp, #96]
 3468 1bc0 D548     		ldr	r0, .L22
 3469 1bc2 7540     		eors	r5, r5, r6
 3470 1bc4 1018     		adds	r0, r2, r0
 3471 1bc6 D54E     		ldr	r6, .L22+4
 3472 1bc8 069A     		ldr	r2, [sp, #24]
 3473 1bca 46EB0206 		adc	r6, r6, r2
 3474 1bce 289A     		ldr	r2, [sp, #160]
 3475 1bd0 8018     		adds	r0, r0, r2
 3476 1bd2 299A     		ldr	r2, [sp, #164]
 3477 1bd4 42EB0606 		adc	r6, r2, r6
 3478 1bd8 2D9A     		ldr	r2, [sp, #180]
 3479 1bda 1818     		adds	r0, r3, r0
 3480 1bdc 2A9B     		ldr	r3, [sp, #168]
 3481 1bde 23EA0204 		bic	r4, r3, r2
 3482 1be2 2B9B     		ldr	r3, [sp, #172]
 3483 1be4 2E9A     		ldr	r2, [sp, #184]
 3484 1be6 23EA0202 		bic	r2, r3, r2
 3485 1bea DDE92C31 		ldrd	r3, r1, [sp, #176]
 3486 1bee 03EA0103 		and	r3, r3, r1
 3487 1bf2 2E99     		ldr	r1, [sp, #184]
 3488 1bf4 83EA0403 		eor	r3, r3, r4
 3489 1bf8 07EA0101 		and	r1, r7, r1
 3490 1bfc 45EB0606 		adc	r6, r5, r6
 3491 1c00 4A40     		eors	r2, r2, r1
 3492 1c02 C018     		adds	r0, r0, r3
 3493 1c04 46EB0206 		adc	r6, r6, r2
 3494              	.LVL293:
 357:sha2.c        ****         F_64(w1, 0xefbe4786384f25e3ULL)
 3495              		.loc 1 357 9 is_stmt 1 view .LVU555
 3496 1c08 4FEA1874 		lsr	r4, r8, #28
 3497 1c0c 4FEA8872 		lsl	r2, r8, #30
 3498 1c10 42EA9902 		orr	r2, r2, r9, lsr #2
 3499 1c14 44EA0914 		orr	r4, r4, r9, lsl #4
 3500 1c18 4FEA1973 		lsr	r3, r9, #28
 3501 1c1c 4FEA8971 		lsl	r1, r9, #30
 3502 1c20 5440     		eors	r4, r4, r2
 3503 1c22 4FEA4862 		lsl	r2, r8, #25
 3504 1c26 41EA9801 		orr	r1, r1, r8, lsr #2
 3505 1c2a 42EAD912 		orr	r2, r2, r9, lsr #7
 3506 1c2e 43EA0813 		orr	r3, r3, r8, lsl #4
 3507 1c32 4B40     		eors	r3, r3, r1
 3508 1c34 5440     		eors	r4, r4, r2
 3509 1c36 4FEA4961 		lsl	r1, r9, #25
 3510 1c3a 279A     		ldr	r2, [sp, #156]
 3511 1c3c 41EAD811 		orr	r1, r1, r8, lsr #7
 3512 1c40 4B40     		eors	r3, r3, r1
 3513 1c42 82EA0A05 		eor	r5, r2, r10
 3514 1c46 2799     		ldr	r1, [sp, #156]
 3515 1c48 2893     		str	r3, [sp, #160]
 3516              	.LVL294:
 357:sha2.c        ****         F_64(w1, 0xefbe4786384f25e3ULL)
 3517              		.loc 1 357 9 is_stmt 0 view .LVU556
 3518 1c4a 8EEA0C02 		eor	r2, lr, ip
 3519 1c4e 0EEA0C03 		and	r3, lr, ip
 3520 1c52 02EA0802 		and	r2, r2, r8
 3521 1c56 05EA0905 		and	r5, r5, r9
 3522 1c5a 5A40     		eors	r2, r2, r3
 3523 1c5c 01EA0A01 		and	r1, r1, r10
 3524 1c60 289B     		ldr	r3, [sp, #160]
 3525 1c62 6940     		eors	r1, r1, r5
 3526 1c64 5B18     		adds	r3, r3, r1
 3527 1c66 44EB0204 		adc	r4, r4, r2
 3528              	.LVL295:
 357:sha2.c        ****         F_64(w1, 0xefbe4786384f25e3ULL)
 3529              		.loc 1 357 9 is_stmt 1 view .LVU557
 357:sha2.c        ****         F_64(w1, 0xefbe4786384f25e3ULL)
 3530              		.loc 1 357 9 view .LVU558
 357:sha2.c        ****         F_64(w1, 0xefbe4786384f25e3ULL)
 3531              		.loc 1 357 9 view .LVU559
 357:sha2.c        ****         F_64(w1, 0xefbe4786384f25e3ULL)
 3532              		.loc 1 357 9 view .LVU560
 3533 1c6a 1BEB0002 		adds	r2, fp, r0
 3534 1c6e 2F92     		str	r2, [sp, #188]
 3535 1c70 269A     		ldr	r2, [sp, #152]
 358:sha2.c        ****         F_64(w2, 0x0fc19dc68b8cd5b5ULL)
 3536              		.loc 1 358 9 is_stmt 0 view .LVU561
 3537 1c72 2F99     		ldr	r1, [sp, #188]
 357:sha2.c        ****         F_64(w1, 0xefbe4786384f25e3ULL)
 3538              		.loc 1 357 9 view .LVU562
 3539 1c74 42EB0602 		adc	r2, r2, r6
 3540 1c78 C318     		adds	r3, r0, r3
 3541              	.LVL296:
 357:sha2.c        ****         F_64(w1, 0xefbe4786384f25e3ULL)
 3542              		.loc 1 357 9 view .LVU563
 3543 1c7a 2693     		str	r3, [sp, #152]
 3544              	.LVL297:
 357:sha2.c        ****         F_64(w1, 0xefbe4786384f25e3ULL)
 3545              		.loc 1 357 9 view .LVU564
 3546 1c7c 46EB0403 		adc	r3, r6, r4
 3547 1c80 2893     		str	r3, [sp, #160]
 3548              	.LVL298:
 358:sha2.c        ****         F_64(w2, 0x0fc19dc68b8cd5b5ULL)
 3549              		.loc 1 358 9 view .LVU565
 3550 1c82 2F9B     		ldr	r3, [sp, #188]
 357:sha2.c        ****         F_64(w1, 0xefbe4786384f25e3ULL)
 3551              		.loc 1 357 9 view .LVU566
 3552 1c84 3092     		str	r2, [sp, #192]
 3553              	.LVL299:
 357:sha2.c        ****         F_64(w1, 0xefbe4786384f25e3ULL)
 3554              		.loc 1 357 9 is_stmt 1 view .LVU567
 357:sha2.c        ****         F_64(w1, 0xefbe4786384f25e3ULL)
 3555              		.loc 1 357 9 view .LVU568
 357:sha2.c        ****         F_64(w1, 0xefbe4786384f25e3ULL)
 3556              		.loc 1 357 9 view .LVU569
 357:sha2.c        ****         F_64(w1, 0xefbe4786384f25e3ULL)
 3557              		.loc 1 357 9 view .LVU570
 358:sha2.c        ****         F_64(w2, 0x0fc19dc68b8cd5b5ULL)
 3558              		.loc 1 358 9 view .LVU571
 3559 1c86 9E0B     		lsrs	r6, r3, #14
 3560              	.LVL300:
 358:sha2.c        ****         F_64(w2, 0x0fc19dc68b8cd5b5ULL)
 3561              		.loc 1 358 9 is_stmt 0 view .LVU572
 3562 1c88 2F9B     		ldr	r3, [sp, #188]
 3563 1c8a A548     		ldr	r0, .L22+8
 358:sha2.c        ****         F_64(w2, 0x0fc19dc68b8cd5b5ULL)
 3564              		.loc 1 358 9 view .LVU573
 3565 1c8c 940B     		lsrs	r4, r2, #14
 3566              	.LVL301:
 358:sha2.c        ****         F_64(w2, 0x0fc19dc68b8cd5b5ULL)
 3567              		.loc 1 358 9 view .LVU574
 3568 1c8e 46EA8246 		orr	r6, r6, r2, lsl #18
 3569 1c92 44EA8344 		orr	r4, r4, r3, lsl #18
 3570 1c96 9A0C     		lsrs	r2, r3, #18
 3571              	.LVL302:
 358:sha2.c        ****         F_64(w2, 0x0fc19dc68b8cd5b5ULL)
 3572              		.loc 1 358 9 view .LVU575
 3573 1c98 309B     		ldr	r3, [sp, #192]
 3574 1c9a 42EA8332 		orr	r2, r2, r3, lsl #14
 3575 1c9e 9B0C     		lsrs	r3, r3, #18
 3576 1ca0 43EA8133 		orr	r3, r3, r1, lsl #14
 3577 1ca4 5C40     		eors	r4, r4, r3
 3578 1ca6 309B     		ldr	r3, [sp, #192]
 3579 1ca8 DB05     		lsls	r3, r3, #23
 3580 1caa 43EA5123 		orr	r3, r3, r1, lsr #9
 3581 1cae 5640     		eors	r6, r6, r2
 3582 1cb0 CA05     		lsls	r2, r1, #23
 3583 1cb2 3099     		ldr	r1, [sp, #192]
 3584              	.LVL303:
 358:sha2.c        ****         F_64(w2, 0x0fc19dc68b8cd5b5ULL)
 3585              		.loc 1 358 9 view .LVU576
 3586 1cb4 42EA5122 		orr	r2, r2, r1, lsr #9
 3587 1cb8 5640     		eors	r6, r6, r2
 3588 1cba 5C40     		eors	r4, r4, r3
 3589 1cbc 994A     		ldr	r2, .L22+12
 3590 1cbe 199B     		ldr	r3, [sp, #100]
 3591 1cc0 9A18     		adds	r2, r3, r2
 3592 1cc2 079B     		ldr	r3, [sp, #28]
 3593 1cc4 309D     		ldr	r5, [sp, #192]
 3594              	.LVL304:
 358:sha2.c        ****         F_64(w2, 0x0fc19dc68b8cd5b5ULL)
 3595              		.loc 1 358 9 view .LVU577
 3596 1cc6 40EB0300 		adc	r0, r0, r3
 3597 1cca 2A9B     		ldr	r3, [sp, #168]
 3598 1ccc D218     		adds	r2, r2, r3
 3599 1cce 2B9B     		ldr	r3, [sp, #172]
 3600 1cd0 43EB0000 		adc	r0, r3, r0
 3601 1cd4 2C9B     		ldr	r3, [sp, #176]
 3602 1cd6 B618     		adds	r6, r6, r2
 3603 1cd8 2F9A     		ldr	r2, [sp, #188]
 3604 1cda 44EB0004 		adc	r4, r4, r0
 3605 1cde 23EA0200 		bic	r0, r3, r2
 3606 1ce2 27EA0102 		bic	r2, r7, r1
 3607 1ce6 2D9B     		ldr	r3, [sp, #180]
 3608 1ce8 2F99     		ldr	r1, [sp, #188]
 3609 1cea 0B40     		ands	r3, r3, r1
 3610 1cec 2E99     		ldr	r1, [sp, #184]
 3611 1cee 4340     		eors	r3, r3, r0
 3612 1cf0 2940     		ands	r1, r1, r5
 3613 1cf2 F618     		adds	r6, r6, r3
 3614 1cf4 82EA0102 		eor	r2, r2, r1
 3615 1cf8 269B     		ldr	r3, [sp, #152]
 3616 1cfa 2699     		ldr	r1, [sp, #152]
 3617 1cfc 289D     		ldr	r5, [sp, #160]
 3618 1cfe 44EB0204 		adc	r4, r4, r2
 3619              	.LVL305:
 358:sha2.c        ****         F_64(w2, 0x0fc19dc68b8cd5b5ULL)
 3620              		.loc 1 358 9 is_stmt 1 view .LVU578
 3621 1d02 289A     		ldr	r2, [sp, #160]
 3622 1d04 1B0F     		lsrs	r3, r3, #28
 3623 1d06 43EA0213 		orr	r3, r3, r2, lsl #4
 3624 1d0a 100F     		lsrs	r0, r2, #28
 3625 1d0c 269A     		ldr	r2, [sp, #152]
 3626 1d0e 40EA0210 		orr	r0, r0, r2, lsl #4
 3627 1d12 289A     		ldr	r2, [sp, #160]
 3628 1d14 9207     		lsls	r2, r2, #30
 3629 1d16 42EA9102 		orr	r2, r2, r1, lsr #2
 3630 1d1a 8907     		lsls	r1, r1, #30
 3631 1d1c 41EA9501 		orr	r1, r1, r5, lsr #2
 3632 1d20 4B40     		eors	r3, r3, r1
 3633 1d22 2699     		ldr	r1, [sp, #152]
 3634 1d24 5040     		eors	r0, r0, r2
 3635 1d26 6A06     		lsls	r2, r5, #25
 3636 1d28 42EAD112 		orr	r2, r2, r1, lsr #7
 3637 1d2c 4906     		lsls	r1, r1, #25
 3638 1d2e 41EAD511 		orr	r1, r1, r5, lsr #7
 3639 1d32 4B40     		eors	r3, r3, r1
 3640 1d34 2699     		ldr	r1, [sp, #152]
 3641 1d36 8AEA0905 		eor	r5, r10, r9
 3642 1d3a 0D40     		ands	r5, r5, r1
 3643 1d3c 2899     		ldr	r1, [sp, #160]
 3644 1d3e 5040     		eors	r0, r0, r2
 3645 1d40 8CEA0802 		eor	r2, ip, r8
 3646 1d44 0A40     		ands	r2, r2, r1
 3647 1d46 0AEA0901 		and	r1, r10, r9
 3648 1d4a 0CEA080B 		and	fp, ip, r8
 3649 1d4e 6940     		eors	r1, r1, r5
 3650 1d50 5B18     		adds	r3, r3, r1
 3651 1d52 82EA0B02 		eor	r2, r2, fp
 3652 1d56 40EB0200 		adc	r0, r0, r2
 3653              	.LVL306:
 358:sha2.c        ****         F_64(w2, 0x0fc19dc68b8cd5b5ULL)
 3654              		.loc 1 358 9 view .LVU579
 358:sha2.c        ****         F_64(w2, 0x0fc19dc68b8cd5b5ULL)
 3655              		.loc 1 358 9 view .LVU580
 358:sha2.c        ****         F_64(w2, 0x0fc19dc68b8cd5b5ULL)
 3656              		.loc 1 358 9 view .LVU581
 358:sha2.c        ****         F_64(w2, 0x0fc19dc68b8cd5b5ULL)
 3657              		.loc 1 358 9 view .LVU582
 3658 1d5a 279A     		ldr	r2, [sp, #156]
 3659 1d5c 9519     		adds	r5, r2, r6
 3660 1d5e 4EEB0401 		adc	r1, lr, r4
 3661              	.LVL307:
 358:sha2.c        ****         F_64(w2, 0x0fc19dc68b8cd5b5ULL)
 3662              		.loc 1 358 9 view .LVU583
 358:sha2.c        ****         F_64(w2, 0x0fc19dc68b8cd5b5ULL)
 3663              		.loc 1 358 9 view .LVU584
 358:sha2.c        ****         F_64(w2, 0x0fc19dc68b8cd5b5ULL)
 3664              		.loc 1 358 9 view .LVU585
 358:sha2.c        ****         F_64(w2, 0x0fc19dc68b8cd5b5ULL)
 3665              		.loc 1 358 9 view .LVU586
 3666 1d62 F318     		adds	r3, r6, r3
 3667              	.LVL308:
 358:sha2.c        ****         F_64(w2, 0x0fc19dc68b8cd5b5ULL)
 3668              		.loc 1 358 9 is_stmt 0 view .LVU587
 3669 1d64 2793     		str	r3, [sp, #156]
 3670 1d66 44EB0003 		adc	r3, r4, r0
 3671 1d6a 2993     		str	r3, [sp, #164]
 3672              	.LVL309:
 359:sha2.c        ****         F_64(w3, 0x240ca1cc77ac9c65ULL)
 3673              		.loc 1 359 9 is_stmt 1 view .LVU588
 3674 1d6c AE0B     		lsrs	r6, r5, #14
 3675              	.LVL310:
 359:sha2.c        ****         F_64(w3, 0x240ca1cc77ac9c65ULL)
 3676              		.loc 1 359 9 is_stmt 0 view .LVU589
 3677 1d6e 8B0B     		lsrs	r3, r1, #14
 3678              	.LVL311:
 359:sha2.c        ****         F_64(w3, 0x240ca1cc77ac9c65ULL)
 3679              		.loc 1 359 9 view .LVU590
 3680 1d70 A80C     		lsrs	r0, r5, #18
 3681              	.LVL312:
 359:sha2.c        ****         F_64(w3, 0x240ca1cc77ac9c65ULL)
 3682              		.loc 1 359 9 view .LVU591
 3683 1d72 8A0C     		lsrs	r2, r1, #18
 3684 1d74 40EA8130 		orr	r0, r0, r1, lsl #14
 3685 1d78 42EA8532 		orr	r2, r2, r5, lsl #14
 3686 1d7c 46EA8146 		orr	r6, r6, r1, lsl #18
 3687 1d80 43EA8543 		orr	r3, r3, r5, lsl #18
 3688 1d84 4640     		eors	r6, r6, r0
 3689 1d86 5340     		eors	r3, r3, r2
 3690 1d88 E805     		lsls	r0, r5, #23
 3691 1d8a CA05     		lsls	r2, r1, #23
 3692 1d8c 42EA5522 		orr	r2, r2, r5, lsr #9
 3693 1d90 40EA5120 		orr	r0, r0, r1, lsr #9
 3694 1d94 4640     		eors	r6, r6, r0
 3695 1d96 5340     		eors	r3, r3, r2
 3696 1d98 6348     		ldr	r0, .L22+16
 3697 1d9a 1A9A     		ldr	r2, [sp, #104]
 3698 1d9c 634C     		ldr	r4, .L22+20
 3699              	.LVL313:
 359:sha2.c        ****         F_64(w3, 0x240ca1cc77ac9c65ULL)
 3700              		.loc 1 359 9 view .LVU592
 3701 1d9e 1218     		adds	r2, r2, r0
 3702 1da0 0898     		ldr	r0, [sp, #32]
 3703 1da2 44EB0004 		adc	r4, r4, r0
 3704 1da6 2C98     		ldr	r0, [sp, #176]
 3705 1da8 1218     		adds	r2, r2, r0
 3706 1daa 47EB0404 		adc	r4, r7, r4
 3707 1dae B618     		adds	r6, r6, r2
 3708 1db0 2D9A     		ldr	r2, [sp, #180]
 3709 1db2 22EA0507 		bic	r7, r2, r5
 3710              	.LVL314:
 359:sha2.c        ****         F_64(w3, 0x240ca1cc77ac9c65ULL)
 3711              		.loc 1 359 9 view .LVU593
 3712 1db6 2E9A     		ldr	r2, [sp, #184]
 3713 1db8 22EA0100 		bic	r0, r2, r1
 3714 1dbc 2F9A     		ldr	r2, [sp, #188]
 3715 1dbe 43EB0403 		adc	r3, r3, r4
 3716 1dc2 309C     		ldr	r4, [sp, #192]
 3717 1dc4 2A40     		ands	r2, r2, r5
 3718 1dc6 0C40     		ands	r4, r4, r1
 3719 1dc8 7A40     		eors	r2, r2, r7
 3720 1dca B618     		adds	r6, r6, r2
 3721 1dcc 80EA0400 		eor	r0, r0, r4
 3722 1dd0 279A     		ldr	r2, [sp, #156]
 3723 1dd2 279C     		ldr	r4, [sp, #156]
 3724 1dd4 43EB0003 		adc	r3, r3, r0
 3725              	.LVL315:
 359:sha2.c        ****         F_64(w3, 0x240ca1cc77ac9c65ULL)
 3726              		.loc 1 359 9 is_stmt 1 view .LVU594
 3727 1dd8 2998     		ldr	r0, [sp, #164]
 3728 1dda 120F     		lsrs	r2, r2, #28
 3729 1ddc 42EA0012 		orr	r2, r2, r0, lsl #4
 3730 1de0 000F     		lsrs	r0, r0, #28
 3731 1de2 40EA0410 		orr	r0, r0, r4, lsl #4
 3732 1de6 299C     		ldr	r4, [sp, #164]
 3733 1de8 279F     		ldr	r7, [sp, #156]
 3734 1dea DDF8A4E0 		ldr	lr, [sp, #164]
 3735 1dee A407     		lsls	r4, r4, #30
 3736 1df0 44EA9704 		orr	r4, r4, r7, lsr #2
 3737 1df4 BF07     		lsls	r7, r7, #30
 3738 1df6 47EA9E07 		orr	r7, r7, lr, lsr #2
 3739 1dfa 7A40     		eors	r2, r2, r7
 3740 1dfc 6040     		eors	r0, r0, r4
 3741 1dfe 279F     		ldr	r7, [sp, #156]
 3742 1e00 7446     		mov	r4, lr
 3743 1e02 6406     		lsls	r4, r4, #25
 3744 1e04 44EAD714 		orr	r4, r4, r7, lsr #7
 3745 1e08 6040     		eors	r0, r0, r4
 3746 1e0a 7F06     		lsls	r7, r7, #25
 3747 1e0c 269C     		ldr	r4, [sp, #152]
 3748 1e0e 47EADE17 		orr	r7, r7, lr, lsr #7
 3749 1e12 DDF89CE0 		ldr	lr, [sp, #156]
 3750 1e16 7A40     		eors	r2, r2, r7
 3751 1e18 89EA0407 		eor	r7, r9, r4
 3752 1e1c 289C     		ldr	r4, [sp, #160]
 3753 1e1e 07EA0E0B 		and	fp, r7, lr
 3754              	.LVL316:
 359:sha2.c        ****         F_64(w3, 0x240ca1cc77ac9c65ULL)
 3755              		.loc 1 359 9 is_stmt 0 view .LVU595
 3756 1e22 299F     		ldr	r7, [sp, #164]
 3757 1e24 DDF8A0E0 		ldr	lr, [sp, #160]
 3758 1e28 88EA0404 		eor	r4, r8, r4
 3759 1e2c 3C40     		ands	r4, r4, r7
 3760 1e2e 269F     		ldr	r7, [sp, #152]
 3761 1e30 09EA0707 		and	r7, r9, r7
 3762 1e34 08EA0E0E 		and	lr, r8, lr
 3763 1e38 8BEA0707 		eor	r7, fp, r7
 3764 1e3c D219     		adds	r2, r2, r7
 3765 1e3e 84EA0E04 		eor	r4, r4, lr
 3766 1e42 40EB040E 		adc	lr, r0, r4
 3767              	.LVL317:
 359:sha2.c        ****         F_64(w3, 0x240ca1cc77ac9c65ULL)
 3768              		.loc 1 359 9 is_stmt 1 view .LVU596
 359:sha2.c        ****         F_64(w3, 0x240ca1cc77ac9c65ULL)
 3769              		.loc 1 359 9 view .LVU597
 359:sha2.c        ****         F_64(w3, 0x240ca1cc77ac9c65ULL)
 3770              		.loc 1 359 9 view .LVU598
 359:sha2.c        ****         F_64(w3, 0x240ca1cc77ac9c65ULL)
 3771              		.loc 1 359 9 view .LVU599
 3772 1e46 1AEB060A 		adds	r10, r10, r6
 3773              	.LVL318:
 359:sha2.c        ****         F_64(w3, 0x240ca1cc77ac9c65ULL)
 3774              		.loc 1 359 9 is_stmt 0 view .LVU600
 3775 1e4a 4CEB0304 		adc	r4, ip, r3
 3776              	.LVL319:
 359:sha2.c        ****         F_64(w3, 0x240ca1cc77ac9c65ULL)
 3777              		.loc 1 359 9 is_stmt 1 view .LVU601
 359:sha2.c        ****         F_64(w3, 0x240ca1cc77ac9c65ULL)
 3778              		.loc 1 359 9 view .LVU602
 359:sha2.c        ****         F_64(w3, 0x240ca1cc77ac9c65ULL)
 3779              		.loc 1 359 9 view .LVU603
 359:sha2.c        ****         F_64(w3, 0x240ca1cc77ac9c65ULL)
 3780              		.loc 1 359 9 view .LVU604
 3781 1e4e B218     		adds	r2, r6, r2
 3782              	.LVL320:
 359:sha2.c        ****         F_64(w3, 0x240ca1cc77ac9c65ULL)
 3783              		.loc 1 359 9 is_stmt 0 view .LVU605
 3784 1e50 43EB0E03 		adc	r3, r3, lr
 3785              	.LVL321:
 359:sha2.c        ****         F_64(w3, 0x240ca1cc77ac9c65ULL)
 3786              		.loc 1 359 9 view .LVU606
 3787 1e54 2A92     		str	r2, [sp, #168]
 3788 1e56 2B93     		str	r3, [sp, #172]
 3789              	.LVL322:
 360:sha2.c        ****         F_64(w4, 0x2de92c6f592b0275ULL)
 3790              		.loc 1 360 9 is_stmt 1 view .LVU607
 3791 1e58 4FEA9A32 		lsr	r2, r10, #14
 3792              	.LVL323:
 360:sha2.c        ****         F_64(w4, 0x2de92c6f592b0275ULL)
 3793              		.loc 1 360 9 is_stmt 0 view .LVU608
 3794 1e5c A30B     		lsrs	r3, r4, #14
 3795              	.LVL324:
 360:sha2.c        ****         F_64(w4, 0x2de92c6f592b0275ULL)
 3796              		.loc 1 360 9 view .LVU609
 3797 1e5e 4FEA9A46 		lsr	r6, r10, #18
 360:sha2.c        ****         F_64(w4, 0x2de92c6f592b0275ULL)
 3798              		.loc 1 360 9 view .LVU610
 3799 1e62 A00C     		lsrs	r0, r4, #18
 3800 1e64 46EA8436 		orr	r6, r6, r4, lsl #14
 3801 1e68 40EA8A30 		orr	r0, r0, r10, lsl #14
 3802 1e6c 42EA8442 		orr	r2, r2, r4, lsl #18
 3803 1e70 43EA8A43 		orr	r3, r3, r10, lsl #18
 3804 1e74 7240     		eors	r2, r2, r6
 3805 1e76 4340     		eors	r3, r3, r0
 3806 1e78 4FEACA56 		lsl	r6, r10, #23
 3807 1e7c E005     		lsls	r0, r4, #23
 3808 1e7e 40EA5A20 		orr	r0, r0, r10, lsr #9
 3809 1e82 46EA5426 		orr	r6, r6, r4, lsr #9
 3810 1e86 7240     		eors	r2, r2, r6
 3811 1e88 4340     		eors	r3, r3, r0
 3812 1e8a 294E     		ldr	r6, .L22+24
 3813 1e8c 1B98     		ldr	r0, [sp, #108]
 3814 1e8e 099F     		ldr	r7, [sp, #36]
 3815              	.LVL325:
 360:sha2.c        ****         F_64(w4, 0x2de92c6f592b0275ULL)
 3816              		.loc 1 360 9 view .LVU611
 3817 1e90 DDF8ACE0 		ldr	lr, [sp, #172]
 3818              	.LVL326:
 360:sha2.c        ****         F_64(w4, 0x2de92c6f592b0275ULL)
 3819              		.loc 1 360 9 view .LVU612
 3820 1e94 8619     		adds	r6, r0, r6
 3821 1e96 2748     		ldr	r0, .L22+28
 3822 1e98 40EB0700 		adc	r0, r0, r7
 3823 1e9c 2D9F     		ldr	r7, [sp, #180]
 3824 1e9e F619     		adds	r6, r6, r7
 3825 1ea0 2E9F     		ldr	r7, [sp, #184]
 3826 1ea2 47EB0000 		adc	r0, r7, r0
 3827 1ea6 9219     		adds	r2, r2, r6
 3828 1ea8 43EB0003 		adc	r3, r3, r0
 3829 1eac 2F98     		ldr	r0, [sp, #188]
 3830 1eae 20EA0A0C 		bic	ip, r0, r10
 3831 1eb2 3098     		ldr	r0, [sp, #192]
 3832 1eb4 20EA0406 		bic	r6, r0, r4
 3833 1eb8 05EA0A00 		and	r0, r5, r10
 3834 1ebc 01EA0407 		and	r7, r1, r4
 3835 1ec0 8CEA0000 		eor	r0, ip, r0
 3836 1ec4 1218     		adds	r2, r2, r0
 3837 1ec6 86EA0706 		eor	r6, r6, r7
 3838 1eca 2A98     		ldr	r0, [sp, #168]
 3839 1ecc 2A9F     		ldr	r7, [sp, #168]
 3840 1ece DDF8A8C0 		ldr	ip, [sp, #168]
 3841 1ed2 43EB0603 		adc	r3, r3, r6
 3842              	.LVL327:
 360:sha2.c        ****         F_64(w4, 0x2de92c6f592b0275ULL)
 3843              		.loc 1 360 9 is_stmt 1 view .LVU613
 3844 1ed6 2B9E     		ldr	r6, [sp, #172]
 3845 1ed8 000F     		lsrs	r0, r0, #28
 3846 1eda 40EA0610 		orr	r0, r0, r6, lsl #4
 3847 1ede 360F     		lsrs	r6, r6, #28
 3848 1ee0 46EA0716 		orr	r6, r6, r7, lsl #4
 3849 1ee4 2B9F     		ldr	r7, [sp, #172]
 3850 1ee6 BF07     		lsls	r7, r7, #30
 3851 1ee8 47EA9C07 		orr	r7, r7, ip, lsr #2
 3852 1eec 4FEA8C7C 		lsl	ip, ip, #30
 3853 1ef0 4CEA9E0C 		orr	ip, ip, lr, lsr #2
 3854 1ef4 80EA0C00 		eor	r0, r0, ip
 3855 1ef8 7E40     		eors	r6, r6, r7
 3856 1efa DDF8A8C0 		ldr	ip, [sp, #168]
 3857 1efe 7746     		mov	r7, lr
 3858 1f00 7F06     		lsls	r7, r7, #25
 3859 1f02 47EADC17 		orr	r7, r7, ip, lsr #7
 3860 1f06 4FEA4C6C 		lsl	ip, ip, #25
 3861 1f0a 4CEADE1C 		orr	ip, ip, lr, lsr #7
 3862 1f0e 80EA0C00 		eor	r0, r0, ip
 3863 1f12 7E40     		eors	r6, r6, r7
 3864 1f14 10E0     		b	.L23
 3865              	.L24:
 3866 1f16 00BF     		.align	2
 3867              	.L22:
 3868 1f18 D24AF19E 		.word	-1628353838
 3869 1f1c C1699BE4 		.word	-459576895
 3870 1f20 8647BEEF 		.word	-272742522
 3871 1f24 E3254F38 		.word	944711139
 3872 1f28 B5D58C8B 		.word	-1953704523
 3873 1f2c C69DC10F 		.word	264347078
 3874 1f30 659CAC77 		.word	2007800933
 3875 1f34 CCA10C24 		.word	604807628
 3876              	.L23:
 3877 1f38 2C90     		str	r0, [sp, #176]
 3878 1f3a DDE92607 		ldrd	r0, r7, [sp, #152]
 3879 1f3e 80EA070E 		eor	lr, r0, r7
 3880 1f42 DDE92807 		ldrd	r0, r7, [sp, #160]
 3881 1f46 4740     		eors	r7, r7, r0
 3882 1f48 2A98     		ldr	r0, [sp, #168]
 3883 1f4a 0EEA000E 		and	lr, lr, r0
 3884 1f4e 2B98     		ldr	r0, [sp, #172]
 3885 1f50 0740     		ands	r7, r7, r0
 3886 1f52 DDE9260C 		ldrd	r0, ip, [sp, #152]
 3887 1f56 00EA0C0C 		and	ip, r0, ip
 3888 1f5a DDE9280B 		ldrd	r0, fp, [sp, #160]
 3889              	.LVL328:
 360:sha2.c        ****         F_64(w4, 0x2de92c6f592b0275ULL)
 3890              		.loc 1 360 9 is_stmt 0 view .LVU614
 3891 1f5e 00EA0B0B 		and	fp, r0, fp
 3892 1f62 2C98     		ldr	r0, [sp, #176]
 3893 1f64 8EEA0C0C 		eor	ip, lr, ip
 3894 1f68 10EB0C0C 		adds	ip, r0, ip
 3895 1f6c 87EA0B07 		eor	r7, r7, fp
 3896 1f70 46EB0707 		adc	r7, r6, r7
 3897              	.LVL329:
 360:sha2.c        ****         F_64(w4, 0x2de92c6f592b0275ULL)
 3898              		.loc 1 360 9 is_stmt 1 view .LVU615
 360:sha2.c        ****         F_64(w4, 0x2de92c6f592b0275ULL)
 3899              		.loc 1 360 9 view .LVU616
 360:sha2.c        ****         F_64(w4, 0x2de92c6f592b0275ULL)
 3900              		.loc 1 360 9 view .LVU617
 360:sha2.c        ****         F_64(w4, 0x2de92c6f592b0275ULL)
 3901              		.loc 1 360 9 view .LVU618
 3902 1f74 19EB020B 		adds	fp, r9, r2
 3903 1f78 48EB0300 		adc	r0, r8, r3
 3904              	.LVL330:
 360:sha2.c        ****         F_64(w4, 0x2de92c6f592b0275ULL)
 3905              		.loc 1 360 9 view .LVU619
 360:sha2.c        ****         F_64(w4, 0x2de92c6f592b0275ULL)
 3906              		.loc 1 360 9 view .LVU620
 360:sha2.c        ****         F_64(w4, 0x2de92c6f592b0275ULL)
 3907              		.loc 1 360 9 view .LVU621
 360:sha2.c        ****         F_64(w4, 0x2de92c6f592b0275ULL)
 3908              		.loc 1 360 9 view .LVU622
 3909 1f7c 12EB0C02 		adds	r2, r2, ip
 3910              	.LVL331:
 360:sha2.c        ****         F_64(w4, 0x2de92c6f592b0275ULL)
 3911              		.loc 1 360 9 is_stmt 0 view .LVU623
 3912 1f80 43EB0703 		adc	r3, r3, r7
 3913              	.LVL332:
 360:sha2.c        ****         F_64(w4, 0x2de92c6f592b0275ULL)
 3914              		.loc 1 360 9 view .LVU624
 3915 1f84 2C92     		str	r2, [sp, #176]
 3916 1f86 2D93     		str	r3, [sp, #180]
 3917              	.LVL333:
 361:sha2.c        ****         F_64(w5, 0x4a7484aa6ea6e483ULL)
 3918              		.loc 1 361 9 is_stmt 1 view .LVU625
 3919 1f88 4FEA9B32 		lsr	r2, fp, #14
 3920              	.LVL334:
 361:sha2.c        ****         F_64(w5, 0x4a7484aa6ea6e483ULL)
 3921              		.loc 1 361 9 is_stmt 0 view .LVU626
 3922 1f8c 4FEA9B43 		lsr	r3, fp, #18
 3923              	.LVL335:
 361:sha2.c        ****         F_64(w5, 0x4a7484aa6ea6e483ULL)
 3924              		.loc 1 361 9 view .LVU627
 3925 1f90 870B     		lsrs	r7, r0, #14
 3926              	.LVL336:
 361:sha2.c        ****         F_64(w5, 0x4a7484aa6ea6e483ULL)
 3927              		.loc 1 361 9 view .LVU628
 3928 1f92 860C     		lsrs	r6, r0, #18
 3929              	.LVL337:
 361:sha2.c        ****         F_64(w5, 0x4a7484aa6ea6e483ULL)
 3930              		.loc 1 361 9 view .LVU629
 3931 1f94 42EA8042 		orr	r2, r2, r0, lsl #18
 3932 1f98 43EA803C 		orr	ip, r3, r0, lsl #14
 3933              	.LVL338:
 361:sha2.c        ****         F_64(w5, 0x4a7484aa6ea6e483ULL)
 3934              		.loc 1 361 9 view .LVU630
 3935 1f9c 46EA8B36 		orr	r6, r6, fp, lsl #14
 3936 1fa0 47EA8B47 		orr	r7, r7, fp, lsl #18
 3937 1fa4 82EA0C03 		eor	r3, r2, ip
 3938 1fa8 7740     		eors	r7, r7, r6
 3939 1faa 4FEACB52 		lsl	r2, fp, #23
 3940 1fae C605     		lsls	r6, r0, #23
 3941 1fb0 46EA5B26 		orr	r6, r6, fp, lsr #9
 3942 1fb4 42EA5022 		orr	r2, r2, r0, lsr #9
 3943 1fb8 5A40     		eors	r2, r2, r3
 3944 1fba 7740     		eors	r7, r7, r6
 3945 1fbc 1C9B     		ldr	r3, [sp, #112]
 3946 1fbe D74E     		ldr	r6, .L25
 3947 1fc0 DDF828C0 		ldr	ip, [sp, #40]
 3948 1fc4 DDF8B4E0 		ldr	lr, [sp, #180]
 3949              	.LVL339:
 361:sha2.c        ****         F_64(w5, 0x4a7484aa6ea6e483ULL)
 3950              		.loc 1 361 9 view .LVU631
 3951 1fc8 9E19     		adds	r6, r3, r6
 3952 1fca D54B     		ldr	r3, .L25+4
 3953 1fcc 43EB0C0C 		adc	ip, r3, ip
 3954 1fd0 2F9B     		ldr	r3, [sp, #188]
 3955 1fd2 F318     		adds	r3, r6, r3
 3956 1fd4 309E     		ldr	r6, [sp, #192]
 3957 1fd6 46EB0C09 		adc	r9, r6, ip
 3958 1fda 25EA0B0C 		bic	ip, r5, fp
 3959 1fde D318     		adds	r3, r2, r3
 3960 1fe0 0AEA0B02 		and	r2, r10, fp
 3961 1fe4 8CEA0202 		eor	r2, ip, r2
 3962 1fe8 47EB0909 		adc	r9, r7, r9
 3963 1fec 9B18     		adds	r3, r3, r2
 3964 1fee 2C9A     		ldr	r2, [sp, #176]
 3965 1ff0 DDF8B0C0 		ldr	ip, [sp, #176]
 3966 1ff4 04EA0007 		and	r7, r4, r0
 3967 1ff8 21EA0006 		bic	r6, r1, r0
 3968 1ffc 86EA0706 		eor	r6, r6, r7
 3969 2000 4FEA1277 		lsr	r7, r2, #28
 3970 2004 2D9A     		ldr	r2, [sp, #180]
 3971 2006 49EB0609 		adc	r9, r9, r6
 3972              	.LVL340:
 361:sha2.c        ****         F_64(w5, 0x4a7484aa6ea6e483ULL)
 3973              		.loc 1 361 9 is_stmt 1 view .LVU632
 3974 200a 2C9E     		ldr	r6, [sp, #176]
 3975 200c 47EA0217 		orr	r7, r7, r2, lsl #4
 3976 2010 120F     		lsrs	r2, r2, #28
 3977 2012 42EA0612 		orr	r2, r2, r6, lsl #4
 3978 2016 2D9E     		ldr	r6, [sp, #180]
 3979 2018 B607     		lsls	r6, r6, #30
 3980 201a 46EA9C06 		orr	r6, r6, ip, lsr #2
 3981 201e 4FEA8C7C 		lsl	ip, ip, #30
 3982 2022 4CEA9E0C 		orr	ip, ip, lr, lsr #2
 3983 2026 87EA0C07 		eor	r7, r7, ip
 3984 202a 7240     		eors	r2, r2, r6
 3985 202c DDF8B0C0 		ldr	ip, [sp, #176]
 3986 2030 7646     		mov	r6, lr
 3987 2032 7606     		lsls	r6, r6, #25
 3988 2034 46EADC16 		orr	r6, r6, ip, lsr #7
 3989 2038 7240     		eors	r2, r2, r6
 3990 203a 2E92     		str	r2, [sp, #184]
 3991 203c 2A9E     		ldr	r6, [sp, #168]
 3992 203e 279A     		ldr	r2, [sp, #156]
 3993 2040 4FEA4C6C 		lsl	ip, ip, #25
 3994 2044 4CEADE1C 		orr	ip, ip, lr, lsr #7
 3995 2048 87EA0C07 		eor	r7, r7, ip
 3996 204c 5640     		eors	r6, r6, r2
 3997 204e DDF8ACC0 		ldr	ip, [sp, #172]
 3998 2052 299A     		ldr	r2, [sp, #164]
 3999 2054 82EA0C0E 		eor	lr, r2, ip
 4000 2058 2C9A     		ldr	r2, [sp, #176]
 4001 205a DDF8A8C0 		ldr	ip, [sp, #168]
 4002 205e 1640     		ands	r6, r6, r2
 4003 2060 2D9A     		ldr	r2, [sp, #180]
 4004 2062 0EEA020E 		and	lr, lr, r2
 4005 2066 279A     		ldr	r2, [sp, #156]
 4006 2068 02EA0C08 		and	r8, r2, ip
 4007 206c 299A     		ldr	r2, [sp, #164]
 4008 206e DDF8ACC0 		ldr	ip, [sp, #172]
 4009 2072 86EA0806 		eor	r6, r6, r8
 4010 2076 02EA0C0C 		and	ip, r2, ip
 4011 207a 2E9A     		ldr	r2, [sp, #184]
 4012 207c BE19     		adds	r6, r7, r6
 4013 207e 8EEA0C0C 		eor	ip, lr, ip
 4014 2082 42EB0C0C 		adc	ip, r2, ip
 4015              	.LVL341:
 361:sha2.c        ****         F_64(w5, 0x4a7484aa6ea6e483ULL)
 4016              		.loc 1 361 9 view .LVU633
 361:sha2.c        ****         F_64(w5, 0x4a7484aa6ea6e483ULL)
 4017              		.loc 1 361 9 view .LVU634
 361:sha2.c        ****         F_64(w5, 0x4a7484aa6ea6e483ULL)
 4018              		.loc 1 361 9 view .LVU635
 361:sha2.c        ****         F_64(w5, 0x4a7484aa6ea6e483ULL)
 4019              		.loc 1 361 9 view .LVU636
 4020 2086 269A     		ldr	r2, [sp, #152]
 4021 2088 12EB0308 		adds	r8, r2, r3
 4022 208c 289A     		ldr	r2, [sp, #160]
 4023 208e 42EB090E 		adc	lr, r2, r9
 4024              	.LVL342:
 361:sha2.c        ****         F_64(w5, 0x4a7484aa6ea6e483ULL)
 4025              		.loc 1 361 9 view .LVU637
 361:sha2.c        ****         F_64(w5, 0x4a7484aa6ea6e483ULL)
 4026              		.loc 1 361 9 view .LVU638
 361:sha2.c        ****         F_64(w5, 0x4a7484aa6ea6e483ULL)
 4027              		.loc 1 361 9 view .LVU639
 361:sha2.c        ****         F_64(w5, 0x4a7484aa6ea6e483ULL)
 4028              		.loc 1 361 9 view .LVU640
 4029 2092 9B19     		adds	r3, r3, r6
 4030              	.LVL343:
 361:sha2.c        ****         F_64(w5, 0x4a7484aa6ea6e483ULL)
 4031              		.loc 1 361 9 is_stmt 0 view .LVU641
 4032 2094 2693     		str	r3, [sp, #152]
 4033 2096 49EB0C03 		adc	r3, r9, ip
 4034 209a 2893     		str	r3, [sp, #160]
 4035              	.LVL344:
 362:sha2.c        ****         F_64(w6, 0x5cb0a9dcbd41fbd4ULL)
 4036              		.loc 1 362 9 is_stmt 1 view .LVU642
 4037 209c 4FEA9E32 		lsr	r2, lr, #14
 4038 20a0 4FEA9833 		lsr	r3, r8, #14
 4039              	.LVL345:
 362:sha2.c        ****         F_64(w6, 0x5cb0a9dcbd41fbd4ULL)
 4040              		.loc 1 362 9 is_stmt 0 view .LVU643
 4041 20a4 4FEA9847 		lsr	r7, r8, #18
 4042 20a8 4FEA9E46 		lsr	r6, lr, #18
 4043              	.LVL346:
 362:sha2.c        ****         F_64(w6, 0x5cb0a9dcbd41fbd4ULL)
 4044              		.loc 1 362 9 view .LVU644
 4045 20ac 47EA8E37 		orr	r7, r7, lr, lsl #14
 4046 20b0 46EA8836 		orr	r6, r6, r8, lsl #14
 4047 20b4 43EA8E43 		orr	r3, r3, lr, lsl #18
 4048 20b8 42EA8842 		orr	r2, r2, r8, lsl #18
 4049 20bc 7B40     		eors	r3, r3, r7
 4050 20be 7240     		eors	r2, r2, r6
 4051 20c0 4FEAC857 		lsl	r7, r8, #23
 4052 20c4 4FEACE56 		lsl	r6, lr, #23
 4053 20c8 46EA5826 		orr	r6, r6, r8, lsr #9
 4054 20cc 47EA5E27 		orr	r7, r7, lr, lsr #9
 4055 20d0 7B40     		eors	r3, r3, r7
 4056 20d2 7240     		eors	r2, r2, r6
 4057 20d4 1D9F     		ldr	r7, [sp, #116]
 4058 20d6 934E     		ldr	r6, .L25+8
 4059 20d8 DDF8B090 		ldr	r9, [sp, #176]
 4060              	.LVL347:
 362:sha2.c        ****         F_64(w6, 0x5cb0a9dcbd41fbd4ULL)
 4061              		.loc 1 362 9 view .LVU645
 4062 20dc 17EB060C 		adds	ip, r7, r6
 4063              	.LVL348:
 362:sha2.c        ****         F_64(w6, 0x5cb0a9dcbd41fbd4ULL)
 4064              		.loc 1 362 9 view .LVU646
 4065 20e0 0B9E     		ldr	r6, [sp, #44]
 4066 20e2 914F     		ldr	r7, .L25+12
 4067 20e4 47EB0607 		adc	r7, r7, r6
 4068 20e8 1CEB0505 		adds	r5, ip, r5
 4069              	.LVL349:
 362:sha2.c        ****         F_64(w6, 0x5cb0a9dcbd41fbd4ULL)
 4070              		.loc 1 362 9 view .LVU647
 4071 20ec 41EB0701 		adc	r1, r1, r7
 4072 20f0 2AEA0807 		bic	r7, r10, r8
 4073 20f4 5D19     		adds	r5, r3, r5
 4074 20f6 0BEA0803 		and	r3, fp, r8
 4075 20fa 83EA0703 		eor	r3, r3, r7
 4076 20fe 42EB0101 		adc	r1, r2, r1
 4077 2102 ED18     		adds	r5, r5, r3
 4078 2104 269B     		ldr	r3, [sp, #152]
 4079 2106 269F     		ldr	r7, [sp, #152]
 4080 2108 DDF8A0C0 		ldr	ip, [sp, #160]
 4081 210c 00EA0E06 		and	r6, r0, lr
 4082 2110 24EA0E02 		bic	r2, r4, lr
 4083 2114 82EA0602 		eor	r2, r2, r6
 4084 2118 4FEA1376 		lsr	r6, r3, #28
 4085 211c 289B     		ldr	r3, [sp, #160]
 4086 211e 41EB0201 		adc	r1, r1, r2
 4087              	.LVL350:
 362:sha2.c        ****         F_64(w6, 0x5cb0a9dcbd41fbd4ULL)
 4088              		.loc 1 362 9 is_stmt 1 view .LVU648
 4089 2122 269A     		ldr	r2, [sp, #152]
 4090 2124 46EA0316 		orr	r6, r6, r3, lsl #4
 4091 2128 1B0F     		lsrs	r3, r3, #28
 4092 212a 43EA0213 		orr	r3, r3, r2, lsl #4
 4093 212e 289A     		ldr	r2, [sp, #160]
 4094 2130 9207     		lsls	r2, r2, #30
 4095 2132 42EA9702 		orr	r2, r2, r7, lsr #2
 4096 2136 BF07     		lsls	r7, r7, #30
 4097 2138 47EA9C07 		orr	r7, r7, ip, lsr #2
 4098 213c 7E40     		eors	r6, r6, r7
 4099 213e 5340     		eors	r3, r3, r2
 4100 2140 269F     		ldr	r7, [sp, #152]
 4101 2142 6246     		mov	r2, ip
 4102 2144 5206     		lsls	r2, r2, #25
 4103 2146 42EAD712 		orr	r2, r2, r7, lsr #7
 4104 214a 7F06     		lsls	r7, r7, #25
 4105 214c 47EADC17 		orr	r7, r7, ip, lsr #7
 4106 2150 7E40     		eors	r6, r6, r7
 4107 2152 5340     		eors	r3, r3, r2
 4108 2154 2C9F     		ldr	r7, [sp, #176]
 4109 2156 2A9A     		ldr	r2, [sp, #168]
 4110 2158 DDF8B4C0 		ldr	ip, [sp, #180]
 4111 215c 2E93     		str	r3, [sp, #184]
 4112              	.LVL351:
 362:sha2.c        ****         F_64(w6, 0x5cb0a9dcbd41fbd4ULL)
 4113              		.loc 1 362 9 is_stmt 0 view .LVU649
 4114 215e 7A40     		eors	r2, r2, r7
 4115 2160 2B9F     		ldr	r7, [sp, #172]
 4116 2162 2D9B     		ldr	r3, [sp, #180]
 4117 2164 87EA0C0C 		eor	ip, r7, ip
 4118 2168 269F     		ldr	r7, [sp, #152]
 4119 216a 3A40     		ands	r2, r2, r7
 4120 216c 289F     		ldr	r7, [sp, #160]
 4121 216e 0CEA070C 		and	ip, ip, r7
 4122 2172 2A9F     		ldr	r7, [sp, #168]
 4123 2174 07EA0909 		and	r9, r7, r9
 4124 2178 2B9F     		ldr	r7, [sp, #172]
 4125 217a 82EA0902 		eor	r2, r2, r9
 4126 217e 1F40     		ands	r7, r7, r3
 4127 2180 2E9B     		ldr	r3, [sp, #184]
 4128 2182 B218     		adds	r2, r6, r2
 4129 2184 8CEA0707 		eor	r7, ip, r7
 4130 2188 43EB070C 		adc	ip, r3, r7
 4131              	.LVL352:
 362:sha2.c        ****         F_64(w6, 0x5cb0a9dcbd41fbd4ULL)
 4132              		.loc 1 362 9 is_stmt 1 view .LVU650
 362:sha2.c        ****         F_64(w6, 0x5cb0a9dcbd41fbd4ULL)
 4133              		.loc 1 362 9 view .LVU651
 362:sha2.c        ****         F_64(w6, 0x5cb0a9dcbd41fbd4ULL)
 4134              		.loc 1 362 9 view .LVU652
 362:sha2.c        ****         F_64(w6, 0x5cb0a9dcbd41fbd4ULL)
 4135              		.loc 1 362 9 view .LVU653
 4136 218c 279B     		ldr	r3, [sp, #156]
 363:sha2.c        ****         F_64(w7, 0x76f988da831153b5ULL)
 4137              		.loc 1 363 9 is_stmt 0 view .LVU654
 4138 218e 0C9E     		ldr	r6, [sp, #48]
 362:sha2.c        ****         F_64(w6, 0x5cb0a9dcbd41fbd4ULL)
 4139              		.loc 1 362 9 view .LVU655
 4140 2190 13EB0509 		adds	r9, r3, r5
 4141 2194 299B     		ldr	r3, [sp, #164]
 4142 2196 43EB0107 		adc	r7, r3, r1
 4143              	.LVL353:
 362:sha2.c        ****         F_64(w6, 0x5cb0a9dcbd41fbd4ULL)
 4144              		.loc 1 362 9 is_stmt 1 view .LVU656
 362:sha2.c        ****         F_64(w6, 0x5cb0a9dcbd41fbd4ULL)
 4145              		.loc 1 362 9 view .LVU657
 362:sha2.c        ****         F_64(w6, 0x5cb0a9dcbd41fbd4ULL)
 4146              		.loc 1 362 9 view .LVU658
 362:sha2.c        ****         F_64(w6, 0x5cb0a9dcbd41fbd4ULL)
 4147              		.loc 1 362 9 view .LVU659
 4148 219a AB18     		adds	r3, r5, r2
 4149 219c 2793     		str	r3, [sp, #156]
 4150 219e 41EB0C03 		adc	r3, r1, ip
 4151 21a2 2993     		str	r3, [sp, #164]
 4152              	.LVL354:
 363:sha2.c        ****         F_64(w7, 0x76f988da831153b5ULL)
 4153              		.loc 1 363 9 view .LVU660
 4154 21a4 4FEA9932 		lsr	r2, r9, #14
 4155              	.LVL355:
 363:sha2.c        ****         F_64(w7, 0x76f988da831153b5ULL)
 4156              		.loc 1 363 9 is_stmt 0 view .LVU661
 4157 21a8 B90B     		lsrs	r1, r7, #14
 4158              	.LVL356:
 363:sha2.c        ****         F_64(w7, 0x76f988da831153b5ULL)
 4159              		.loc 1 363 9 view .LVU662
 4160 21aa 4FEA9945 		lsr	r5, r9, #18
 363:sha2.c        ****         F_64(w7, 0x76f988da831153b5ULL)
 4161              		.loc 1 363 9 view .LVU663
 4162 21ae BB0C     		lsrs	r3, r7, #18
 4163              	.LVL357:
 363:sha2.c        ****         F_64(w7, 0x76f988da831153b5ULL)
 4164              		.loc 1 363 9 view .LVU664
 4165 21b0 45EA8735 		orr	r5, r5, r7, lsl #14
 4166 21b4 43EA8933 		orr	r3, r3, r9, lsl #14
 4167 21b8 42EA8742 		orr	r2, r2, r7, lsl #18
 4168 21bc 41EA8941 		orr	r1, r1, r9, lsl #18
 4169 21c0 6A40     		eors	r2, r2, r5
 4170 21c2 5940     		eors	r1, r1, r3
 4171 21c4 4FEAC955 		lsl	r5, r9, #23
 4172 21c8 FB05     		lsls	r3, r7, #23
 4173 21ca 43EA5923 		orr	r3, r3, r9, lsr #9
 4174 21ce 45EA5725 		orr	r5, r5, r7, lsr #9
 4175 21d2 6A40     		eors	r2, r2, r5
 4176 21d4 5940     		eors	r1, r1, r3
 4177 21d6 1E9D     		ldr	r5, [sp, #120]
 4178 21d8 544B     		ldr	r3, .L25+16
 4179 21da EB18     		adds	r3, r5, r3
 4180 21dc 544D     		ldr	r5, .L25+20
 4181 21de 45EB0605 		adc	r5, r5, r6
 4182 21e2 13EB0A0A 		adds	r10, r3, r10
 4183              	.LVL358:
 363:sha2.c        ****         F_64(w7, 0x76f988da831153b5ULL)
 4184              		.loc 1 363 9 view .LVU665
 4185 21e6 44EB0504 		adc	r4, r4, r5
 4186 21ea 08EA0903 		and	r3, r8, r9
 4187 21ee 2BEA0905 		bic	r5, fp, r9
 4188 21f2 12EB0A0A 		adds	r10, r2, r10
 4189 21f6 83EA0503 		eor	r3, r3, r5
 4190 21fa 41EB0404 		adc	r4, r1, r4
 4191 21fe 1AEB030A 		adds	r10, r10, r3
 4192 2202 279B     		ldr	r3, [sp, #156]
 4193 2204 279D     		ldr	r5, [sp, #156]
 4194 2206 0EEA0701 		and	r1, lr, r7
 4195 220a 20EA0702 		bic	r2, r0, r7
 4196 220e 82EA0102 		eor	r2, r2, r1
 4197 2212 4FEA1371 		lsr	r1, r3, #28
 4198 2216 299B     		ldr	r3, [sp, #164]
 4199 2218 44EB0204 		adc	r4, r4, r2
 4200              	.LVL359:
 363:sha2.c        ****         F_64(w7, 0x76f988da831153b5ULL)
 4201              		.loc 1 363 9 is_stmt 1 view .LVU666
 4202 221c 279A     		ldr	r2, [sp, #156]
 4203 221e 41EA0311 		orr	r1, r1, r3, lsl #4
 4204 2222 1B0F     		lsrs	r3, r3, #28
 4205 2224 43EA0213 		orr	r3, r3, r2, lsl #4
 4206 2228 299A     		ldr	r2, [sp, #164]
 4207 222a 299E     		ldr	r6, [sp, #164]
 4208 222c DDF898C0 		ldr	ip, [sp, #152]
 4209              	.LVL360:
 363:sha2.c        ****         F_64(w7, 0x76f988da831153b5ULL)
 4210              		.loc 1 363 9 is_stmt 0 view .LVU667
 4211 2230 9207     		lsls	r2, r2, #30
 4212 2232 42EA9502 		orr	r2, r2, r5, lsr #2
 4213 2236 AD07     		lsls	r5, r5, #30
 4214 2238 45EA9605 		orr	r5, r5, r6, lsr #2
 4215 223c 6940     		eors	r1, r1, r5
 4216 223e 279D     		ldr	r5, [sp, #156]
 4217 2240 5340     		eors	r3, r3, r2
 4218 2242 7206     		lsls	r2, r6, #25
 4219 2244 42EAD512 		orr	r2, r2, r5, lsr #7
 4220 2248 6D06     		lsls	r5, r5, #25
 4221 224a 45EAD615 		orr	r5, r5, r6, lsr #7
 4222 224e 6940     		eors	r1, r1, r5
 4223 2250 5340     		eors	r3, r3, r2
 4224 2252 269D     		ldr	r5, [sp, #152]
 4225 2254 2C9A     		ldr	r2, [sp, #176]
 4226 2256 289E     		ldr	r6, [sp, #160]
 4227 2258 2E93     		str	r3, [sp, #184]
 4228              	.LVL361:
 363:sha2.c        ****         F_64(w7, 0x76f988da831153b5ULL)
 4229              		.loc 1 363 9 view .LVU668
 4230 225a 6A40     		eors	r2, r2, r5
 4231 225c 2D9D     		ldr	r5, [sp, #180]
 4232 225e 289B     		ldr	r3, [sp, #160]
 4233 2260 6E40     		eors	r6, r6, r5
 4234 2262 279D     		ldr	r5, [sp, #156]
 4235 2264 2A40     		ands	r2, r2, r5
 4236 2266 299D     		ldr	r5, [sp, #164]
 4237 2268 2E40     		ands	r6, r6, r5
 4238 226a 2C9D     		ldr	r5, [sp, #176]
 4239 226c 05EA0C0C 		and	ip, r5, ip
 4240 2270 2D9D     		ldr	r5, [sp, #180]
 4241 2272 82EA0C02 		eor	r2, r2, ip
 4242 2276 1D40     		ands	r5, r5, r3
 4243 2278 2E9B     		ldr	r3, [sp, #184]
 4244 227a 8A18     		adds	r2, r1, r2
 4245 227c 85EA0605 		eor	r5, r5, r6
 4246 2280 43EB0505 		adc	r5, r3, r5
 4247              	.LVL362:
 363:sha2.c        ****         F_64(w7, 0x76f988da831153b5ULL)
 4248              		.loc 1 363 9 is_stmt 1 view .LVU669
 363:sha2.c        ****         F_64(w7, 0x76f988da831153b5ULL)
 4249              		.loc 1 363 9 view .LVU670
 363:sha2.c        ****         F_64(w7, 0x76f988da831153b5ULL)
 4250              		.loc 1 363 9 view .LVU671
 363:sha2.c        ****         F_64(w7, 0x76f988da831153b5ULL)
 4251              		.loc 1 363 9 view .LVU672
 4252 2284 2A9B     		ldr	r3, [sp, #168]
 4253 2286 13EB0A06 		adds	r6, r3, r10
 4254 228a 2B9B     		ldr	r3, [sp, #172]
 4255 228c 43EB0403 		adc	r3, r3, r4
 4256              	.LVL363:
 363:sha2.c        ****         F_64(w7, 0x76f988da831153b5ULL)
 4257              		.loc 1 363 9 view .LVU673
 363:sha2.c        ****         F_64(w7, 0x76f988da831153b5ULL)
 4258              		.loc 1 363 9 view .LVU674
 363:sha2.c        ****         F_64(w7, 0x76f988da831153b5ULL)
 4259              		.loc 1 363 9 view .LVU675
 363:sha2.c        ****         F_64(w7, 0x76f988da831153b5ULL)
 4260              		.loc 1 363 9 view .LVU676
 4261 2290 1AEB0202 		adds	r2, r10, r2
 4262              	.LVL364:
 363:sha2.c        ****         F_64(w7, 0x76f988da831153b5ULL)
 4263              		.loc 1 363 9 is_stmt 0 view .LVU677
 4264 2294 2A92     		str	r2, [sp, #168]
 4265 2296 44EB0502 		adc	r2, r4, r5
 4266 229a 2B92     		str	r2, [sp, #172]
 4267              	.LVL365:
 364:sha2.c        ****         F_64(w8, 0x983e5152ee66dfabULL)
 4268              		.loc 1 364 9 is_stmt 1 view .LVU678
 4269 229c B10B     		lsrs	r1, r6, #14
 4270              	.LVL366:
 364:sha2.c        ****         F_64(w8, 0x983e5152ee66dfabULL)
 4271              		.loc 1 364 9 is_stmt 0 view .LVU679
 4272 229e 9C0B     		lsrs	r4, r3, #14
 4273              	.LVL367:
 364:sha2.c        ****         F_64(w8, 0x983e5152ee66dfabULL)
 4274              		.loc 1 364 9 view .LVU680
 4275 22a0 B50C     		lsrs	r5, r6, #18
 4276              	.LVL368:
 364:sha2.c        ****         F_64(w8, 0x983e5152ee66dfabULL)
 4277              		.loc 1 364 9 view .LVU681
 4278 22a2 9A0C     		lsrs	r2, r3, #18
 4279              	.LVL369:
 364:sha2.c        ****         F_64(w8, 0x983e5152ee66dfabULL)
 4280              		.loc 1 364 9 view .LVU682
 4281 22a4 45EA8335 		orr	r5, r5, r3, lsl #14
 4282 22a8 42EA8632 		orr	r2, r2, r6, lsl #14
 4283 22ac 41EA8341 		orr	r1, r1, r3, lsl #18
 4284 22b0 44EA8644 		orr	r4, r4, r6, lsl #18
 4285 22b4 6940     		eors	r1, r1, r5
 4286 22b6 5440     		eors	r4, r4, r2
 4287 22b8 F505     		lsls	r5, r6, #23
 4288 22ba DA05     		lsls	r2, r3, #23
 4289 22bc 42EA5622 		orr	r2, r2, r6, lsr #9
 4290 22c0 45EA5325 		orr	r5, r5, r3, lsr #9
 4291 22c4 6940     		eors	r1, r1, r5
 4292 22c6 5440     		eors	r4, r4, r2
 4293 22c8 1F9D     		ldr	r5, [sp, #124]
 4294 22ca 1A4A     		ldr	r2, .L25+24
 4295 22cc 15EB020C 		adds	ip, r5, r2
 4296              	.LVL370:
 364:sha2.c        ****         F_64(w8, 0x983e5152ee66dfabULL)
 4297              		.loc 1 364 9 view .LVU683
 4298 22d0 0D9A     		ldr	r2, [sp, #52]
 4299 22d2 194D     		ldr	r5, .L25+28
 4300 22d4 45EB0205 		adc	r5, r5, r2
 4301 22d8 1CEB0B0B 		adds	fp, ip, fp
 4302              	.LVL371:
 364:sha2.c        ****         F_64(w8, 0x983e5152ee66dfabULL)
 4303              		.loc 1 364 9 view .LVU684
 4304 22dc 40EB0500 		adc	r0, r0, r5
 4305 22e0 09EA0602 		and	r2, r9, r6
 4306 22e4 28EA0605 		bic	r5, r8, r6
 4307 22e8 11EB0B0B 		adds	fp, r1, fp
 4308 22ec 82EA0502 		eor	r2, r2, r5
 4309 22f0 44EB0000 		adc	r0, r4, r0
 4310 22f4 1BEB020B 		adds	fp, fp, r2
 4311 22f8 2A9A     		ldr	r2, [sp, #168]
 4312 22fa 2A9D     		ldr	r5, [sp, #168]
 4313 22fc DDF8ACC0 		ldr	ip, [sp, #172]
 4314 2300 07EA0304 		and	r4, r7, r3
 4315 2304 2EEA0301 		bic	r1, lr, r3
 4316 2308 81EA0401 		eor	r1, r1, r4
 4317 230c 4FEA1274 		lsr	r4, r2, #28
 4318 2310 2B9A     		ldr	r2, [sp, #172]
 4319 2312 40EB0100 		adc	r0, r0, r1
 4320              	.LVL372:
 364:sha2.c        ****         F_64(w8, 0x983e5152ee66dfabULL)
 4321              		.loc 1 364 9 is_stmt 1 view .LVU685
 4322 2316 2A99     		ldr	r1, [sp, #168]
 4323 2318 10E0     		b	.L26
 4324              	.L27:
 4325 231a 00BF     		.align	2
 4326              	.L25:
 4327 231c 75022B59 		.word	1495990901
 4328 2320 6F2CE92D 		.word	770255983
 4329 2324 83E4A66E 		.word	1856431235
 4330 2328 AA84744A 		.word	1249150122
 4331 232c D4FB41BD 		.word	-1119749164
 4332 2330 DCA9B05C 		.word	1555081692
 4333 2334 B5531183 		.word	-2096016459
 4334 2338 DA88F976 		.word	1996064986
 4335              	.L26:
 4336 233c 44EA0214 		orr	r4, r4, r2, lsl #4
 4337 2340 120F     		lsrs	r2, r2, #28
 4338 2342 42EA0112 		orr	r2, r2, r1, lsl #4
 4339 2346 2B99     		ldr	r1, [sp, #172]
 4340 2348 8907     		lsls	r1, r1, #30
 4341 234a 41EA9501 		orr	r1, r1, r5, lsr #2
 4342 234e AD07     		lsls	r5, r5, #30
 4343 2350 45EA9C05 		orr	r5, r5, ip, lsr #2
 4344 2354 6C40     		eors	r4, r4, r5
 4345 2356 4A40     		eors	r2, r2, r1
 4346 2358 2A9D     		ldr	r5, [sp, #168]
 4347 235a 6146     		mov	r1, ip
 4348 235c 4906     		lsls	r1, r1, #25
 4349 235e 41EAD511 		orr	r1, r1, r5, lsr #7
 4350 2362 6D06     		lsls	r5, r5, #25
 4351 2364 45EADC15 		orr	r5, r5, ip, lsr #7
 4352 2368 6C40     		eors	r4, r4, r5
 4353 236a 4A40     		eors	r2, r2, r1
 4354 236c DDE92615 		ldrd	r1, r5, [sp, #152]
 4355 2370 6940     		eors	r1, r1, r5
 4356 2372 DDE9285C 		ldrd	r5, ip, [sp, #160]
 4357 2376 2E92     		str	r2, [sp, #184]
 4358              	.LVL373:
 364:sha2.c        ****         F_64(w8, 0x983e5152ee66dfabULL)
 4359              		.loc 1 364 9 is_stmt 0 view .LVU686
 4360 2378 85EA0C0C 		eor	ip, r5, ip
 4361 237c 2A9D     		ldr	r5, [sp, #168]
 4362 237e 2940     		ands	r1, r1, r5
 4363 2380 2B9D     		ldr	r5, [sp, #172]
 4364 2382 0CEA050C 		and	ip, ip, r5
 4365 2386 DDE9265A 		ldrd	r5, r10, [sp, #152]
 4366 238a 05EA0A0A 		and	r10, r5, r10
 4367 238e DDE92852 		ldrd	r5, r2, [sp, #160]
 4368 2392 81EA0A01 		eor	r1, r1, r10
 4369 2396 6118     		adds	r1, r4, r1
 4370 2398 05EA0205 		and	r5, r5, r2
 4371 239c 2C9C     		ldr	r4, [sp, #176]
 4372 239e 2E9A     		ldr	r2, [sp, #184]
 4373 23a0 8CEA0505 		eor	r5, ip, r5
 4374 23a4 42EB0502 		adc	r2, r2, r5
 4375              	.LVL374:
 364:sha2.c        ****         F_64(w8, 0x983e5152ee66dfabULL)
 4376              		.loc 1 364 9 is_stmt 1 view .LVU687
 364:sha2.c        ****         F_64(w8, 0x983e5152ee66dfabULL)
 4377              		.loc 1 364 9 view .LVU688
 364:sha2.c        ****         F_64(w8, 0x983e5152ee66dfabULL)
 4378              		.loc 1 364 9 view .LVU689
 364:sha2.c        ****         F_64(w8, 0x983e5152ee66dfabULL)
 4379              		.loc 1 364 9 view .LVU690
 4380 23a8 14EB0B0C 		adds	ip, r4, fp
 4381 23ac 2D9C     		ldr	r4, [sp, #180]
 4382 23ae 44EB0005 		adc	r5, r4, r0
 4383              	.LVL375:
 364:sha2.c        ****         F_64(w8, 0x983e5152ee66dfabULL)
 4384              		.loc 1 364 9 view .LVU691
 364:sha2.c        ****         F_64(w8, 0x983e5152ee66dfabULL)
 4385              		.loc 1 364 9 view .LVU692
 364:sha2.c        ****         F_64(w8, 0x983e5152ee66dfabULL)
 4386              		.loc 1 364 9 view .LVU693
 364:sha2.c        ****         F_64(w8, 0x983e5152ee66dfabULL)
 4387              		.loc 1 364 9 view .LVU694
 4388 23b2 1BEB0101 		adds	r1, fp, r1
 4389              	.LVL376:
 364:sha2.c        ****         F_64(w8, 0x983e5152ee66dfabULL)
 4390              		.loc 1 364 9 is_stmt 0 view .LVU695
 4391 23b6 40EB0202 		adc	r2, r0, r2
 4392              	.LVL377:
 364:sha2.c        ****         F_64(w8, 0x983e5152ee66dfabULL)
 4393              		.loc 1 364 9 view .LVU696
 4394 23ba 2C91     		str	r1, [sp, #176]
 4395 23bc 2D92     		str	r2, [sp, #180]
 4396              	.LVL378:
 365:sha2.c        ****         F_64(w9, 0xa831c66d2db43210ULL)
 4397              		.loc 1 365 9 is_stmt 1 view .LVU697
 4398 23be 4FEA9C31 		lsr	r1, ip, #14
 4399              	.LVL379:
 365:sha2.c        ****         F_64(w9, 0xa831c66d2db43210ULL)
 4400              		.loc 1 365 9 is_stmt 0 view .LVU698
 4401 23c2 A80B     		lsrs	r0, r5, #14
 4402              	.LVL380:
 365:sha2.c        ****         F_64(w9, 0xa831c66d2db43210ULL)
 4403              		.loc 1 365 9 view .LVU699
 4404 23c4 4FEA9C44 		lsr	r4, ip, #18
 4405 23c8 AA0C     		lsrs	r2, r5, #18
 4406              	.LVL381:
 365:sha2.c        ****         F_64(w9, 0xa831c66d2db43210ULL)
 4407              		.loc 1 365 9 view .LVU700
 4408 23ca 44EA8534 		orr	r4, r4, r5, lsl #14
 4409 23ce 42EA8C32 		orr	r2, r2, ip, lsl #14
 4410 23d2 41EA8541 		orr	r1, r1, r5, lsl #18
 4411 23d6 40EA8C40 		orr	r0, r0, ip, lsl #18
 4412 23da 6140     		eors	r1, r1, r4
 4413 23dc 5040     		eors	r0, r0, r2
 4414 23de 4FEACC54 		lsl	r4, ip, #23
 4415 23e2 EA05     		lsls	r2, r5, #23
 4416 23e4 42EA5C22 		orr	r2, r2, ip, lsr #9
 4417 23e8 44EA5524 		orr	r4, r4, r5, lsr #9
 4418 23ec 6140     		eors	r1, r1, r4
 4419 23ee 5040     		eors	r0, r0, r2
 4420 23f0 209C     		ldr	r4, [sp, #128]
 4421 23f2 D94A     		ldr	r2, .L28
 4422 23f4 DDF8A8B0 		ldr	fp, [sp, #168]
 365:sha2.c        ****         F_64(w9, 0xa831c66d2db43210ULL)
 4423              		.loc 1 365 9 view .LVU701
 4424 23f8 14EB020A 		adds	r10, r4, r2
 4425              	.LVL382:
 365:sha2.c        ****         F_64(w9, 0xa831c66d2db43210ULL)
 4426              		.loc 1 365 9 view .LVU702
 4427 23fc 0E9A     		ldr	r2, [sp, #56]
 4428 23fe D74C     		ldr	r4, .L28+4
 4429 2400 44EB0204 		adc	r4, r4, r2
 4430 2404 1AEB0808 		adds	r8, r10, r8
 4431              	.LVL383:
 365:sha2.c        ****         F_64(w9, 0xa831c66d2db43210ULL)
 4432              		.loc 1 365 9 view .LVU703
 4433 2408 4EEB040E 		adc	lr, lr, r4
 4434 240c 06EA0C02 		and	r2, r6, ip
 4435 2410 29EA0C04 		bic	r4, r9, ip
 4436 2414 11EB0808 		adds	r8, r1, r8
 4437 2418 82EA0402 		eor	r2, r2, r4
 4438 241c 40EB0E0E 		adc	lr, r0, lr
 4439 2420 18EB0208 		adds	r8, r8, r2
 4440 2424 2C9A     		ldr	r2, [sp, #176]
 4441 2426 2C9C     		ldr	r4, [sp, #176]
 4442 2428 DDF8B4A0 		ldr	r10, [sp, #180]
 4443 242c 03EA0500 		and	r0, r3, r5
 4444 2430 27EA0501 		bic	r1, r7, r5
 4445 2434 81EA0001 		eor	r1, r1, r0
 4446 2438 4FEA1270 		lsr	r0, r2, #28
 4447 243c 2D9A     		ldr	r2, [sp, #180]
 4448 243e 4EEB010E 		adc	lr, lr, r1
 4449              	.LVL384:
 365:sha2.c        ****         F_64(w9, 0xa831c66d2db43210ULL)
 4450              		.loc 1 365 9 is_stmt 1 view .LVU704
 4451 2442 2C99     		ldr	r1, [sp, #176]
 4452 2444 40EA0210 		orr	r0, r0, r2, lsl #4
 4453 2448 120F     		lsrs	r2, r2, #28
 4454 244a 42EA0112 		orr	r2, r2, r1, lsl #4
 4455 244e 2D99     		ldr	r1, [sp, #180]
 4456 2450 8907     		lsls	r1, r1, #30
 4457 2452 41EA9401 		orr	r1, r1, r4, lsr #2
 4458 2456 A407     		lsls	r4, r4, #30
 4459 2458 44EA9A04 		orr	r4, r4, r10, lsr #2
 4460 245c 6040     		eors	r0, r0, r4
 4461 245e 4A40     		eors	r2, r2, r1
 4462 2460 2C9C     		ldr	r4, [sp, #176]
 4463 2462 5146     		mov	r1, r10
 4464 2464 4906     		lsls	r1, r1, #25
 4465 2466 41EAD411 		orr	r1, r1, r4, lsr #7
 4466 246a 6406     		lsls	r4, r4, #25
 4467 246c 44EADA14 		orr	r4, r4, r10, lsr #7
 4468 2470 6040     		eors	r0, r0, r4
 4469 2472 4A40     		eors	r2, r2, r1
 4470 2474 2A9C     		ldr	r4, [sp, #168]
 4471 2476 2799     		ldr	r1, [sp, #156]
 4472 2478 DDF8ACA0 		ldr	r10, [sp, #172]
 4473 247c 2E92     		str	r2, [sp, #184]
 4474              	.LVL385:
 365:sha2.c        ****         F_64(w9, 0xa831c66d2db43210ULL)
 4475              		.loc 1 365 9 is_stmt 0 view .LVU705
 4476 247e 6140     		eors	r1, r1, r4
 4477 2480 299C     		ldr	r4, [sp, #164]
 4478 2482 2B9A     		ldr	r2, [sp, #172]
 4479 2484 84EA0A0A 		eor	r10, r4, r10
 4480 2488 2C9C     		ldr	r4, [sp, #176]
 4481 248a 2140     		ands	r1, r1, r4
 4482 248c 2D9C     		ldr	r4, [sp, #180]
 4483 248e 0AEA040A 		and	r10, r10, r4
 4484 2492 279C     		ldr	r4, [sp, #156]
 4485 2494 04EA0B0B 		and	fp, r4, fp
 4486 2498 299C     		ldr	r4, [sp, #164]
 4487 249a 81EA0B01 		eor	r1, r1, fp
 4488 249e 1440     		ands	r4, r4, r2
 4489 24a0 2E9A     		ldr	r2, [sp, #184]
 4490 24a2 4118     		adds	r1, r0, r1
 4491 24a4 8AEA0404 		eor	r4, r10, r4
 4492 24a8 42EB0404 		adc	r4, r2, r4
 4493              	.LVL386:
 365:sha2.c        ****         F_64(w9, 0xa831c66d2db43210ULL)
 4494              		.loc 1 365 9 is_stmt 1 view .LVU706
 365:sha2.c        ****         F_64(w9, 0xa831c66d2db43210ULL)
 4495              		.loc 1 365 9 view .LVU707
 365:sha2.c        ****         F_64(w9, 0xa831c66d2db43210ULL)
 4496              		.loc 1 365 9 view .LVU708
 365:sha2.c        ****         F_64(w9, 0xa831c66d2db43210ULL)
 4497              		.loc 1 365 9 view .LVU709
 4498 24ac 269A     		ldr	r2, [sp, #152]
 4499 24ae 12EB080B 		adds	fp, r2, r8
 4500 24b2 289A     		ldr	r2, [sp, #160]
 4501 24b4 42EB0E0A 		adc	r10, r2, lr
 4502              	.LVL387:
 365:sha2.c        ****         F_64(w9, 0xa831c66d2db43210ULL)
 4503              		.loc 1 365 9 view .LVU710
 365:sha2.c        ****         F_64(w9, 0xa831c66d2db43210ULL)
 4504              		.loc 1 365 9 view .LVU711
 365:sha2.c        ****         F_64(w9, 0xa831c66d2db43210ULL)
 4505              		.loc 1 365 9 view .LVU712
 365:sha2.c        ****         F_64(w9, 0xa831c66d2db43210ULL)
 4506              		.loc 1 365 9 view .LVU713
 4507 24b8 18EB0102 		adds	r2, r8, r1
 4508 24bc 2692     		str	r2, [sp, #152]
 4509 24be 4EEB0402 		adc	r2, lr, r4
 4510 24c2 2892     		str	r2, [sp, #160]
 4511              	.LVL388:
 366:sha2.c        ****         F_64(w10, 0xb00327c898fb213fULL)
 4512              		.loc 1 366 9 view .LVU714
 4513 24c4 4FEA9B40 		lsr	r0, fp, #18
 4514 24c8 4FEA9A44 		lsr	r4, r10, #18
 4515              	.LVL389:
 366:sha2.c        ****         F_64(w10, 0xb00327c898fb213fULL)
 4516              		.loc 1 366 9 is_stmt 0 view .LVU715
 4517 24cc 4FEA9B32 		lsr	r2, fp, #14
 4518              	.LVL390:
 366:sha2.c        ****         F_64(w10, 0xb00327c898fb213fULL)
 4519              		.loc 1 366 9 view .LVU716
 4520 24d0 4FEA9A31 		lsr	r1, r10, #14
 4521              	.LVL391:
 366:sha2.c        ****         F_64(w10, 0xb00327c898fb213fULL)
 4522              		.loc 1 366 9 view .LVU717
 4523 24d4 42EA8A42 		orr	r2, r2, r10, lsl #18
 4524 24d8 41EA8B41 		orr	r1, r1, fp, lsl #18
 4525 24dc 40EA8A38 		orr	r8, r0, r10, lsl #14
 4526              	.LVL392:
 366:sha2.c        ****         F_64(w10, 0xb00327c898fb213fULL)
 4527              		.loc 1 366 9 view .LVU718
 4528 24e0 44EA8B3E 		orr	lr, r4, fp, lsl #14
 4529 24e4 82EA0800 		eor	r0, r2, r8
 4530 24e8 81EA0E04 		eor	r4, r1, lr
 4531 24ec 4FEACB52 		lsl	r2, fp, #23
 4532 24f0 4FEACA51 		lsl	r1, r10, #23
 4533 24f4 42EA5A22 		orr	r2, r2, r10, lsr #9
 4534 24f8 41EA5B21 		orr	r1, r1, fp, lsr #9
 4535 24fc 82EA000E 		eor	lr, r2, r0
 4536 2500 6140     		eors	r1, r1, r4
 4537 2502 9748     		ldr	r0, .L28+8
 4538 2504 219C     		ldr	r4, [sp, #132]
 4539 2506 0F9A     		ldr	r2, [sp, #60]
 4540 2508 DDF8A080 		ldr	r8, [sp, #160]
 4541 250c 2018     		adds	r0, r4, r0
 4542 250e 954C     		ldr	r4, .L28+12
 4543 2510 44EB0204 		adc	r4, r4, r2
 4544 2514 10EB0900 		adds	r0, r0, r9
 4545 2518 47EB0404 		adc	r4, r7, r4
 4546 251c 1EEB0000 		adds	r0, lr, r0
 4547 2520 05EA0A02 		and	r2, r5, r10
 4548 2524 41EB0404 		adc	r4, r1, r4
 4549 2528 23EA0A07 		bic	r7, r3, r10
 4550              	.LVL393:
 366:sha2.c        ****         F_64(w10, 0xb00327c898fb213fULL)
 4551              		.loc 1 366 9 view .LVU719
 4552 252c 26EA0B01 		bic	r1, r6, fp
 4553 2530 0CEA0B09 		and	r9, ip, fp
 366:sha2.c        ****         F_64(w10, 0xb00327c898fb213fULL)
 4554              		.loc 1 366 9 view .LVU720
 4555 2534 81EA0909 		eor	r9, r1, r9
 4556 2538 5740     		eors	r7, r7, r2
 4557 253a 269A     		ldr	r2, [sp, #152]
 4558 253c 2699     		ldr	r1, [sp, #152]
 4559 253e DDF898E0 		ldr	lr, [sp, #152]
 4560 2542 10EB0900 		adds	r0, r0, r9
 4561 2546 44EB0704 		adc	r4, r4, r7
 4562              	.LVL394:
 366:sha2.c        ****         F_64(w10, 0xb00327c898fb213fULL)
 4563              		.loc 1 366 9 is_stmt 1 view .LVU721
 4564 254a 170F     		lsrs	r7, r2, #28
 4565 254c 289A     		ldr	r2, [sp, #160]
 4566 254e 47EA0217 		orr	r7, r7, r2, lsl #4
 4567 2552 120F     		lsrs	r2, r2, #28
 4568 2554 42EA0112 		orr	r2, r2, r1, lsl #4
 4569 2558 2899     		ldr	r1, [sp, #160]
 4570 255a 8907     		lsls	r1, r1, #30
 4571 255c 41EA9E01 		orr	r1, r1, lr, lsr #2
 4572 2560 4FEA8E7E 		lsl	lr, lr, #30
 4573 2564 4EEA980E 		orr	lr, lr, r8, lsr #2
 4574 2568 87EA0E07 		eor	r7, r7, lr
 4575 256c 4A40     		eors	r2, r2, r1
 4576 256e DDF898E0 		ldr	lr, [sp, #152]
 4577 2572 4146     		mov	r1, r8
 4578 2574 4906     		lsls	r1, r1, #25
 4579 2576 41EADE11 		orr	r1, r1, lr, lsr #7
 4580 257a 4A40     		eors	r2, r2, r1
 4581 257c 2E92     		str	r2, [sp, #184]
 4582              	.LVL395:
 366:sha2.c        ****         F_64(w10, 0xb00327c898fb213fULL)
 4583              		.loc 1 366 9 is_stmt 0 view .LVU722
 4584 257e 2C99     		ldr	r1, [sp, #176]
 4585 2580 2A9A     		ldr	r2, [sp, #168]
 4586 2582 4FEA4E6E 		lsl	lr, lr, #25
 4587 2586 4EEAD81E 		orr	lr, lr, r8, lsr #7
 4588 258a 87EA0E07 		eor	r7, r7, lr
 4589 258e 5140     		eors	r1, r1, r2
 4590 2590 DDF8B4E0 		ldr	lr, [sp, #180]
 4591 2594 2B9A     		ldr	r2, [sp, #172]
 4592 2596 82EA0E08 		eor	r8, r2, lr
 4593 259a 269A     		ldr	r2, [sp, #152]
 4594 259c DDF8B0E0 		ldr	lr, [sp, #176]
 4595 25a0 1140     		ands	r1, r1, r2
 4596 25a2 289A     		ldr	r2, [sp, #160]
 4597 25a4 08EA0208 		and	r8, r8, r2
 4598 25a8 2A9A     		ldr	r2, [sp, #168]
 4599 25aa 02EA0E09 		and	r9, r2, lr
 4600 25ae 2B9A     		ldr	r2, [sp, #172]
 4601 25b0 DDF8B4E0 		ldr	lr, [sp, #180]
 4602 25b4 81EA0901 		eor	r1, r1, r9
 4603 25b8 02EA0E0E 		and	lr, r2, lr
 4604 25bc 2E9A     		ldr	r2, [sp, #184]
 4605 25be 7918     		adds	r1, r7, r1
 4606 25c0 88EA0E0E 		eor	lr, r8, lr
 4607 25c4 42EB0E0E 		adc	lr, r2, lr
 4608              	.LVL396:
 366:sha2.c        ****         F_64(w10, 0xb00327c898fb213fULL)
 4609              		.loc 1 366 9 is_stmt 1 view .LVU723
 366:sha2.c        ****         F_64(w10, 0xb00327c898fb213fULL)
 4610              		.loc 1 366 9 view .LVU724
 366:sha2.c        ****         F_64(w10, 0xb00327c898fb213fULL)
 4611              		.loc 1 366 9 view .LVU725
 366:sha2.c        ****         F_64(w10, 0xb00327c898fb213fULL)
 4612              		.loc 1 366 9 view .LVU726
 4613 25c8 279A     		ldr	r2, [sp, #156]
 4614 25ca 299F     		ldr	r7, [sp, #164]
 4615 25cc 1218     		adds	r2, r2, r0
 4616 25ce 47EB0408 		adc	r8, r7, r4
 4617              	.LVL397:
 366:sha2.c        ****         F_64(w10, 0xb00327c898fb213fULL)
 4618              		.loc 1 366 9 view .LVU727
 366:sha2.c        ****         F_64(w10, 0xb00327c898fb213fULL)
 4619              		.loc 1 366 9 view .LVU728
 366:sha2.c        ****         F_64(w10, 0xb00327c898fb213fULL)
 4620              		.loc 1 366 9 view .LVU729
 366:sha2.c        ****         F_64(w10, 0xb00327c898fb213fULL)
 4621              		.loc 1 366 9 view .LVU730
 4622 25d2 4118     		adds	r1, r0, r1
 4623              	.LVL398:
