   1              		.cpu cortex-m4
   2              		.eabi_attribute 20, 1
   3              		.eabi_attribute 21, 1
   4              		.eabi_attribute 23, 3
   5              		.eabi_attribute 24, 1
   6              		.eabi_attribute 25, 1
   7              		.eabi_attribute 26, 1
   8              		.eabi_attribute 30, 4
   9              		.eabi_attribute 34, 1
  10              		.eabi_attribute 18, 4
  11              		.file	"keccakf1600.c"
  12              		.text
  13              	.Ltext0:
  14              		.cfi_sections	.debug_frame
  15              		.section	.text.KeccakF1600_StateExtractBytes,"ax",%progbits
  16              		.align	1
  17              		.global	KeccakF1600_StateExtractBytes
  18              		.arch armv7e-m
  19              		.syntax unified
  20              		.thumb
  21              		.thumb_func
  22              		.fpu softvfp
  24              	KeccakF1600_StateExtractBytes:
  25              	.LVL0:
  26              	.LFB0:
  27              		.file 1 "keccakf1600.c"
   1:keccakf1600.c **** /* Based on the public domain implementation in
   2:keccakf1600.c ****  * crypto_hash/keccakc512/simple/ from http://bench.cr.yp.to/supercop.html
   3:keccakf1600.c ****  * by Ronny Van Keer
   4:keccakf1600.c ****  * and the public domain "TweetFips202" implementation
   5:keccakf1600.c ****  * from https://twitter.com/tweetfips202
   6:keccakf1600.c ****  * by Gilles Van Assche, Daniel J. Bernstein, and Peter Schwabe */
   7:keccakf1600.c **** 
   8:keccakf1600.c **** #include <stdint.h>
   9:keccakf1600.c **** #include <assert.h>
  10:keccakf1600.c **** #include "keccakf1600.h"
  11:keccakf1600.c **** 
  12:keccakf1600.c **** #define NROUNDS 24
  13:keccakf1600.c **** #define ROL(a, offset) ((a << offset) ^ (a >> (64-offset)))
  14:keccakf1600.c **** 
  15:keccakf1600.c **** static const uint64_t KeccakF_RoundConstants[NROUNDS] =
  16:keccakf1600.c **** {
  17:keccakf1600.c ****     (uint64_t)0x0000000000000001ULL,
  18:keccakf1600.c ****     (uint64_t)0x0000000000008082ULL,
  19:keccakf1600.c ****     (uint64_t)0x800000000000808aULL,
  20:keccakf1600.c ****     (uint64_t)0x8000000080008000ULL,
  21:keccakf1600.c ****     (uint64_t)0x000000000000808bULL,
  22:keccakf1600.c ****     (uint64_t)0x0000000080000001ULL,
  23:keccakf1600.c ****     (uint64_t)0x8000000080008081ULL,
  24:keccakf1600.c ****     (uint64_t)0x8000000000008009ULL,
  25:keccakf1600.c ****     (uint64_t)0x000000000000008aULL,
  26:keccakf1600.c ****     (uint64_t)0x0000000000000088ULL,
  27:keccakf1600.c ****     (uint64_t)0x0000000080008009ULL,
  28:keccakf1600.c ****     (uint64_t)0x000000008000000aULL,
  29:keccakf1600.c ****     (uint64_t)0x000000008000808bULL,
  30:keccakf1600.c ****     (uint64_t)0x800000000000008bULL,
  31:keccakf1600.c ****     (uint64_t)0x8000000000008089ULL,
  32:keccakf1600.c ****     (uint64_t)0x8000000000008003ULL,
  33:keccakf1600.c ****     (uint64_t)0x8000000000008002ULL,
  34:keccakf1600.c ****     (uint64_t)0x8000000000000080ULL,
  35:keccakf1600.c ****     (uint64_t)0x000000000000800aULL,
  36:keccakf1600.c ****     (uint64_t)0x800000008000000aULL,
  37:keccakf1600.c ****     (uint64_t)0x8000000080008081ULL,
  38:keccakf1600.c ****     (uint64_t)0x8000000000008080ULL,
  39:keccakf1600.c ****     (uint64_t)0x0000000080000001ULL,
  40:keccakf1600.c ****     (uint64_t)0x8000000080008008ULL
  41:keccakf1600.c **** };
  42:keccakf1600.c **** 
  43:keccakf1600.c **** void KeccakF1600_StateExtractBytes(uint64_t *state, unsigned char *data, unsigned int offset, unsig
  44:keccakf1600.c **** {
  28              		.loc 1 44 1 view -0
  29              		.cfi_startproc
  30              		@ args = 0, pretend = 0, frame = 0
  31              		@ frame_needed = 0, uses_anonymous_args = 0
  45:keccakf1600.c ****     unsigned int i;
  32              		.loc 1 45 5 view .LVU1
  46:keccakf1600.c ****     for(i=0;i<length;i++)
  33              		.loc 1 46 5 view .LVU2
  44:keccakf1600.c ****     unsigned int i;
  34              		.loc 1 44 1 is_stmt 0 view .LVU3
  35 0000 F0B5     		push	{r4, r5, r6, r7, lr}
  36              	.LCFI0:
  37              		.cfi_def_cfa_offset 20
  38              		.cfi_offset 4, -20
  39              		.cfi_offset 5, -16
  40              		.cfi_offset 6, -12
  41              		.cfi_offset 7, -8
  42              		.cfi_offset 14, -4
  43 0002 0B44     		add	r3, r3, r1
  44              	.LVL1:
  44:keccakf1600.c ****     unsigned int i;
  45              		.loc 1 44 1 view .LVU4
  46 0004 521A     		subs	r2, r2, r1
  47              	.LVL2:
  48              	.L2:
  49              		.loc 1 46 13 is_stmt 1 discriminator 1 view .LVU5
  50              		.loc 1 46 5 is_stmt 0 discriminator 1 view .LVU6
  51 0006 9942     		cmp	r1, r3
  52 0008 00D1     		bne	.L3
  47:keccakf1600.c ****     {
  48:keccakf1600.c ****         data[i] = state[(offset + i) >> 3] >> (8*((offset + i) & 0x07));
  49:keccakf1600.c ****     }
  50:keccakf1600.c **** }
  53              		.loc 1 50 1 view .LVU7
  54 000a F0BD     		pop	{r4, r5, r6, r7, pc}
  55              	.L3:
  48:keccakf1600.c ****     }
  56              		.loc 1 48 9 is_stmt 1 discriminator 3 view .LVU8
  57 000c 5418     		adds	r4, r2, r1
  48:keccakf1600.c ****     }
  58              		.loc 1 48 24 is_stmt 0 discriminator 3 view .LVU9
  59 000e 24F00706 		bic	r6, r4, #7
  48:keccakf1600.c ****     }
  60              		.loc 1 48 38 discriminator 3 view .LVU10
  61 0012 E508     		lsrs	r5, r4, #3
  48:keccakf1600.c ****     }
  62              		.loc 1 48 24 discriminator 3 view .LVU11
  63 0014 0644     		add	r6, r6, r0
  48:keccakf1600.c ****     }
  64              		.loc 1 48 64 discriminator 3 view .LVU12
  65 0016 04F00704 		and	r4, r4, #7
  48:keccakf1600.c ****     }
  66              		.loc 1 48 44 discriminator 3 view .LVU13
  67 001a D6F804C0 		ldr	ip, [r6, #4]
  68 001e 50F83550 		ldr	r5, [r0, r5, lsl #3]
  48:keccakf1600.c ****     }
  69              		.loc 1 48 49 discriminator 3 view .LVU14
  70 0022 E400     		lsls	r4, r4, #3
  48:keccakf1600.c ****     }
  71              		.loc 1 48 44 discriminator 3 view .LVU15
  72 0024 C4F12007 		rsb	r7, r4, #32
  73 0028 A4F12006 		sub	r6, r4, #32
  74 002c 0CFA07F7 		lsl	r7, ip, r7
  75 0030 25FA04F4 		lsr	r4, r5, r4
  76 0034 3C43     		orrs	r4, r4, r7
  77 0036 2CFA06F6 		lsr	r6, ip, r6
  78 003a 3443     		orrs	r4, r4, r6
  48:keccakf1600.c ****     }
  79              		.loc 1 48 17 discriminator 3 view .LVU16
  80 003c 01F8014B 		strb	r4, [r1], #1
  81              	.LVL3:
  46:keccakf1600.c ****     {
  82              		.loc 1 46 22 is_stmt 1 discriminator 3 view .LVU17
  46:keccakf1600.c ****     {
  83              		.loc 1 46 22 is_stmt 0 discriminator 3 view .LVU18
  84 0040 E1E7     		b	.L2
  85              		.cfi_endproc
  86              	.LFE0:
  88              		.section	.text.KeccakF1600_StateXORBytes,"ax",%progbits
  89              		.align	1
  90              		.global	KeccakF1600_StateXORBytes
  91              		.syntax unified
  92              		.thumb
  93              		.thumb_func
  94              		.fpu softvfp
  96              	KeccakF1600_StateXORBytes:
  97              	.LVL4:
  98              	.LFB1:
  51:keccakf1600.c **** 
  52:keccakf1600.c **** void KeccakF1600_StateXORBytes(uint64_t *state, const unsigned char *data, unsigned int offset, uns
  53:keccakf1600.c **** {
  99              		.loc 1 53 1 is_stmt 1 view -0
 100              		.cfi_startproc
 101              		@ args = 0, pretend = 0, frame = 0
 102              		@ frame_needed = 0, uses_anonymous_args = 0
  54:keccakf1600.c ****     unsigned int i;
 103              		.loc 1 54 5 view .LVU20
  55:keccakf1600.c ****     for(i = 0; i < length; i++)
 104              		.loc 1 55 5 view .LVU21
  53:keccakf1600.c ****     unsigned int i;
 105              		.loc 1 53 1 is_stmt 0 view .LVU22
 106 0000 F0B5     		push	{r4, r5, r6, r7, lr}
 107              	.LCFI1:
 108              		.cfi_def_cfa_offset 20
 109              		.cfi_offset 4, -20
 110              		.cfi_offset 5, -16
 111              		.cfi_offset 6, -12
 112              		.cfi_offset 7, -8
 113              		.cfi_offset 14, -4
 114 0002 0B44     		add	r3, r3, r1
 115              	.LVL5:
  53:keccakf1600.c ****     unsigned int i;
 116              		.loc 1 53 1 view .LVU23
 117 0004 521A     		subs	r2, r2, r1
 118              	.LVL6:
 119              	.L5:
 120              		.loc 1 55 16 is_stmt 1 discriminator 1 view .LVU24
 121              		.loc 1 55 5 is_stmt 0 discriminator 1 view .LVU25
 122 0006 9942     		cmp	r1, r3
 123 0008 00D1     		bne	.L6
  56:keccakf1600.c ****     {
  57:keccakf1600.c ****         state[(offset + i) >> 3] ^= (uint64_t)data[i] << (8 * ((offset + i) & 0x07));
  58:keccakf1600.c ****     }
  59:keccakf1600.c **** }
 124              		.loc 1 59 1 view .LVU26
 125 000a F0BD     		pop	{r4, r5, r6, r7, pc}
 126              	.L6:
  57:keccakf1600.c ****     }
 127              		.loc 1 57 9 is_stmt 1 discriminator 3 view .LVU27
 128 000c 5418     		adds	r4, r2, r1
  57:keccakf1600.c ****     }
 129              		.loc 1 57 34 is_stmt 0 discriminator 3 view .LVU28
 130 000e 4FEAD40C 		lsr	ip, r4, #3
 131 0012 24F00707 		bic	r7, r4, #7
  57:keccakf1600.c ****     }
 132              		.loc 1 57 77 discriminator 3 view .LVU29
 133 0016 04F00704 		and	r4, r4, #7
  57:keccakf1600.c ****     }
 134              		.loc 1 57 51 discriminator 3 view .LVU30
 135 001a 11F8016B 		ldrb	r6, [r1], #1	@ zero_extendqisi2
 136              	.LVL7:
  57:keccakf1600.c ****     }
 137              		.loc 1 57 61 discriminator 3 view .LVU31
 138 001e E400     		lsls	r4, r4, #3
  57:keccakf1600.c ****     }
 139              		.loc 1 57 55 discriminator 3 view .LVU32
 140 0020 A4F12005 		sub	r5, r4, #32
 141 0024 C4F1200E 		rsb	lr, r4, #32
  57:keccakf1600.c ****     }
 142              		.loc 1 57 34 discriminator 3 view .LVU33
 143 0028 0744     		add	r7, r7, r0
  57:keccakf1600.c ****     }
 144              		.loc 1 57 55 discriminator 3 view .LVU34
 145 002a 06FA05F5 		lsl	r5, r6, r5
 146 002e 26FA0EFE 		lsr	lr, r6, lr
 147 0032 06FA04F4 		lsl	r4, r6, r4
  57:keccakf1600.c ****     }
 148              		.loc 1 57 34 discriminator 3 view .LVU35
 149 0036 50F83C60 		ldr	r6, [r0, ip, lsl #3]
 150 003a 7440     		eors	r4, r4, r6
 151 003c 7E68     		ldr	r6, [r7, #4]
 152 003e 40F83C40 		str	r4, [r0, ip, lsl #3]
  57:keccakf1600.c ****     }
 153              		.loc 1 57 55 discriminator 3 view .LVU36
 154 0042 45EA0E05 		orr	r5, r5, lr
  57:keccakf1600.c ****     }
 155              		.loc 1 57 34 discriminator 3 view .LVU37
 156 0046 7540     		eors	r5, r5, r6
 157 0048 7D60     		str	r5, [r7, #4]
  55:keccakf1600.c ****     {
 158              		.loc 1 55 28 is_stmt 1 discriminator 3 view .LVU38
 159              	.LVL8:
  55:keccakf1600.c ****     {
 160              		.loc 1 55 28 is_stmt 0 discriminator 3 view .LVU39
 161 004a DCE7     		b	.L5
 162              		.cfi_endproc
 163              	.LFE1:
 165              		.section	.text.KeccakF1600_StateXORBytes1,"ax",%progbits
 166              		.align	1
 167              		.global	KeccakF1600_StateXORBytes1
 168              		.syntax unified
 169              		.thumb
 170              		.thumb_func
 171              		.fpu softvfp
 173              	KeccakF1600_StateXORBytes1:
 174              	.LVL9:
 175              	.LFB2:
  60:keccakf1600.c **** 
  61:keccakf1600.c **** 
  62:keccakf1600.c **** void KeccakF1600_StateXORBytes1(uint64_t *state, const unsigned char *data, unsigned int offset, un
  63:keccakf1600.c **** {
 176              		.loc 1 63 1 is_stmt 1 view -0
 177              		.cfi_startproc
 178              		@ args = 0, pretend = 0, frame = 0
 179              		@ frame_needed = 0, uses_anonymous_args = 0
  64:keccakf1600.c ****     unsigned int i;
 180              		.loc 1 64 5 view .LVU41
  65:keccakf1600.c ****     for(i = 0; i < 1; i++)
 181              		.loc 1 65 5 view .LVU42
 182              		.loc 1 65 16 view .LVU43
  66:keccakf1600.c ****     {
  67:keccakf1600.c ****         state[(offset + i) >> 3] ^= (uint64_t)data[i] << (8 * ((offset + i) & 0x07));
 183              		.loc 1 67 9 view .LVU44
  63:keccakf1600.c ****     unsigned int i;
 184              		.loc 1 63 1 is_stmt 0 view .LVU45
 185 0000 70B5     		push	{r4, r5, r6, lr}
 186              	.LCFI2:
 187              		.cfi_def_cfa_offset 16
 188              		.cfi_offset 4, -16
 189              		.cfi_offset 5, -12
 190              		.cfi_offset 6, -8
 191              		.cfi_offset 14, -4
 192              		.loc 1 67 34 view .LVU46
 193 0002 D608     		lsrs	r6, r2, #3
 194 0004 22F00704 		bic	r4, r2, #7
 195              		.loc 1 67 77 view .LVU47
 196 0008 02F00702 		and	r2, r2, #7
 197              	.LVL10:
 198              		.loc 1 67 37 view .LVU48
 199 000c 0978     		ldrb	r1, [r1]	@ zero_extendqisi2
 200              	.LVL11:
 201              		.loc 1 67 61 view .LVU49
 202 000e D200     		lsls	r2, r2, #3
 203              		.loc 1 67 34 view .LVU50
 204 0010 0444     		add	r4, r4, r0
 205              		.loc 1 67 55 view .LVU51
 206 0012 A2F12003 		sub	r3, r2, #32
 207              	.LVL12:
 208              		.loc 1 67 55 view .LVU52
 209 0016 C2F12005 		rsb	r5, r2, #32
 210 001a 21FA05F5 		lsr	r5, r1, r5
 211 001e 01FA03F3 		lsl	r3, r1, r3
 212 0022 2B43     		orrs	r3, r3, r5
 213 0024 01FA02F2 		lsl	r2, r1, r2
 214              		.loc 1 67 34 view .LVU53
 215 0028 6568     		ldr	r5, [r4, #4]
 216 002a 50F83610 		ldr	r1, [r0, r6, lsl #3]
 217 002e 6B40     		eors	r3, r3, r5
 218 0030 4A40     		eors	r2, r2, r1
 219 0032 40F83620 		str	r2, [r0, r6, lsl #3]
 220 0036 6360     		str	r3, [r4, #4]
  65:keccakf1600.c ****     for(i = 0; i < 1; i++)
 221              		.loc 1 65 23 is_stmt 1 view .LVU54
 222              	.LVL13:
  65:keccakf1600.c ****     for(i = 0; i < 1; i++)
 223              		.loc 1 65 16 view .LVU55
  68:keccakf1600.c ****     }
  69:keccakf1600.c **** }
 224              		.loc 1 69 1 is_stmt 0 view .LVU56
 225 0038 70BD     		pop	{r4, r5, r6, pc}
 226              		.cfi_endproc
 227              	.LFE2:
 229              		.section	.text.KeccakF1600_StatePermute,"ax",%progbits
 230              		.align	1
 231              		.global	KeccakF1600_StatePermute
 232              		.syntax unified
 233              		.thumb
 234              		.thumb_func
 235              		.fpu softvfp
 237              	KeccakF1600_StatePermute:
 238              	.LVL14:
 239              	.LFB3:
  70:keccakf1600.c **** 
  71:keccakf1600.c **** void KeccakF1600_StatePermute(uint64_t * state)
  72:keccakf1600.c **** {
 240              		.loc 1 72 1 is_stmt 1 view -0
 241              		.cfi_startproc
 242              		@ args = 0, pretend = 0, frame = 248
 243              		@ frame_needed = 0, uses_anonymous_args = 0
  73:keccakf1600.c ****   int round;
 244              		.loc 1 73 3 view .LVU58
  74:keccakf1600.c **** 
  75:keccakf1600.c ****         uint64_t Aba, Abe, Abi, Abo, Abu;
 245              		.loc 1 75 9 view .LVU59
  76:keccakf1600.c ****         uint64_t Aga, Age, Agi, Ago, Agu;
 246              		.loc 1 76 9 view .LVU60
  77:keccakf1600.c ****         uint64_t Aka, Ake, Aki, Ako, Aku;
 247              		.loc 1 77 9 view .LVU61
  78:keccakf1600.c ****         uint64_t Ama, Ame, Ami, Amo, Amu;
 248              		.loc 1 78 9 view .LVU62
  79:keccakf1600.c ****         uint64_t Asa, Ase, Asi, Aso, Asu;
 249              		.loc 1 79 9 view .LVU63
  80:keccakf1600.c ****         uint64_t BCa, BCe, BCi, BCo, BCu;
 250              		.loc 1 80 9 view .LVU64
  81:keccakf1600.c ****         uint64_t Da, De, Di, Do, Du;
 251              		.loc 1 81 9 view .LVU65
  82:keccakf1600.c ****         uint64_t Eba, Ebe, Ebi, Ebo, Ebu;
 252              		.loc 1 82 9 view .LVU66
  83:keccakf1600.c ****         uint64_t Ega, Ege, Egi, Ego, Egu;
 253              		.loc 1 83 9 view .LVU67
  84:keccakf1600.c ****         uint64_t Eka, Eke, Eki, Eko, Eku;
 254              		.loc 1 84 9 view .LVU68
  85:keccakf1600.c ****         uint64_t Ema, Eme, Emi, Emo, Emu;
 255              		.loc 1 85 9 view .LVU69
  86:keccakf1600.c ****         uint64_t Esa, Ese, Esi, Eso, Esu;
 256              		.loc 1 86 9 view .LVU70
  87:keccakf1600.c **** 
  88:keccakf1600.c ****         //copyFromState(A, state)
  89:keccakf1600.c ****         Aba = state[ 0]; 
 257              		.loc 1 89 9 view .LVU71
  72:keccakf1600.c ****   int round;
 258              		.loc 1 72 1 is_stmt 0 view .LVU72
 259 0000 2DE9F04F 		push	{r4, r5, r6, r7, r8, r9, r10, fp, lr}
 260              	.LCFI3:
 261              		.cfi_def_cfa_offset 36
 262              		.cfi_offset 4, -36
 263              		.cfi_offset 5, -32
 264              		.cfi_offset 6, -28
 265              		.cfi_offset 7, -24
 266              		.cfi_offset 8, -20
 267              		.cfi_offset 9, -16
 268              		.cfi_offset 10, -12
 269              		.cfi_offset 11, -8
 270              		.cfi_offset 14, -4
 271 0004 BFB0     		sub	sp, sp, #252
 272              	.LCFI4:
 273              		.cfi_def_cfa_offset 288
 274              		.loc 1 89 13 view .LVU73
 275 0006 0368     		ldr	r3, [r0]
 276 0008 0C93     		str	r3, [sp, #48]
 277 000a 4368     		ldr	r3, [r0, #4]
 278 000c 0D93     		str	r3, [sp, #52]
 279              	.LVL15:
  90:keccakf1600.c ****         Abe = state[ 1];
 280              		.loc 1 90 9 is_stmt 1 view .LVU74
 281              		.loc 1 90 13 is_stmt 0 view .LVU75
 282 000e 8368     		ldr	r3, [r0, #8]
 283              	.LVL16:
 284              		.loc 1 90 13 view .LVU76
 285 0010 0E93     		str	r3, [sp, #56]
 286 0012 C368     		ldr	r3, [r0, #12]
 287 0014 0F93     		str	r3, [sp, #60]
 288              	.LVL17:
  91:keccakf1600.c ****         Abi = state[ 2];
 289              		.loc 1 91 9 is_stmt 1 view .LVU77
 290              		.loc 1 91 13 is_stmt 0 view .LVU78
 291 0016 0369     		ldr	r3, [r0, #16]
 292              	.LVL18:
 293              		.loc 1 91 13 view .LVU79
 294 0018 1093     		str	r3, [sp, #64]
 295 001a 4369     		ldr	r3, [r0, #20]
 296 001c 1193     		str	r3, [sp, #68]
 297              	.LVL19:
  92:keccakf1600.c ****         Abo = state[ 3];
 298              		.loc 1 92 9 is_stmt 1 view .LVU80
 299              		.loc 1 92 13 is_stmt 0 view .LVU81
 300 001e 8369     		ldr	r3, [r0, #24]
 301              	.LVL20:
 302              		.loc 1 92 13 view .LVU82
 303 0020 1293     		str	r3, [sp, #72]
 304 0022 C369     		ldr	r3, [r0, #28]
 305 0024 1393     		str	r3, [sp, #76]
 306              	.LVL21:
  93:keccakf1600.c ****         Abu = state[ 4];
 307              		.loc 1 93 9 is_stmt 1 view .LVU83
 308              		.loc 1 93 13 is_stmt 0 view .LVU84
 309 0026 036A     		ldr	r3, [r0, #32]
 310              	.LVL22:
 311              		.loc 1 93 13 view .LVU85
 312 0028 1493     		str	r3, [sp, #80]
 313 002a 436A     		ldr	r3, [r0, #36]
 314 002c 1593     		str	r3, [sp, #84]
 315              	.LVL23:
  94:keccakf1600.c ****         Aga = state[ 5];
 316              		.loc 1 94 9 is_stmt 1 view .LVU86
 317              		.loc 1 94 13 is_stmt 0 view .LVU87
 318 002e 836A     		ldr	r3, [r0, #40]
 319              	.LVL24:
 320              		.loc 1 94 13 view .LVU88
 321 0030 1693     		str	r3, [sp, #88]
 322 0032 C36A     		ldr	r3, [r0, #44]
 323 0034 1793     		str	r3, [sp, #92]
 324              	.LVL25:
  95:keccakf1600.c ****         Age = state[ 6];
 325              		.loc 1 95 9 is_stmt 1 view .LVU89
 326              		.loc 1 95 13 is_stmt 0 view .LVU90
 327 0036 036B     		ldr	r3, [r0, #48]
 328              	.LVL26:
 329              		.loc 1 95 13 view .LVU91
 330 0038 1893     		str	r3, [sp, #96]
 331 003a 436B     		ldr	r3, [r0, #52]
 332 003c 1993     		str	r3, [sp, #100]
 333              	.LVL27:
  96:keccakf1600.c ****         Agi = state[ 7];
 334              		.loc 1 96 9 is_stmt 1 view .LVU92
 335              		.loc 1 96 13 is_stmt 0 view .LVU93
 336 003e 836B     		ldr	r3, [r0, #56]
 337              	.LVL28:
 338              		.loc 1 96 13 view .LVU94
 339 0040 1A93     		str	r3, [sp, #104]
 340 0042 C36B     		ldr	r3, [r0, #60]
 341 0044 1B93     		str	r3, [sp, #108]
 342              	.LVL29:
  97:keccakf1600.c ****         Ago = state[ 8];
 343              		.loc 1 97 9 is_stmt 1 view .LVU95
 344              		.loc 1 97 13 is_stmt 0 view .LVU96
 345 0046 036C     		ldr	r3, [r0, #64]
 346              	.LVL30:
 347              		.loc 1 97 13 view .LVU97
 348 0048 1C93     		str	r3, [sp, #112]
 349 004a 436C     		ldr	r3, [r0, #68]
 350 004c 1D93     		str	r3, [sp, #116]
 351              	.LVL31:
  98:keccakf1600.c ****         Agu = state[ 9]; //0
 352              		.loc 1 98 9 is_stmt 1 view .LVU98
 353              		.loc 1 98 13 is_stmt 0 view .LVU99
 354 004e 836C     		ldr	r3, [r0, #72]
 355              	.LVL32:
 356              		.loc 1 98 13 view .LVU100
 357 0050 1E93     		str	r3, [sp, #120]
 358 0052 C36C     		ldr	r3, [r0, #76]
 359 0054 1F93     		str	r3, [sp, #124]
 360              	.LVL33:
  99:keccakf1600.c ****         Aka = state[10]; //0
 361              		.loc 1 99 9 is_stmt 1 view .LVU101
 362              		.loc 1 99 13 is_stmt 0 view .LVU102
 363 0056 036D     		ldr	r3, [r0, #80]
 364              	.LVL34:
 365              		.loc 1 99 13 view .LVU103
 366 0058 2093     		str	r3, [sp, #128]
 367 005a 436D     		ldr	r3, [r0, #84]
 368 005c 2193     		str	r3, [sp, #132]
 369              	.LVL35:
 100:keccakf1600.c ****         Ake = state[11]; //0
 370              		.loc 1 100 9 is_stmt 1 view .LVU104
 371              		.loc 1 100 13 is_stmt 0 view .LVU105
 372 005e 836D     		ldr	r3, [r0, #88]
 373              	.LVL36:
 374              		.loc 1 100 13 view .LVU106
 375 0060 2293     		str	r3, [sp, #136]
 376 0062 C36D     		ldr	r3, [r0, #92]
 377 0064 2393     		str	r3, [sp, #140]
 378              	.LVL37:
 101:keccakf1600.c ****         Aki = state[12]; //0
 379              		.loc 1 101 9 is_stmt 1 view .LVU107
 380              		.loc 1 101 13 is_stmt 0 view .LVU108
 381 0066 036E     		ldr	r3, [r0, #96]
 382              	.LVL38:
 383              		.loc 1 101 13 view .LVU109
 384 0068 2493     		str	r3, [sp, #144]
 385 006a 436E     		ldr	r3, [r0, #100]
 386 006c 2593     		str	r3, [sp, #148]
 387              	.LVL39:
 102:keccakf1600.c ****         Ako = state[13]; //0
 388              		.loc 1 102 9 is_stmt 1 view .LVU110
 389              		.loc 1 102 13 is_stmt 0 view .LVU111
 390 006e 836E     		ldr	r3, [r0, #104]
 391              	.LVL40:
 392              		.loc 1 102 13 view .LVU112
 393 0070 2693     		str	r3, [sp, #152]
 394 0072 C36E     		ldr	r3, [r0, #108]
 395 0074 2793     		str	r3, [sp, #156]
 396              	.LVL41:
 103:keccakf1600.c ****         Aku = state[14]; //0
 397              		.loc 1 103 9 is_stmt 1 view .LVU113
 398              		.loc 1 103 13 is_stmt 0 view .LVU114
 399 0076 036F     		ldr	r3, [r0, #112]
 400              	.LVL42:
 401              		.loc 1 103 13 view .LVU115
 402 0078 2893     		str	r3, [sp, #160]
 403 007a 436F     		ldr	r3, [r0, #116]
 404 007c 2993     		str	r3, [sp, #164]
 405              	.LVL43:
 104:keccakf1600.c ****         Ama = state[15]; //0
 406              		.loc 1 104 9 is_stmt 1 view .LVU116
 407              		.loc 1 104 13 is_stmt 0 view .LVU117
 408 007e 836F     		ldr	r3, [r0, #120]
 409              	.LVL44:
 410              		.loc 1 104 13 view .LVU118
 411 0080 2A93     		str	r3, [sp, #168]
 412 0082 C36F     		ldr	r3, [r0, #124]
 413 0084 2B93     		str	r3, [sp, #172]
 414              	.LVL45:
 105:keccakf1600.c ****         Ame = state[16];
 415              		.loc 1 105 9 is_stmt 1 view .LVU119
 416              		.loc 1 105 13 is_stmt 0 view .LVU120
 417 0086 D0F88030 		ldr	r3, [r0, #128]
 418              	.LVL46:
 419              		.loc 1 105 13 view .LVU121
 420 008a 2C93     		str	r3, [sp, #176]
 421 008c D0F88430 		ldr	r3, [r0, #132]
 422 0090 2D93     		str	r3, [sp, #180]
 423              	.LVL47:
 106:keccakf1600.c ****         Ami = state[17]; //0
 424              		.loc 1 106 9 is_stmt 1 view .LVU122
 425              		.loc 1 106 13 is_stmt 0 view .LVU123
 426 0092 D0F88830 		ldr	r3, [r0, #136]
 427              	.LVL48:
 428              		.loc 1 106 13 view .LVU124
 429 0096 2E93     		str	r3, [sp, #184]
 430 0098 D0F88C30 		ldr	r3, [r0, #140]
 431 009c 2F93     		str	r3, [sp, #188]
 432              	.LVL49:
 107:keccakf1600.c ****         Amo = state[18]; //0
 433              		.loc 1 107 9 is_stmt 1 view .LVU125
 434              		.loc 1 107 13 is_stmt 0 view .LVU126
 435 009e D0F89030 		ldr	r3, [r0, #144]
 436              	.LVL50:
 437              		.loc 1 107 13 view .LVU127
 438 00a2 3093     		str	r3, [sp, #192]
 439 00a4 D0F89430 		ldr	r3, [r0, #148]
 440 00a8 3193     		str	r3, [sp, #196]
 441              	.LVL51:
 108:keccakf1600.c ****         Amu = state[19]; //0
 442              		.loc 1 108 9 is_stmt 1 view .LVU128
 443              		.loc 1 108 13 is_stmt 0 view .LVU129
 444 00aa D0F89830 		ldr	r3, [r0, #152]
 445              	.LVL52:
 446              		.loc 1 108 13 view .LVU130
 447 00ae 3293     		str	r3, [sp, #200]
 448 00b0 D0F89C30 		ldr	r3, [r0, #156]
 449 00b4 3393     		str	r3, [sp, #204]
 450              	.LVL53:
 109:keccakf1600.c ****         Asa = state[20]; //0
 451              		.loc 1 109 9 is_stmt 1 view .LVU131
 452              		.loc 1 109 13 is_stmt 0 view .LVU132
 453 00b6 D0F8A030 		ldr	r3, [r0, #160]
 454              	.LVL54:
 455              		.loc 1 109 13 view .LVU133
 456 00ba 0B93     		str	r3, [sp, #44]
 457 00bc D0F8A430 		ldr	r3, [r0, #164]
 458 00c0 3493     		str	r3, [sp, #208]
 459              	.LVL55:
 110:keccakf1600.c ****         Ase = state[21]; //0
 460              		.loc 1 110 9 is_stmt 1 view .LVU134
 461              		.loc 1 110 13 is_stmt 0 view .LVU135
 462 00c2 D0F8A830 		ldr	r3, [r0, #168]
 463              	.LVL56:
 464              		.loc 1 110 13 view .LVU136
 465 00c6 3593     		str	r3, [sp, #212]
 466 00c8 D0F8AC30 		ldr	r3, [r0, #172]
 467 00cc 3693     		str	r3, [sp, #216]
 468              	.LVL57:
 111:keccakf1600.c ****         Asi = state[22]; //0
 469              		.loc 1 111 9 is_stmt 1 view .LVU137
 470              		.loc 1 111 13 is_stmt 0 view .LVU138
 471 00ce D0F8B030 		ldr	r3, [r0, #176]
 472              	.LVL58:
 473              		.loc 1 111 13 view .LVU139
 474 00d2 3793     		str	r3, [sp, #220]
 475 00d4 D0F8B430 		ldr	r3, [r0, #180]
 476 00d8 3893     		str	r3, [sp, #224]
 477              	.LVL59:
 112:keccakf1600.c ****         Aso = state[23]; //0
 478              		.loc 1 112 9 is_stmt 1 view .LVU140
 479              		.loc 1 112 13 is_stmt 0 view .LVU141
 480 00da D0F8B830 		ldr	r3, [r0, #184]
 481              	.LVL60:
 482              		.loc 1 112 13 view .LVU142
 483 00de 3993     		str	r3, [sp, #228]
 484 00e0 D0F8BC30 		ldr	r3, [r0, #188]
 485 00e4 3A93     		str	r3, [sp, #232]
 486              	.LVL61:
 113:keccakf1600.c ****         Asu = state[24]; //0
 487              		.loc 1 113 9 is_stmt 1 view .LVU143
 488              		.loc 1 113 13 is_stmt 0 view .LVU144
 489 00e6 D0F8C030 		ldr	r3, [r0, #192]
 490              	.LVL62:
 491              		.loc 1 113 13 view .LVU145
 492 00ea 3B93     		str	r3, [sp, #236]
 493 00ec D0F8C460 		ldr	r6, [r0, #196]
 494              	.LVL63:
 114:keccakf1600.c **** 
 115:keccakf1600.c ****         for( round = 0; round < NROUNDS; round += 2 )
 495              		.loc 1 115 9 is_stmt 1 view .LVU146
 496              		.loc 1 115 25 view .LVU147
 497 00f0 014B     		ldr	r3, .L11
 498              	.LVL64:
 499              		.loc 1 115 25 is_stmt 0 view .LVU148
 500 00f2 0193     		str	r3, [sp, #4]
 501 00f4 02E0     		b	.L12
 502              	.L13:
 503 00f6 00BF     		.align	2
 504              	.L11:
 505 00f8 00000000 		.word	.LANCHOR0
 506              	.L12:
 507              	.LVL65:
 508              	.L9:
 116:keccakf1600.c ****         {
 117:keccakf1600.c ****             //    prepareTheta
 118:keccakf1600.c ****             BCa = Aba^Aga^Aka^Ama^Asa;
 509              		.loc 1 118 13 is_stmt 1 discriminator 3 view .LVU149
 510              		.loc 1 118 22 is_stmt 0 discriminator 3 view .LVU150
 511 00fc 169A     		ldr	r2, [sp, #88]
 512 00fe 0C9B     		ldr	r3, [sp, #48]
 513 0100 1799     		ldr	r1, [sp, #92]
 514 0102 5340     		eors	r3, r3, r2
 515 0104 0D9A     		ldr	r2, [sp, #52]
 516 0106 82EA0105 		eor	r5, r2, r1
 517              		.loc 1 118 26 discriminator 3 view .LVU151
 518 010a 209A     		ldr	r2, [sp, #128]
 519 010c 5340     		eors	r3, r3, r2
 520 010e 219A     		ldr	r2, [sp, #132]
 521 0110 5540     		eors	r5, r5, r2
 522              		.loc 1 118 30 discriminator 3 view .LVU152
 523 0112 2A9A     		ldr	r2, [sp, #168]
 524 0114 5340     		eors	r3, r3, r2
 525 0116 2B9A     		ldr	r2, [sp, #172]
 526 0118 5540     		eors	r5, r5, r2
 527              		.loc 1 118 17 discriminator 3 view .LVU153
 528 011a 0B9A     		ldr	r2, [sp, #44]
 529 011c 5340     		eors	r3, r3, r2
 530 011e 349A     		ldr	r2, [sp, #208]
 531 0120 0993     		str	r3, [sp, #36]
 532 0122 5540     		eors	r5, r5, r2
 533              	.LVL66:
 119:keccakf1600.c ****             BCe = Abe^Age^Ake^Ame^Ase;
 534              		.loc 1 119 13 is_stmt 1 discriminator 3 view .LVU154
 535              		.loc 1 119 22 is_stmt 0 discriminator 3 view .LVU155
 536 0124 0E9B     		ldr	r3, [sp, #56]
 537              	.LVL67:
 538              		.loc 1 119 22 discriminator 3 view .LVU156
 539 0126 189A     		ldr	r2, [sp, #96]
 540 0128 83EA0209 		eor	r9, r3, r2
 541 012c 0F9B     		ldr	r3, [sp, #60]
 542 012e 199A     		ldr	r2, [sp, #100]
 543 0130 83EA0208 		eor	r8, r3, r2
 544              		.loc 1 119 26 discriminator 3 view .LVU157
 545 0134 229B     		ldr	r3, [sp, #136]
 120:keccakf1600.c ****             BCi = Abi^Agi^Aki^Ami^Asi;
 546              		.loc 1 120 22 discriminator 3 view .LVU158
 547 0136 1A9A     		ldr	r2, [sp, #104]
 119:keccakf1600.c ****             BCe = Abe^Age^Ake^Ame^Ase;
 548              		.loc 1 119 26 discriminator 3 view .LVU159
 549 0138 89EA0309 		eor	r9, r9, r3
 550 013c 239B     		ldr	r3, [sp, #140]
 551 013e 88EA0308 		eor	r8, r8, r3
 119:keccakf1600.c ****             BCe = Abe^Age^Ake^Ame^Ase;
 552              		.loc 1 119 30 discriminator 3 view .LVU160
 553 0142 2C9B     		ldr	r3, [sp, #176]
 554 0144 89EA0309 		eor	r9, r9, r3
 555 0148 2D9B     		ldr	r3, [sp, #180]
 556 014a 88EA0308 		eor	r8, r8, r3
 119:keccakf1600.c ****             BCe = Abe^Age^Ake^Ame^Ase;
 557              		.loc 1 119 17 discriminator 3 view .LVU161
 558 014e 359B     		ldr	r3, [sp, #212]
 559 0150 89EA0309 		eor	r9, r9, r3
 560 0154 369B     		ldr	r3, [sp, #216]
 561 0156 88EA0308 		eor	r8, r8, r3
 562              	.LVL68:
 563              		.loc 1 120 13 is_stmt 1 discriminator 3 view .LVU162
 564              		.loc 1 120 22 is_stmt 0 discriminator 3 view .LVU163
 565 015a 109B     		ldr	r3, [sp, #64]
 566 015c 83EA020C 		eor	ip, r3, r2
 567 0160 119B     		ldr	r3, [sp, #68]
 568 0162 1B9A     		ldr	r2, [sp, #108]
 569 0164 83EA0207 		eor	r7, r3, r2
 570              		.loc 1 120 26 discriminator 3 view .LVU164
 571 0168 249B     		ldr	r3, [sp, #144]
 572 016a 259A     		ldr	r2, [sp, #148]
 573 016c 8CEA030C 		eor	ip, ip, r3
 574 0170 5740     		eors	r7, r7, r2
 575              		.loc 1 120 30 discriminator 3 view .LVU165
 576 0172 2E9B     		ldr	r3, [sp, #184]
 577 0174 2F9A     		ldr	r2, [sp, #188]
 578 0176 8CEA030C 		eor	ip, ip, r3
 579 017a 5740     		eors	r7, r7, r2
 580              		.loc 1 120 17 discriminator 3 view .LVU166
 581 017c 379B     		ldr	r3, [sp, #220]
 582 017e 389A     		ldr	r2, [sp, #224]
 583 0180 8CEA030C 		eor	ip, ip, r3
 584 0184 5740     		eors	r7, r7, r2
 585              	.LVL69:
 121:keccakf1600.c ****             BCo = Abo^Ago^Ako^Amo^Aso;
 586              		.loc 1 121 13 is_stmt 1 discriminator 3 view .LVU167
 587              		.loc 1 121 22 is_stmt 0 discriminator 3 view .LVU168
 588 0186 129B     		ldr	r3, [sp, #72]
 589 0188 1C9A     		ldr	r2, [sp, #112]
 122:keccakf1600.c ****             BCu = Abu^Agu^Aku^Amu^Asu;
 590              		.loc 1 122 22 discriminator 3 view .LVU169
 591 018a DDF87CE0 		ldr	lr, [sp, #124]
 121:keccakf1600.c ****             BCo = Abo^Ago^Ako^Amo^Aso;
 592              		.loc 1 121 22 discriminator 3 view .LVU170
 593 018e 83EA0204 		eor	r4, r3, r2
 594 0192 139B     		ldr	r3, [sp, #76]
 595 0194 1D9A     		ldr	r2, [sp, #116]
 596 0196 83EA0201 		eor	r1, r3, r2
 121:keccakf1600.c ****             BCo = Abo^Ago^Ako^Amo^Aso;
 597              		.loc 1 121 26 discriminator 3 view .LVU171
 598 019a 269A     		ldr	r2, [sp, #152]
 599              		.loc 1 122 22 discriminator 3 view .LVU172
 600 019c 149B     		ldr	r3, [sp, #80]
 121:keccakf1600.c ****             BCo = Abo^Ago^Ako^Amo^Aso;
 601              		.loc 1 121 26 discriminator 3 view .LVU173
 602 019e 5440     		eors	r4, r4, r2
 603 01a0 279A     		ldr	r2, [sp, #156]
 604 01a2 5140     		eors	r1, r1, r2
 121:keccakf1600.c ****             BCo = Abo^Ago^Ako^Amo^Aso;
 605              		.loc 1 121 30 discriminator 3 view .LVU174
 606 01a4 309A     		ldr	r2, [sp, #192]
 607 01a6 5440     		eors	r4, r4, r2
 608 01a8 319A     		ldr	r2, [sp, #196]
 609 01aa 5140     		eors	r1, r1, r2
 121:keccakf1600.c ****             BCo = Abo^Ago^Ako^Amo^Aso;
 610              		.loc 1 121 17 discriminator 3 view .LVU175
 611 01ac 399A     		ldr	r2, [sp, #228]
 612 01ae 5440     		eors	r4, r4, r2
 613 01b0 3A9A     		ldr	r2, [sp, #232]
 614 01b2 5140     		eors	r1, r1, r2
 615              	.LVL70:
 616              		.loc 1 122 13 is_stmt 1 discriminator 3 view .LVU176
 617              		.loc 1 122 22 is_stmt 0 discriminator 3 view .LVU177
 618 01b4 1E9A     		ldr	r2, [sp, #120]
 619 01b6 5A40     		eors	r2, r2, r3
 620 01b8 159B     		ldr	r3, [sp, #84]
 621 01ba 83EA0E0E 		eor	lr, r3, lr
 622              		.loc 1 122 26 discriminator 3 view .LVU178
 623 01be 289B     		ldr	r3, [sp, #160]
 624 01c0 5A40     		eors	r2, r2, r3
 625 01c2 299B     		ldr	r3, [sp, #164]
 626 01c4 8EEA030E 		eor	lr, lr, r3
 627              		.loc 1 122 30 discriminator 3 view .LVU179
 628 01c8 329B     		ldr	r3, [sp, #200]
 629 01ca 5A40     		eors	r2, r2, r3
 630 01cc 339B     		ldr	r3, [sp, #204]
 631 01ce 8EEA030E 		eor	lr, lr, r3
 632              		.loc 1 122 17 discriminator 3 view .LVU180
 633 01d2 3B9B     		ldr	r3, [sp, #236]
 123:keccakf1600.c **** 
 124:keccakf1600.c ****             //thetaRhoPiChiIotaPrepareTheta(round  , A, E)
 125:keccakf1600.c ****             Da = BCu^ROL(BCe, 1);
 634              		.loc 1 125 22 discriminator 3 view .LVU181
 635 01d4 4FEA490B 		lsl	fp, r9, #1
 122:keccakf1600.c ****             BCu = Abu^Agu^Aku^Amu^Asu;
 636              		.loc 1 122 17 discriminator 3 view .LVU182
 637 01d8 5A40     		eors	r2, r2, r3
 638              		.loc 1 125 22 discriminator 3 view .LVU183
 639 01da 4BEAD87B 		orr	fp, fp, r8, lsr #31
 640 01de 4FEA480A 		lsl	r10, r8, #1
 122:keccakf1600.c ****             BCu = Abu^Agu^Aku^Amu^Asu;
 641              		.loc 1 122 17 discriminator 3 view .LVU184
 642 01e2 8EEA060E 		eor	lr, lr, r6
 643              	.LVL71:
 644              		.loc 1 125 13 is_stmt 1 discriminator 3 view .LVU185
 645              		.loc 1 125 16 is_stmt 0 discriminator 3 view .LVU186
 646 01e6 8BEA0203 		eor	r3, fp, r2
 647              		.loc 1 125 22 discriminator 3 view .LVU187
 648 01ea 4AEAD97A 		orr	r10, r10, r9, lsr #31
 649              		.loc 1 125 16 discriminator 3 view .LVU188
 650 01ee 0293     		str	r3, [sp, #8]
 651 01f0 8AEA0E03 		eor	r3, r10, lr
 652 01f4 0393     		str	r3, [sp, #12]
 653              	.LVL72:
 126:keccakf1600.c ****             De = BCa^ROL(BCi, 1);
 654              		.loc 1 126 13 is_stmt 1 discriminator 3 view .LVU189
 655              		.loc 1 126 22 is_stmt 0 discriminator 3 view .LVU190
 656 01f6 4FEA4C0B 		lsl	fp, ip, #1
 657              		.loc 1 126 16 discriminator 3 view .LVU191
 658 01fa 099B     		ldr	r3, [sp, #36]
 659              	.LVL73:
 660              		.loc 1 126 22 discriminator 3 view .LVU192
 661 01fc 4BEAD77B 		orr	fp, fp, r7, lsr #31
 662 0200 4FEA470A 		lsl	r10, r7, #1
 663 0204 4AEADC7A 		orr	r10, r10, ip, lsr #31
 664              		.loc 1 126 16 discriminator 3 view .LVU193
 665 0208 8BEA0303 		eor	r3, fp, r3
 666 020c 0493     		str	r3, [sp, #16]
 667 020e 8AEA0503 		eor	r3, r10, r5
 127:keccakf1600.c ****             Di = BCe^ROL(BCo, 1);
 668              		.loc 1 127 22 discriminator 3 view .LVU194
 669 0212 4FEA410A 		lsl	r10, r1, #1
 670 0216 4AEAD47A 		orr	r10, r10, r4, lsr #31
 126:keccakf1600.c ****             De = BCa^ROL(BCi, 1);
 671              		.loc 1 126 16 discriminator 3 view .LVU195
 672 021a 0593     		str	r3, [sp, #20]
 673              	.LVL74:
 674              		.loc 1 127 13 is_stmt 1 discriminator 3 view .LVU196
 675              		.loc 1 127 16 is_stmt 0 discriminator 3 view .LVU197
 676 021c 8AEA0803 		eor	r3, r10, r8
 677              	.LVL75:
 128:keccakf1600.c ****             Do = BCi^ROL(BCu, 1);
 678              		.loc 1 128 22 discriminator 3 view .LVU198
 679 0220 4FEA4E08 		lsl	r8, lr, #1
 680              	.LVL76:
 681              		.loc 1 128 22 discriminator 3 view .LVU199
 682 0224 48EAD278 		orr	r8, r8, r2, lsr #31
 683 0228 5200     		lsls	r2, r2, #1
 684              	.LVL77:
 685              		.loc 1 128 22 discriminator 3 view .LVU200
 686 022a 42EADE72 		orr	r2, r2, lr, lsr #31
 127:keccakf1600.c ****             Di = BCe^ROL(BCo, 1);
 687              		.loc 1 127 16 discriminator 3 view .LVU201
 688 022e 0693     		str	r3, [sp, #24]
 689              		.loc 1 128 16 discriminator 3 view .LVU202
 690 0230 82EA0C03 		eor	r3, r2, ip
 691 0234 0793     		str	r3, [sp, #28]
 692 0236 88EA0703 		eor	r3, r8, r7
 693 023a 0893     		str	r3, [sp, #32]
 129:keccakf1600.c ****             Du = BCo^ROL(BCa, 1);
 694              		.loc 1 129 22 discriminator 3 view .LVU203
 695 023c 099B     		ldr	r3, [sp, #36]
 696 023e 6A00     		lsls	r2, r5, #1
 697 0240 42EAD372 		orr	r2, r2, r3, lsr #31
 698 0244 5B00     		lsls	r3, r3, #1
 699 0246 43EAD573 		orr	r3, r3, r5, lsr #31
 700              		.loc 1 129 16 discriminator 3 view .LVU204
 701 024a 6340     		eors	r3, r3, r4
 702 024c 0993     		str	r3, [sp, #36]
 703              	.LVL78:
 704              		.loc 1 129 16 discriminator 3 view .LVU205
 705 024e 82EA0103 		eor	r3, r2, r1
 127:keccakf1600.c ****             Di = BCe^ROL(BCo, 1);
 706              		.loc 1 127 22 discriminator 3 view .LVU206
 707 0252 4FEA440B 		lsl	fp, r4, #1
 130:keccakf1600.c **** 
 131:keccakf1600.c ****             Aba ^= Da;
 708              		.loc 1 131 17 discriminator 3 view .LVU207
 709 0256 0C9A     		ldr	r2, [sp, #48]
 129:keccakf1600.c ****             Du = BCo^ROL(BCa, 1);
 710              		.loc 1 129 16 discriminator 3 view .LVU208
 711 0258 0A93     		str	r3, [sp, #40]
 712              		.loc 1 131 17 discriminator 3 view .LVU209
 713 025a 029B     		ldr	r3, [sp, #8]
 127:keccakf1600.c ****             Do = BCi^ROL(BCu, 1);
 714              		.loc 1 127 22 discriminator 3 view .LVU210
 715 025c 4BEAD17B 		orr	fp, fp, r1, lsr #31
 127:keccakf1600.c ****             Do = BCi^ROL(BCu, 1);
 716              		.loc 1 127 16 discriminator 3 view .LVU211
 717 0260 8BEA090B 		eor	fp, fp, r9
 718              	.LVL79:
 128:keccakf1600.c ****             Du = BCo^ROL(BCa, 1);
 719              		.loc 1 128 13 is_stmt 1 discriminator 3 view .LVU212
 129:keccakf1600.c **** 
 720              		.loc 1 129 13 discriminator 3 view .LVU213
 721              		.loc 1 131 13 discriminator 3 view .LVU214
 722              		.loc 1 131 17 is_stmt 0 discriminator 3 view .LVU215
 723 0264 83EA0209 		eor	r9, r3, r2
 724              	.LVL80:
 725              		.loc 1 131 17 discriminator 3 view .LVU216
 726 0268 039B     		ldr	r3, [sp, #12]
 727 026a 0D9A     		ldr	r2, [sp, #52]
 132:keccakf1600.c ****             BCa = Aba;
 133:keccakf1600.c ****             Age ^= De;
 134:keccakf1600.c ****             BCe = ROL(Age, 44);
 135:keccakf1600.c ****             Aki ^= Di;
 728              		.loc 1 135 17 discriminator 3 view .LVU217
 729 026c 0699     		ldr	r1, [sp, #24]
 730              	.LVL81:
 731              		.loc 1 135 17 discriminator 3 view .LVU218
 732 026e 259C     		ldr	r4, [sp, #148]
 733              	.LVL82:
 136:keccakf1600.c ****             BCi = ROL(Aki, 43);
 137:keccakf1600.c ****             Amo ^= Do;
 734              		.loc 1 137 17 discriminator 3 view .LVU219
 735 0270 319F     		ldr	r7, [sp, #196]
 736              	.LVL83:
 131:keccakf1600.c ****             BCa = Aba;
 737              		.loc 1 131 17 discriminator 3 view .LVU220
 738 0272 83EA020A 		eor	r10, r3, r2
 739              	.LVL84:
 132:keccakf1600.c ****             BCa = Aba;
 740              		.loc 1 132 13 is_stmt 1 discriminator 3 view .LVU221
 133:keccakf1600.c ****             BCe = ROL(Age, 44);
 741              		.loc 1 133 13 discriminator 3 view .LVU222
 134:keccakf1600.c ****             Aki ^= Di;
 742              		.loc 1 134 13 discriminator 3 view .LVU223
 133:keccakf1600.c ****             BCe = ROL(Age, 44);
 743              		.loc 1 133 17 is_stmt 0 discriminator 3 view .LVU224
 744 0276 189A     		ldr	r2, [sp, #96]
 745 0278 049B     		ldr	r3, [sp, #16]
 746 027a 83EA020E 		eor	lr, r3, r2
 747              	.LVL85:
 133:keccakf1600.c ****             BCe = ROL(Age, 44);
 748              		.loc 1 133 17 discriminator 3 view .LVU225
 749 027e 199A     		ldr	r2, [sp, #100]
 750 0280 059B     		ldr	r3, [sp, #20]
 751 0282 83EA020C 		eor	ip, r3, r2
 752              	.LVL86:
 135:keccakf1600.c ****             BCi = ROL(Aki, 43);
 753              		.loc 1 135 17 discriminator 3 view .LVU226
 754 0286 249A     		ldr	r2, [sp, #144]
 755 0288 8BEA0202 		eor	r2, fp, r2
 756 028c 4C40     		eors	r4, r4, r1
 136:keccakf1600.c ****             Amo ^= Do;
 757              		.loc 1 136 17 discriminator 3 view .LVU227
 758 028e 4FEA5258 		lsr	r8, r2, #21
 759 0292 48EAC428 		orr	r8, r8, r4, lsl #11
 760 0296 640D     		lsrs	r4, r4, #21
 761 0298 44EAC224 		orr	r4, r4, r2, lsl #11
 762              		.loc 1 137 17 discriminator 3 view .LVU228
 763 029c 3099     		ldr	r1, [sp, #192]
 764 029e 079A     		ldr	r2, [sp, #28]
 765 02a0 5140     		eors	r1, r1, r2
 766 02a2 089A     		ldr	r2, [sp, #32]
 134:keccakf1600.c ****             Aki ^= Di;
 767              		.loc 1 134 17 discriminator 3 view .LVU229
 768 02a4 4FEA1E55 		lsr	r5, lr, #20
 769 02a8 45EA0C35 		orr	r5, r5, ip, lsl #12
 770              		.loc 1 137 17 discriminator 3 view .LVU230
 771 02ac 7A40     		eors	r2, r2, r7
 134:keccakf1600.c ****             Aki ^= Di;
 772              		.loc 1 134 17 discriminator 3 view .LVU231
 773 02ae 4FEA1C5C 		lsr	ip, ip, #20
 774 02b2 4CEA0E33 		orr	r3, ip, lr, lsl #12
 775              	.LVL87:
 135:keccakf1600.c ****             BCi = ROL(Aki, 43);
 776              		.loc 1 135 13 is_stmt 1 discriminator 3 view .LVU232
 136:keccakf1600.c ****             Amo ^= Do;
 777              		.loc 1 136 13 discriminator 3 view .LVU233
 778              		.loc 1 137 13 discriminator 3 view .LVU234
 138:keccakf1600.c ****             BCo = ROL(Amo, 21);
 779              		.loc 1 138 13 discriminator 3 view .LVU235
 780              		.loc 1 138 17 is_stmt 0 discriminator 3 view .LVU236
 781 02b6 4FEA425E 		lsl	lr, r2, #21
 782 02ba 4EEAD12E 		orr	lr, lr, r1, lsr #11
 783 02be 4905     		lsls	r1, r1, #21
 784 02c0 41EAD221 		orr	r1, r1, r2, lsr #11
 785              	.LVL88:
 139:keccakf1600.c ****             Asu ^= Du;
 786              		.loc 1 139 13 is_stmt 1 discriminator 3 view .LVU237
 140:keccakf1600.c ****             BCu = ROL(Asu, 14);
 787              		.loc 1 140 13 discriminator 3 view .LVU238
 139:keccakf1600.c ****             Asu ^= Du;
 788              		.loc 1 139 17 is_stmt 0 discriminator 3 view .LVU239
 789 02c4 3B9F     		ldr	r7, [sp, #236]
 790 02c6 099A     		ldr	r2, [sp, #36]
 791 02c8 5740     		eors	r7, r7, r2
 792 02ca 0A9A     		ldr	r2, [sp, #40]
 793 02cc 5640     		eors	r6, r6, r2
 794              	.LVL89:
 795              		.loc 1 140 17 discriminator 3 view .LVU240
 796 02ce BA03     		lsls	r2, r7, #14
 797 02d0 42EA9642 		orr	r2, r2, r6, lsr #18
 798 02d4 4FEA863C 		lsl	ip, r6, #14
 141:keccakf1600.c ****             Eba =   BCa ^((~BCe)&  BCi );
 142:keccakf1600.c ****             Eba ^= (uint64_t)KeccakF_RoundConstants[round];
 799              		.loc 1 142 17 discriminator 3 view .LVU241
 800 02d8 019E     		ldr	r6, [sp, #4]
 140:keccakf1600.c ****             BCu = ROL(Asu, 14);
 801              		.loc 1 140 17 discriminator 3 view .LVU242
 802 02da 4CEA974C 		orr	ip, ip, r7, lsr #18
 803              	.LVL90:
 141:keccakf1600.c ****             Eba =   BCa ^((~BCe)&  BCi );
 804              		.loc 1 141 13 is_stmt 1 discriminator 3 view .LVU243
 805              		.loc 1 142 13 discriminator 3 view .LVU244
 806              		.loc 1 142 17 is_stmt 0 discriminator 3 view .LVU245
 807 02de D6E90076 		ldrd	r7, r6, [r6]
 808 02e2 8AEA0606 		eor	r6, r10, r6
 809 02e6 0D96     		str	r6, [sp, #52]
 810 02e8 89EA0707 		eor	r7, r9, r7
 811 02ec 28EA0506 		bic	r6, r8, r5
 812 02f0 7E40     		eors	r6, r6, r7
 813 02f2 0D9F     		ldr	r7, [sp, #52]
 814 02f4 0C96     		str	r6, [sp, #48]
 815 02f6 24EA0306 		bic	r6, r4, r3
 816 02fa 7740     		eors	r7, r7, r6
 143:keccakf1600.c ****             Ebe =   BCe ^((~BCi)&  BCo );
 817              		.loc 1 143 33 discriminator 3 view .LVU246
 818 02fc 2EEA0406 		bic	r6, lr, r4
 819              		.loc 1 143 17 discriminator 3 view .LVU247
 820 0300 5E40     		eors	r6, r6, r3
 142:keccakf1600.c ****             Ebe =   BCe ^((~BCi)&  BCo );
 821              		.loc 1 142 17 discriminator 3 view .LVU248
 822 0302 0D97     		str	r7, [sp, #52]
 823              	.LVL91:
 824              		.loc 1 143 13 is_stmt 1 discriminator 3 view .LVU249
 825              		.loc 1 143 33 is_stmt 0 discriminator 3 view .LVU250
 826 0304 21EA0807 		bic	r7, r1, r8
 827              	.LVL92:
 828              		.loc 1 143 17 discriminator 3 view .LVU251
 829 0308 6F40     		eors	r7, r7, r5
 830 030a 2596     		str	r6, [sp, #148]
 831              	.LVL93:
 144:keccakf1600.c ****             Ebi =   BCi ^((~BCo)&  BCu );
 832              		.loc 1 144 13 is_stmt 1 discriminator 3 view .LVU252
 145:keccakf1600.c ****             Ebo =   BCo ^((~BCu)&  BCa );
 146:keccakf1600.c ****             Ebu =   BCu ^((~BCa)&  BCe );
 833              		.loc 1 146 33 is_stmt 0 discriminator 3 view .LVU253
 834 030c 25EA0905 		bic	r5, r5, r9
 835              	.LVL94:
 144:keccakf1600.c ****             Ebi =   BCi ^((~BCo)&  BCu );
 836              		.loc 1 144 33 discriminator 3 view .LVU254
 837 0310 2CEA0E06 		bic	r6, ip, lr
 838              	.LVL95:
 839              		.loc 1 146 33 discriminator 3 view .LVU255
 840 0314 23EA0A03 		bic	r3, r3, r10
 841              	.LVL96:
 144:keccakf1600.c ****             Ebi =   BCi ^((~BCo)&  BCu );
 842              		.loc 1 144 17 discriminator 3 view .LVU256
 843 0318 7440     		eors	r4, r4, r6
 844              	.LVL97:
 845              		.loc 1 146 17 discriminator 3 view .LVU257
 846 031a 83EA0C03 		eor	r3, r3, ip
 145:keccakf1600.c ****             Ebo =   BCo ^((~BCu)&  BCa );
 847              		.loc 1 145 33 discriminator 3 view .LVU258
 848 031e 29EA0206 		bic	r6, r9, r2
 143:keccakf1600.c ****             Ebi =   BCi ^((~BCo)&  BCu );
 849              		.loc 1 143 17 discriminator 3 view .LVU259
 850 0322 2497     		str	r7, [sp, #144]
 851              	.LVL98:
 144:keccakf1600.c ****             Ebi =   BCi ^((~BCo)&  BCu );
 852              		.loc 1 144 33 discriminator 3 view .LVU260
 853 0324 22EA0107 		bic	r7, r2, r1
 854              		.loc 1 146 17 discriminator 3 view .LVU261
 855 0328 6A40     		eors	r2, r2, r5
 856              	.LVL99:
 145:keccakf1600.c ****             Ebo =   BCo ^((~BCu)&  BCa );
 857              		.loc 1 145 17 discriminator 3 view .LVU262
 858 032a 7140     		eors	r1, r1, r6
 859              	.LVL100:
 144:keccakf1600.c ****             Ebi =   BCi ^((~BCo)&  BCu );
 860              		.loc 1 144 17 discriminator 3 view .LVU263
 861 032c 3C94     		str	r4, [sp, #240]
 862              	.LVL101:
 145:keccakf1600.c ****             Ebo =   BCo ^((~BCu)&  BCa );
 863              		.loc 1 145 13 is_stmt 1 discriminator 3 view .LVU264
 864              		.loc 1 146 17 is_stmt 0 discriminator 3 view .LVU265
 865 032e 3092     		str	r2, [sp, #192]
 866              	.LVL102:
 145:keccakf1600.c ****             Ebo =   BCo ^((~BCu)&  BCa );
 867              		.loc 1 145 33 discriminator 3 view .LVU266
 868 0330 2AEA0C04 		bic	r4, r10, ip
 869              	.LVL103:
 147:keccakf1600.c **** 
 148:keccakf1600.c ****             Abo ^= Do;
 870              		.loc 1 148 17 discriminator 3 view .LVU267
 871 0334 129A     		ldr	r2, [sp, #72]
 146:keccakf1600.c **** 
 872              		.loc 1 146 17 discriminator 3 view .LVU268
 873 0336 3193     		str	r3, [sp, #196]
 874              		.loc 1 148 17 discriminator 3 view .LVU269
 875 0338 079B     		ldr	r3, [sp, #28]
 145:keccakf1600.c ****             Ebu =   BCu ^((~BCa)&  BCe );
 876              		.loc 1 145 17 discriminator 3 view .LVU270
 877 033a 1891     		str	r1, [sp, #96]
 878              	.LVL104:
 144:keccakf1600.c ****             Ebo =   BCo ^((~BCu)&  BCa );
 879              		.loc 1 144 17 discriminator 3 view .LVU271
 880 033c 87EA0807 		eor	r7, r7, r8
 145:keccakf1600.c ****             Ebu =   BCu ^((~BCa)&  BCe );
 881              		.loc 1 145 17 discriminator 3 view .LVU272
 882 0340 84EA0E01 		eor	r1, r4, lr
 883              		.loc 1 148 17 discriminator 3 view .LVU273
 884 0344 5A40     		eors	r2, r2, r3
 144:keccakf1600.c ****             Ebo =   BCo ^((~BCu)&  BCa );
 885              		.loc 1 144 17 discriminator 3 view .LVU274
 886 0346 3B97     		str	r7, [sp, #236]
 887              	.LVL105:
 145:keccakf1600.c ****             Ebu =   BCu ^((~BCa)&  BCe );
 888              		.loc 1 145 17 discriminator 3 view .LVU275
 889 0348 1991     		str	r1, [sp, #100]
 890              	.LVL106:
 146:keccakf1600.c **** 
 891              		.loc 1 146 13 is_stmt 1 discriminator 3 view .LVU276
 892              		.loc 1 148 13 discriminator 3 view .LVU277
 149:keccakf1600.c ****             BCa = ROL(Abo, 28);
 893              		.loc 1 149 13 discriminator 3 view .LVU278
 148:keccakf1600.c ****             BCa = ROL(Abo, 28);
 894              		.loc 1 148 17 is_stmt 0 discriminator 3 view .LVU279
 895 034a 089B     		ldr	r3, [sp, #32]
 896 034c 1399     		ldr	r1, [sp, #76]
 897              	.LVL107:
 150:keccakf1600.c ****             Agu ^= Du;
 151:keccakf1600.c ****             BCe = ROL(Agu, 20);
 152:keccakf1600.c ****             Aka ^= Da;
 898              		.loc 1 152 17 discriminator 3 view .LVU280
 899 034e 219C     		ldr	r4, [sp, #132]
 153:keccakf1600.c ****             BCi = ROL(Aka,  3);
 154:keccakf1600.c ****             Ame ^= De;
 155:keccakf1600.c ****             BCo = ROL(Ame, 45);
 156:keccakf1600.c ****             Asi ^= Di;
 900              		.loc 1 156 17 discriminator 3 view .LVU281
 901 0350 389F     		ldr	r7, [sp, #224]
 148:keccakf1600.c ****             BCa = ROL(Abo, 28);
 902              		.loc 1 148 17 discriminator 3 view .LVU282
 903 0352 5940     		eors	r1, r1, r3
 149:keccakf1600.c ****             Agu ^= Du;
 904              		.loc 1 149 17 discriminator 3 view .LVU283
 905 0354 4FEA017C 		lsl	ip, r1, #28
 906 0358 4CEA121C 		orr	ip, ip, r2, lsr #4
 907 035c 1207     		lsls	r2, r2, #28
 908 035e 42EA111E 		orr	lr, r2, r1, lsr #4
 909              	.LVL108:
 150:keccakf1600.c ****             BCe = ROL(Agu, 20);
 910              		.loc 1 150 13 is_stmt 1 discriminator 3 view .LVU284
 151:keccakf1600.c ****             Aka ^= Da;
 911              		.loc 1 151 13 discriminator 3 view .LVU285
 150:keccakf1600.c ****             BCe = ROL(Agu, 20);
 912              		.loc 1 150 17 is_stmt 0 discriminator 3 view .LVU286
 913 0362 099B     		ldr	r3, [sp, #36]
 914 0364 1E9A     		ldr	r2, [sp, #120]
 152:keccakf1600.c ****             BCi = ROL(Aka,  3);
 915              		.loc 1 152 17 discriminator 3 view .LVU287
 916 0366 2099     		ldr	r1, [sp, #128]
 150:keccakf1600.c ****             BCe = ROL(Agu, 20);
 917              		.loc 1 150 17 discriminator 3 view .LVU288
 918 0368 83EA0208 		eor	r8, r3, r2
 150:keccakf1600.c ****             BCe = ROL(Agu, 20);
 919              		.loc 1 150 17 discriminator 3 view .LVU289
 920 036c 1F9A     		ldr	r2, [sp, #124]
 921 036e 0A9B     		ldr	r3, [sp, #40]
 922 0370 83EA0206 		eor	r6, r3, r2
 152:keccakf1600.c ****             BCi = ROL(Aka,  3);
 923              		.loc 1 152 17 discriminator 3 view .LVU290
 924 0374 029A     		ldr	r2, [sp, #8]
 925 0376 4A40     		eors	r2, r2, r1
 926 0378 0399     		ldr	r1, [sp, #12]
 927 037a 4C40     		eors	r4, r4, r1
 153:keccakf1600.c ****             Ame ^= De;
 928              		.loc 1 153 17 discriminator 3 view .LVU291
 929 037c 4FEAC409 		lsl	r9, r4, #3
 930              	.LVL109:
 153:keccakf1600.c ****             Ame ^= De;
 931              		.loc 1 153 17 discriminator 3 view .LVU292
 932 0380 49EA5279 		orr	r9, r9, r2, lsr #29
 933 0384 D200     		lsls	r2, r2, #3
 934 0386 42EA5474 		orr	r4, r2, r4, lsr #29
 154:keccakf1600.c ****             BCo = ROL(Ame, 45);
 935              		.loc 1 154 17 discriminator 3 view .LVU293
 936 038a 2C99     		ldr	r1, [sp, #176]
 937 038c 049A     		ldr	r2, [sp, #16]
 151:keccakf1600.c ****             Aka ^= Da;
 938              		.loc 1 151 17 discriminator 3 view .LVU294
 939 038e 3505     		lsls	r5, r6, #20
 940 0390 45EA1835 		orr	r5, r5, r8, lsr #12
 941 0394 4FEA0858 		lsl	r8, r8, #20
 942 0398 48EA1633 		orr	r3, r8, r6, lsr #12
 943              	.LVL110:
 152:keccakf1600.c ****             BCi = ROL(Aka,  3);
 944              		.loc 1 152 13 is_stmt 1 discriminator 3 view .LVU295
 153:keccakf1600.c ****             Ame ^= De;
 945              		.loc 1 153 13 discriminator 3 view .LVU296
 154:keccakf1600.c ****             BCo = ROL(Ame, 45);
 946              		.loc 1 154 13 discriminator 3 view .LVU297
 155:keccakf1600.c ****             Asi ^= Di;
 947              		.loc 1 155 13 discriminator 3 view .LVU298
 154:keccakf1600.c ****             BCo = ROL(Ame, 45);
 948              		.loc 1 154 17 is_stmt 0 discriminator 3 view .LVU299
 949 039c 5140     		eors	r1, r1, r2
 950 039e 2D9E     		ldr	r6, [sp, #180]
 951 03a0 059A     		ldr	r2, [sp, #20]
 155:keccakf1600.c ****             Asi ^= Di;
 952              		.loc 1 155 17 discriminator 3 view .LVU300
 953 03a2 4FEAD148 		lsr	r8, r1, #19
 154:keccakf1600.c ****             BCo = ROL(Ame, 45);
 954              		.loc 1 154 17 discriminator 3 view .LVU301
 955 03a6 7240     		eors	r2, r2, r6
 155:keccakf1600.c ****             Asi ^= Di;
 956              		.loc 1 155 17 discriminator 3 view .LVU302
 957 03a8 48EA4238 		orr	r8, r8, r2, lsl #13
 958 03ac D20C     		lsrs	r2, r2, #19
 959 03ae 42EA4132 		orr	r2, r2, r1, lsl #13
 960              	.LVL111:
 961              		.loc 1 156 13 is_stmt 1 discriminator 3 view .LVU303
 157:keccakf1600.c ****             BCu = ROL(Asi, 61);
 962              		.loc 1 157 13 discriminator 3 view .LVU304
 156:keccakf1600.c ****             BCu = ROL(Asi, 61);
 963              		.loc 1 156 17 is_stmt 0 discriminator 3 view .LVU305
 964 03b2 3799     		ldr	r1, [sp, #220]
 965 03b4 8BEA0106 		eor	r6, fp, r1
 966 03b8 0699     		ldr	r1, [sp, #24]
 967 03ba 7940     		eors	r1, r1, r7
 968              		.loc 1 157 17 discriminator 3 view .LVU306
 969 03bc F708     		lsrs	r7, r6, #3
 970 03be 47EA4177 		orr	r7, r7, r1, lsl #29
 158:keccakf1600.c ****             Ega =   BCa ^((~BCe)&  BCi );
 971              		.loc 1 158 33 discriminator 3 view .LVU307
 972 03c2 24EA030A 		bic	r10, r4, r3
 157:keccakf1600.c ****             BCu = ROL(Asi, 61);
 973              		.loc 1 157 17 discriminator 3 view .LVU308
 974 03c6 C908     		lsrs	r1, r1, #3
 975 03c8 41EA4671 		orr	r1, r1, r6, lsl #29
 976              	.LVL112:
 977              		.loc 1 158 13 is_stmt 1 discriminator 3 view .LVU309
 978              		.loc 1 158 17 is_stmt 0 discriminator 3 view .LVU310
 979 03cc 8AEA0E0A 		eor	r10, r10, lr
 980              		.loc 1 158 33 discriminator 3 view .LVU311
 981 03d0 29EA0506 		bic	r6, r9, r5
 982              		.loc 1 158 17 discriminator 3 view .LVU312
 983 03d4 86EA0C06 		eor	r6, r6, ip
 984 03d8 CDF8B0A0 		str	r10, [sp, #176]
 985              	.LVL113:
 159:keccakf1600.c ****             Ege =   BCe ^((~BCi)&  BCo );
 986              		.loc 1 159 33 discriminator 3 view .LVU313
 987 03dc 28EA040A 		bic	r10, r8, r4
 988              		.loc 1 159 17 discriminator 3 view .LVU314
 989 03e0 8AEA030A 		eor	r10, r10, r3
 158:keccakf1600.c ****             Ega =   BCa ^((~BCe)&  BCi );
 990              		.loc 1 158 17 discriminator 3 view .LVU315
 991 03e4 2D96     		str	r6, [sp, #180]
 992              	.LVL114:
 993              		.loc 1 159 13 is_stmt 1 discriminator 3 view .LVU316
 994              		.loc 1 159 33 is_stmt 0 discriminator 3 view .LVU317
 995 03e6 22EA0906 		bic	r6, r2, r9
 996              	.LVL115:
 997              		.loc 1 159 17 discriminator 3 view .LVU318
 998 03ea 6E40     		eors	r6, r6, r5
 999 03ec CDF848A0 		str	r10, [sp, #72]
 1000              	.LVL116:
 160:keccakf1600.c ****             Egi =   BCi ^((~BCo)&  BCu );
 1001              		.loc 1 160 33 discriminator 3 view .LVU319
 1002 03f0 27EA080A 		bic	r10, r7, r8
 1003              		.loc 1 160 17 discriminator 3 view .LVU320
 1004 03f4 8AEA0404 		eor	r4, r10, r4
 1005              	.LVL117:
 159:keccakf1600.c ****             Ege =   BCe ^((~BCi)&  BCo );
 1006              		.loc 1 159 17 discriminator 3 view .LVU321
 1007 03f8 1396     		str	r6, [sp, #76]
 1008              	.LVL118:
 1009              		.loc 1 160 13 is_stmt 1 discriminator 3 view .LVU322
 1010              		.loc 1 160 33 is_stmt 0 discriminator 3 view .LVU323
 1011 03fa 21EA0206 		bic	r6, r1, r2
 1012              	.LVL119:
 1013              		.loc 1 160 17 discriminator 3 view .LVU324
 1014 03fe 2094     		str	r4, [sp, #128]
 1015              	.LVL120:
 1016              		.loc 1 160 17 discriminator 3 view .LVU325
 1017 0400 86EA0904 		eor	r4, r6, r9
 161:keccakf1600.c ****             Ego =   BCo ^((~BCu)&  BCa );
 1018              		.loc 1 161 33 discriminator 3 view .LVU326
 1019 0404 2EEA0706 		bic	r6, lr, r7
 162:keccakf1600.c ****             Egu =   BCu ^((~BCa)&  BCe );
 1020              		.loc 1 162 33 discriminator 3 view .LVU327
 1021 0408 23EA0E0E 		bic	lr, r3, lr
 1022              	.LVL121:
 1023              		.loc 1 162 17 discriminator 3 view .LVU328
 1024 040c 8EEA0703 		eor	r3, lr, r7
 1025              	.LVL122:
 1026              		.loc 1 162 33 discriminator 3 view .LVU329
 1027 0410 25EA0C05 		bic	r5, r5, ip
 1028              	.LVL123:
 160:keccakf1600.c ****             Egi =   BCi ^((~BCo)&  BCu );
 1029              		.loc 1 160 17 discriminator 3 view .LVU330
 1030 0414 2194     		str	r4, [sp, #132]
 1031              	.LVL124:
 161:keccakf1600.c ****             Ego =   BCo ^((~BCu)&  BCa );
 1032              		.loc 1 161 13 is_stmt 1 discriminator 3 view .LVU331
 161:keccakf1600.c ****             Ego =   BCo ^((~BCu)&  BCa );
 1033              		.loc 1 161 33 is_stmt 0 discriminator 3 view .LVU332
 1034 0416 2CEA0104 		bic	r4, ip, r1
 1035              	.LVL125:
 161:keccakf1600.c ****             Ego =   BCo ^((~BCu)&  BCa );
 1036              		.loc 1 161 17 discriminator 3 view .LVU333
 1037 041a 6240     		eors	r2, r2, r4
 1038              	.LVL126:
 1039              		.loc 1 162 17 discriminator 3 view .LVU334
 1040 041c 1E93     		str	r3, [sp, #120]
 1041              	.LVL127:
 1042              		.loc 1 162 17 discriminator 3 view .LVU335
 1043 041e 85EA0103 		eor	r3, r5, r1
 161:keccakf1600.c ****             Ego =   BCo ^((~BCu)&  BCa );
 1044              		.loc 1 161 17 discriminator 3 view .LVU336
 1045 0422 3892     		str	r2, [sp, #224]
 1046              	.LVL128:
 1047              		.loc 1 162 13 is_stmt 1 discriminator 3 view .LVU337
 1048              		.loc 1 162 17 is_stmt 0 discriminator 3 view .LVU338
 1049 0424 1F93     		str	r3, [sp, #124]
 1050              	.LVL129:
 163:keccakf1600.c **** 
 164:keccakf1600.c ****             Abe ^= De;
 1051              		.loc 1 164 13 is_stmt 1 discriminator 3 view .LVU339
 165:keccakf1600.c ****             BCa = ROL(Abe,  1);
 1052              		.loc 1 165 13 discriminator 3 view .LVU340
 164:keccakf1600.c ****             BCa = ROL(Abe,  1);
 1053              		.loc 1 164 17 is_stmt 0 discriminator 3 view .LVU341
 1054 0426 0E9A     		ldr	r2, [sp, #56]
 1055              	.LVL130:
 164:keccakf1600.c ****             BCa = ROL(Abe,  1);
 1056              		.loc 1 164 17 discriminator 3 view .LVU342
 1057 0428 049B     		ldr	r3, [sp, #16]
 1058              	.LVL131:
 164:keccakf1600.c ****             BCa = ROL(Abe,  1);
 1059              		.loc 1 164 17 discriminator 3 view .LVU343
 1060 042a 83EA0209 		eor	r9, r3, r2
 1061 042e 059B     		ldr	r3, [sp, #20]
 1062 0430 0F9A     		ldr	r2, [sp, #60]
 1063 0432 83EA0205 		eor	r5, r3, r2
 166:keccakf1600.c ****             Agi ^= Di;
 1064              		.loc 1 166 17 discriminator 3 view .LVU344
 1065 0436 1A9B     		ldr	r3, [sp, #104]
 161:keccakf1600.c ****             Egu =   BCu ^((~BCa)&  BCe );
 1066              		.loc 1 161 17 discriminator 3 view .LVU345
 1067 0438 86EA0806 		eor	r6, r6, r8
 1068              		.loc 1 166 17 discriminator 3 view .LVU346
 1069 043c 8BEA0302 		eor	r2, fp, r3
 161:keccakf1600.c ****             Egu =   BCu ^((~BCa)&  BCe );
 1070              		.loc 1 161 17 discriminator 3 view .LVU347
 1071 0440 3796     		str	r6, [sp, #220]
 1072              	.LVL132:
 1073              		.loc 1 166 17 discriminator 3 view .LVU348
 1074 0442 069B     		ldr	r3, [sp, #24]
 1075 0444 1B99     		ldr	r1, [sp, #108]
 1076              	.LVL133:
 1077              		.loc 1 166 17 discriminator 3 view .LVU349
 1078 0446 83EA0107 		eor	r7, r3, r1
 167:keccakf1600.c ****             BCe = ROL(Agi,  6);
 1079              		.loc 1 167 17 discriminator 3 view .LVU350
 1080 044a BE01     		lsls	r6, r7, #6
 1081 044c 46EA9266 		orr	r6, r6, r2, lsr #26
 1082 0450 9201     		lsls	r2, r2, #6
 1083 0452 42EA9763 		orr	r3, r2, r7, lsr #26
 168:keccakf1600.c ****             Ako ^= Do;
 1084              		.loc 1 168 17 discriminator 3 view .LVU351
 1085 0456 2699     		ldr	r1, [sp, #152]
 1086 0458 079A     		ldr	r2, [sp, #28]
 1087 045a 82EA0107 		eor	r7, r2, r1
 1088 045e 2799     		ldr	r1, [sp, #156]
 1089 0460 089A     		ldr	r2, [sp, #32]
 165:keccakf1600.c ****             Agi ^= Di;
 1090              		.loc 1 165 17 discriminator 3 view .LVU352
 1091 0462 4FEA450C 		lsl	ip, r5, #1
 1092 0466 4CEAD97C 		orr	ip, ip, r9, lsr #31
 1093              		.loc 1 168 17 discriminator 3 view .LVU353
 1094 046a 4A40     		eors	r2, r2, r1
 165:keccakf1600.c ****             Agi ^= Di;
 1095              		.loc 1 165 17 discriminator 3 view .LVU354
 1096 046c 4FEA4909 		lsl	r9, r9, #1
 169:keccakf1600.c ****             BCi = ROL(Ako, 25);
 1097              		.loc 1 169 17 discriminator 3 view .LVU355
 1098 0470 7906     		lsls	r1, r7, #25
 165:keccakf1600.c ****             Agi ^= Di;
 1099              		.loc 1 165 17 discriminator 3 view .LVU356
 1100 0472 49EAD574 		orr	r4, r9, r5, lsr #31
 1101              	.LVL134:
 166:keccakf1600.c ****             BCe = ROL(Agi,  6);
 1102              		.loc 1 166 13 is_stmt 1 discriminator 3 view .LVU357
 167:keccakf1600.c ****             Ako ^= Do;
 1103              		.loc 1 167 13 discriminator 3 view .LVU358
 168:keccakf1600.c ****             BCi = ROL(Ako, 25);
 1104              		.loc 1 168 13 discriminator 3 view .LVU359
 1105              		.loc 1 169 13 discriminator 3 view .LVU360
 1106              		.loc 1 169 17 is_stmt 0 discriminator 3 view .LVU361
 1107 0476 41EAD211 		orr	r1, r1, r2, lsr #7
 170:keccakf1600.c ****             Amu ^= Du;
 1108              		.loc 1 170 17 discriminator 3 view .LVU362
 1109 047a 329D     		ldr	r5, [sp, #200]
 171:keccakf1600.c ****             BCo = ROL(Amu,  8);
 172:keccakf1600.c ****             Asa ^= Da;
 1110              		.loc 1 172 17 discriminator 3 view .LVU363
 1111 047c DDF8D090 		ldr	r9, [sp, #208]
 169:keccakf1600.c ****             Amu ^= Du;
 1112              		.loc 1 169 17 discriminator 3 view .LVU364
 1113 0480 4FEA4268 		lsl	r8, r2, #25
 170:keccakf1600.c ****             Amu ^= Du;
 1114              		.loc 1 170 17 discriminator 3 view .LVU365
 1115 0484 099A     		ldr	r2, [sp, #36]
 169:keccakf1600.c ****             Amu ^= Du;
 1116              		.loc 1 169 17 discriminator 3 view .LVU366
 1117 0486 48EAD718 		orr	r8, r8, r7, lsr #7
 1118              	.LVL135:
 170:keccakf1600.c ****             Amu ^= Du;
 1119              		.loc 1 170 13 is_stmt 1 discriminator 3 view .LVU367
 171:keccakf1600.c ****             BCo = ROL(Amu,  8);
 1120              		.loc 1 171 13 discriminator 3 view .LVU368
 170:keccakf1600.c ****             Amu ^= Du;
 1121              		.loc 1 170 17 is_stmt 0 discriminator 3 view .LVU369
 1122 048a 5540     		eors	r5, r5, r2
 1123 048c 339F     		ldr	r7, [sp, #204]
 1124 048e 0A9A     		ldr	r2, [sp, #40]
 1125 0490 7A40     		eors	r2, r2, r7
 171:keccakf1600.c ****             BCo = ROL(Amu,  8);
 1126              		.loc 1 171 17 discriminator 3 view .LVU370
 1127 0492 4FEA022E 		lsl	lr, r2, #8
 1128 0496 4EEA156E 		orr	lr, lr, r5, lsr #24
 1129 049a 2D02     		lsls	r5, r5, #8
 1130 049c 45EA1265 		orr	r5, r5, r2, lsr #24
 1131              	.LVL136:
 1132              		.loc 1 172 13 is_stmt 1 discriminator 3 view .LVU371
 173:keccakf1600.c ****             BCu = ROL(Asa, 18);
 1133              		.loc 1 173 13 discriminator 3 view .LVU372
 172:keccakf1600.c ****             BCu = ROL(Asa, 18);
 1134              		.loc 1 172 17 is_stmt 0 discriminator 3 view .LVU373
 1135 04a0 0B9F     		ldr	r7, [sp, #44]
 1136 04a2 029A     		ldr	r2, [sp, #8]
 1137 04a4 7A40     		eors	r2, r2, r7
 1138 04a6 039F     		ldr	r7, [sp, #12]
 1139 04a8 87EA0909 		eor	r9, r7, r9
 1140              		.loc 1 173 17 discriminator 3 view .LVU374
 1141 04ac 4FEA8947 		lsl	r7, r9, #18
 1142 04b0 47EA9237 		orr	r7, r7, r2, lsr #14
 174:keccakf1600.c ****             Eka =   BCa ^((~BCe)&  BCi );
 1143              		.loc 1 174 33 discriminator 3 view .LVU375
 1144 04b4 21EA030A 		bic	r10, r1, r3
 173:keccakf1600.c ****             BCu = ROL(Asa, 18);
 1145              		.loc 1 173 17 discriminator 3 view .LVU376
 1146 04b8 9204     		lsls	r2, r2, #18
 1147 04ba 42EA9932 		orr	r2, r2, r9, lsr #14
 1148              	.LVL137:
 1149              		.loc 1 174 13 is_stmt 1 discriminator 3 view .LVU377
 1150              		.loc 1 174 17 is_stmt 0 discriminator 3 view .LVU378
 1151 04be 8AEA040A 		eor	r10, r10, r4
 1152              		.loc 1 174 33 discriminator 3 view .LVU379
 1153 04c2 28EA0609 		bic	r9, r8, r6
 1154              		.loc 1 174 17 discriminator 3 view .LVU380
 1155 04c6 89EA0C09 		eor	r9, r9, ip
 1156 04ca CDF868A0 		str	r10, [sp, #104]
 175:keccakf1600.c ****             Eke =   BCe ^((~BCi)&  BCo );
 1157              		.loc 1 175 33 discriminator 3 view .LVU381
 1158 04ce 25EA010A 		bic	r10, r5, r1
 1159              		.loc 1 175 17 discriminator 3 view .LVU382
 1160 04d2 8AEA030A 		eor	r10, r10, r3
 174:keccakf1600.c ****             Eka =   BCa ^((~BCe)&  BCi );
 1161              		.loc 1 174 17 discriminator 3 view .LVU383
 1162 04d6 CDF86C90 		str	r9, [sp, #108]
 1163              	.LVL138:
 1164              		.loc 1 175 13 is_stmt 1 discriminator 3 view .LVU384
 176:keccakf1600.c ****             Eki =   BCi ^((~BCo)&  BCu );
 177:keccakf1600.c ****             Eko =   BCo ^((~BCu)&  BCa );
 178:keccakf1600.c ****             Eku =   BCu ^((~BCa)&  BCe );
 1165              		.loc 1 178 33 is_stmt 0 discriminator 3 view .LVU385
 1166 04da 23EA0403 		bic	r3, r3, r4
 1167              	.LVL139:
 175:keccakf1600.c ****             Eke =   BCe ^((~BCi)&  BCo );
 1168              		.loc 1 175 33 discriminator 3 view .LVU386
 1169 04de 2EEA0809 		bic	r9, lr, r8
 1170              	.LVL140:
 175:keccakf1600.c ****             Eke =   BCe ^((~BCi)&  BCo );
 1171              		.loc 1 175 17 discriminator 3 view .LVU387
 1172 04e2 89EA0609 		eor	r9, r9, r6
 1173              		.loc 1 178 17 discriminator 3 view .LVU388
 1174 04e6 5340     		eors	r3, r3, r2
 1175              		.loc 1 178 33 discriminator 3 view .LVU389
 1176 04e8 26EA0C06 		bic	r6, r6, ip
 175:keccakf1600.c ****             Eke =   BCe ^((~BCi)&  BCo );
 1177              		.loc 1 175 17 discriminator 3 view .LVU390
 1178 04ec CDF8C8A0 		str	r10, [sp, #200]
 1179              	.LVL141:
 176:keccakf1600.c ****             Eki =   BCi ^((~BCo)&  BCu );
 1180              		.loc 1 176 33 discriminator 3 view .LVU391
 1181 04f0 22EA050A 		bic	r10, r2, r5
 176:keccakf1600.c ****             Eki =   BCi ^((~BCo)&  BCu );
 1182              		.loc 1 176 17 discriminator 3 view .LVU392
 1183 04f4 8AEA0101 		eor	r1, r10, r1
 1184              	.LVL142:
 175:keccakf1600.c ****             Eke =   BCe ^((~BCi)&  BCo );
 1185              		.loc 1 175 17 discriminator 3 view .LVU393
 1186 04f8 CDF8CC90 		str	r9, [sp, #204]
 1187              	.LVL143:
 176:keccakf1600.c ****             Eki =   BCi ^((~BCo)&  BCu );
 1188              		.loc 1 176 13 is_stmt 1 discriminator 3 view .LVU394
 1189              		.loc 1 178 17 is_stmt 0 discriminator 3 view .LVU395
 1190 04fc 3493     		str	r3, [sp, #208]
 1191              	.LVL144:
 176:keccakf1600.c ****             Eki =   BCi ^((~BCo)&  BCu );
 1192              		.loc 1 176 33 discriminator 3 view .LVU396
 1193 04fe 27EA0E09 		bic	r9, r7, lr
 1194              	.LVL145:
 1195              		.loc 1 178 17 discriminator 3 view .LVU397
 1196 0502 86EA0703 		eor	r3, r6, r7
 176:keccakf1600.c ****             Eki =   BCi ^((~BCo)&  BCu );
 1197              		.loc 1 176 17 discriminator 3 view .LVU398
 1198 0506 0E91     		str	r1, [sp, #56]
 1199              	.LVL146:
 1200              		.loc 1 178 17 discriminator 3 view .LVU399
 1201 0508 3D93     		str	r3, [sp, #244]
 176:keccakf1600.c ****             Eki =   BCi ^((~BCo)&  BCu );
 1202              		.loc 1 176 17 discriminator 3 view .LVU400
 1203 050a 89EA0801 		eor	r1, r9, r8
 179:keccakf1600.c **** 
 180:keccakf1600.c ****             Abu ^= Du;
 1204              		.loc 1 180 17 discriminator 3 view .LVU401
 1205 050e 099B     		ldr	r3, [sp, #36]
 176:keccakf1600.c ****             Eki =   BCi ^((~BCo)&  BCu );
 1206              		.loc 1 176 17 discriminator 3 view .LVU402
 1207 0510 0F91     		str	r1, [sp, #60]
 1208              	.LVL147:
 177:keccakf1600.c ****             Eku =   BCu ^((~BCa)&  BCe );
 1209              		.loc 1 177 13 is_stmt 1 discriminator 3 view .LVU403
 177:keccakf1600.c ****             Eku =   BCu ^((~BCa)&  BCe );
 1210              		.loc 1 177 33 is_stmt 0 discriminator 3 view .LVU404
 1211 0512 24EA0208 		bic	r8, r4, r2
 1212              	.LVL148:
 1213              		.loc 1 180 17 discriminator 3 view .LVU405
 1214 0516 149A     		ldr	r2, [sp, #80]
 1215              	.LVL149:
 177:keccakf1600.c ****             Eku =   BCu ^((~BCa)&  BCe );
 1216              		.loc 1 177 33 discriminator 3 view .LVU406
 1217 0518 2CEA0701 		bic	r1, ip, r7
 1218              	.LVL150:
 1219              		.loc 1 180 17 discriminator 3 view .LVU407
 1220 051c 83EA0207 		eor	r7, r3, r2
 1221 0520 0A9B     		ldr	r3, [sp, #40]
 1222 0522 159A     		ldr	r2, [sp, #84]
 1223 0524 83EA0206 		eor	r6, r3, r2
 181:keccakf1600.c ****             BCa = ROL(Abu, 27);
 182:keccakf1600.c ****             Aga ^= Da;
 1224              		.loc 1 182 17 discriminator 3 view .LVU408
 1225 0528 169A     		ldr	r2, [sp, #88]
 1226 052a 029B     		ldr	r3, [sp, #8]
 177:keccakf1600.c ****             Eku =   BCu ^((~BCa)&  BCe );
 1227              		.loc 1 177 17 discriminator 3 view .LVU409
 1228 052c 81EA0E01 		eor	r1, r1, lr
 1229              		.loc 1 182 17 discriminator 3 view .LVU410
 1230 0530 5340     		eors	r3, r3, r2
 177:keccakf1600.c ****             Eku =   BCu ^((~BCa)&  BCe );
 1231              		.loc 1 177 17 discriminator 3 view .LVU411
 1232 0532 2791     		str	r1, [sp, #156]
 1233              	.LVL151:
 178:keccakf1600.c **** 
 1234              		.loc 1 178 13 is_stmt 1 discriminator 3 view .LVU412
 180:keccakf1600.c ****             BCa = ROL(Abu, 27);
 1235              		.loc 1 180 13 discriminator 3 view .LVU413
 181:keccakf1600.c ****             BCa = ROL(Abu, 27);
 1236              		.loc 1 181 13 discriminator 3 view .LVU414
 1237              		.loc 1 182 17 is_stmt 0 discriminator 3 view .LVU415
 1238 0534 039A     		ldr	r2, [sp, #12]
 1239 0536 1799     		ldr	r1, [sp, #92]
 1240              	.LVL152:
 181:keccakf1600.c ****             BCa = ROL(Abu, 27);
 1241              		.loc 1 181 17 discriminator 3 view .LVU416
 1242 0538 4FEAC66E 		lsl	lr, r6, #27
 1243              	.LVL153:
 181:keccakf1600.c ****             BCa = ROL(Abu, 27);
 1244              		.loc 1 181 17 discriminator 3 view .LVU417
 1245 053c 4EEA571E 		orr	lr, lr, r7, lsr #5
 1246 0540 FF06     		lsls	r7, r7, #27
 1247 0542 47EA561C 		orr	ip, r7, r6, lsr #5
 1248              	.LVL154:
 1249              		.loc 1 182 13 is_stmt 1 discriminator 3 view .LVU418
 183:keccakf1600.c ****             BCe = ROL(Aga, 36);
 1250              		.loc 1 183 13 discriminator 3 view .LVU419
 182:keccakf1600.c ****             BCe = ROL(Aga, 36);
 1251              		.loc 1 182 17 is_stmt 0 discriminator 3 view .LVU420
 1252 0546 5140     		eors	r1, r1, r2
 1253              		.loc 1 183 17 discriminator 3 view .LVU421
 1254 0548 1E0F     		lsrs	r6, r3, #28
 1255 054a 46EA0116 		orr	r6, r6, r1, lsl #4
 177:keccakf1600.c ****             Eku =   BCu ^((~BCa)&  BCe );
 1256              		.loc 1 177 17 discriminator 3 view .LVU422
 1257 054e 88EA0505 		eor	r5, r8, r5
 1258              		.loc 1 183 17 discriminator 3 view .LVU423
 1259 0552 090F     		lsrs	r1, r1, #28
 1260 0554 41EA0311 		orr	r1, r1, r3, lsl #4
 1261              	.LVL155:
 184:keccakf1600.c ****             Ake ^= De;
 1262              		.loc 1 184 13 is_stmt 1 discriminator 3 view .LVU424
 185:keccakf1600.c ****             BCi = ROL(Ake, 10);
 1263              		.loc 1 185 13 discriminator 3 view .LVU425
 177:keccakf1600.c ****             Eku =   BCu ^((~BCa)&  BCe );
 1264              		.loc 1 177 17 is_stmt 0 discriminator 3 view .LVU426
 1265 0558 2695     		str	r5, [sp, #152]
 1266              	.LVL156:
 184:keccakf1600.c ****             Ake ^= De;
 1267              		.loc 1 184 17 discriminator 3 view .LVU427
 1268 055a 049B     		ldr	r3, [sp, #16]
 1269 055c 229A     		ldr	r2, [sp, #136]
 186:keccakf1600.c ****             Ami ^= Di;
 187:keccakf1600.c ****             BCo = ROL(Ami, 15);
 188:keccakf1600.c ****             Aso ^= Do;
 1270              		.loc 1 188 17 discriminator 3 view .LVU428
 1271 055e 399F     		ldr	r7, [sp, #228]
 184:keccakf1600.c ****             BCi = ROL(Ake, 10);
 1272              		.loc 1 184 17 discriminator 3 view .LVU429
 1273 0560 83EA0204 		eor	r4, r3, r2
 1274 0564 239A     		ldr	r2, [sp, #140]
 1275 0566 059B     		ldr	r3, [sp, #20]
 1276 0568 83EA0205 		eor	r5, r3, r2
 185:keccakf1600.c ****             BCi = ROL(Ake, 10);
 1277              		.loc 1 185 17 discriminator 3 view .LVU430
 1278 056c 4FEA8528 		lsl	r8, r5, #10
 1279 0570 48EA9458 		orr	r8, r8, r4, lsr #22
 1280 0574 A402     		lsls	r4, r4, #10
 1281 0576 44EA9555 		orr	r5, r4, r5, lsr #22
 1282              	.LVL157:
 186:keccakf1600.c ****             Ami ^= Di;
 1283              		.loc 1 186 13 is_stmt 1 discriminator 3 view .LVU431
 187:keccakf1600.c ****             Aso ^= Do;
 1284              		.loc 1 187 13 discriminator 3 view .LVU432
 186:keccakf1600.c ****             Ami ^= Di;
 1285              		.loc 1 186 17 is_stmt 0 discriminator 3 view .LVU433
 1286 057a 069A     		ldr	r2, [sp, #24]
 1287 057c 2F9C     		ldr	r4, [sp, #188]
 1288 057e 2E9B     		ldr	r3, [sp, #184]
 1289 0580 5440     		eors	r4, r4, r2
 1290 0582 8BEA0303 		eor	r3, fp, r3
 187:keccakf1600.c ****             Aso ^= Do;
 1291              		.loc 1 187 17 discriminator 3 view .LVU434
 1292 0586 E203     		lsls	r2, r4, #15
 1293 0588 42EA5342 		orr	r2, r2, r3, lsr #17
 1294 058c DB03     		lsls	r3, r3, #15
 1295 058e 43EA5443 		orr	r3, r3, r4, lsr #17
 1296              	.LVL158:
 1297              		.loc 1 188 13 is_stmt 1 discriminator 3 view .LVU435
 189:keccakf1600.c ****             BCu = ROL(Aso, 56);
 1298              		.loc 1 189 13 discriminator 3 view .LVU436
 188:keccakf1600.c ****             BCu = ROL(Aso, 56);
 1299              		.loc 1 188 17 is_stmt 0 discriminator 3 view .LVU437
 1300 0592 079C     		ldr	r4, [sp, #28]
 1301 0594 84EA0709 		eor	r9, r4, r7
 1302 0598 3A9F     		ldr	r7, [sp, #232]
 1303 059a 089C     		ldr	r4, [sp, #32]
 1304 059c 7C40     		eors	r4, r4, r7
 1305              		.loc 1 189 17 discriminator 3 view .LVU438
 1306 059e 4FEA1927 		lsr	r7, r9, #8
 1307 05a2 47EA0467 		orr	r7, r7, r4, lsl #24
 190:keccakf1600.c ****             Ema =   BCa ^((~BCe)&  BCi );
 1308              		.loc 1 190 33 discriminator 3 view .LVU439
 1309 05a6 25EA060A 		bic	r10, r5, r6
 189:keccakf1600.c ****             BCu = ROL(Aso, 56);
 1310              		.loc 1 189 17 discriminator 3 view .LVU440
 1311 05aa 240A     		lsrs	r4, r4, #8
 1312 05ac 44EA0964 		orr	r4, r4, r9, lsl #24
 1313              	.LVL159:
 1314              		.loc 1 190 13 is_stmt 1 discriminator 3 view .LVU441
 1315              		.loc 1 190 17 is_stmt 0 discriminator 3 view .LVU442
 1316 05b0 8AEA0C0A 		eor	r10, r10, ip
 1317              		.loc 1 190 33 discriminator 3 view .LVU443
 1318 05b4 28EA0109 		bic	r9, r8, r1
 1319              		.loc 1 190 17 discriminator 3 view .LVU444
 1320 05b8 89EA0E09 		eor	r9, r9, lr
 1321 05bc CDF8E4A0 		str	r10, [sp, #228]
 1322              	.LVL160:
 191:keccakf1600.c ****             Eme =   BCe ^((~BCi)&  BCo );
 1323              		.loc 1 191 33 discriminator 3 view .LVU445
 1324 05c0 23EA050A 		bic	r10, r3, r5
 1325              		.loc 1 191 17 discriminator 3 view .LVU446
 1326 05c4 8AEA060A 		eor	r10, r10, r6
 190:keccakf1600.c ****             Ema =   BCa ^((~BCe)&  BCi );
 1327              		.loc 1 190 17 discriminator 3 view .LVU447
 1328 05c8 CDF8E890 		str	r9, [sp, #232]
 1329              	.LVL161:
 1330              		.loc 1 191 13 is_stmt 1 discriminator 3 view .LVU448
 1331              		.loc 1 191 33 is_stmt 0 discriminator 3 view .LVU449
 1332 05cc 22EA0809 		bic	r9, r2, r8
 1333              	.LVL162:
 1334              		.loc 1 191 17 discriminator 3 view .LVU450
 1335 05d0 89EA0109 		eor	r9, r9, r1
 1336 05d4 CDF858A0 		str	r10, [sp, #88]
 1337              	.LVL163:
 192:keccakf1600.c ****             Emi =   BCi ^((~BCo)&  BCu );
 1338              		.loc 1 192 33 discriminator 3 view .LVU451
 1339 05d8 27EA030A 		bic	r10, r7, r3
 1340              		.loc 1 192 17 discriminator 3 view .LVU452
 1341 05dc 8AEA0505 		eor	r5, r10, r5
 1342              	.LVL164:
 191:keccakf1600.c ****             Eme =   BCe ^((~BCi)&  BCo );
 1343              		.loc 1 191 17 discriminator 3 view .LVU453
 1344 05e0 CDF85C90 		str	r9, [sp, #92]
 1345              	.LVL165:
 1346              		.loc 1 192 13 is_stmt 1 discriminator 3 view .LVU454
 1347              		.loc 1 192 33 is_stmt 0 discriminator 3 view .LVU455
 1348 05e4 24EA0209 		bic	r9, r4, r2
 1349              	.LVL166:
 1350              		.loc 1 192 17 discriminator 3 view .LVU456
 1351 05e8 2E95     		str	r5, [sp, #184]
 1352              	.LVL167:
 1353              		.loc 1 192 17 discriminator 3 view .LVU457
 1354 05ea 89EA0805 		eor	r5, r9, r8
 193:keccakf1600.c ****             Emo =   BCo ^((~BCu)&  BCa );
 1355              		.loc 1 193 33 discriminator 3 view .LVU458
 1356 05ee 2CEA0708 		bic	r8, ip, r7
 1357              	.LVL168:
 1358              		.loc 1 193 17 discriminator 3 view .LVU459
 1359 05f2 88EA0303 		eor	r3, r8, r3
 1360              	.LVL169:
 192:keccakf1600.c ****             Emi =   BCi ^((~BCo)&  BCu );
 1361              		.loc 1 192 17 discriminator 3 view .LVU460
 1362 05f6 2F95     		str	r5, [sp, #188]
 1363              	.LVL170:
 1364              		.loc 1 193 13 is_stmt 1 discriminator 3 view .LVU461
 1365              		.loc 1 193 33 is_stmt 0 discriminator 3 view .LVU462
 1366 05f8 2EEA0405 		bic	r5, lr, r4
 1367              	.LVL171:
 194:keccakf1600.c ****             Emu =   BCu ^((~BCa)&  BCe );
 1368              		.loc 1 194 33 discriminator 3 view .LVU463
 1369 05fc 26EA0C0C 		bic	ip, r6, ip
 1370              	.LVL172:
 193:keccakf1600.c ****             Emo =   BCo ^((~BCu)&  BCa );
 1371              		.loc 1 193 17 discriminator 3 view .LVU464
 1372 0600 1493     		str	r3, [sp, #80]
 1373              	.LVL173:
 193:keccakf1600.c ****             Emo =   BCo ^((~BCu)&  BCa );
 1374              		.loc 1 193 17 discriminator 3 view .LVU465
 1375 0602 85EA0203 		eor	r3, r5, r2
 1376              		.loc 1 194 33 discriminator 3 view .LVU466
 1377 0606 21EA0E01 		bic	r1, r1, lr
 1378              	.LVL174:
 193:keccakf1600.c ****             Emo =   BCo ^((~BCu)&  BCa );
 1379              		.loc 1 193 17 discriminator 3 view .LVU467
 1380 060a 1593     		str	r3, [sp, #84]
 1381              	.LVL175:
 1382              		.loc 1 194 13 is_stmt 1 discriminator 3 view .LVU468
 1383              		.loc 1 194 17 is_stmt 0 discriminator 3 view .LVU469
 1384 060c 8CEA0703 		eor	r3, ip, r7
 1385              	.LVL176:
 1386              		.loc 1 194 17 discriminator 3 view .LVU470
 1387 0610 2293     		str	r3, [sp, #136]
 1388              	.LVL177:
 1389              		.loc 1 194 17 discriminator 3 view .LVU471
 1390 0612 81EA0403 		eor	r3, r1, r4
 1391 0616 2393     		str	r3, [sp, #140]
 1392              	.LVL178:
 195:keccakf1600.c **** 
 196:keccakf1600.c ****             Abi ^= Di;
 1393              		.loc 1 196 13 is_stmt 1 discriminator 3 view .LVU472
 197:keccakf1600.c ****             BCa = ROL(Abi, 62);
 1394              		.loc 1 197 13 discriminator 3 view .LVU473
 196:keccakf1600.c ****             BCa = ROL(Abi, 62);
 1395              		.loc 1 196 17 is_stmt 0 discriminator 3 view .LVU474
 1396 0618 109B     		ldr	r3, [sp, #64]
 1397              	.LVL179:
 196:keccakf1600.c ****             BCa = ROL(Abi, 62);
 1398              		.loc 1 196 17 discriminator 3 view .LVU475
 1399 061a 119A     		ldr	r2, [sp, #68]
 1400 061c 8BEA0309 		eor	r9, fp, r3
 1401 0620 069B     		ldr	r3, [sp, #24]
 1402 0622 83EA020A 		eor	r10, r3, r2
 198:keccakf1600.c ****             Ago ^= Do;
 1403              		.loc 1 198 17 discriminator 3 view .LVU476
 1404 0626 079B     		ldr	r3, [sp, #28]
 1405 0628 1C9A     		ldr	r2, [sp, #112]
 1406 062a 83EA020C 		eor	ip, r3, r2
 1407 062e 089B     		ldr	r3, [sp, #32]
 1408 0630 1D9A     		ldr	r2, [sp, #116]
 1409 0632 83EA0207 		eor	r7, r3, r2
 1410              	.LVL180:
 199:keccakf1600.c ****             BCe = ROL(Ago, 55);
 200:keccakf1600.c ****             Aku ^= Du;
 1411              		.loc 1 200 17 discriminator 3 view .LVU477
 1412 0636 099B     		ldr	r3, [sp, #36]
 1413 0638 289A     		ldr	r2, [sp, #160]
 1414 063a 83EA0204 		eor	r4, r3, r2
 1415 063e 299A     		ldr	r2, [sp, #164]
 1416 0640 0A9B     		ldr	r3, [sp, #40]
 1417 0642 83EA0201 		eor	r1, r3, r2
 201:keccakf1600.c ****             BCi = ROL(Aku, 39);
 202:keccakf1600.c ****             Ama ^= Da;
 1418              		.loc 1 202 17 discriminator 3 view .LVU478
 1419 0646 029B     		ldr	r3, [sp, #8]
 1420 0648 2A9A     		ldr	r2, [sp, #168]
 197:keccakf1600.c ****             Ago ^= Do;
 1421              		.loc 1 197 17 discriminator 3 view .LVU479
 1422 064a 4FEA9906 		lsr	r6, r9, #2
 1423              		.loc 1 202 17 discriminator 3 view .LVU480
 1424 064e 83EA020B 		eor	fp, r3, r2
 1425              	.LVL181:
 199:keccakf1600.c ****             BCe = ROL(Ago, 55);
 1426              		.loc 1 199 17 discriminator 3 view .LVU481
 1427 0652 4FEA5C2E 		lsr	lr, ip, #9
 1428              		.loc 1 202 17 discriminator 3 view .LVU482
 1429 0656 2B9A     		ldr	r2, [sp, #172]
 1430 0658 039B     		ldr	r3, [sp, #12]
 197:keccakf1600.c ****             Ago ^= Do;
 1431              		.loc 1 197 17 discriminator 3 view .LVU483
 1432 065a 46EA8A76 		orr	r6, r6, r10, lsl #30
 199:keccakf1600.c ****             BCe = ROL(Ago, 55);
 1433              		.loc 1 199 17 discriminator 3 view .LVU484
 1434 065e 4EEAC75E 		orr	lr, lr, r7, lsl #23
 197:keccakf1600.c ****             Ago ^= Do;
 1435              		.loc 1 197 17 discriminator 3 view .LVU485
 1436 0662 4FEA9A0A 		lsr	r10, r10, #2
 199:keccakf1600.c ****             BCe = ROL(Ago, 55);
 1437              		.loc 1 199 17 discriminator 3 view .LVU486
 1438 0666 7F0A     		lsrs	r7, r7, #9
 1439 0668 47EACC55 		orr	r5, r7, ip, lsl #23
 197:keccakf1600.c ****             Ago ^= Do;
 1440              		.loc 1 197 17 discriminator 3 view .LVU487
 1441 066c 4AEA8979 		orr	r9, r10, r9, lsl #30
 1442              	.LVL182:
 198:keccakf1600.c ****             BCe = ROL(Ago, 55);
 1443              		.loc 1 198 13 is_stmt 1 discriminator 3 view .LVU488
 199:keccakf1600.c ****             Aku ^= Du;
 1444              		.loc 1 199 13 discriminator 3 view .LVU489
 200:keccakf1600.c ****             BCi = ROL(Aku, 39);
 1445              		.loc 1 200 13 discriminator 3 view .LVU490
 201:keccakf1600.c ****             Ama ^= Da;
 1446              		.loc 1 201 13 discriminator 3 view .LVU491
 201:keccakf1600.c ****             Ama ^= Da;
 1447              		.loc 1 201 17 is_stmt 0 discriminator 3 view .LVU492
 1448 0670 4FEA546C 		lsr	ip, r4, #25
 1449              		.loc 1 202 17 discriminator 3 view .LVU493
 1450 0674 83EA020A 		eor	r10, r3, r2
 203:keccakf1600.c ****             BCo = ROL(Ama, 41);
 204:keccakf1600.c ****             Ase ^= De;
 1451              		.loc 1 204 17 discriminator 3 view .LVU494
 1452 0678 359A     		ldr	r2, [sp, #212]
 1453 067a 049B     		ldr	r3, [sp, #16]
 201:keccakf1600.c ****             Ama ^= Da;
 1454              		.loc 1 201 17 discriminator 3 view .LVU495
 1455 067c 4CEAC11C 		orr	ip, ip, r1, lsl #7
 203:keccakf1600.c ****             BCo = ROL(Ama, 41);
 1456              		.loc 1 203 17 discriminator 3 view .LVU496
 1457 0680 4FEADA57 		lsr	r7, r10, #23
 201:keccakf1600.c ****             Ama ^= Da;
 1458              		.loc 1 201 17 discriminator 3 view .LVU497
 1459 0684 490E     		lsrs	r1, r1, #25
 1460 0686 41EAC418 		orr	r8, r1, r4, lsl #7
 1461              	.LVL183:
 202:keccakf1600.c ****             BCo = ROL(Ama, 41);
 1462              		.loc 1 202 13 is_stmt 1 discriminator 3 view .LVU498
 203:keccakf1600.c ****             BCo = ROL(Ama, 41);
 1463              		.loc 1 203 13 discriminator 3 view .LVU499
 203:keccakf1600.c ****             BCo = ROL(Ama, 41);
 1464              		.loc 1 203 17 is_stmt 0 discriminator 3 view .LVU500
 1465 068a 47EA4B27 		orr	r7, r7, fp, lsl #9
 1466 068e 4FEADB51 		lsr	r1, fp, #23
 1467              		.loc 1 204 17 discriminator 3 view .LVU501
 1468 0692 83EA020B 		eor	fp, r3, r2
 1469 0696 369A     		ldr	r2, [sp, #216]
 1470 0698 059B     		ldr	r3, [sp, #20]
 203:keccakf1600.c ****             BCo = ROL(Ama, 41);
 1471              		.loc 1 203 17 discriminator 3 view .LVU502
 1472 069a 41EA4A21 		orr	r1, r1, r10, lsl #9
 1473              	.LVL184:
 1474              		.loc 1 204 13 is_stmt 1 discriminator 3 view .LVU503
 205:keccakf1600.c ****             BCu = ROL(Ase,  2);
 1475              		.loc 1 205 13 discriminator 3 view .LVU504
 204:keccakf1600.c ****             BCu = ROL(Ase,  2);
 1476              		.loc 1 204 17 is_stmt 0 discriminator 3 view .LVU505
 1477 069e 83EA020A 		eor	r10, r3, r2
 1478              		.loc 1 205 17 discriminator 3 view .LVU506
 1479 06a2 4FEA8B03 		lsl	r3, fp, #2
 1480 06a6 43EA9A72 		orr	r2, r3, r10, lsr #30
 206:keccakf1600.c ****             Esa =   BCa ^((~BCe)&  BCi );
 1481              		.loc 1 206 33 discriminator 3 view .LVU507
 1482 06aa 28EA0503 		bic	r3, r8, r5
 1483              		.loc 1 206 17 discriminator 3 view .LVU508
 1484 06ae 83EA0903 		eor	r3, r3, r9
 205:keccakf1600.c ****             BCu = ROL(Ase,  2);
 1485              		.loc 1 205 17 discriminator 3 view .LVU509
 1486 06b2 4FEA8A04 		lsl	r4, r10, #2
 1487              		.loc 1 206 33 discriminator 3 view .LVU510
 1488 06b6 2CEA0E0A 		bic	r10, ip, lr
 1489              		.loc 1 206 17 discriminator 3 view .LVU511
 1490 06ba 8AEA060A 		eor	r10, r10, r6
 1491 06be 2993     		str	r3, [sp, #164]
 207:keccakf1600.c ****             Ese =   BCe ^((~BCi)&  BCo );
 1492              		.loc 1 207 33 discriminator 3 view .LVU512
 1493 06c0 21EA0C03 		bic	r3, r1, ip
 206:keccakf1600.c ****             Esa =   BCa ^((~BCe)&  BCi );
 1494              		.loc 1 206 17 discriminator 3 view .LVU513
 1495 06c4 CDF8A0A0 		str	r10, [sp, #160]
 1496              		.loc 1 207 17 discriminator 3 view .LVU514
 1497 06c8 83EA0E03 		eor	r3, r3, lr
 1498              		.loc 1 207 33 discriminator 3 view .LVU515
 1499 06cc 27EA080A 		bic	r10, r7, r8
 205:keccakf1600.c ****             Esa =   BCa ^((~BCe)&  BCi );
 1500              		.loc 1 205 17 discriminator 3 view .LVU516
 1501 06d0 44EA9B74 		orr	r4, r4, fp, lsr #30
 1502              	.LVL185:
 206:keccakf1600.c ****             Esa =   BCa ^((~BCe)&  BCi );
 1503              		.loc 1 206 13 is_stmt 1 discriminator 3 view .LVU517
 1504              		.loc 1 207 13 discriminator 3 view .LVU518
 1505              		.loc 1 207 17 is_stmt 0 discriminator 3 view .LVU519
 1506 06d4 3593     		str	r3, [sp, #212]
 1507              	.LVL186:
 1508              		.loc 1 207 17 discriminator 3 view .LVU520
 1509 06d6 8AEA0503 		eor	r3, r10, r5
 1510 06da 3693     		str	r3, [sp, #216]
 1511              	.LVL187:
 208:keccakf1600.c ****             Esi =   BCi ^((~BCo)&  BCu );
 1512              		.loc 1 208 13 is_stmt 1 discriminator 3 view .LVU521
 1513              		.loc 1 208 33 is_stmt 0 discriminator 3 view .LVU522
 1514 06dc 24EA0703 		bic	r3, r4, r7
 1515              	.LVL188:
 1516              		.loc 1 208 17 discriminator 3 view .LVU523
 1517 06e0 83EA0803 		eor	r3, r3, r8
 1518 06e4 1D93     		str	r3, [sp, #116]
 1519              	.LVL189:
 209:keccakf1600.c ****             Eso =   BCo ^((~BCu)&  BCa );
 1520              		.loc 1 209 13 is_stmt 1 discriminator 3 view .LVU524
 1521              		.loc 1 209 33 is_stmt 0 discriminator 3 view .LVU525
 1522 06e6 29EA0403 		bic	r3, r9, r4
 1523              	.LVL190:
 1524              		.loc 1 209 17 discriminator 3 view .LVU526
 1525 06ea 7B40     		eors	r3, r3, r7
 1526 06ec 2B93     		str	r3, [sp, #172]
 1527              	.LVL191:
 210:keccakf1600.c ****             Esu =   BCu ^((~BCa)&  BCe );
 1528              		.loc 1 210 13 is_stmt 1 discriminator 3 view .LVU527
 1529              		.loc 1 210 33 is_stmt 0 discriminator 3 view .LVU528
 1530 06ee 2EEA0603 		bic	r3, lr, r6
 1531              	.LVL192:
 208:keccakf1600.c ****             Esi =   BCi ^((~BCo)&  BCu );
 1532              		.loc 1 208 33 discriminator 3 view .LVU529
 1533 06f2 22EA010A 		bic	r10, r2, r1
 1534              		.loc 1 210 33 discriminator 3 view .LVU530
 1535 06f6 25EA0909 		bic	r9, r5, r9
 1536              	.LVL193:
 1537              		.loc 1 210 17 discriminator 3 view .LVU531
 1538 06fa 5340     		eors	r3, r3, r2
 208:keccakf1600.c ****             Esi =   BCi ^((~BCo)&  BCu );
 1539              		.loc 1 208 17 discriminator 3 view .LVU532
 1540 06fc 8AEA0C0C 		eor	ip, r10, ip
 1541              	.LVL194:
 1542              		.loc 1 210 17 discriminator 3 view .LVU533
 1543 0700 1093     		str	r3, [sp, #64]
 1544 0702 89EA0403 		eor	r3, r9, r4
 208:keccakf1600.c ****             Esi =   BCi ^((~BCo)&  BCu );
 1545              		.loc 1 208 17 discriminator 3 view .LVU534
 1546 0706 CDF870C0 		str	ip, [sp, #112]
 1547              	.LVL195:
 1548              		.loc 1 210 17 discriminator 3 view .LVU535
 1549 070a 1193     		str	r3, [sp, #68]
 1550              	.LVL196:
 211:keccakf1600.c **** 
 212:keccakf1600.c ****             //    prepareTheta
 213:keccakf1600.c ****             BCa = Eba^Ega^Eka^Ema^Esa;
 1551              		.loc 1 213 13 is_stmt 1 discriminator 3 view .LVU536
 209:keccakf1600.c ****             Esu =   BCu ^((~BCa)&  BCe );
 1552              		.loc 1 209 33 is_stmt 0 discriminator 3 view .LVU537
 1553 070c 26EA020C 		bic	ip, r6, r2
 1554              		.loc 1 213 17 discriminator 3 view .LVU538
 1555 0710 0C9B     		ldr	r3, [sp, #48]
 1556              	.LVL197:
 1557              		.loc 1 213 17 discriminator 3 view .LVU539
 1558 0712 2C9A     		ldr	r2, [sp, #176]
 1559              	.LVL198:
 209:keccakf1600.c ****             Esu =   BCu ^((~BCa)&  BCe );
 1560              		.loc 1 209 17 discriminator 3 view .LVU540
 1561 0714 8CEA0101 		eor	r1, ip, r1
 1562              	.LVL199:
 209:keccakf1600.c ****             Esu =   BCu ^((~BCa)&  BCe );
 1563              		.loc 1 209 17 discriminator 3 view .LVU541
 1564 0718 2A91     		str	r1, [sp, #168]
 1565              	.LVL200:
 1566              		.loc 1 213 17 discriminator 3 view .LVU542
 1567 071a 5A40     		eors	r2, r2, r3
 1568 071c 2D99     		ldr	r1, [sp, #180]
 1569 071e 0D9B     		ldr	r3, [sp, #52]
 1570 0720 83EA0106 		eor	r6, r3, r1
 1571              		.loc 1 213 17 discriminator 3 view .LVU543
 1572 0724 1A99     		ldr	r1, [sp, #104]
 214:keccakf1600.c ****             BCe = Ebe^Ege^Eke^Eme^Ese;
 1573              		.loc 1 214 22 discriminator 3 view .LVU544
 1574 0726 249B     		ldr	r3, [sp, #144]
 213:keccakf1600.c ****             BCe = Ebe^Ege^Eke^Eme^Ese;
 1575              		.loc 1 213 17 discriminator 3 view .LVU545
 1576 0728 4A40     		eors	r2, r2, r1
 1577 072a 1B99     		ldr	r1, [sp, #108]
 1578 072c 4E40     		eors	r6, r6, r1
 1579 072e 3999     		ldr	r1, [sp, #228]
 1580 0730 4A40     		eors	r2, r2, r1
 1581 0732 3A99     		ldr	r1, [sp, #232]
 1582 0734 4E40     		eors	r6, r6, r1
 1583 0736 2899     		ldr	r1, [sp, #160]
 1584 0738 4A40     		eors	r2, r2, r1
 1585 073a 2999     		ldr	r1, [sp, #164]
 1586 073c 4E40     		eors	r6, r6, r1
 1587              	.LVL201:
 1588              		.loc 1 214 13 is_stmt 1 discriminator 3 view .LVU546
 1589              		.loc 1 214 22 is_stmt 0 discriminator 3 view .LVU547
 1590 073e 1299     		ldr	r1, [sp, #72]
 1591 0740 83EA0109 		eor	r9, r3, r1
 1592 0744 1399     		ldr	r1, [sp, #76]
 1593 0746 259B     		ldr	r3, [sp, #148]
 1594 0748 83EA0108 		eor	r8, r3, r1
 1595              		.loc 1 214 26 discriminator 3 view .LVU548
 1596 074c 329B     		ldr	r3, [sp, #200]
 215:keccakf1600.c ****             BCi = Ebi^Egi^Eki^Emi^Esi;
 1597              		.loc 1 215 22 discriminator 3 view .LVU549
 1598 074e 2099     		ldr	r1, [sp, #128]
 216:keccakf1600.c ****             BCo = Ebo^Ego^Eko^Emo^Eso;
 217:keccakf1600.c ****             BCu = Ebu^Egu^Eku^Emu^Esu;
 1599              		.loc 1 217 26 discriminator 3 view .LVU550
 1600 0750 DDF8F4E0 		ldr	lr, [sp, #244]
 1601              	.LVL202:
 214:keccakf1600.c ****             BCi = Ebi^Egi^Eki^Emi^Esi;
 1602              		.loc 1 214 26 discriminator 3 view .LVU551
 1603 0754 89EA0309 		eor	r9, r9, r3
 1604 0758 339B     		ldr	r3, [sp, #204]
 1605 075a 88EA0308 		eor	r8, r8, r3
 214:keccakf1600.c ****             BCi = Ebi^Egi^Eki^Emi^Esi;
 1606              		.loc 1 214 30 discriminator 3 view .LVU552
 1607 075e 169B     		ldr	r3, [sp, #88]
 1608 0760 89EA0309 		eor	r9, r9, r3
 1609 0764 179B     		ldr	r3, [sp, #92]
 1610 0766 88EA0308 		eor	r8, r8, r3
 214:keccakf1600.c ****             BCi = Ebi^Egi^Eki^Emi^Esi;
 1611              		.loc 1 214 17 discriminator 3 view .LVU553
 1612 076a 359B     		ldr	r3, [sp, #212]
 1613 076c 89EA0309 		eor	r9, r9, r3
 1614 0770 369B     		ldr	r3, [sp, #216]
 1615 0772 88EA0308 		eor	r8, r8, r3
 1616              	.LVL203:
 215:keccakf1600.c ****             BCi = Ebi^Egi^Eki^Emi^Esi;
 1617              		.loc 1 215 13 is_stmt 1 discriminator 3 view .LVU554
 215:keccakf1600.c ****             BCi = Ebi^Egi^Eki^Emi^Esi;
 1618              		.loc 1 215 22 is_stmt 0 discriminator 3 view .LVU555
 1619 0776 3B9B     		ldr	r3, [sp, #236]
 1620 0778 83EA010C 		eor	ip, r3, r1
 1621 077c 3C9B     		ldr	r3, [sp, #240]
 1622 077e 2199     		ldr	r1, [sp, #132]
 1623 0780 83EA0107 		eor	r7, r3, r1
 215:keccakf1600.c ****             BCi = Ebi^Egi^Eki^Emi^Esi;
 1624              		.loc 1 215 26 discriminator 3 view .LVU556
 1625 0784 0E9B     		ldr	r3, [sp, #56]
 1626 0786 0F99     		ldr	r1, [sp, #60]
 1627 0788 8CEA030C 		eor	ip, ip, r3
 1628 078c 4F40     		eors	r7, r7, r1
 215:keccakf1600.c ****             BCi = Ebi^Egi^Eki^Emi^Esi;
 1629              		.loc 1 215 30 discriminator 3 view .LVU557
 1630 078e 2E9B     		ldr	r3, [sp, #184]
 1631 0790 2F99     		ldr	r1, [sp, #188]
 1632 0792 8CEA030C 		eor	ip, ip, r3
 1633 0796 4F40     		eors	r7, r7, r1
 215:keccakf1600.c ****             BCi = Ebi^Egi^Eki^Emi^Esi;
 1634              		.loc 1 215 17 discriminator 3 view .LVU558
 1635 0798 1C9B     		ldr	r3, [sp, #112]
 1636 079a 1D99     		ldr	r1, [sp, #116]
 1637 079c 8CEA030C 		eor	ip, ip, r3
 1638 07a0 4F40     		eors	r7, r7, r1
 1639              	.LVL204:
 216:keccakf1600.c ****             BCo = Ebo^Ego^Eko^Emo^Eso;
 1640              		.loc 1 216 13 is_stmt 1 discriminator 3 view .LVU559
 216:keccakf1600.c ****             BCo = Ebo^Ego^Eko^Emo^Eso;
 1641              		.loc 1 216 22 is_stmt 0 discriminator 3 view .LVU560
 1642 07a2 189B     		ldr	r3, [sp, #96]
 1643 07a4 3799     		ldr	r1, [sp, #220]
 1644 07a6 83EA0105 		eor	r5, r3, r1
 1645 07aa 199B     		ldr	r3, [sp, #100]
 1646 07ac 3899     		ldr	r1, [sp, #224]
 1647 07ae 83EA0104 		eor	r4, r3, r1
 216:keccakf1600.c ****             BCo = Ebo^Ego^Eko^Emo^Eso;
 1648              		.loc 1 216 26 discriminator 3 view .LVU561
 1649 07b2 2699     		ldr	r1, [sp, #152]
 1650              		.loc 1 217 26 discriminator 3 view .LVU562
 1651 07b4 1E9B     		ldr	r3, [sp, #120]
 216:keccakf1600.c ****             BCo = Ebo^Ego^Eko^Emo^Eso;
 1652              		.loc 1 216 26 discriminator 3 view .LVU563
 1653 07b6 4D40     		eors	r5, r5, r1
 1654 07b8 2799     		ldr	r1, [sp, #156]
 1655 07ba 4C40     		eors	r4, r4, r1
 216:keccakf1600.c ****             BCo = Ebo^Ego^Eko^Emo^Eso;
 1656              		.loc 1 216 30 discriminator 3 view .LVU564
 1657 07bc 1499     		ldr	r1, [sp, #80]
 1658 07be 4D40     		eors	r5, r5, r1
 1659 07c0 1599     		ldr	r1, [sp, #84]
 1660 07c2 4C40     		eors	r4, r4, r1
 216:keccakf1600.c ****             BCo = Ebo^Ego^Eko^Emo^Eso;
 1661              		.loc 1 216 17 discriminator 3 view .LVU565
 1662 07c4 2A99     		ldr	r1, [sp, #168]
 1663 07c6 4D40     		eors	r5, r5, r1
 1664 07c8 2B99     		ldr	r1, [sp, #172]
 1665 07ca 4C40     		eors	r4, r4, r1
 1666              	.LVL205:
 1667              		.loc 1 217 13 is_stmt 1 discriminator 3 view .LVU566
 1668              		.loc 1 217 26 is_stmt 0 discriminator 3 view .LVU567
 1669 07cc 3499     		ldr	r1, [sp, #208]
 1670 07ce 5940     		eors	r1, r1, r3
 1671 07d0 1F9B     		ldr	r3, [sp, #124]
 1672 07d2 83EA0E0E 		eor	lr, r3, lr
 1673 07d6 309B     		ldr	r3, [sp, #192]
 1674 07d8 5940     		eors	r1, r1, r3
 1675 07da 319B     		ldr	r3, [sp, #196]
 1676 07dc 8EEA030E 		eor	lr, lr, r3
 1677              		.loc 1 217 30 discriminator 3 view .LVU568
 1678 07e0 229B     		ldr	r3, [sp, #136]
 1679 07e2 5940     		eors	r1, r1, r3
 1680 07e4 239B     		ldr	r3, [sp, #140]
 1681 07e6 8EEA030E 		eor	lr, lr, r3
 1682              		.loc 1 217 17 discriminator 3 view .LVU569
 1683 07ea 109B     		ldr	r3, [sp, #64]
 218:keccakf1600.c **** 
 219:keccakf1600.c ****             //thetaRhoPiChiIotaPrepareTheta(round+1, E, A)
 220:keccakf1600.c ****             Da = BCu^ROL(BCe, 1);
 1684              		.loc 1 220 22 discriminator 3 view .LVU570
 1685 07ec 4FEA490B 		lsl	fp, r9, #1
 217:keccakf1600.c **** 
 1686              		.loc 1 217 17 discriminator 3 view .LVU571
 1687 07f0 5940     		eors	r1, r1, r3
 1688 07f2 119B     		ldr	r3, [sp, #68]
 1689              		.loc 1 220 22 discriminator 3 view .LVU572
 1690 07f4 4BEAD87B 		orr	fp, fp, r8, lsr #31
 1691 07f8 4FEA480A 		lsl	r10, r8, #1
 217:keccakf1600.c **** 
 1692              		.loc 1 217 17 discriminator 3 view .LVU573
 1693 07fc 8EEA030E 		eor	lr, lr, r3
 1694              	.LVL206:
 1695              		.loc 1 220 13 is_stmt 1 discriminator 3 view .LVU574
 1696              		.loc 1 220 22 is_stmt 0 discriminator 3 view .LVU575
 1697 0800 4AEAD97A 		orr	r10, r10, r9, lsr #31
 1698              		.loc 1 220 16 discriminator 3 view .LVU576
 1699 0804 8BEA0103 		eor	r3, fp, r1
 221:keccakf1600.c ****             De = BCa^ROL(BCi, 1);
 1700              		.loc 1 221 22 discriminator 3 view .LVU577
 1701 0808 4FEA4C0B 		lsl	fp, ip, #1
 220:keccakf1600.c ****             De = BCa^ROL(BCi, 1);
 1702              		.loc 1 220 16 discriminator 3 view .LVU578
 1703 080c 0293     		str	r3, [sp, #8]
 1704              	.LVL207:
 1705              		.loc 1 221 22 discriminator 3 view .LVU579
 1706 080e 4BEAD77B 		orr	fp, fp, r7, lsr #31
 220:keccakf1600.c ****             De = BCa^ROL(BCi, 1);
 1707              		.loc 1 220 16 discriminator 3 view .LVU580
 1708 0812 8AEA0E03 		eor	r3, r10, lr
 1709              		.loc 1 221 22 discriminator 3 view .LVU581
 1710 0816 4FEA470A 		lsl	r10, r7, #1
 220:keccakf1600.c ****             De = BCa^ROL(BCi, 1);
 1711              		.loc 1 220 16 discriminator 3 view .LVU582
 1712 081a 0393     		str	r3, [sp, #12]
 1713              	.LVL208:
 1714              		.loc 1 221 13 is_stmt 1 discriminator 3 view .LVU583
 1715              		.loc 1 221 22 is_stmt 0 discriminator 3 view .LVU584
 1716 081c 4AEADC7A 		orr	r10, r10, ip, lsr #31
 1717              		.loc 1 221 16 discriminator 3 view .LVU585
 1718 0820 8BEA0203 		eor	r3, fp, r2
 1719              	.LVL209:
 222:keccakf1600.c ****             Di = BCe^ROL(BCo, 1);
 1720              		.loc 1 222 22 discriminator 3 view .LVU586
 1721 0824 4FEA450B 		lsl	fp, r5, #1
 221:keccakf1600.c ****             De = BCa^ROL(BCi, 1);
 1722              		.loc 1 221 16 discriminator 3 view .LVU587
 1723 0828 0493     		str	r3, [sp, #16]
 1724              	.LVL210:
 1725              		.loc 1 222 22 discriminator 3 view .LVU588
 1726 082a 4BEAD47B 		orr	fp, fp, r4, lsr #31
 221:keccakf1600.c ****             De = BCa^ROL(BCi, 1);
 1727              		.loc 1 221 16 discriminator 3 view .LVU589
 1728 082e 8AEA0603 		eor	r3, r10, r6
 1729              		.loc 1 222 22 discriminator 3 view .LVU590
 1730 0832 4FEA440A 		lsl	r10, r4, #1
 221:keccakf1600.c ****             De = BCa^ROL(BCi, 1);
 1731              		.loc 1 221 16 discriminator 3 view .LVU591
 1732 0836 0593     		str	r3, [sp, #20]
 1733              	.LVL211:
 1734              		.loc 1 222 13 is_stmt 1 discriminator 3 view .LVU592
 1735              		.loc 1 222 22 is_stmt 0 discriminator 3 view .LVU593
 1736 0838 4AEAD57A 		orr	r10, r10, r5, lsr #31
 1737              		.loc 1 222 16 discriminator 3 view .LVU594
 1738 083c 8BEA0903 		eor	r3, fp, r9
 1739              	.LVL212:
 1740              		.loc 1 222 16 discriminator 3 view .LVU595
 1741 0840 0693     		str	r3, [sp, #24]
 1742 0842 8AEA0803 		eor	r3, r10, r8
 223:keccakf1600.c ****             Do = BCi^ROL(BCu, 1);
 1743              		.loc 1 223 22 discriminator 3 view .LVU596
 1744 0846 4FEA4E08 		lsl	r8, lr, #1
 1745              	.LVL213:
 1746              		.loc 1 223 22 discriminator 3 view .LVU597
 1747 084a 48EAD178 		orr	r8, r8, r1, lsr #31
 1748 084e 4900     		lsls	r1, r1, #1
 1749              	.LVL214:
 1750              		.loc 1 223 22 discriminator 3 view .LVU598
 1751 0850 41EADE71 		orr	r1, r1, lr, lsr #31
 222:keccakf1600.c ****             Di = BCe^ROL(BCo, 1);
 1752              		.loc 1 222 16 discriminator 3 view .LVU599
 1753 0854 0793     		str	r3, [sp, #28]
 1754              	.LVL215:
 1755              		.loc 1 223 13 is_stmt 1 discriminator 3 view .LVU600
 1756              		.loc 1 223 16 is_stmt 0 discriminator 3 view .LVU601
 1757 0856 81EA0C03 		eor	r3, r1, ip
 1758              	.LVL216:
 1759              		.loc 1 223 16 discriminator 3 view .LVU602
 1760 085a 0893     		str	r3, [sp, #32]
 1761 085c 88EA0703 		eor	r3, r8, r7
 224:keccakf1600.c ****             Du = BCo^ROL(BCa, 1);
 1762              		.loc 1 224 22 discriminator 3 view .LVU603
 1763 0860 7700     		lsls	r7, r6, #1
 1764              	.LVL217:
 1765              		.loc 1 224 22 discriminator 3 view .LVU604
 1766 0862 47EAD277 		orr	r7, r7, r2, lsr #31
 1767 0866 5200     		lsls	r2, r2, #1
 1768              	.LVL218:
 1769              		.loc 1 224 22 discriminator 3 view .LVU605
 1770 0868 42EAD672 		orr	r2, r2, r6, lsr #31
 223:keccakf1600.c ****             Do = BCi^ROL(BCu, 1);
 1771              		.loc 1 223 16 discriminator 3 view .LVU606
 1772 086c 0993     		str	r3, [sp, #36]
 1773              	.LVL219:
 1774              		.loc 1 224 13 is_stmt 1 discriminator 3 view .LVU607
 1775              		.loc 1 224 16 is_stmt 0 discriminator 3 view .LVU608
 1776 086e 82EA0503 		eor	r3, r2, r5
 1777              	.LVL220:
 1778              		.loc 1 224 16 discriminator 3 view .LVU609
 1779 0872 0A93     		str	r3, [sp, #40]
 1780 0874 87EA0403 		eor	r3, r7, r4
 225:keccakf1600.c **** 
 226:keccakf1600.c ****             Eba ^= Da;
 1781              		.loc 1 226 17 discriminator 3 view .LVU610
 1782 0878 029A     		ldr	r2, [sp, #8]
 224:keccakf1600.c ****             Du = BCo^ROL(BCa, 1);
 1783              		.loc 1 224 16 discriminator 3 view .LVU611
 1784 087a 0B93     		str	r3, [sp, #44]
 1785              	.LVL221:
 1786              		.loc 1 226 13 is_stmt 1 discriminator 3 view .LVU612
 1787              		.loc 1 226 17 is_stmt 0 discriminator 3 view .LVU613
 1788 087c 0C9B     		ldr	r3, [sp, #48]
 1789              	.LVL222:
 1790              		.loc 1 226 17 discriminator 3 view .LVU614
 1791 087e 83EA0207 		eor	r7, r3, r2
 1792 0882 0D9B     		ldr	r3, [sp, #52]
 1793 0884 039A     		ldr	r2, [sp, #12]
 1794 0886 83EA020B 		eor	fp, r3, r2
 1795              	.LVL223:
 227:keccakf1600.c ****             BCa = Eba;
 1796              		.loc 1 227 13 is_stmt 1 discriminator 3 view .LVU615
 228:keccakf1600.c ****             Ege ^= De;
 1797              		.loc 1 228 13 discriminator 3 view .LVU616
 229:keccakf1600.c ****             BCe = ROL(Ege, 44);
 1798              		.loc 1 229 13 discriminator 3 view .LVU617
 228:keccakf1600.c ****             Ege ^= De;
 1799              		.loc 1 228 17 is_stmt 0 discriminator 3 view .LVU618
 1800 088a 129B     		ldr	r3, [sp, #72]
 1801 088c 049A     		ldr	r2, [sp, #16]
 1802 088e 83EA020A 		eor	r10, r3, r2
 1803 0892 139B     		ldr	r3, [sp, #76]
 1804 0894 059A     		ldr	r2, [sp, #20]
 1805              		.loc 1 229 17 discriminator 3 view .LVU619
 1806 0896 4FEA1A54 		lsr	r4, r10, #20
 1807              	.LVL224:
 228:keccakf1600.c ****             Ege ^= De;
 1808              		.loc 1 228 17 discriminator 3 view .LVU620
 1809 089a 83EA0206 		eor	r6, r3, r2
 230:keccakf1600.c ****             Eki ^= Di;
 1810              		.loc 1 230 17 discriminator 3 view .LVU621
 1811 089e 0E9B     		ldr	r3, [sp, #56]
 1812 08a0 069A     		ldr	r2, [sp, #24]
 229:keccakf1600.c ****             BCe = ROL(Ege, 44);
 1813              		.loc 1 229 17 discriminator 3 view .LVU622
 1814 08a2 44EA0634 		orr	r4, r4, r6, lsl #12
 1815 08a6 360D     		lsrs	r6, r6, #20
 1816 08a8 46EA0A36 		orr	r6, r6, r10, lsl #12
 1817              	.LVL225:
 1818              		.loc 1 230 13 is_stmt 1 discriminator 3 view .LVU623
 231:keccakf1600.c ****             BCi = ROL(Eki, 43);
 1819              		.loc 1 231 13 discriminator 3 view .LVU624
 230:keccakf1600.c ****             Eki ^= Di;
 1820              		.loc 1 230 17 is_stmt 0 discriminator 3 view .LVU625
 1821 08ac 83EA020A 		eor	r10, r3, r2
 1822 08b0 0F9B     		ldr	r3, [sp, #60]
 1823 08b2 079A     		ldr	r2, [sp, #28]
 1824 08b4 83EA0209 		eor	r9, r3, r2
 232:keccakf1600.c ****             Emo ^= Do;
 1825              		.loc 1 232 17 discriminator 3 view .LVU626
 1826 08b8 149B     		ldr	r3, [sp, #80]
 1827 08ba 089A     		ldr	r2, [sp, #32]
 1828 08bc 83EA020C 		eor	ip, r3, r2
 1829              	.LVL226:
 1830              		.loc 1 232 17 discriminator 3 view .LVU627
 1831 08c0 159B     		ldr	r3, [sp, #84]
 1832 08c2 099A     		ldr	r2, [sp, #36]
 1833 08c4 83EA0205 		eor	r5, r3, r2
 1834              	.LVL227:
 233:keccakf1600.c ****             BCo = ROL(Emo, 21);
 1835              		.loc 1 233 17 discriminator 3 view .LVU628
 1836 08c8 4FEA4C52 		lsl	r2, ip, #21
 1837 08cc 42EAD522 		orr	r2, r2, r5, lsr #11
 234:keccakf1600.c ****             Esu ^= Du;
 1838              		.loc 1 234 17 discriminator 3 view .LVU629
 1839 08d0 0A9B     		ldr	r3, [sp, #40]
 233:keccakf1600.c ****             BCo = ROL(Emo, 21);
 1840              		.loc 1 233 17 discriminator 3 view .LVU630
 1841 08d2 4FEA455E 		lsl	lr, r5, #21
 1842              	.LVL228:
 1843              		.loc 1 234 17 discriminator 3 view .LVU631
 1844 08d6 109D     		ldr	r5, [sp, #64]
 1845 08d8 5D40     		eors	r5, r5, r3
 233:keccakf1600.c ****             BCo = ROL(Emo, 21);
 1846              		.loc 1 233 17 discriminator 3 view .LVU632
 1847 08da 4EEADC2E 		orr	lr, lr, ip, lsr #11
 1848              		.loc 1 234 17 discriminator 3 view .LVU633
 1849 08de 2B46     		mov	r3, r5
 1850 08e0 119D     		ldr	r5, [sp, #68]
 1851 08e2 DDF82CC0 		ldr	ip, [sp, #44]
 1852 08e6 85EA0C05 		eor	r5, r5, ip
 235:keccakf1600.c ****             BCu = ROL(Esu, 14);
 1853              		.loc 1 235 17 discriminator 3 view .LVU634
 1854 08ea 4FEA853C 		lsl	ip, r5, #14
 1855 08ee 4CEA934C 		orr	ip, ip, r3, lsr #18
 1856 08f2 9B03     		lsls	r3, r3, #14
 1857 08f4 43EA9543 		orr	r3, r3, r5, lsr #18
 236:keccakf1600.c ****             Aba =   BCa ^((~BCe)&  BCi );
 237:keccakf1600.c ****             Aba ^= (uint64_t)KeccakF_RoundConstants[round+1];
 1858              		.loc 1 237 17 discriminator 3 view .LVU635
 1859 08f8 019D     		ldr	r5, [sp, #4]
 1860 08fa AD68     		ldr	r5, [r5, #8]
 1861 08fc 0C95     		str	r5, [sp, #48]
 1862 08fe 019D     		ldr	r5, [sp, #4]
 231:keccakf1600.c ****             Emo ^= Do;
 1863              		.loc 1 231 17 discriminator 3 view .LVU636
 1864 0900 4FEA5A58 		lsr	r8, r10, #21
 1865 0904 48EAC928 		orr	r8, r8, r9, lsl #11
 1866              		.loc 1 237 17 discriminator 3 view .LVU637
 1867 0908 ED68     		ldr	r5, [r5, #12]
 231:keccakf1600.c ****             Emo ^= Do;
 1868              		.loc 1 231 17 discriminator 3 view .LVU638
 1869 090a 4FEA5959 		lsr	r9, r9, #21
 1870 090e 49EACA21 		orr	r1, r9, r10, lsl #11
 1871              	.LVL229:
 232:keccakf1600.c ****             BCo = ROL(Emo, 21);
 1872              		.loc 1 232 13 is_stmt 1 discriminator 3 view .LVU639
 233:keccakf1600.c ****             Esu ^= Du;
 1873              		.loc 1 233 13 discriminator 3 view .LVU640
 234:keccakf1600.c ****             BCu = ROL(Esu, 14);
 1874              		.loc 1 234 13 discriminator 3 view .LVU641
 235:keccakf1600.c ****             Aba =   BCa ^((~BCe)&  BCi );
 1875              		.loc 1 235 13 discriminator 3 view .LVU642
 236:keccakf1600.c ****             Aba ^= (uint64_t)KeccakF_RoundConstants[round+1];
 1876              		.loc 1 236 13 discriminator 3 view .LVU643
 1877              		.loc 1 237 13 discriminator 3 view .LVU644
 1878              		.loc 1 237 17 is_stmt 0 discriminator 3 view .LVU645
 1879 0912 DDF83090 		ldr	r9, [sp, #48]
 236:keccakf1600.c ****             Aba ^= (uint64_t)KeccakF_RoundConstants[round+1];
 1880              		.loc 1 236 33 discriminator 3 view .LVU646
 1881 0916 28EA040A 		bic	r10, r8, r4
 1882              		.loc 1 237 17 discriminator 3 view .LVU647
 1883 091a 8BEA0505 		eor	r5, fp, r5
 1884 091e 0D95     		str	r5, [sp, #52]
 1885 0920 87EA0909 		eor	r9, r7, r9
 236:keccakf1600.c ****             Aba ^= (uint64_t)KeccakF_RoundConstants[round+1];
 1886              		.loc 1 236 33 discriminator 3 view .LVU648
 1887 0924 5546     		mov	r5, r10
 1888              		.loc 1 237 17 discriminator 3 view .LVU649
 1889 0926 89EA0509 		eor	r9, r9, r5
 1890 092a 0D9D     		ldr	r5, [sp, #52]
 1891 092c CDF83090 		str	r9, [sp, #48]
 236:keccakf1600.c ****             Aba ^= (uint64_t)KeccakF_RoundConstants[round+1];
 1892              		.loc 1 236 33 discriminator 3 view .LVU650
 1893 0930 21EA060A 		bic	r10, r1, r6
 1894              		.loc 1 237 17 discriminator 3 view .LVU651
 1895 0934 85EA0A05 		eor	r5, r5, r10
 1896 0938 0D95     		str	r5, [sp, #52]
 1897              	.LVL230:
 238:keccakf1600.c ****             Abe =   BCe ^((~BCi)&  BCo );
 1898              		.loc 1 238 13 is_stmt 1 discriminator 3 view .LVU652
 1899              		.loc 1 238 33 is_stmt 0 discriminator 3 view .LVU653
 1900 093a 2EEA0105 		bic	r5, lr, r1
 1901              	.LVL231:
 1902              		.loc 1 238 17 discriminator 3 view .LVU654
 1903 093e 7540     		eors	r5, r5, r6
 1904              		.loc 1 238 33 discriminator 3 view .LVU655
 1905 0940 22EA0809 		bic	r9, r2, r8
 1906              	.LVL232:
 1907              		.loc 1 238 17 discriminator 3 view .LVU656
 1908 0944 0F95     		str	r5, [sp, #60]
 1909              	.LVL233:
 239:keccakf1600.c ****             Abi =   BCi ^((~BCo)&  BCu );
 1910              		.loc 1 239 13 is_stmt 1 discriminator 3 view .LVU657
 1911              		.loc 1 239 33 is_stmt 0 discriminator 3 view .LVU658
 1912 0946 2CEA0E05 		bic	r5, ip, lr
 1913              	.LVL234:
 238:keccakf1600.c ****             Abe =   BCe ^((~BCi)&  BCo );
 1914              		.loc 1 238 17 discriminator 3 view .LVU659
 1915 094a 89EA0409 		eor	r9, r9, r4
 1916              		.loc 1 239 17 discriminator 3 view .LVU660
 1917 094e 6940     		eors	r1, r1, r5
 1918              	.LVL235:
 240:keccakf1600.c ****             Abo =   BCo ^((~BCu)&  BCa );
 1919              		.loc 1 240 33 discriminator 3 view .LVU661
 1920 0950 27EA0305 		bic	r5, r7, r3
 241:keccakf1600.c ****             Abu =   BCu ^((~BCa)&  BCe );
 1921              		.loc 1 241 33 discriminator 3 view .LVU662
 1922 0954 24EA0707 		bic	r7, r4, r7
 1923              	.LVL236:
 1924              		.loc 1 241 33 discriminator 3 view .LVU663
 1925 0958 26EA0B06 		bic	r6, r6, fp
 1926              	.LVL237:
 238:keccakf1600.c ****             Abi =   BCi ^((~BCo)&  BCu );
 1927              		.loc 1 238 17 discriminator 3 view .LVU664
 1928 095c CDF83890 		str	r9, [sp, #56]
 1929              	.LVL238:
 239:keccakf1600.c ****             Abo =   BCo ^((~BCu)&  BCa );
 1930              		.loc 1 239 17 discriminator 3 view .LVU665
 1931 0960 1191     		str	r1, [sp, #68]
 1932              	.LVL239:
 240:keccakf1600.c ****             Abu =   BCu ^((~BCa)&  BCe );
 1933              		.loc 1 240 13 is_stmt 1 discriminator 3 view .LVU666
 239:keccakf1600.c ****             Abo =   BCo ^((~BCu)&  BCa );
 1934              		.loc 1 239 33 is_stmt 0 discriminator 3 view .LVU667
 1935 0962 23EA0209 		bic	r9, r3, r2
 240:keccakf1600.c ****             Abu =   BCu ^((~BCa)&  BCe );
 1936              		.loc 1 240 33 discriminator 3 view .LVU668
 1937 0966 2BEA0C01 		bic	r1, fp, ip
 1938              	.LVL240:
 240:keccakf1600.c ****             Abu =   BCu ^((~BCa)&  BCe );
 1939              		.loc 1 240 17 discriminator 3 view .LVU669
 1940 096a 6A40     		eors	r2, r2, r5
 1941              	.LVL241:
 1942              		.loc 1 241 17 discriminator 3 view .LVU670
 1943 096c 7B40     		eors	r3, r3, r7
 1944              	.LVL242:
 240:keccakf1600.c ****             Abu =   BCu ^((~BCa)&  BCe );
 1945              		.loc 1 240 17 discriminator 3 view .LVU671
 1946 096e 1292     		str	r2, [sp, #72]
 1947              	.LVL243:
 1948              		.loc 1 241 17 discriminator 3 view .LVU672
 1949 0970 1493     		str	r3, [sp, #80]
 1950              	.LVL244:
 240:keccakf1600.c ****             Abu =   BCu ^((~BCa)&  BCe );
 1951              		.loc 1 240 17 discriminator 3 view .LVU673
 1952 0972 81EA0E02 		eor	r2, r1, lr
 1953              		.loc 1 241 17 discriminator 3 view .LVU674
 1954 0976 86EA0C03 		eor	r3, r6, ip
 240:keccakf1600.c ****             Abu =   BCu ^((~BCa)&  BCe );
 1955              		.loc 1 240 17 discriminator 3 view .LVU675
 1956 097a 1392     		str	r2, [sp, #76]
 1957              	.LVL245:
 1958              		.loc 1 241 13 is_stmt 1 discriminator 3 view .LVU676
 1959              		.loc 1 241 17 is_stmt 0 discriminator 3 view .LVU677
 1960 097c 1593     		str	r3, [sp, #84]
 1961              	.LVL246:
 242:keccakf1600.c **** 
 243:keccakf1600.c ****             Ebo ^= Do;
 1962              		.loc 1 243 13 is_stmt 1 discriminator 3 view .LVU678
 244:keccakf1600.c ****             BCa = ROL(Ebo, 28);
 1963              		.loc 1 244 13 discriminator 3 view .LVU679
 243:keccakf1600.c ****             BCa = ROL(Ebo, 28);
 1964              		.loc 1 243 17 is_stmt 0 discriminator 3 view .LVU680
 1965 097e 089A     		ldr	r2, [sp, #32]
 1966              	.LVL247:
 243:keccakf1600.c ****             BCa = ROL(Ebo, 28);
 1967              		.loc 1 243 17 discriminator 3 view .LVU681
 1968 0980 189B     		ldr	r3, [sp, #96]
 1969              	.LVL248:
 243:keccakf1600.c ****             BCa = ROL(Ebo, 28);
 1970              		.loc 1 243 17 discriminator 3 view .LVU682
 1971 0982 83EA0201 		eor	r1, r3, r2
 1972 0986 199B     		ldr	r3, [sp, #100]
 1973 0988 099A     		ldr	r2, [sp, #36]
 1974 098a 83EA020E 		eor	lr, r3, r2
 1975              		.loc 1 244 17 discriminator 3 view .LVU683
 1976 098e 4FEA0E7B 		lsl	fp, lr, #28
 245:keccakf1600.c ****             Egu ^= Du;
 1977              		.loc 1 245 17 discriminator 3 view .LVU684
 1978 0992 1E9B     		ldr	r3, [sp, #120]
 1979 0994 0A9A     		ldr	r2, [sp, #40]
 244:keccakf1600.c ****             BCa = ROL(Ebo, 28);
 1980              		.loc 1 244 17 discriminator 3 view .LVU685
 1981 0996 4BEA111B 		orr	fp, fp, r1, lsr #4
 1982 099a 0907     		lsls	r1, r1, #28
 1983 099c 41EA1E14 		orr	r4, r1, lr, lsr #4
 1984              	.LVL249:
 1985              		.loc 1 245 13 is_stmt 1 discriminator 3 view .LVU686
 246:keccakf1600.c ****             BCe = ROL(Egu, 20);
 1986              		.loc 1 246 13 discriminator 3 view .LVU687
 245:keccakf1600.c ****             Egu ^= Du;
 1987              		.loc 1 245 17 is_stmt 0 discriminator 3 view .LVU688
 1988 09a0 83EA020E 		eor	lr, r3, r2
 1989 09a4 1F9B     		ldr	r3, [sp, #124]
 1990 09a6 0B9A     		ldr	r2, [sp, #44]
 1991 09a8 83EA0205 		eor	r5, r3, r2
 247:keccakf1600.c ****             Eka ^= Da;
 1992              		.loc 1 247 17 discriminator 3 view .LVU689
 1993 09ac 1A9B     		ldr	r3, [sp, #104]
 1994 09ae 029A     		ldr	r2, [sp, #8]
 246:keccakf1600.c ****             BCe = ROL(Egu, 20);
 1995              		.loc 1 246 17 discriminator 3 view .LVU690
 1996 09b0 2E05     		lsls	r6, r5, #20
 1997              		.loc 1 247 17 discriminator 3 view .LVU691
 1998 09b2 83EA020A 		eor	r10, r3, r2
 1999 09b6 039A     		ldr	r2, [sp, #12]
 2000 09b8 1B9B     		ldr	r3, [sp, #108]
 246:keccakf1600.c ****             BCe = ROL(Egu, 20);
 2001              		.loc 1 246 17 discriminator 3 view .LVU692
 2002 09ba 46EA1E36 		orr	r6, r6, lr, lsr #12
 239:keccakf1600.c ****             Abo =   BCo ^((~BCu)&  BCa );
 2003              		.loc 1 239 17 discriminator 3 view .LVU693
 2004 09be 89EA0808 		eor	r8, r9, r8
 246:keccakf1600.c ****             BCe = ROL(Egu, 20);
 2005              		.loc 1 246 17 discriminator 3 view .LVU694
 2006 09c2 4FEA0E5E 		lsl	lr, lr, #20
 2007 09c6 4EEA1531 		orr	r1, lr, r5, lsr #12
 2008              	.LVL250:
 2009              		.loc 1 247 13 is_stmt 1 discriminator 3 view .LVU695
 248:keccakf1600.c ****             BCi = ROL(Eka, 3);
 2010              		.loc 1 248 13 discriminator 3 view .LVU696
 247:keccakf1600.c ****             Eka ^= Da;
 2011              		.loc 1 247 17 is_stmt 0 discriminator 3 view .LVU697
 2012 09ca 83EA0209 		eor	r9, r3, r2
 239:keccakf1600.c ****             Abo =   BCo ^((~BCu)&  BCa );
 2013              		.loc 1 239 17 discriminator 3 view .LVU698
 2014 09ce CDF84080 		str	r8, [sp, #64]
 2015              	.LVL251:
 249:keccakf1600.c ****             Eme ^= De;
 2016              		.loc 1 249 17 discriminator 3 view .LVU699
 2017 09d2 169B     		ldr	r3, [sp, #88]
 2018 09d4 049D     		ldr	r5, [sp, #16]
 2019 09d6 DDF814C0 		ldr	ip, [sp, #20]
 250:keccakf1600.c ****             BCo = ROL(Eme, 45);
 251:keccakf1600.c ****             Esi ^= Di;
 2020              		.loc 1 251 17 discriminator 3 view .LVU700
 2021 09da DDF81CE0 		ldr	lr, [sp, #28]
 249:keccakf1600.c ****             Eme ^= De;
 2022              		.loc 1 249 17 discriminator 3 view .LVU701
 2023 09de 6B40     		eors	r3, r3, r5
 248:keccakf1600.c ****             Eme ^= De;
 2024              		.loc 1 248 17 discriminator 3 view .LVU702
 2025 09e0 4FEAC907 		lsl	r7, r9, #3
 249:keccakf1600.c ****             Eme ^= De;
 2026              		.loc 1 249 17 discriminator 3 view .LVU703
 2027 09e4 179D     		ldr	r5, [sp, #92]
 248:keccakf1600.c ****             Eme ^= De;
 2028              		.loc 1 248 17 discriminator 3 view .LVU704
 2029 09e6 47EA5A77 		orr	r7, r7, r10, lsr #29
 2030 09ea 4FEACA0A 		lsl	r10, r10, #3
 2031 09ee 4AEA5972 		orr	r2, r10, r9, lsr #29
 2032              	.LVL252:
 249:keccakf1600.c ****             Eme ^= De;
 2033              		.loc 1 249 13 is_stmt 1 discriminator 3 view .LVU705
 250:keccakf1600.c ****             BCo = ROL(Eme, 45);
 2034              		.loc 1 250 13 discriminator 3 view .LVU706
 249:keccakf1600.c ****             Eme ^= De;
 2035              		.loc 1 249 17 is_stmt 0 discriminator 3 view .LVU707
 2036 09f2 85EA0C09 		eor	r9, r5, ip
 250:keccakf1600.c ****             BCo = ROL(Eme, 45);
 2037              		.loc 1 250 17 discriminator 3 view .LVU708
 2038 09f6 DD0C     		lsrs	r5, r3, #19
 2039 09f8 45EA4935 		orr	r5, r5, r9, lsl #13
 2040 09fc 4FEAD949 		lsr	r9, r9, #19
 2041 0a00 49EA433A 		orr	r10, r9, r3, lsl #13
 2042              	.LVL253:
 2043              		.loc 1 251 13 is_stmt 1 discriminator 3 view .LVU709
 252:keccakf1600.c ****             BCu = ROL(Esi, 61);
 2044              		.loc 1 252 13 discriminator 3 view .LVU710
 251:keccakf1600.c ****             BCu = ROL(Esi, 61);
 2045              		.loc 1 251 17 is_stmt 0 discriminator 3 view .LVU711
 2046 0a04 DDF818C0 		ldr	ip, [sp, #24]
 2047 0a08 1C9B     		ldr	r3, [sp, #112]
 2048 0a0a 83EA0C0C 		eor	ip, r3, ip
 2049 0a0e 1D9B     		ldr	r3, [sp, #116]
 2050              		.loc 1 252 17 discriminator 3 view .LVU712
 2051 0a10 4FEADC08 		lsr	r8, ip, #3
 251:keccakf1600.c ****             BCu = ROL(Esi, 61);
 2052              		.loc 1 251 17 discriminator 3 view .LVU713
 2053 0a14 83EA0E03 		eor	r3, r3, lr
 2054              		.loc 1 252 17 discriminator 3 view .LVU714
 2055 0a18 48EA4378 		orr	r8, r8, r3, lsl #29
 253:keccakf1600.c ****             Aga =   BCa ^((~BCe)&  BCi );
 2056              		.loc 1 253 33 discriminator 3 view .LVU715
 2057 0a1c 22EA010E 		bic	lr, r2, r1
 252:keccakf1600.c ****             BCu = ROL(Esi, 61);
 2058              		.loc 1 252 17 discriminator 3 view .LVU716
 2059 0a20 DB08     		lsrs	r3, r3, #3
 2060 0a22 43EA4C73 		orr	r3, r3, ip, lsl #29
 2061              	.LVL254:
 2062              		.loc 1 253 13 is_stmt 1 discriminator 3 view .LVU717
 2063              		.loc 1 253 17 is_stmt 0 discriminator 3 view .LVU718
 2064 0a26 8EEA040E 		eor	lr, lr, r4
 2065              		.loc 1 253 33 discriminator 3 view .LVU719
 2066 0a2a 27EA060C 		bic	ip, r7, r6
 2067              		.loc 1 253 17 discriminator 3 view .LVU720
 2068 0a2e 8CEA0B0C 		eor	ip, ip, fp
 2069 0a32 CDF858E0 		str	lr, [sp, #88]
 254:keccakf1600.c ****             Age =   BCe ^((~BCi)&  BCo );
 2070              		.loc 1 254 33 discriminator 3 view .LVU721
 2071 0a36 25EA020E 		bic	lr, r5, r2
 2072              		.loc 1 254 17 discriminator 3 view .LVU722
 2073 0a3a 8EEA010E 		eor	lr, lr, r1
 253:keccakf1600.c ****             Aga =   BCa ^((~BCe)&  BCi );
 2074              		.loc 1 253 17 discriminator 3 view .LVU723
 2075 0a3e CDF85CC0 		str	ip, [sp, #92]
 2076              	.LVL255:
 2077              		.loc 1 254 13 is_stmt 1 discriminator 3 view .LVU724
 2078              		.loc 1 254 33 is_stmt 0 discriminator 3 view .LVU725
 2079 0a42 2AEA070C 		bic	ip, r10, r7
 2080              	.LVL256:
 2081              		.loc 1 254 17 discriminator 3 view .LVU726
 2082 0a46 8CEA060C 		eor	ip, ip, r6
 2083 0a4a CDF860E0 		str	lr, [sp, #96]
 2084              	.LVL257:
 255:keccakf1600.c ****             Agi =   BCi ^((~BCo)&  BCu );
 2085              		.loc 1 255 33 discriminator 3 view .LVU727
 2086 0a4e 28EA050E 		bic	lr, r8, r5
 2087              		.loc 1 255 17 discriminator 3 view .LVU728
 2088 0a52 8EEA0202 		eor	r2, lr, r2
 2089              	.LVL258:
 254:keccakf1600.c ****             Age =   BCe ^((~BCi)&  BCo );
 2090              		.loc 1 254 17 discriminator 3 view .LVU729
 2091 0a56 CDF864C0 		str	ip, [sp, #100]
 2092              	.LVL259:
 2093              		.loc 1 255 13 is_stmt 1 discriminator 3 view .LVU730
 2094              		.loc 1 255 33 is_stmt 0 discriminator 3 view .LVU731
 2095 0a5a 23EA0A0C 		bic	ip, r3, r10
 2096              	.LVL260:
 2097              		.loc 1 255 17 discriminator 3 view .LVU732
 2098 0a5e 1A92     		str	r2, [sp, #104]
 2099              	.LVL261:
 2100              		.loc 1 255 17 discriminator 3 view .LVU733
 2101 0a60 8CEA0702 		eor	r2, ip, r7
 2102 0a64 1B92     		str	r2, [sp, #108]
 2103              	.LVL262:
 256:keccakf1600.c ****             Ago =   BCo ^((~BCu)&  BCa );
 2104              		.loc 1 256 13 is_stmt 1 discriminator 3 view .LVU734
 2105              		.loc 1 256 33 is_stmt 0 discriminator 3 view .LVU735
 2106 0a66 2BEA0302 		bic	r2, fp, r3
 2107              	.LVL263:
 2108              		.loc 1 256 17 discriminator 3 view .LVU736
 2109 0a6a 82EA0A02 		eor	r2, r2, r10
 257:keccakf1600.c ****             Agu =   BCu ^((~BCa)&  BCe );
 2110              		.loc 1 257 33 discriminator 3 view .LVU737
 2111 0a6e 21EA0401 		bic	r1, r1, r4
 2112              	.LVL264:
 2113              		.loc 1 257 33 discriminator 3 view .LVU738
 2114 0a72 26EA0B06 		bic	r6, r6, fp
 2115              	.LVL265:
 2116              		.loc 1 257 17 discriminator 3 view .LVU739
 2117 0a76 7340     		eors	r3, r3, r6
 2118              	.LVL266:
 256:keccakf1600.c ****             Ago =   BCo ^((~BCu)&  BCa );
 2119              		.loc 1 256 17 discriminator 3 view .LVU740
 2120 0a78 1D92     		str	r2, [sp, #116]
 2121              	.LVL267:
 2122              		.loc 1 257 13 is_stmt 1 discriminator 3 view .LVU741
 2123              		.loc 1 257 17 is_stmt 0 discriminator 3 view .LVU742
 2124 0a7a 81EA0802 		eor	r2, r1, r8
 2125              	.LVL268:
 2126              		.loc 1 257 17 discriminator 3 view .LVU743
 2127 0a7e 1E92     		str	r2, [sp, #120]
 2128              	.LVL269:
 2129              		.loc 1 257 17 discriminator 3 view .LVU744
 2130 0a80 1F93     		str	r3, [sp, #124]
 2131              	.LVL270:
 258:keccakf1600.c **** 
 259:keccakf1600.c ****             Ebe ^= De;
 2132              		.loc 1 259 13 is_stmt 1 discriminator 3 view .LVU745
 260:keccakf1600.c ****             BCa = ROL(Ebe, 1);
 2133              		.loc 1 260 13 discriminator 3 view .LVU746
 259:keccakf1600.c ****             BCa = ROL(Ebe, 1);
 2134              		.loc 1 259 17 is_stmt 0 discriminator 3 view .LVU747
 2135 0a82 049A     		ldr	r2, [sp, #16]
 2136              	.LVL271:
 259:keccakf1600.c ****             BCa = ROL(Ebe, 1);
 2137              		.loc 1 259 17 discriminator 3 view .LVU748
 2138 0a84 249B     		ldr	r3, [sp, #144]
 2139              	.LVL272:
 256:keccakf1600.c ****             Agu =   BCu ^((~BCa)&  BCe );
 2140              		.loc 1 256 33 discriminator 3 view .LVU749
 2141 0a86 24EA0807 		bic	r7, r4, r8
 256:keccakf1600.c ****             Agu =   BCu ^((~BCa)&  BCe );
 2142              		.loc 1 256 17 discriminator 3 view .LVU750
 2143 0a8a 7D40     		eors	r5, r5, r7
 2144              	.LVL273:
 259:keccakf1600.c ****             BCa = ROL(Ebe, 1);
 2145              		.loc 1 259 17 discriminator 3 view .LVU751
 2146 0a8c 83EA0207 		eor	r7, r3, r2
 2147 0a90 259B     		ldr	r3, [sp, #148]
 2148 0a92 059A     		ldr	r2, [sp, #20]
 256:keccakf1600.c ****             Agu =   BCu ^((~BCa)&  BCe );
 2149              		.loc 1 256 17 discriminator 3 view .LVU752
 2150 0a94 1C95     		str	r5, [sp, #112]
 2151              	.LVL274:
 259:keccakf1600.c ****             BCa = ROL(Ebe, 1);
 2152              		.loc 1 259 17 discriminator 3 view .LVU753
 2153 0a96 83EA0206 		eor	r6, r3, r2
 261:keccakf1600.c ****             Egi ^= Di;
 2154              		.loc 1 261 17 discriminator 3 view .LVU754
 2155 0a9a 209B     		ldr	r3, [sp, #128]
 2156 0a9c 069A     		ldr	r2, [sp, #24]
 260:keccakf1600.c ****             Egi ^= Di;
 2157              		.loc 1 260 17 discriminator 3 view .LVU755
 2158 0a9e 4FEA4608 		lsl	r8, r6, #1
 2159              		.loc 1 261 17 discriminator 3 view .LVU756
 2160 0aa2 83EA0204 		eor	r4, r3, r2
 2161              	.LVL275:
 2162              		.loc 1 261 17 discriminator 3 view .LVU757
 2163 0aa6 219B     		ldr	r3, [sp, #132]
 2164 0aa8 079A     		ldr	r2, [sp, #28]
 260:keccakf1600.c ****             Egi ^= Di;
 2165              		.loc 1 260 17 discriminator 3 view .LVU758
 2166 0aaa 48EAD778 		orr	r8, r8, r7, lsr #31
 2167 0aae 7F00     		lsls	r7, r7, #1
 2168 0ab0 47EAD67B 		orr	fp, r7, r6, lsr #31
 2169              	.LVL276:
 2170              		.loc 1 261 13 is_stmt 1 discriminator 3 view .LVU759
 262:keccakf1600.c ****             BCe = ROL(Egi, 6);
 2171              		.loc 1 262 13 discriminator 3 view .LVU760
 261:keccakf1600.c ****             Egi ^= Di;
 2172              		.loc 1 261 17 is_stmt 0 discriminator 3 view .LVU761
 2173 0ab4 83EA0206 		eor	r6, r3, r2
 263:keccakf1600.c ****             Eko ^= Do;
 2174              		.loc 1 263 17 discriminator 3 view .LVU762
 2175 0ab8 269B     		ldr	r3, [sp, #152]
 2176 0aba 089A     		ldr	r2, [sp, #32]
 2177 0abc 83EA0205 		eor	r5, r3, r2
 2178 0ac0 279B     		ldr	r3, [sp, #156]
 2179 0ac2 099A     		ldr	r2, [sp, #36]
 2180 0ac4 83EA0201 		eor	r1, r3, r2
 264:keccakf1600.c ****             BCi = ROL(Eko, 25);
 2181              		.loc 1 264 17 discriminator 3 view .LVU763
 2182 0ac8 6A06     		lsls	r2, r5, #25
 2183 0aca 42EAD112 		orr	r2, r2, r1, lsr #7
 265:keccakf1600.c ****             Emu ^= Du;
 2184              		.loc 1 265 17 discriminator 3 view .LVU764
 2185 0ace 229B     		ldr	r3, [sp, #136]
 264:keccakf1600.c ****             BCi = ROL(Eko, 25);
 2186              		.loc 1 264 17 discriminator 3 view .LVU765
 2187 0ad0 4FEA416A 		lsl	r10, r1, #25
 2188              		.loc 1 265 17 discriminator 3 view .LVU766
 2189 0ad4 0A99     		ldr	r1, [sp, #40]
 262:keccakf1600.c ****             Eko ^= Do;
 2190              		.loc 1 262 17 discriminator 3 view .LVU767
 2191 0ad6 4FEA861C 		lsl	ip, r6, #6
 2192              		.loc 1 265 17 discriminator 3 view .LVU768
 2193 0ada 83EA0107 		eor	r7, r3, r1
 2194 0ade 239B     		ldr	r3, [sp, #140]
 2195 0ae0 0B99     		ldr	r1, [sp, #44]
 262:keccakf1600.c ****             Eko ^= Do;
 2196              		.loc 1 262 17 discriminator 3 view .LVU769
 2197 0ae2 4CEA946C 		orr	ip, ip, r4, lsr #26
 2198 0ae6 A401     		lsls	r4, r4, #6
 2199 0ae8 44EA9669 		orr	r9, r4, r6, lsr #26
 2200              	.LVL277:
 263:keccakf1600.c ****             BCi = ROL(Eko, 25);
 2201              		.loc 1 263 13 is_stmt 1 discriminator 3 view .LVU770
 264:keccakf1600.c ****             Emu ^= Du;
 2202              		.loc 1 264 13 discriminator 3 view .LVU771
 2203              		.loc 1 265 17 is_stmt 0 discriminator 3 view .LVU772
 2204 0aec 83EA0104 		eor	r4, r3, r1
 266:keccakf1600.c ****             BCo = ROL(Emu, 8);
 2205              		.loc 1 266 17 discriminator 3 view .LVU773
 2206 0af0 2102     		lsls	r1, r4, #8
 2207 0af2 41EA1761 		orr	r1, r1, r7, lsr #24
 2208 0af6 3F02     		lsls	r7, r7, #8
 2209 0af8 47EA1467 		orr	r7, r7, r4, lsr #24
 267:keccakf1600.c ****             Esa ^= Da;
 2210              		.loc 1 267 17 discriminator 3 view .LVU774
 2211 0afc 289B     		ldr	r3, [sp, #160]
 2212 0afe 029C     		ldr	r4, [sp, #8]
 264:keccakf1600.c ****             Emu ^= Du;
 2213              		.loc 1 264 17 discriminator 3 view .LVU775
 2214 0b00 4AEAD51A 		orr	r10, r10, r5, lsr #7
 2215              	.LVL278:
 265:keccakf1600.c ****             BCo = ROL(Emu, 8);
 2216              		.loc 1 265 13 is_stmt 1 discriminator 3 view .LVU776
 266:keccakf1600.c ****             BCo = ROL(Emu, 8);
 2217              		.loc 1 266 13 discriminator 3 view .LVU777
 2218              		.loc 1 267 13 discriminator 3 view .LVU778
 268:keccakf1600.c ****             BCu = ROL(Esa, 18);
 2219              		.loc 1 268 13 discriminator 3 view .LVU779
 267:keccakf1600.c ****             Esa ^= Da;
 2220              		.loc 1 267 17 is_stmt 0 discriminator 3 view .LVU780
 2221 0b04 6340     		eors	r3, r3, r4
 2222 0b06 039D     		ldr	r5, [sp, #12]
 2223 0b08 299C     		ldr	r4, [sp, #164]
 2224 0b0a 6C40     		eors	r4, r4, r5
 2225              		.loc 1 268 17 discriminator 3 view .LVU781
 2226 0b0c 4FEA844E 		lsl	lr, r4, #18
 2227 0b10 4EEA933E 		orr	lr, lr, r3, lsr #14
 2228 0b14 9B04     		lsls	r3, r3, #18
 2229 0b16 43EA9433 		orr	r3, r3, r4, lsr #14
 2230              	.LVL279:
 269:keccakf1600.c ****             Aka =   BCa ^((~BCe)&  BCi );
 2231              		.loc 1 269 13 is_stmt 1 discriminator 3 view .LVU782
 2232              		.loc 1 269 33 is_stmt 0 discriminator 3 view .LVU783
 2233 0b1a 2AEA0C04 		bic	r4, r10, ip
 2234 0b1e 22EA0905 		bic	r5, r2, r9
 2235              		.loc 1 269 17 discriminator 3 view .LVU784
 2236 0b22 84EA0804 		eor	r4, r4, r8
 2237 0b26 85EA0B05 		eor	r5, r5, fp
 2238 0b2a 2194     		str	r4, [sp, #132]
 2239              	.LVL280:
 270:keccakf1600.c ****             Ake =   BCe ^((~BCi)&  BCo );
 2240              		.loc 1 270 13 is_stmt 1 discriminator 3 view .LVU785
 2241              		.loc 1 270 33 is_stmt 0 discriminator 3 view .LVU786
 2242 0b2c 27EA0204 		bic	r4, r7, r2
 2243              	.LVL281:
 2244              		.loc 1 270 17 discriminator 3 view .LVU787
 2245 0b30 84EA0904 		eor	r4, r4, r9
 269:keccakf1600.c ****             Aka =   BCa ^((~BCe)&  BCi );
 2246              		.loc 1 269 17 discriminator 3 view .LVU788
 2247 0b34 2095     		str	r5, [sp, #128]
 2248              	.LVL282:
 2249              		.loc 1 270 33 discriminator 3 view .LVU789
 2250 0b36 21EA0A05 		bic	r5, r1, r10
 2251              		.loc 1 270 17 discriminator 3 view .LVU790
 2252 0b3a 2294     		str	r4, [sp, #136]
 2253 0b3c 85EA0C04 		eor	r4, r5, ip
 271:keccakf1600.c ****             Aki =   BCi ^((~BCo)&  BCu );
 2254              		.loc 1 271 33 discriminator 3 view .LVU791
 2255 0b40 23EA0705 		bic	r5, r3, r7
 2256              		.loc 1 271 17 discriminator 3 view .LVU792
 2257 0b44 6A40     		eors	r2, r2, r5
 2258              	.LVL283:
 270:keccakf1600.c ****             Ake =   BCe ^((~BCi)&  BCo );
 2259              		.loc 1 270 17 discriminator 3 view .LVU793
 2260 0b46 2394     		str	r4, [sp, #140]
 2261              	.LVL284:
 2262              		.loc 1 271 13 is_stmt 1 discriminator 3 view .LVU794
 2263              		.loc 1 271 33 is_stmt 0 discriminator 3 view .LVU795
 2264 0b48 2EEA0104 		bic	r4, lr, r1
 2265              	.LVL285:
 272:keccakf1600.c ****             Ako =   BCo ^((~BCu)&  BCa );
 273:keccakf1600.c ****             Aku =   BCu ^((~BCa)&  BCe );
 2266              		.loc 1 273 33 discriminator 3 view .LVU796
 2267 0b4c 29EA0B09 		bic	r9, r9, fp
 2268              	.LVL286:
 271:keccakf1600.c ****             Aki =   BCi ^((~BCo)&  BCu );
 2269              		.loc 1 271 17 discriminator 3 view .LVU797
 2270 0b50 2492     		str	r2, [sp, #144]
 2271              	.LVL287:
 271:keccakf1600.c ****             Aki =   BCi ^((~BCo)&  BCu );
 2272              		.loc 1 271 17 discriminator 3 view .LVU798
 2273 0b52 84EA0A02 		eor	r2, r4, r10
 2274              		.loc 1 273 33 discriminator 3 view .LVU799
 2275 0b56 2CEA080C 		bic	ip, ip, r8
 272:keccakf1600.c ****             Ako =   BCo ^((~BCu)&  BCa );
 2276              		.loc 1 272 33 discriminator 3 view .LVU800
 2277 0b5a 2BEA0304 		bic	r4, fp, r3
 271:keccakf1600.c ****             Aki =   BCi ^((~BCo)&  BCu );
 2278              		.loc 1 271 17 discriminator 3 view .LVU801
 2279 0b5e 2592     		str	r2, [sp, #148]
 2280              	.LVL288:
 272:keccakf1600.c ****             Ako =   BCo ^((~BCu)&  BCa );
 2281              		.loc 1 272 13 is_stmt 1 discriminator 3 view .LVU802
 2282              		.loc 1 273 17 is_stmt 0 discriminator 3 view .LVU803
 2283 0b60 89EA0303 		eor	r3, r9, r3
 2284              	.LVL289:
 272:keccakf1600.c ****             Ako =   BCo ^((~BCu)&  BCa );
 2285              		.loc 1 272 33 discriminator 3 view .LVU804
 2286 0b64 28EA0E02 		bic	r2, r8, lr
 2287              	.LVL290:
 272:keccakf1600.c ****             Ako =   BCo ^((~BCu)&  BCa );
 2288              		.loc 1 272 17 discriminator 3 view .LVU805
 2289 0b68 4A40     		eors	r2, r2, r1
 2290              		.loc 1 273 17 discriminator 3 view .LVU806
 2291 0b6a 2893     		str	r3, [sp, #160]
 2292              	.LVL291:
 2293              		.loc 1 273 17 discriminator 3 view .LVU807
 2294 0b6c 8CEA0E03 		eor	r3, ip, lr
 272:keccakf1600.c ****             Ako =   BCo ^((~BCu)&  BCa );
 2295              		.loc 1 272 17 discriminator 3 view .LVU808
 2296 0b70 2792     		str	r2, [sp, #156]
 2297              	.LVL292:
 2298              		.loc 1 273 13 is_stmt 1 discriminator 3 view .LVU809
 2299              		.loc 1 273 17 is_stmt 0 discriminator 3 view .LVU810
 2300 0b72 2993     		str	r3, [sp, #164]
 2301              	.LVL293:
 274:keccakf1600.c **** 
 275:keccakf1600.c ****             Ebu ^= Du;
 2302              		.loc 1 275 13 is_stmt 1 discriminator 3 view .LVU811
 276:keccakf1600.c ****             BCa = ROL(Ebu, 27);
 2303              		.loc 1 276 13 discriminator 3 view .LVU812
 275:keccakf1600.c ****             BCa = ROL(Ebu, 27);
 2304              		.loc 1 275 17 is_stmt 0 discriminator 3 view .LVU813
 2305 0b74 0A9A     		ldr	r2, [sp, #40]
 2306              	.LVL294:
 275:keccakf1600.c ****             BCa = ROL(Ebu, 27);
 2307              		.loc 1 275 17 discriminator 3 view .LVU814
 2308 0b76 309B     		ldr	r3, [sp, #192]
 2309              	.LVL295:
 277:keccakf1600.c ****             Ega ^= Da;
 278:keccakf1600.c ****             BCe = ROL(Ega, 36);
 279:keccakf1600.c ****             Eke ^= De;
 2310              		.loc 1 279 17 discriminator 3 view .LVU815
 2311 0b78 0599     		ldr	r1, [sp, #20]
 2312              	.LVL296:
 275:keccakf1600.c ****             BCa = ROL(Ebu, 27);
 2313              		.loc 1 275 17 discriminator 3 view .LVU816
 2314 0b7a 83EA0205 		eor	r5, r3, r2
 2315 0b7e 0B9A     		ldr	r2, [sp, #44]
 2316 0b80 319B     		ldr	r3, [sp, #196]
 2317 0b82 5340     		eors	r3, r3, r2
 276:keccakf1600.c ****             Ega ^= Da;
 2318              		.loc 1 276 17 discriminator 3 view .LVU817
 2319 0b84 4FEAC36B 		lsl	fp, r3, #27
 2320              	.LVL297:
 276:keccakf1600.c ****             Ega ^= Da;
 2321              		.loc 1 276 17 discriminator 3 view .LVU818
 2322 0b88 4BEA551B 		orr	fp, fp, r5, lsr #5
 2323 0b8c ED06     		lsls	r5, r5, #27
 2324 0b8e 45EA531C 		orr	ip, r5, r3, lsr #5
 2325              	.LVL298:
 277:keccakf1600.c ****             Ega ^= Da;
 2326              		.loc 1 277 13 is_stmt 1 discriminator 3 view .LVU819
 278:keccakf1600.c ****             Eke ^= De;
 2327              		.loc 1 278 13 discriminator 3 view .LVU820
 277:keccakf1600.c ****             Ega ^= Da;
 2328              		.loc 1 277 17 is_stmt 0 discriminator 3 view .LVU821
 2329 0b92 029A     		ldr	r2, [sp, #8]
 2330 0b94 2C9B     		ldr	r3, [sp, #176]
 2331 0b96 83EA020A 		eor	r10, r3, r2
 2332 0b9a 2D9B     		ldr	r3, [sp, #180]
 2333 0b9c 039A     		ldr	r2, [sp, #12]
 2334 0b9e 83EA0206 		eor	r6, r3, r2
 2335              		.loc 1 279 17 discriminator 3 view .LVU822
 2336 0ba2 329B     		ldr	r3, [sp, #200]
 2337 0ba4 049A     		ldr	r2, [sp, #16]
 2338 0ba6 5A40     		eors	r2, r2, r3
 2339 0ba8 339B     		ldr	r3, [sp, #204]
 278:keccakf1600.c ****             Eke ^= De;
 2340              		.loc 1 278 17 discriminator 3 view .LVU823
 2341 0baa 4FEA1A7E 		lsr	lr, r10, #28
 2342 0bae 4EEA061E 		orr	lr, lr, r6, lsl #4
 2343              		.loc 1 279 17 discriminator 3 view .LVU824
 2344 0bb2 83EA0109 		eor	r9, r3, r1
 278:keccakf1600.c ****             Eke ^= De;
 2345              		.loc 1 278 17 discriminator 3 view .LVU825
 2346 0bb6 360F     		lsrs	r6, r6, #28
 2347 0bb8 46EA0A16 		orr	r6, r6, r10, lsl #4
 2348              	.LVL299:
 2349              		.loc 1 279 13 is_stmt 1 discriminator 3 view .LVU826
 280:keccakf1600.c ****             BCi = ROL(Eke, 10);
 2350              		.loc 1 280 13 discriminator 3 view .LVU827
 2351              		.loc 1 280 17 is_stmt 0 discriminator 3 view .LVU828
 2352 0bbc 4FEA892A 		lsl	r10, r9, #10
 2353 0bc0 4AEA925A 		orr	r10, r10, r2, lsr #22
 281:keccakf1600.c ****             Emi ^= Di;
 2354              		.loc 1 281 17 discriminator 3 view .LVU829
 2355 0bc4 0699     		ldr	r1, [sp, #24]
 280:keccakf1600.c ****             BCi = ROL(Eke, 10);
 2356              		.loc 1 280 17 discriminator 3 view .LVU830
 2357 0bc6 9302     		lsls	r3, r2, #10
 2358              		.loc 1 281 17 discriminator 3 view .LVU831
 2359 0bc8 2E9A     		ldr	r2, [sp, #184]
 2360 0bca 82EA0105 		eor	r5, r2, r1
 2361 0bce 0799     		ldr	r1, [sp, #28]
 2362 0bd0 2F9A     		ldr	r2, [sp, #188]
 280:keccakf1600.c ****             BCi = ROL(Eke, 10);
 2363              		.loc 1 280 17 discriminator 3 view .LVU832
 2364 0bd2 43EA9953 		orr	r3, r3, r9, lsr #22
 2365              	.LVL300:
 2366              		.loc 1 281 13 is_stmt 1 discriminator 3 view .LVU833
 282:keccakf1600.c ****             BCo = ROL(Emi, 15);
 2367              		.loc 1 282 13 discriminator 3 view .LVU834
 272:keccakf1600.c ****             Aku =   BCu ^((~BCa)&  BCe );
 2368              		.loc 1 272 17 is_stmt 0 discriminator 3 view .LVU835
 2369 0bd6 7C40     		eors	r4, r4, r7
 281:keccakf1600.c ****             Emi ^= Di;
 2370              		.loc 1 281 17 discriminator 3 view .LVU836
 2371 0bd8 82EA0109 		eor	r9, r2, r1
 272:keccakf1600.c ****             Aku =   BCu ^((~BCa)&  BCe );
 2372              		.loc 1 272 17 discriminator 3 view .LVU837
 2373 0bdc 2694     		str	r4, [sp, #152]
 2374              	.LVL301:
 283:keccakf1600.c ****             Eso ^= Do;
 2375              		.loc 1 283 17 discriminator 3 view .LVU838
 2376 0bde 2A9A     		ldr	r2, [sp, #168]
 2377 0be0 0899     		ldr	r1, [sp, #32]
 282:keccakf1600.c ****             BCo = ROL(Emi, 15);
 2378              		.loc 1 282 17 discriminator 3 view .LVU839
 2379 0be2 4FEAC934 		lsl	r4, r9, #15
 2380 0be6 44EA5544 		orr	r4, r4, r5, lsr #17
 2381 0bea ED03     		lsls	r5, r5, #15
 2382 0bec 45EA5948 		orr	r8, r5, r9, lsr #17
 2383              	.LVL302:
 2384              		.loc 1 283 13 is_stmt 1 discriminator 3 view .LVU840
 284:keccakf1600.c ****             BCu = ROL(Eso, 56);
 2385              		.loc 1 284 13 discriminator 3 view .LVU841
 283:keccakf1600.c ****             Eso ^= Do;
 2386              		.loc 1 283 17 is_stmt 0 discriminator 3 view .LVU842
 2387 0bf0 5140     		eors	r1, r1, r2
 2388 0bf2 099D     		ldr	r5, [sp, #36]
 2389 0bf4 2B9A     		ldr	r2, [sp, #172]
 2390              		.loc 1 284 17 discriminator 3 view .LVU843
 2391 0bf6 4FEA1129 		lsr	r9, r1, #8
 283:keccakf1600.c ****             Eso ^= Do;
 2392              		.loc 1 283 17 discriminator 3 view .LVU844
 2393 0bfa 82EA0507 		eor	r7, r2, r5
 2394              		.loc 1 284 17 discriminator 3 view .LVU845
 2395 0bfe 49EA0769 		orr	r9, r9, r7, lsl #24
 2396 0c02 3F0A     		lsrs	r7, r7, #8
 2397 0c04 47EA0167 		orr	r7, r7, r1, lsl #24
 2398              	.LVL303:
 285:keccakf1600.c ****             Ama =   BCa ^((~BCe)&  BCi );
 2399              		.loc 1 285 13 is_stmt 1 discriminator 3 view .LVU846
 2400              		.loc 1 285 33 is_stmt 0 discriminator 3 view .LVU847
 2401 0c08 23EA0E01 		bic	r1, r3, lr
 2402 0c0c 2AEA0602 		bic	r2, r10, r6
 2403              		.loc 1 285 17 discriminator 3 view .LVU848
 2404 0c10 81EA0C01 		eor	r1, r1, ip
 2405 0c14 82EA0B02 		eor	r2, r2, fp
 2406 0c18 2A91     		str	r1, [sp, #168]
 286:keccakf1600.c ****             Ame =   BCe ^((~BCi)&  BCo );
 2407              		.loc 1 286 33 discriminator 3 view .LVU849
 2408 0c1a 28EA0301 		bic	r1, r8, r3
 2409              		.loc 1 286 17 discriminator 3 view .LVU850
 2410 0c1e 81EA0E01 		eor	r1, r1, lr
 285:keccakf1600.c ****             Ama =   BCa ^((~BCe)&  BCi );
 2411              		.loc 1 285 17 discriminator 3 view .LVU851
 2412 0c22 2B92     		str	r2, [sp, #172]
 2413              	.LVL304:
 2414              		.loc 1 286 13 is_stmt 1 discriminator 3 view .LVU852
 2415              		.loc 1 286 33 is_stmt 0 discriminator 3 view .LVU853
 2416 0c24 24EA0A02 		bic	r2, r4, r10
 2417              	.LVL305:
 2418              		.loc 1 286 17 discriminator 3 view .LVU854
 2419 0c28 7240     		eors	r2, r2, r6
 2420 0c2a 2C91     		str	r1, [sp, #176]
 2421              	.LVL306:
 287:keccakf1600.c ****             Ami =   BCi ^((~BCo)&  BCu );
 2422              		.loc 1 287 33 discriminator 3 view .LVU855
 2423 0c2c 29EA0801 		bic	r1, r9, r8
 2424              		.loc 1 287 17 discriminator 3 view .LVU856
 2425 0c30 4B40     		eors	r3, r3, r1
 2426              	.LVL307:
 286:keccakf1600.c ****             Ame =   BCe ^((~BCi)&  BCo );
 2427              		.loc 1 286 17 discriminator 3 view .LVU857
 2428 0c32 2D92     		str	r2, [sp, #180]
 2429              	.LVL308:
 2430              		.loc 1 287 13 is_stmt 1 discriminator 3 view .LVU858
 2431              		.loc 1 287 33 is_stmt 0 discriminator 3 view .LVU859
 2432 0c34 27EA0402 		bic	r2, r7, r4
 2433              	.LVL309:
 288:keccakf1600.c ****             Amo =   BCo ^((~BCu)&  BCa );
 2434              		.loc 1 288 33 discriminator 3 view .LVU860
 2435 0c38 2CEA0901 		bic	r1, ip, r9
 287:keccakf1600.c ****             Ami =   BCi ^((~BCo)&  BCu );
 2436              		.loc 1 287 17 discriminator 3 view .LVU861
 2437 0c3c 2E93     		str	r3, [sp, #184]
 2438              	.LVL310:
 287:keccakf1600.c ****             Ami =   BCi ^((~BCo)&  BCu );
 2439              		.loc 1 287 17 discriminator 3 view .LVU862
 2440 0c3e 82EA0A03 		eor	r3, r2, r10
 2441 0c42 2F93     		str	r3, [sp, #188]
 2442              	.LVL311:
 2443              		.loc 1 288 13 is_stmt 1 discriminator 3 view .LVU863
 2444              		.loc 1 288 33 is_stmt 0 discriminator 3 view .LVU864
 2445 0c44 2BEA0702 		bic	r2, fp, r7
 2446              		.loc 1 288 17 discriminator 3 view .LVU865
 2447 0c48 81EA0803 		eor	r3, r1, r8
 2448              	.LVL312:
 289:keccakf1600.c ****             Amu =   BCu ^((~BCa)&  BCe );
 2449              		.loc 1 289 33 discriminator 3 view .LVU866
 2450 0c4c 2EEA0C0C 		bic	ip, lr, ip
 2451              	.LVL313:
 288:keccakf1600.c ****             Amo =   BCo ^((~BCu)&  BCa );
 2452              		.loc 1 288 17 discriminator 3 view .LVU867
 2453 0c50 3093     		str	r3, [sp, #192]
 2454              	.LVL314:
 288:keccakf1600.c ****             Amo =   BCo ^((~BCu)&  BCa );
 2455              		.loc 1 288 17 discriminator 3 view .LVU868
 2456 0c52 82EA0403 		eor	r3, r2, r4
 2457              		.loc 1 289 33 discriminator 3 view .LVU869
 2458 0c56 26EA0B06 		bic	r6, r6, fp
 2459              	.LVL315:
 288:keccakf1600.c ****             Amo =   BCo ^((~BCu)&  BCa );
 2460              		.loc 1 288 17 discriminator 3 view .LVU870
 2461 0c5a 3193     		str	r3, [sp, #196]
 2462              	.LVL316:
 2463              		.loc 1 289 13 is_stmt 1 discriminator 3 view .LVU871
 2464              		.loc 1 289 17 is_stmt 0 discriminator 3 view .LVU872
 2465 0c5c 8CEA0903 		eor	r3, ip, r9
 2466              	.LVL317:
 2467              		.loc 1 289 17 discriminator 3 view .LVU873
 2468 0c60 3293     		str	r3, [sp, #200]
 2469              	.LVL318:
 2470              		.loc 1 289 17 discriminator 3 view .LVU874
 2471 0c62 86EA0703 		eor	r3, r6, r7
 290:keccakf1600.c **** 
 291:keccakf1600.c ****             Ebi ^= Di;
 2472              		.loc 1 291 17 discriminator 3 view .LVU875
 2473 0c66 069A     		ldr	r2, [sp, #24]
 289:keccakf1600.c ****             Amu =   BCu ^((~BCa)&  BCe );
 2474              		.loc 1 289 17 discriminator 3 view .LVU876
 2475 0c68 3393     		str	r3, [sp, #204]
 2476              	.LVL319:
 2477              		.loc 1 291 13 is_stmt 1 discriminator 3 view .LVU877
 292:keccakf1600.c ****             BCa = ROL(Ebi, 62);
 2478              		.loc 1 292 13 discriminator 3 view .LVU878
 291:keccakf1600.c ****             BCa = ROL(Ebi, 62);
 2479              		.loc 1 291 17 is_stmt 0 discriminator 3 view .LVU879
 2480 0c6a 3B9B     		ldr	r3, [sp, #236]
 2481              	.LVL320:
 293:keccakf1600.c ****             Ego ^= Do;
 2482              		.loc 1 293 17 discriminator 3 view .LVU880
 2483 0c6c 0899     		ldr	r1, [sp, #32]
 291:keccakf1600.c ****             BCa = ROL(Ebi, 62);
 2484              		.loc 1 291 17 discriminator 3 view .LVU881
 2485 0c6e 83EA0209 		eor	r9, r3, r2
 2486              	.LVL321:
 291:keccakf1600.c ****             BCa = ROL(Ebi, 62);
 2487              		.loc 1 291 17 discriminator 3 view .LVU882
 2488 0c72 3C9B     		ldr	r3, [sp, #240]
 2489 0c74 079A     		ldr	r2, [sp, #28]
 2490 0c76 83EA0208 		eor	r8, r3, r2
 2491              	.LVL322:
 2492              		.loc 1 293 17 discriminator 3 view .LVU883
 2493 0c7a 379A     		ldr	r2, [sp, #220]
 292:keccakf1600.c ****             BCa = ROL(Ebi, 62);
 2494              		.loc 1 292 17 discriminator 3 view .LVU884
 2495 0c7c 4FEA990C 		lsr	ip, r9, #2
 2496              		.loc 1 293 17 discriminator 3 view .LVU885
 2497 0c80 82EA0106 		eor	r6, r2, r1
 2498 0c84 389A     		ldr	r2, [sp, #224]
 294:keccakf1600.c ****             BCe = ROL(Ego, 55);
 295:keccakf1600.c ****             Eku ^= Du;
 2499              		.loc 1 295 17 discriminator 3 view .LVU886
 2500 0c86 0A99     		ldr	r1, [sp, #40]
 292:keccakf1600.c ****             Ego ^= Do;
 2501              		.loc 1 292 17 discriminator 3 view .LVU887
 2502 0c88 4CEA887C 		orr	ip, ip, r8, lsl #30
 2503 0c8c 4FEA9808 		lsr	r8, r8, #2
 2504 0c90 48EA8973 		orr	r3, r8, r9, lsl #30
 2505              	.LVL323:
 293:keccakf1600.c ****             Ego ^= Do;
 2506              		.loc 1 293 13 is_stmt 1 discriminator 3 view .LVU888
 294:keccakf1600.c ****             BCe = ROL(Ego, 55);
 2507              		.loc 1 294 13 discriminator 3 view .LVU889
 293:keccakf1600.c ****             Ego ^= Do;
 2508              		.loc 1 293 17 is_stmt 0 discriminator 3 view .LVU890
 2509 0c94 82EA0508 		eor	r8, r2, r5
 2510              		.loc 1 295 17 discriminator 3 view .LVU891
 2511 0c98 349A     		ldr	r2, [sp, #208]
 2512 0c9a 82EA0105 		eor	r5, r2, r1
 2513 0c9e 3D9A     		ldr	r2, [sp, #244]
 2514 0ca0 0B99     		ldr	r1, [sp, #44]
 296:keccakf1600.c ****             BCi = ROL(Eku, 39);
 2515              		.loc 1 296 17 discriminator 3 view .LVU892
 2516 0ca2 4FEA556B 		lsr	fp, r5, #25
 295:keccakf1600.c ****             BCi = ROL(Eku, 39);
 2517              		.loc 1 295 17 discriminator 3 view .LVU893
 2518 0ca6 82EA0104 		eor	r4, r2, r1
 2519              		.loc 1 296 17 discriminator 3 view .LVU894
 2520 0caa 4BEAC41B 		orr	fp, fp, r4, lsl #7
 297:keccakf1600.c ****             Ema ^= Da;
 2521              		.loc 1 297 17 discriminator 3 view .LVU895
 2522 0cae 399A     		ldr	r2, [sp, #228]
 296:keccakf1600.c ****             BCi = ROL(Eku, 39);
 2523              		.loc 1 296 17 discriminator 3 view .LVU896
 2524 0cb0 610E     		lsrs	r1, r4, #25
 2525              		.loc 1 297 17 discriminator 3 view .LVU897
 2526 0cb2 029C     		ldr	r4, [sp, #8]
 296:keccakf1600.c ****             BCi = ROL(Eku, 39);
 2527              		.loc 1 296 17 discriminator 3 view .LVU898
 2528 0cb4 41EAC511 		orr	r1, r1, r5, lsl #7
 2529              		.loc 1 297 17 discriminator 3 view .LVU899
 2530 0cb8 6240     		eors	r2, r2, r4
 2531 0cba 039D     		ldr	r5, [sp, #12]
 2532 0cbc 3A9C     		ldr	r4, [sp, #232]
 2533 0cbe 84EA050A 		eor	r10, r4, r5
 298:keccakf1600.c ****             BCo = ROL(Ema, 41);
 2534              		.loc 1 298 17 discriminator 3 view .LVU900
 2535 0cc2 4FEADA54 		lsr	r4, r10, #23
 2536 0cc6 44EA4224 		orr	r4, r4, r2, lsl #9
 299:keccakf1600.c ****             Ese ^= De;
 2537              		.loc 1 299 17 discriminator 3 view .LVU901
 2538 0cca 049D     		ldr	r5, [sp, #16]
 298:keccakf1600.c ****             BCo = ROL(Ema, 41);
 2539              		.loc 1 298 17 discriminator 3 view .LVU902
 2540 0ccc D70D     		lsrs	r7, r2, #23
 2541              		.loc 1 299 17 discriminator 3 view .LVU903
 2542 0cce 359A     		ldr	r2, [sp, #212]
 2543 0cd0 82EA0509 		eor	r9, r2, r5
 2544 0cd4 369A     		ldr	r2, [sp, #216]
 2545 0cd6 059D     		ldr	r5, [sp, #20]
 294:keccakf1600.c ****             Eku ^= Du;
 2546              		.loc 1 294 17 discriminator 3 view .LVU904
 2547 0cd8 4FEA562E 		lsr	lr, r6, #9
 294:keccakf1600.c ****             Eku ^= Du;
 2548              		.loc 1 294 17 discriminator 3 view .LVU905
 2549 0cdc 4EEAC85E 		orr	lr, lr, r8, lsl #23
 298:keccakf1600.c ****             BCo = ROL(Ema, 41);
 2550              		.loc 1 298 17 discriminator 3 view .LVU906
 2551 0ce0 47EA4A27 		orr	r7, r7, r10, lsl #9
 294:keccakf1600.c ****             Eku ^= Du;
 2552              		.loc 1 294 17 discriminator 3 view .LVU907
 2553 0ce4 4FEA5828 		lsr	r8, r8, #9
 2554              		.loc 1 299 17 discriminator 3 view .LVU908
 2555 0ce8 82EA050A 		eor	r10, r2, r5
 294:keccakf1600.c ****             Eku ^= Du;
 2556              		.loc 1 294 17 discriminator 3 view .LVU909
 2557 0cec 48EAC658 		orr	r8, r8, r6, lsl #23
 2558              	.LVL324:
 295:keccakf1600.c ****             BCi = ROL(Eku, 39);
 2559              		.loc 1 295 13 is_stmt 1 discriminator 3 view .LVU910
 296:keccakf1600.c ****             Ema ^= Da;
 2560              		.loc 1 296 13 discriminator 3 view .LVU911
 297:keccakf1600.c ****             BCo = ROL(Ema, 41);
 2561              		.loc 1 297 13 discriminator 3 view .LVU912
 298:keccakf1600.c ****             Ese ^= De;
 2562              		.loc 1 298 13 discriminator 3 view .LVU913
 2563              		.loc 1 299 13 discriminator 3 view .LVU914
 300:keccakf1600.c ****             BCu = ROL(Ese, 2);
 2564              		.loc 1 300 13 discriminator 3 view .LVU915
 2565              		.loc 1 300 17 is_stmt 0 discriminator 3 view .LVU916
 2566 0cf0 4FEA8A06 		lsl	r6, r10, #2
 2567 0cf4 46EA9975 		orr	r5, r6, r9, lsr #30
 301:keccakf1600.c ****             Asa =   BCa ^((~BCe)&  BCi );
 2568              		.loc 1 301 33 discriminator 3 view .LVU917
 2569 0cf8 2BEA0E02 		bic	r2, fp, lr
 300:keccakf1600.c ****             BCu = ROL(Ese, 2);
 2570              		.loc 1 300 17 discriminator 3 view .LVU918
 2571 0cfc 4FEA8909 		lsl	r9, r9, #2
 2572 0d00 49EA9A7A 		orr	r10, r9, r10, lsr #30
 2573              	.LVL325:
 2574              		.loc 1 301 13 is_stmt 1 discriminator 3 view .LVU919
 2575              		.loc 1 301 17 is_stmt 0 discriminator 3 view .LVU920
 2576 0d04 82EA0C02 		eor	r2, r2, ip
 2577              		.loc 1 301 33 discriminator 3 view .LVU921
 2578 0d08 21EA0809 		bic	r9, r1, r8
 2579              		.loc 1 301 17 discriminator 3 view .LVU922
 2580 0d0c 0B92     		str	r2, [sp, #44]
 2581              	.LVL326:
 2582              		.loc 1 301 17 discriminator 3 view .LVU923
 2583 0d0e 89EA0302 		eor	r2, r9, r3
 2584 0d12 3492     		str	r2, [sp, #208]
 2585              	.LVL327:
 302:keccakf1600.c ****             Ase =   BCe ^((~BCi)&  BCo );
 2586              		.loc 1 302 13 is_stmt 1 discriminator 3 view .LVU924
 2587              		.loc 1 302 33 is_stmt 0 discriminator 3 view .LVU925
 2588 0d14 27EA0B06 		bic	r6, r7, fp
 2589 0d18 24EA0102 		bic	r2, r4, r1
 2590              	.LVL328:
 2591              		.loc 1 302 17 discriminator 3 view .LVU926
 2592 0d1c 86EA0E06 		eor	r6, r6, lr
 2593 0d20 82EA0802 		eor	r2, r2, r8
 2594 0d24 3596     		str	r6, [sp, #212]
 2595 0d26 3692     		str	r2, [sp, #216]
 2596              	.LVL329:
 303:keccakf1600.c ****             Asi =   BCi ^((~BCo)&  BCu );
 2597              		.loc 1 303 13 is_stmt 1 discriminator 3 view .LVU927
 2598              		.loc 1 303 33 is_stmt 0 discriminator 3 view .LVU928
 2599 0d28 2AEA0706 		bic	r6, r10, r7
 2600              	.LVL330:
 2601              		.loc 1 303 33 discriminator 3 view .LVU929
 2602 0d2c 25EA0402 		bic	r2, r5, r4
 2603              	.LVL331:
 2604              		.loc 1 303 17 discriminator 3 view .LVU930
 2605 0d30 4A40     		eors	r2, r2, r1
 2606 0d32 86EA0B06 		eor	r6, r6, fp
 304:keccakf1600.c ****             Aso =   BCo ^((~BCu)&  BCa );
 305:keccakf1600.c ****             Asu =   BCu ^((~BCa)&  BCe );
 2607              		.loc 1 305 33 discriminator 3 view .LVU931
 2608 0d36 2EEA0C0E 		bic	lr, lr, ip
 2609              	.LVL332:
 303:keccakf1600.c ****             Asi =   BCi ^((~BCo)&  BCu );
 2610              		.loc 1 303 17 discriminator 3 view .LVU932
 2611 0d3a 3796     		str	r6, [sp, #220]
 2612              	.LVL333:
 303:keccakf1600.c ****             Asi =   BCi ^((~BCo)&  BCu );
 2613              		.loc 1 303 17 discriminator 3 view .LVU933
 2614 0d3c 3892     		str	r2, [sp, #224]
 2615              	.LVL334:
 304:keccakf1600.c ****             Aso =   BCo ^((~BCu)&  BCa );
 2616              		.loc 1 304 13 is_stmt 1 discriminator 3 view .LVU934
 2617              		.loc 1 305 33 is_stmt 0 discriminator 3 view .LVU935
 2618 0d3e 28EA0306 		bic	r6, r8, r3
 2619              	.LVL335:
 304:keccakf1600.c ****             Aso =   BCo ^((~BCu)&  BCa );
 2620              		.loc 1 304 33 discriminator 3 view .LVU936
 2621 0d42 23EA0502 		bic	r2, r3, r5
 2622              	.LVL336:
 2623              		.loc 1 305 17 discriminator 3 view .LVU937
 2624 0d46 8EEA0A03 		eor	r3, lr, r10
 2625              	.LVL337:
 2626              		.loc 1 305 17 discriminator 3 view .LVU938
 2627 0d4a 3B93     		str	r3, [sp, #236]
 2628              	.LVL338:
 115:keccakf1600.c ****         {
 2629              		.loc 1 115 9 discriminator 3 view .LVU939
 2630 0d4c 019B     		ldr	r3, [sp, #4]
 2631 0d4e 1033     		adds	r3, r3, #16
 304:keccakf1600.c ****             Aso =   BCo ^((~BCu)&  BCa );
 2632              		.loc 1 304 17 discriminator 3 view .LVU940
 2633 0d50 6240     		eors	r2, r2, r4
 115:keccakf1600.c ****         {
 2634              		.loc 1 115 9 discriminator 3 view .LVU941
 2635 0d52 0193     		str	r3, [sp, #4]
 304:keccakf1600.c ****             Aso =   BCo ^((~BCu)&  BCa );
 2636              		.loc 1 304 17 discriminator 3 view .LVU942
 2637 0d54 3A92     		str	r2, [sp, #232]
 2638              	.LVL339:
 2639              		.loc 1 305 13 is_stmt 1 discriminator 3 view .LVU943
 115:keccakf1600.c ****         {
 2640              		.loc 1 115 9 is_stmt 0 discriminator 3 view .LVU944
 2641 0d56 404B     		ldr	r3, .L14
 2642 0d58 019A     		ldr	r2, [sp, #4]
 2643              	.LVL340:
 304:keccakf1600.c ****             Aso =   BCo ^((~BCu)&  BCa );
 2644              		.loc 1 304 33 discriminator 3 view .LVU945
 2645 0d5a 2CEA0A09 		bic	r9, ip, r10
 304:keccakf1600.c ****             Aso =   BCo ^((~BCu)&  BCa );
 2646              		.loc 1 304 17 discriminator 3 view .LVU946
 2647 0d5e 89EA0701 		eor	r1, r9, r7
 2648              	.LVL341:
 115:keccakf1600.c ****         {
 2649              		.loc 1 115 9 discriminator 3 view .LVU947
 2650 0d62 9342     		cmp	r3, r2
 304:keccakf1600.c ****             Aso =   BCo ^((~BCu)&  BCa );
 2651              		.loc 1 304 17 discriminator 3 view .LVU948
 2652 0d64 3991     		str	r1, [sp, #228]
 2653              	.LVL342:
 2654              		.loc 1 305 17 discriminator 3 view .LVU949
 2655 0d66 86EA0506 		eor	r6, r6, r5
 2656              	.LVL343:
 115:keccakf1600.c ****         {
 2657              		.loc 1 115 42 is_stmt 1 discriminator 3 view .LVU950
 115:keccakf1600.c ****         {
 2658              		.loc 1 115 25 discriminator 3 view .LVU951
 115:keccakf1600.c ****         {
 2659              		.loc 1 115 9 is_stmt 0 discriminator 3 view .LVU952
 2660 0d6a 7FF4C7A9 		bne	.L9
 306:keccakf1600.c ****         }
 307:keccakf1600.c **** 
 308:keccakf1600.c ****         //copyToState(state, A)
 309:keccakf1600.c ****         state[ 0] = Aba;
 2661              		.loc 1 309 9 is_stmt 1 view .LVU953
 2662              		.loc 1 309 19 is_stmt 0 view .LVU954
 2663 0d6e 0C9B     		ldr	r3, [sp, #48]
 2664 0d70 0360     		str	r3, [r0]
 2665 0d72 0D9B     		ldr	r3, [sp, #52]
 2666 0d74 4360     		str	r3, [r0, #4]
 310:keccakf1600.c ****         state[ 1] = Abe;
 2667              		.loc 1 310 9 is_stmt 1 view .LVU955
 2668              		.loc 1 310 19 is_stmt 0 view .LVU956
 2669 0d76 0E9B     		ldr	r3, [sp, #56]
 2670 0d78 8360     		str	r3, [r0, #8]
 2671 0d7a 0F9B     		ldr	r3, [sp, #60]
 2672 0d7c C360     		str	r3, [r0, #12]
 311:keccakf1600.c ****         state[ 2] = Abi;
 2673              		.loc 1 311 9 is_stmt 1 view .LVU957
 2674              		.loc 1 311 19 is_stmt 0 view .LVU958
 2675 0d7e 109B     		ldr	r3, [sp, #64]
 2676 0d80 0361     		str	r3, [r0, #16]
 2677 0d82 119B     		ldr	r3, [sp, #68]
 2678 0d84 4361     		str	r3, [r0, #20]
 312:keccakf1600.c ****         state[ 3] = Abo;
 2679              		.loc 1 312 9 is_stmt 1 view .LVU959
 2680              		.loc 1 312 19 is_stmt 0 view .LVU960
 2681 0d86 129B     		ldr	r3, [sp, #72]
 2682 0d88 8361     		str	r3, [r0, #24]
 2683 0d8a 139B     		ldr	r3, [sp, #76]
 2684 0d8c C361     		str	r3, [r0, #28]
 313:keccakf1600.c ****         state[ 4] = Abu;
 2685              		.loc 1 313 9 is_stmt 1 view .LVU961
 2686              		.loc 1 313 19 is_stmt 0 view .LVU962
 2687 0d8e 149B     		ldr	r3, [sp, #80]
 2688 0d90 0362     		str	r3, [r0, #32]
 2689 0d92 159B     		ldr	r3, [sp, #84]
 2690 0d94 4362     		str	r3, [r0, #36]
 314:keccakf1600.c ****         state[ 5] = Aga;
 2691              		.loc 1 314 9 is_stmt 1 view .LVU963
 2692              		.loc 1 314 19 is_stmt 0 view .LVU964
 2693 0d96 169B     		ldr	r3, [sp, #88]
 2694 0d98 8362     		str	r3, [r0, #40]
 2695 0d9a 179B     		ldr	r3, [sp, #92]
 2696 0d9c C362     		str	r3, [r0, #44]
 315:keccakf1600.c ****         state[ 6] = Age;
 2697              		.loc 1 315 9 is_stmt 1 view .LVU965
 2698              		.loc 1 315 19 is_stmt 0 view .LVU966
 2699 0d9e 189B     		ldr	r3, [sp, #96]
 2700 0da0 0363     		str	r3, [r0, #48]
 2701 0da2 199B     		ldr	r3, [sp, #100]
 2702 0da4 4363     		str	r3, [r0, #52]
 316:keccakf1600.c ****         state[ 7] = Agi;
 2703              		.loc 1 316 9 is_stmt 1 view .LVU967
 2704              		.loc 1 316 19 is_stmt 0 view .LVU968
 2705 0da6 1A9B     		ldr	r3, [sp, #104]
 2706 0da8 8363     		str	r3, [r0, #56]
 2707 0daa 1B9B     		ldr	r3, [sp, #108]
 2708 0dac C363     		str	r3, [r0, #60]
 317:keccakf1600.c ****         state[ 8] = Ago;
 2709              		.loc 1 317 9 is_stmt 1 view .LVU969
 2710              		.loc 1 317 19 is_stmt 0 view .LVU970
 2711 0dae 1C9B     		ldr	r3, [sp, #112]
 2712 0db0 0364     		str	r3, [r0, #64]
 2713 0db2 1D9B     		ldr	r3, [sp, #116]
 2714 0db4 4364     		str	r3, [r0, #68]
 318:keccakf1600.c ****         state[ 9] = Agu;
 2715              		.loc 1 318 9 is_stmt 1 view .LVU971
 2716              		.loc 1 318 19 is_stmt 0 view .LVU972
 2717 0db6 1E9B     		ldr	r3, [sp, #120]
 2718 0db8 8364     		str	r3, [r0, #72]
 2719 0dba 1F9B     		ldr	r3, [sp, #124]
 2720 0dbc C364     		str	r3, [r0, #76]
 319:keccakf1600.c ****         state[10] = Aka;
 2721              		.loc 1 319 9 is_stmt 1 view .LVU973
 2722              		.loc 1 319 19 is_stmt 0 view .LVU974
 2723 0dbe 209B     		ldr	r3, [sp, #128]
 2724 0dc0 0365     		str	r3, [r0, #80]
 2725 0dc2 219B     		ldr	r3, [sp, #132]
 2726 0dc4 4365     		str	r3, [r0, #84]
 320:keccakf1600.c ****         state[11] = Ake;
 2727              		.loc 1 320 9 is_stmt 1 view .LVU975
 2728              		.loc 1 320 19 is_stmt 0 view .LVU976
 2729 0dc6 229B     		ldr	r3, [sp, #136]
 2730 0dc8 8365     		str	r3, [r0, #88]
 2731 0dca 239B     		ldr	r3, [sp, #140]
 2732 0dcc C365     		str	r3, [r0, #92]
 321:keccakf1600.c ****         state[12] = Aki;
 2733              		.loc 1 321 9 is_stmt 1 view .LVU977
 2734              		.loc 1 321 19 is_stmt 0 view .LVU978
 2735 0dce 249B     		ldr	r3, [sp, #144]
 2736 0dd0 0366     		str	r3, [r0, #96]
 2737 0dd2 259B     		ldr	r3, [sp, #148]
 2738 0dd4 4366     		str	r3, [r0, #100]
 322:keccakf1600.c ****         state[13] = Ako;
 2739              		.loc 1 322 9 is_stmt 1 view .LVU979
 2740              		.loc 1 322 19 is_stmt 0 view .LVU980
 2741 0dd6 269B     		ldr	r3, [sp, #152]
 2742 0dd8 8366     		str	r3, [r0, #104]
 2743 0dda 279B     		ldr	r3, [sp, #156]
 2744 0ddc C366     		str	r3, [r0, #108]
 323:keccakf1600.c ****         state[14] = Aku;
 2745              		.loc 1 323 9 is_stmt 1 view .LVU981
 2746              		.loc 1 323 19 is_stmt 0 view .LVU982
 2747 0dde 289B     		ldr	r3, [sp, #160]
 2748 0de0 0367     		str	r3, [r0, #112]
 2749 0de2 299B     		ldr	r3, [sp, #164]
 2750 0de4 4367     		str	r3, [r0, #116]
 324:keccakf1600.c ****         state[15] = Ama;
 2751              		.loc 1 324 9 is_stmt 1 view .LVU983
 2752              		.loc 1 324 19 is_stmt 0 view .LVU984
 2753 0de6 2A9B     		ldr	r3, [sp, #168]
 2754 0de8 8367     		str	r3, [r0, #120]
 2755 0dea 2B9B     		ldr	r3, [sp, #172]
 2756 0dec C367     		str	r3, [r0, #124]
 325:keccakf1600.c ****         state[16] = Ame;
 2757              		.loc 1 325 9 is_stmt 1 view .LVU985
 2758              		.loc 1 325 19 is_stmt 0 view .LVU986
 2759 0dee 2C9B     		ldr	r3, [sp, #176]
 2760 0df0 C0F88030 		str	r3, [r0, #128]
 2761 0df4 2D9B     		ldr	r3, [sp, #180]
 2762 0df6 C0F88430 		str	r3, [r0, #132]
 326:keccakf1600.c ****         state[17] = Ami;
 2763              		.loc 1 326 9 is_stmt 1 view .LVU987
 2764              		.loc 1 326 19 is_stmt 0 view .LVU988
 2765 0dfa 2E9B     		ldr	r3, [sp, #184]
 2766 0dfc C0F88830 		str	r3, [r0, #136]
 2767 0e00 2F9B     		ldr	r3, [sp, #188]
 2768 0e02 C0F88C30 		str	r3, [r0, #140]
 327:keccakf1600.c ****         state[18] = Amo;
 2769              		.loc 1 327 9 is_stmt 1 view .LVU989
 2770              		.loc 1 327 19 is_stmt 0 view .LVU990
 2771 0e06 309B     		ldr	r3, [sp, #192]
 2772 0e08 C0F89030 		str	r3, [r0, #144]
 2773 0e0c 319B     		ldr	r3, [sp, #196]
 2774 0e0e C0F89430 		str	r3, [r0, #148]
 328:keccakf1600.c ****         state[19] = Amu;
 2775              		.loc 1 328 9 is_stmt 1 view .LVU991
 2776              		.loc 1 328 19 is_stmt 0 view .LVU992
 2777 0e12 329B     		ldr	r3, [sp, #200]
 2778 0e14 C0F89830 		str	r3, [r0, #152]
 2779 0e18 339B     		ldr	r3, [sp, #204]
 2780 0e1a C0F89C30 		str	r3, [r0, #156]
 329:keccakf1600.c ****         state[20] = Asa;
 2781              		.loc 1 329 9 is_stmt 1 view .LVU993
 2782              		.loc 1 329 19 is_stmt 0 view .LVU994
 2783 0e1e 0B9B     		ldr	r3, [sp, #44]
 2784 0e20 C0F8A030 		str	r3, [r0, #160]
 2785 0e24 349B     		ldr	r3, [sp, #208]
 2786 0e26 C0F8A430 		str	r3, [r0, #164]
 330:keccakf1600.c ****         state[21] = Ase;
 2787              		.loc 1 330 9 is_stmt 1 view .LVU995
 2788              		.loc 1 330 19 is_stmt 0 view .LVU996
 2789 0e2a 359B     		ldr	r3, [sp, #212]
 2790 0e2c C0F8A830 		str	r3, [r0, #168]
 2791 0e30 369B     		ldr	r3, [sp, #216]
 2792 0e32 C0F8AC30 		str	r3, [r0, #172]
 331:keccakf1600.c ****         state[22] = Asi;
 2793              		.loc 1 331 9 is_stmt 1 view .LVU997
 2794              		.loc 1 331 19 is_stmt 0 view .LVU998
 2795 0e36 379B     		ldr	r3, [sp, #220]
 2796 0e38 C0F8B030 		str	r3, [r0, #176]
 2797 0e3c 389B     		ldr	r3, [sp, #224]
 2798 0e3e C0F8B430 		str	r3, [r0, #180]
 332:keccakf1600.c ****         state[23] = Aso;
 2799              		.loc 1 332 9 is_stmt 1 view .LVU999
 2800              		.loc 1 332 19 is_stmt 0 view .LVU1000
 2801 0e42 3A9B     		ldr	r3, [sp, #232]
 2802 0e44 C0F8BC30 		str	r3, [r0, #188]
 333:keccakf1600.c ****         state[24] = Asu;
 2803              		.loc 1 333 9 is_stmt 1 view .LVU1001
 2804              		.loc 1 333 19 is_stmt 0 view .LVU1002
 2805 0e48 3B9B     		ldr	r3, [sp, #236]
 332:keccakf1600.c ****         state[23] = Aso;
 2806              		.loc 1 332 19 view .LVU1003
 2807 0e4a C0F8B810 		str	r1, [r0, #184]
 2808              		.loc 1 333 19 view .LVU1004
 2809 0e4e C0E93036 		strd	r3, r6, [r0, #192]
 334:keccakf1600.c **** 
 335:keccakf1600.c ****         #undef    round
 336:keccakf1600.c **** }
 2810              		.loc 1 336 1 view .LVU1005
 2811 0e52 3FB0     		add	sp, sp, #252
 2812              	.LCFI5:
 2813              		.cfi_def_cfa_offset 36
 2814              		@ sp needed
 2815 0e54 BDE8F08F 		pop	{r4, r5, r6, r7, r8, r9, r10, fp, pc}
 2816              	.LVL344:
 2817              	.L15:
 2818              		.loc 1 336 1 view .LVU1006
 2819              		.align	2
 2820              	.L14:
 2821 0e58 C0000000 		.word	.LANCHOR0+192
 2822              		.cfi_endproc
 2823              	.LFE3:
 2825              		.section	.rodata
 2826              		.align	3
 2827              		.set	.LANCHOR0,. + 0
 2830              	KeccakF_RoundConstants:
 2831 0000 01000000 		.word	1
 2832 0004 00000000 		.word	0
 2833 0008 82800000 		.word	32898
 2834 000c 00000000 		.word	0
 2835 0010 8A800000 		.word	32906
 2836 0014 00000080 		.word	-2147483648
 2837 0018 00800080 		.word	-2147450880
 2838 001c 00000080 		.word	-2147483648
 2839 0020 8B800000 		.word	32907
 2840 0024 00000000 		.word	0
 2841 0028 01000080 		.word	-2147483647
 2842 002c 00000000 		.word	0
 2843 0030 81800080 		.word	-2147450751
 2844 0034 00000080 		.word	-2147483648
 2845 0038 09800000 		.word	32777
 2846 003c 00000080 		.word	-2147483648
 2847 0040 8A000000 		.word	138
 2848 0044 00000000 		.word	0
 2849 0048 88000000 		.word	136
 2850 004c 00000000 		.word	0
 2851 0050 09800080 		.word	-2147450871
 2852 0054 00000000 		.word	0
 2853 0058 0A000080 		.word	-2147483638
 2854 005c 00000000 		.word	0
 2855 0060 8B800080 		.word	-2147450741
 2856 0064 00000000 		.word	0
 2857 0068 8B000000 		.word	139
 2858 006c 00000080 		.word	-2147483648
 2859 0070 89800000 		.word	32905
 2860 0074 00000080 		.word	-2147483648
 2861 0078 03800000 		.word	32771
 2862 007c 00000080 		.word	-2147483648
 2863 0080 02800000 		.word	32770
 2864 0084 00000080 		.word	-2147483648
 2865 0088 80000000 		.word	128
 2866 008c 00000080 		.word	-2147483648
 2867 0090 0A800000 		.word	32778
 2868 0094 00000000 		.word	0
 2869 0098 0A000080 		.word	-2147483638
 2870 009c 00000080 		.word	-2147483648
 2871 00a0 81800080 		.word	-2147450751
 2872 00a4 00000080 		.word	-2147483648
 2873 00a8 80800000 		.word	32896
 2874 00ac 00000080 		.word	-2147483648
 2875 00b0 01000080 		.word	-2147483647
 2876 00b4 00000000 		.word	0
 2877 00b8 08800080 		.word	-2147450872
 2878 00bc 00000080 		.word	-2147483648
 2879              		.text
 2880              	.Letext0:
 2881              		.file 2 "d:\\cw_software\\chipwhisperer5_64\\cw\\home\\portable\\armgcc\\arm-none-eabi\\include\\m
 2882              		.file 3 "d:\\cw_software\\chipwhisperer5_64\\cw\\home\\portable\\armgcc\\arm-none-eabi\\include\\s