   1              		.cpu cortex-m4
   2              		.eabi_attribute 20, 1
   3              		.eabi_attribute 21, 1
   4              		.eabi_attribute 23, 3
   5              		.eabi_attribute 24, 1
   6              		.eabi_attribute 25, 1
   7              		.eabi_attribute 26, 1
   8              		.eabi_attribute 30, 4
   9              		.eabi_attribute 34, 1
  10              		.eabi_attribute 18, 4
  11              		.file	"fips202.c"
  12              		.text
  13              	.Ltext0:
  14              		.cfi_sections	.debug_frame
  15              		.section	.text.load64,"ax",%progbits
  16              		.align	1
  17              		.arch armv7e-m
  18              		.syntax unified
  19              		.thumb
  20              		.thumb_func
  21              		.fpu softvfp
  23              	load64:
  24              	.LVL0:
  25              	.LFB0:
  26              		.file 1 "fips202.c"
   1:fips202.c     **** /* Based on the public domain implementation in
   2:fips202.c     ****  * crypto_hash/keccakc512/simple/ from http://bench.cr.yp.to/supercop.html
   3:fips202.c     ****  * by Ronny Van Keer
   4:fips202.c     ****  * and the public domain "TweetFips202" implementation
   5:fips202.c     ****  * from https://twitter.com/tweetfips202
   6:fips202.c     ****  * by Gilles Van Assche, Daniel J. Bernstein, and Peter Schwabe */
   7:fips202.c     **** 
   8:fips202.c     **** #include <stddef.h>
   9:fips202.c     **** #include <stdint.h>
  10:fips202.c     **** #include "fips202.h"
  11:fips202.c     **** 
  12:fips202.c     **** #define NROUNDS 24
  13:fips202.c     **** #define ROL(a, offset) ((a << offset) ^ (a >> (64-offset)))
  14:fips202.c     **** 
  15:fips202.c     **** /*************************************************
  16:fips202.c     **** * Name:        load64
  17:fips202.c     **** *
  18:fips202.c     **** * Description: Load 8 bytes into uint64_t in little-endian order
  19:fips202.c     **** *
  20:fips202.c     **** * Arguments:   - const uint8_t *x: pointer to input byte array
  21:fips202.c     **** *
  22:fips202.c     **** * Returns the loaded 64-bit unsigned integer
  23:fips202.c     **** **************************************************/
  24:fips202.c     **** static uint64_t load64(const uint8_t x[8]) {
  27              		.loc 1 24 44 view -0
  28              		.cfi_startproc
  29              		@ args = 0, pretend = 0, frame = 0
  30              		@ frame_needed = 0, uses_anonymous_args = 0
  25:fips202.c     ****   unsigned int i;
  31              		.loc 1 25 3 view .LVU1
  26:fips202.c     ****   uint64_t r = 0;
  32              		.loc 1 26 3 view .LVU2
  27:fips202.c     **** 
  28:fips202.c     ****   for(i=0;i<8;i++)
  33              		.loc 1 28 3 view .LVU3
  34              		.loc 1 28 11 view .LVU4
  24:fips202.c     ****   unsigned int i;
  35              		.loc 1 24 44 is_stmt 0 view .LVU5
  36 0000 0023     		movs	r3, #0
  37 0002 70B5     		push	{r4, r5, r6, lr}
  38              	.LCFI0:
  39              		.cfi_def_cfa_offset 16
  40              		.cfi_offset 4, -16
  41              		.cfi_offset 5, -12
  42              		.cfi_offset 6, -8
  43              		.cfi_offset 14, -4
  26:fips202.c     ****   uint64_t r = 0;
  44              		.loc 1 26 12 view .LVU6
  45 0004 1946     		mov	r1, r3
  46 0006 451E     		subs	r5, r0, #1
  47 0008 1846     		mov	r0, r3
  48              	.LVL1:
  49              	.L2:
  29:fips202.c     ****     r |= (uint64_t)x[i] << 8*i;
  50              		.loc 1 29 5 is_stmt 1 discriminator 3 view .LVU7
  51              		.loc 1 29 10 is_stmt 0 discriminator 3 view .LVU8
  52 000a 15F8014F 		ldrb	r4, [r5, #1]!	@ zero_extendqisi2
  53              	.LVL2:
  54              		.loc 1 29 25 discriminator 3 view .LVU9
  55 000e A3F12002 		sub	r2, r3, #32
  56 0012 C3F12006 		rsb	r6, r3, #32
  57 0016 04FA02F2 		lsl	r2, r4, r2
  58 001a 24FA06F6 		lsr	r6, r4, r6
  59 001e 9C40     		lsls	r4, r4, r3
  28:fips202.c     ****     r |= (uint64_t)x[i] << 8*i;
  60              		.loc 1 28 3 discriminator 3 view .LVU10
  61 0020 0833     		adds	r3, r3, #8
  62              		.loc 1 29 25 discriminator 3 view .LVU11
  63 0022 3243     		orrs	r2, r2, r6
  28:fips202.c     ****     r |= (uint64_t)x[i] << 8*i;
  64              		.loc 1 28 3 discriminator 3 view .LVU12
  65 0024 402B     		cmp	r3, #64
  66              		.loc 1 29 7 discriminator 3 view .LVU13
  67 0026 40EA0400 		orr	r0, r0, r4
  68              	.LVL3:
  69              		.loc 1 29 7 discriminator 3 view .LVU14
  70 002a 41EA0201 		orr	r1, r1, r2
  71              	.LVL4:
  28:fips202.c     ****     r |= (uint64_t)x[i] << 8*i;
  72              		.loc 1 28 15 is_stmt 1 discriminator 3 view .LVU15
  28:fips202.c     ****     r |= (uint64_t)x[i] << 8*i;
  73              		.loc 1 28 11 discriminator 3 view .LVU16
  28:fips202.c     ****     r |= (uint64_t)x[i] << 8*i;
  74              		.loc 1 28 3 is_stmt 0 discriminator 3 view .LVU17
  75 002e ECD1     		bne	.L2
  30:fips202.c     **** 
  31:fips202.c     ****   return r;
  76              		.loc 1 31 3 is_stmt 1 view .LVU18
  32:fips202.c     **** }
  77              		.loc 1 32 1 is_stmt 0 view .LVU19
  78 0030 70BD     		pop	{r4, r5, r6, pc}
  79              		.loc 1 32 1 view .LVU20
  80              		.cfi_endproc
  81              	.LFE0:
  83              		.section	.text.store64,"ax",%progbits
  84              		.align	1
  85              		.syntax unified
  86              		.thumb
  87              		.thumb_func
  88              		.fpu softvfp
  90              	store64:
  91              	.LVL5:
  92              	.LFB1:
  33:fips202.c     **** 
  34:fips202.c     **** /*************************************************
  35:fips202.c     **** * Name:        store64
  36:fips202.c     **** *
  37:fips202.c     **** * Description: Store a 64-bit integer to array of 8 bytes in little-endian order
  38:fips202.c     **** *
  39:fips202.c     **** * Arguments:   - uint8_t *x: pointer to the output byte array (allocated)
  40:fips202.c     **** *              - uint64_t u: input 64-bit unsigned integer
  41:fips202.c     **** **************************************************/
  42:fips202.c     **** static void store64(uint8_t x[8], uint64_t u) {
  93              		.loc 1 42 47 is_stmt 1 view -0
  94              		.cfi_startproc
  95              		@ args = 0, pretend = 0, frame = 0
  96              		@ frame_needed = 0, uses_anonymous_args = 0
  43:fips202.c     ****   unsigned int i;
  97              		.loc 1 43 3 view .LVU22
  44:fips202.c     **** 
  45:fips202.c     ****   for(i=0;i<8;i++)
  98              		.loc 1 45 3 view .LVU23
  99              		.loc 1 45 11 view .LVU24
  42:fips202.c     ****   unsigned int i;
 100              		.loc 1 42 47 is_stmt 0 view .LVU25
 101 0000 70B5     		push	{r4, r5, r6, lr}
 102              	.LCFI1:
 103              		.cfi_def_cfa_offset 16
 104              		.cfi_offset 4, -16
 105              		.cfi_offset 5, -12
 106              		.cfi_offset 6, -8
 107              		.cfi_offset 14, -4
 108 0002 0138     		subs	r0, r0, #1
 109              	.LVL6:
  42:fips202.c     ****   unsigned int i;
 110              		.loc 1 42 47 view .LVU26
 111 0004 0021     		movs	r1, #0
 112              	.LVL7:
 113              	.L5:
  46:fips202.c     ****     x[i] = u >> 8*i;
 114              		.loc 1 46 5 is_stmt 1 discriminator 3 view .LVU27
 115              		.loc 1 46 14 is_stmt 0 discriminator 3 view .LVU28
 116 0006 C1F12006 		rsb	r6, r1, #32
 117 000a A1F12005 		sub	r5, r1, #32
 118 000e 22FA01F4 		lsr	r4, r2, r1
 119 0012 03FA06F6 		lsl	r6, r3, r6
 120 0016 3443     		orrs	r4, r4, r6
 121 0018 23FA05F5 		lsr	r5, r3, r5
  45:fips202.c     ****     x[i] = u >> 8*i;
 122              		.loc 1 45 3 discriminator 3 view .LVU29
 123 001c 0831     		adds	r1, r1, #8
 124              		.loc 1 46 14 discriminator 3 view .LVU30
 125 001e 2C43     		orrs	r4, r4, r5
  45:fips202.c     ****     x[i] = u >> 8*i;
 126              		.loc 1 45 3 discriminator 3 view .LVU31
 127 0020 4029     		cmp	r1, #64
 128              		.loc 1 46 10 discriminator 3 view .LVU32
 129 0022 00F8014F 		strb	r4, [r0, #1]!
 130              	.LVL8:
  45:fips202.c     ****     x[i] = u >> 8*i;
 131              		.loc 1 45 15 is_stmt 1 discriminator 3 view .LVU33
  45:fips202.c     ****     x[i] = u >> 8*i;
 132              		.loc 1 45 11 discriminator 3 view .LVU34
  45:fips202.c     ****     x[i] = u >> 8*i;
 133              		.loc 1 45 3 is_stmt 0 discriminator 3 view .LVU35
 134 0026 EED1     		bne	.L5
  47:fips202.c     **** }
 135              		.loc 1 47 1 view .LVU36
 136 0028 70BD     		pop	{r4, r5, r6, pc}
 137              		.cfi_endproc
 138              	.LFE1:
 140              		.section	.text.KeccakF1600_StatePermute,"ax",%progbits
 141              		.align	1
 142              		.syntax unified
 143              		.thumb
 144              		.thumb_func
 145              		.fpu softvfp
 147              	KeccakF1600_StatePermute:
 148              	.LVL9:
 149              	.LFB2:
  48:fips202.c     **** 
  49:fips202.c     **** /* Keccak round constants */
  50:fips202.c     **** static const uint64_t KeccakF_RoundConstants[NROUNDS] = {
  51:fips202.c     ****   (uint64_t)0x0000000000000001ULL,
  52:fips202.c     ****   (uint64_t)0x0000000000008082ULL,
  53:fips202.c     ****   (uint64_t)0x800000000000808aULL,
  54:fips202.c     ****   (uint64_t)0x8000000080008000ULL,
  55:fips202.c     ****   (uint64_t)0x000000000000808bULL,
  56:fips202.c     ****   (uint64_t)0x0000000080000001ULL,
  57:fips202.c     ****   (uint64_t)0x8000000080008081ULL,
  58:fips202.c     ****   (uint64_t)0x8000000000008009ULL,
  59:fips202.c     ****   (uint64_t)0x000000000000008aULL,
  60:fips202.c     ****   (uint64_t)0x0000000000000088ULL,
  61:fips202.c     ****   (uint64_t)0x0000000080008009ULL,
  62:fips202.c     ****   (uint64_t)0x000000008000000aULL,
  63:fips202.c     ****   (uint64_t)0x000000008000808bULL,
  64:fips202.c     ****   (uint64_t)0x800000000000008bULL,
  65:fips202.c     ****   (uint64_t)0x8000000000008089ULL,
  66:fips202.c     ****   (uint64_t)0x8000000000008003ULL,
  67:fips202.c     ****   (uint64_t)0x8000000000008002ULL,
  68:fips202.c     ****   (uint64_t)0x8000000000000080ULL,
  69:fips202.c     ****   (uint64_t)0x000000000000800aULL,
  70:fips202.c     ****   (uint64_t)0x800000008000000aULL,
  71:fips202.c     ****   (uint64_t)0x8000000080008081ULL,
  72:fips202.c     ****   (uint64_t)0x8000000000008080ULL,
  73:fips202.c     ****   (uint64_t)0x0000000080000001ULL,
  74:fips202.c     ****   (uint64_t)0x8000000080008008ULL
  75:fips202.c     **** };
  76:fips202.c     **** 
  77:fips202.c     **** /*************************************************
  78:fips202.c     **** * Name:        KeccakF1600_StatePermute
  79:fips202.c     **** *
  80:fips202.c     **** * Description: The Keccak F1600 Permutation
  81:fips202.c     **** *
  82:fips202.c     **** * Arguments:   - uint64_t *state: pointer to input/output Keccak state
  83:fips202.c     **** **************************************************/
  84:fips202.c     **** static void KeccakF1600_StatePermute(uint64_t state[25])
  85:fips202.c     **** {
 150              		.loc 1 85 1 is_stmt 1 view -0
 151              		.cfi_startproc
 152              		@ args = 0, pretend = 0, frame = 248
 153              		@ frame_needed = 0, uses_anonymous_args = 0
  86:fips202.c     ****         int round;
 154              		.loc 1 86 9 view .LVU38
  87:fips202.c     **** 
  88:fips202.c     ****         uint64_t Aba, Abe, Abi, Abo, Abu;
 155              		.loc 1 88 9 view .LVU39
  89:fips202.c     ****         uint64_t Aga, Age, Agi, Ago, Agu;
 156              		.loc 1 89 9 view .LVU40
  90:fips202.c     ****         uint64_t Aka, Ake, Aki, Ako, Aku;
 157              		.loc 1 90 9 view .LVU41
  91:fips202.c     ****         uint64_t Ama, Ame, Ami, Amo, Amu;
 158              		.loc 1 91 9 view .LVU42
  92:fips202.c     ****         uint64_t Asa, Ase, Asi, Aso, Asu;
 159              		.loc 1 92 9 view .LVU43
  93:fips202.c     ****         uint64_t BCa, BCe, BCi, BCo, BCu;
 160              		.loc 1 93 9 view .LVU44
  94:fips202.c     ****         uint64_t Da, De, Di, Do, Du;
 161              		.loc 1 94 9 view .LVU45
  95:fips202.c     ****         uint64_t Eba, Ebe, Ebi, Ebo, Ebu;
 162              		.loc 1 95 9 view .LVU46
  96:fips202.c     ****         uint64_t Ega, Ege, Egi, Ego, Egu;
 163              		.loc 1 96 9 view .LVU47
  97:fips202.c     ****         uint64_t Eka, Eke, Eki, Eko, Eku;
 164              		.loc 1 97 9 view .LVU48
  98:fips202.c     ****         uint64_t Ema, Eme, Emi, Emo, Emu;
 165              		.loc 1 98 9 view .LVU49
  99:fips202.c     ****         uint64_t Esa, Ese, Esi, Eso, Esu;
 166              		.loc 1 99 9 view .LVU50
 100:fips202.c     **** 
 101:fips202.c     ****         //copyFromState(A, state)
 102:fips202.c     ****         Aba = state[ 0];
 167              		.loc 1 102 9 view .LVU51
  85:fips202.c     ****         int round;
 168              		.loc 1 85 1 is_stmt 0 view .LVU52
 169 0000 2DE9F04F 		push	{r4, r5, r6, r7, r8, r9, r10, fp, lr}
 170              	.LCFI2:
 171              		.cfi_def_cfa_offset 36
 172              		.cfi_offset 4, -36
 173              		.cfi_offset 5, -32
 174              		.cfi_offset 6, -28
 175              		.cfi_offset 7, -24
 176              		.cfi_offset 8, -20
 177              		.cfi_offset 9, -16
 178              		.cfi_offset 10, -12
 179              		.cfi_offset 11, -8
 180              		.cfi_offset 14, -4
 181 0004 BFB0     		sub	sp, sp, #252
 182              	.LCFI3:
 183              		.cfi_def_cfa_offset 288
 184              		.loc 1 102 13 view .LVU53
 185 0006 0368     		ldr	r3, [r0]
 186 0008 0C93     		str	r3, [sp, #48]
 187 000a 4368     		ldr	r3, [r0, #4]
 188 000c 0D93     		str	r3, [sp, #52]
 189              	.LVL10:
 103:fips202.c     ****         Abe = state[ 1];
 190              		.loc 1 103 9 is_stmt 1 view .LVU54
 191              		.loc 1 103 13 is_stmt 0 view .LVU55
 192 000e 8368     		ldr	r3, [r0, #8]
 193              	.LVL11:
 194              		.loc 1 103 13 view .LVU56
 195 0010 0E93     		str	r3, [sp, #56]
 196 0012 C368     		ldr	r3, [r0, #12]
 197 0014 0F93     		str	r3, [sp, #60]
 198              	.LVL12:
 104:fips202.c     ****         Abi = state[ 2];
 199              		.loc 1 104 9 is_stmt 1 view .LVU57
 200              		.loc 1 104 13 is_stmt 0 view .LVU58
 201 0016 0369     		ldr	r3, [r0, #16]
 202              	.LVL13:
 203              		.loc 1 104 13 view .LVU59
 204 0018 1093     		str	r3, [sp, #64]
 205 001a 4369     		ldr	r3, [r0, #20]
 206 001c 1193     		str	r3, [sp, #68]
 207              	.LVL14:
 105:fips202.c     ****         Abo = state[ 3];
 208              		.loc 1 105 9 is_stmt 1 view .LVU60
 209              		.loc 1 105 13 is_stmt 0 view .LVU61
 210 001e 8369     		ldr	r3, [r0, #24]
 211              	.LVL15:
 212              		.loc 1 105 13 view .LVU62
 213 0020 1293     		str	r3, [sp, #72]
 214 0022 C369     		ldr	r3, [r0, #28]
 215 0024 1393     		str	r3, [sp, #76]
 216              	.LVL16:
 106:fips202.c     ****         Abu = state[ 4];
 217              		.loc 1 106 9 is_stmt 1 view .LVU63
 218              		.loc 1 106 13 is_stmt 0 view .LVU64
 219 0026 036A     		ldr	r3, [r0, #32]
 220              	.LVL17:
 221              		.loc 1 106 13 view .LVU65
 222 0028 1493     		str	r3, [sp, #80]
 223 002a 436A     		ldr	r3, [r0, #36]
 224 002c 1593     		str	r3, [sp, #84]
 225              	.LVL18:
 107:fips202.c     ****         Aga = state[ 5];
 226              		.loc 1 107 9 is_stmt 1 view .LVU66
 227              		.loc 1 107 13 is_stmt 0 view .LVU67
 228 002e 836A     		ldr	r3, [r0, #40]
 229              	.LVL19:
 230              		.loc 1 107 13 view .LVU68
 231 0030 1693     		str	r3, [sp, #88]
 232 0032 C36A     		ldr	r3, [r0, #44]
 233 0034 1793     		str	r3, [sp, #92]
 234              	.LVL20:
 108:fips202.c     ****         Age = state[ 6];
 235              		.loc 1 108 9 is_stmt 1 view .LVU69
 236              		.loc 1 108 13 is_stmt 0 view .LVU70
 237 0036 036B     		ldr	r3, [r0, #48]
 238              	.LVL21:
 239              		.loc 1 108 13 view .LVU71
 240 0038 1893     		str	r3, [sp, #96]
 241 003a 436B     		ldr	r3, [r0, #52]
 242 003c 1993     		str	r3, [sp, #100]
 243              	.LVL22:
 109:fips202.c     ****         Agi = state[ 7];
 244              		.loc 1 109 9 is_stmt 1 view .LVU72
 245              		.loc 1 109 13 is_stmt 0 view .LVU73
 246 003e 836B     		ldr	r3, [r0, #56]
 247              	.LVL23:
 248              		.loc 1 109 13 view .LVU74
 249 0040 1A93     		str	r3, [sp, #104]
 250 0042 C36B     		ldr	r3, [r0, #60]
 251 0044 1B93     		str	r3, [sp, #108]
 252              	.LVL24:
 110:fips202.c     ****         Ago = state[ 8];
 253              		.loc 1 110 9 is_stmt 1 view .LVU75
 254              		.loc 1 110 13 is_stmt 0 view .LVU76
 255 0046 036C     		ldr	r3, [r0, #64]
 256              	.LVL25:
 257              		.loc 1 110 13 view .LVU77
 258 0048 1C93     		str	r3, [sp, #112]
 259 004a 436C     		ldr	r3, [r0, #68]
 260 004c 1D93     		str	r3, [sp, #116]
 261              	.LVL26:
 111:fips202.c     ****         Agu = state[ 9];
 262              		.loc 1 111 9 is_stmt 1 view .LVU78
 263              		.loc 1 111 13 is_stmt 0 view .LVU79
 264 004e 836C     		ldr	r3, [r0, #72]
 265              	.LVL27:
 266              		.loc 1 111 13 view .LVU80
 267 0050 1E93     		str	r3, [sp, #120]
 268 0052 C36C     		ldr	r3, [r0, #76]
 269 0054 1F93     		str	r3, [sp, #124]
 270              	.LVL28:
 112:fips202.c     ****         Aka = state[10];
 271              		.loc 1 112 9 is_stmt 1 view .LVU81
 272              		.loc 1 112 13 is_stmt 0 view .LVU82
 273 0056 036D     		ldr	r3, [r0, #80]
 274              	.LVL29:
 275              		.loc 1 112 13 view .LVU83
 276 0058 2093     		str	r3, [sp, #128]
 277 005a 436D     		ldr	r3, [r0, #84]
 278 005c 2193     		str	r3, [sp, #132]
 279              	.LVL30:
 113:fips202.c     ****         Ake = state[11];
 280              		.loc 1 113 9 is_stmt 1 view .LVU84
 281              		.loc 1 113 13 is_stmt 0 view .LVU85
 282 005e 836D     		ldr	r3, [r0, #88]
 283              	.LVL31:
 284              		.loc 1 113 13 view .LVU86
 285 0060 2293     		str	r3, [sp, #136]
 286 0062 C36D     		ldr	r3, [r0, #92]
 287 0064 2393     		str	r3, [sp, #140]
 288              	.LVL32:
 114:fips202.c     ****         Aki = state[12];
 289              		.loc 1 114 9 is_stmt 1 view .LVU87
 290              		.loc 1 114 13 is_stmt 0 view .LVU88
 291 0066 036E     		ldr	r3, [r0, #96]
 292              	.LVL33:
 293              		.loc 1 114 13 view .LVU89
 294 0068 2493     		str	r3, [sp, #144]
 295 006a 436E     		ldr	r3, [r0, #100]
 296 006c 2593     		str	r3, [sp, #148]
 297              	.LVL34:
 115:fips202.c     ****         Ako = state[13];
 298              		.loc 1 115 9 is_stmt 1 view .LVU90
 299              		.loc 1 115 13 is_stmt 0 view .LVU91
 300 006e 836E     		ldr	r3, [r0, #104]
 301              	.LVL35:
 302              		.loc 1 115 13 view .LVU92
 303 0070 2693     		str	r3, [sp, #152]
 304 0072 C36E     		ldr	r3, [r0, #108]
 305 0074 2793     		str	r3, [sp, #156]
 306              	.LVL36:
 116:fips202.c     ****         Aku = state[14];
 307              		.loc 1 116 9 is_stmt 1 view .LVU93
 308              		.loc 1 116 13 is_stmt 0 view .LVU94
 309 0076 036F     		ldr	r3, [r0, #112]
 310              	.LVL37:
 311              		.loc 1 116 13 view .LVU95
 312 0078 2893     		str	r3, [sp, #160]
 313 007a 436F     		ldr	r3, [r0, #116]
 314 007c 2993     		str	r3, [sp, #164]
 315              	.LVL38:
 117:fips202.c     ****         Ama = state[15];
 316              		.loc 1 117 9 is_stmt 1 view .LVU96
 317              		.loc 1 117 13 is_stmt 0 view .LVU97
 318 007e 836F     		ldr	r3, [r0, #120]
 319              	.LVL39:
 320              		.loc 1 117 13 view .LVU98
 321 0080 2A93     		str	r3, [sp, #168]
 322 0082 C36F     		ldr	r3, [r0, #124]
 323 0084 2B93     		str	r3, [sp, #172]
 324              	.LVL40:
 118:fips202.c     ****         Ame = state[16];
 325              		.loc 1 118 9 is_stmt 1 view .LVU99
 326              		.loc 1 118 13 is_stmt 0 view .LVU100
 327 0086 D0F88030 		ldr	r3, [r0, #128]
 328              	.LVL41:
 329              		.loc 1 118 13 view .LVU101
 330 008a 2C93     		str	r3, [sp, #176]
 331 008c D0F88430 		ldr	r3, [r0, #132]
 332 0090 2D93     		str	r3, [sp, #180]
 333              	.LVL42:
 119:fips202.c     ****         Ami = state[17];
 334              		.loc 1 119 9 is_stmt 1 view .LVU102
 335              		.loc 1 119 13 is_stmt 0 view .LVU103
 336 0092 D0F88830 		ldr	r3, [r0, #136]
 337              	.LVL43:
 338              		.loc 1 119 13 view .LVU104
 339 0096 2E93     		str	r3, [sp, #184]
 340 0098 D0F88C30 		ldr	r3, [r0, #140]
 341 009c 2F93     		str	r3, [sp, #188]
 342              	.LVL44:
 120:fips202.c     ****         Amo = state[18];
 343              		.loc 1 120 9 is_stmt 1 view .LVU105
 344              		.loc 1 120 13 is_stmt 0 view .LVU106
 345 009e D0F89030 		ldr	r3, [r0, #144]
 346              	.LVL45:
 347              		.loc 1 120 13 view .LVU107
 348 00a2 3093     		str	r3, [sp, #192]
 349 00a4 D0F89430 		ldr	r3, [r0, #148]
 350 00a8 3193     		str	r3, [sp, #196]
 351              	.LVL46:
 121:fips202.c     ****         Amu = state[19];
 352              		.loc 1 121 9 is_stmt 1 view .LVU108
 353              		.loc 1 121 13 is_stmt 0 view .LVU109
 354 00aa D0F89830 		ldr	r3, [r0, #152]
 355              	.LVL47:
 356              		.loc 1 121 13 view .LVU110
 357 00ae 3293     		str	r3, [sp, #200]
 358 00b0 D0F89C30 		ldr	r3, [r0, #156]
 359 00b4 3393     		str	r3, [sp, #204]
 360              	.LVL48:
 122:fips202.c     ****         Asa = state[20];
 361              		.loc 1 122 9 is_stmt 1 view .LVU111
 362              		.loc 1 122 13 is_stmt 0 view .LVU112
 363 00b6 D0F8A030 		ldr	r3, [r0, #160]
 364              	.LVL49:
 365              		.loc 1 122 13 view .LVU113
 366 00ba 0B93     		str	r3, [sp, #44]
 367 00bc D0F8A430 		ldr	r3, [r0, #164]
 368 00c0 3493     		str	r3, [sp, #208]
 369              	.LVL50:
 123:fips202.c     ****         Ase = state[21];
 370              		.loc 1 123 9 is_stmt 1 view .LVU114
 371              		.loc 1 123 13 is_stmt 0 view .LVU115
 372 00c2 D0F8A830 		ldr	r3, [r0, #168]
 373              	.LVL51:
 374              		.loc 1 123 13 view .LVU116
 375 00c6 3593     		str	r3, [sp, #212]
 376 00c8 D0F8AC30 		ldr	r3, [r0, #172]
 377 00cc 3693     		str	r3, [sp, #216]
 378              	.LVL52:
 124:fips202.c     ****         Asi = state[22];
 379              		.loc 1 124 9 is_stmt 1 view .LVU117
 380              		.loc 1 124 13 is_stmt 0 view .LVU118
 381 00ce D0F8B030 		ldr	r3, [r0, #176]
 382              	.LVL53:
 383              		.loc 1 124 13 view .LVU119
 384 00d2 3793     		str	r3, [sp, #220]
 385 00d4 D0F8B430 		ldr	r3, [r0, #180]
 386 00d8 3893     		str	r3, [sp, #224]
 387              	.LVL54:
 125:fips202.c     ****         Aso = state[23];
 388              		.loc 1 125 9 is_stmt 1 view .LVU120
 389              		.loc 1 125 13 is_stmt 0 view .LVU121
 390 00da D0F8B830 		ldr	r3, [r0, #184]
 391              	.LVL55:
 392              		.loc 1 125 13 view .LVU122
 393 00de 3993     		str	r3, [sp, #228]
 394 00e0 D0F8BC30 		ldr	r3, [r0, #188]
 395 00e4 3A93     		str	r3, [sp, #232]
 396              	.LVL56:
 126:fips202.c     ****         Asu = state[24];
 397              		.loc 1 126 9 is_stmt 1 view .LVU123
 398              		.loc 1 126 13 is_stmt 0 view .LVU124
 399 00e6 D0F8C030 		ldr	r3, [r0, #192]
 400              	.LVL57:
 401              		.loc 1 126 13 view .LVU125
 402 00ea 3B93     		str	r3, [sp, #236]
 403 00ec D0F8C460 		ldr	r6, [r0, #196]
 404              	.LVL58:
 127:fips202.c     **** 
 128:fips202.c     ****         for( round = 0; round < NROUNDS; round += 2 )
 405              		.loc 1 128 9 is_stmt 1 view .LVU126
 406              		.loc 1 128 25 view .LVU127
 407 00f0 014B     		ldr	r3, .L10
 408              	.LVL59:
 409              		.loc 1 128 25 is_stmt 0 view .LVU128
 410 00f2 0193     		str	r3, [sp, #4]
 411 00f4 02E0     		b	.L11
 412              	.L12:
 413 00f6 00BF     		.align	2
 414              	.L10:
 415 00f8 00000000 		.word	.LANCHOR0
 416              	.L11:
 417              	.LVL60:
 418              	.L8:
 129:fips202.c     ****         {
 130:fips202.c     ****             //    prepareTheta
 131:fips202.c     ****             BCa = Aba^Aga^Aka^Ama^Asa;
 419              		.loc 1 131 13 is_stmt 1 discriminator 3 view .LVU129
 420              		.loc 1 131 22 is_stmt 0 discriminator 3 view .LVU130
 421 00fc 169A     		ldr	r2, [sp, #88]
 422 00fe 0C9B     		ldr	r3, [sp, #48]
 423 0100 1799     		ldr	r1, [sp, #92]
 424 0102 5340     		eors	r3, r3, r2
 425 0104 0D9A     		ldr	r2, [sp, #52]
 426 0106 82EA0105 		eor	r5, r2, r1
 427              		.loc 1 131 26 discriminator 3 view .LVU131
 428 010a 209A     		ldr	r2, [sp, #128]
 429 010c 5340     		eors	r3, r3, r2
 430 010e 219A     		ldr	r2, [sp, #132]
 431 0110 5540     		eors	r5, r5, r2
 432              		.loc 1 131 30 discriminator 3 view .LVU132
 433 0112 2A9A     		ldr	r2, [sp, #168]
 434 0114 5340     		eors	r3, r3, r2
 435 0116 2B9A     		ldr	r2, [sp, #172]
 436 0118 5540     		eors	r5, r5, r2
 437              		.loc 1 131 17 discriminator 3 view .LVU133
 438 011a 0B9A     		ldr	r2, [sp, #44]
 439 011c 5340     		eors	r3, r3, r2
 440 011e 349A     		ldr	r2, [sp, #208]
 441 0120 0993     		str	r3, [sp, #36]
 442 0122 5540     		eors	r5, r5, r2
 443              	.LVL61:
 132:fips202.c     ****             BCe = Abe^Age^Ake^Ame^Ase;
 444              		.loc 1 132 13 is_stmt 1 discriminator 3 view .LVU134
 445              		.loc 1 132 22 is_stmt 0 discriminator 3 view .LVU135
 446 0124 0E9B     		ldr	r3, [sp, #56]
 447              	.LVL62:
 448              		.loc 1 132 22 discriminator 3 view .LVU136
 449 0126 189A     		ldr	r2, [sp, #96]
 450 0128 83EA0209 		eor	r9, r3, r2
 451 012c 0F9B     		ldr	r3, [sp, #60]
 452 012e 199A     		ldr	r2, [sp, #100]
 453 0130 83EA0208 		eor	r8, r3, r2
 454              		.loc 1 132 26 discriminator 3 view .LVU137
 455 0134 229B     		ldr	r3, [sp, #136]
 133:fips202.c     ****             BCi = Abi^Agi^Aki^Ami^Asi;
 456              		.loc 1 133 22 discriminator 3 view .LVU138
 457 0136 1A9A     		ldr	r2, [sp, #104]
 132:fips202.c     ****             BCe = Abe^Age^Ake^Ame^Ase;
 458              		.loc 1 132 26 discriminator 3 view .LVU139
 459 0138 89EA0309 		eor	r9, r9, r3
 460 013c 239B     		ldr	r3, [sp, #140]
 461 013e 88EA0308 		eor	r8, r8, r3
 132:fips202.c     ****             BCe = Abe^Age^Ake^Ame^Ase;
 462              		.loc 1 132 30 discriminator 3 view .LVU140
 463 0142 2C9B     		ldr	r3, [sp, #176]
 464 0144 89EA0309 		eor	r9, r9, r3
 465 0148 2D9B     		ldr	r3, [sp, #180]
 466 014a 88EA0308 		eor	r8, r8, r3
 132:fips202.c     ****             BCe = Abe^Age^Ake^Ame^Ase;
 467              		.loc 1 132 17 discriminator 3 view .LVU141
 468 014e 359B     		ldr	r3, [sp, #212]
 469 0150 89EA0309 		eor	r9, r9, r3
 470 0154 369B     		ldr	r3, [sp, #216]
 471 0156 88EA0308 		eor	r8, r8, r3
 472              	.LVL63:
 473              		.loc 1 133 13 is_stmt 1 discriminator 3 view .LVU142
 474              		.loc 1 133 22 is_stmt 0 discriminator 3 view .LVU143
 475 015a 109B     		ldr	r3, [sp, #64]
 476 015c 83EA020C 		eor	ip, r3, r2
 477 0160 119B     		ldr	r3, [sp, #68]
 478 0162 1B9A     		ldr	r2, [sp, #108]
 479 0164 83EA0207 		eor	r7, r3, r2
 480              		.loc 1 133 26 discriminator 3 view .LVU144
 481 0168 249B     		ldr	r3, [sp, #144]
 482 016a 259A     		ldr	r2, [sp, #148]
 483 016c 8CEA030C 		eor	ip, ip, r3
 484 0170 5740     		eors	r7, r7, r2
 485              		.loc 1 133 30 discriminator 3 view .LVU145
 486 0172 2E9B     		ldr	r3, [sp, #184]
 487 0174 2F9A     		ldr	r2, [sp, #188]
 488 0176 8CEA030C 		eor	ip, ip, r3
 489 017a 5740     		eors	r7, r7, r2
 490              		.loc 1 133 17 discriminator 3 view .LVU146
 491 017c 379B     		ldr	r3, [sp, #220]
 492 017e 389A     		ldr	r2, [sp, #224]
 493 0180 8CEA030C 		eor	ip, ip, r3
 494 0184 5740     		eors	r7, r7, r2
 495              	.LVL64:
 134:fips202.c     ****             BCo = Abo^Ago^Ako^Amo^Aso;
 496              		.loc 1 134 13 is_stmt 1 discriminator 3 view .LVU147
 497              		.loc 1 134 22 is_stmt 0 discriminator 3 view .LVU148
 498 0186 129B     		ldr	r3, [sp, #72]
 499 0188 1C9A     		ldr	r2, [sp, #112]
 135:fips202.c     ****             BCu = Abu^Agu^Aku^Amu^Asu;
 500              		.loc 1 135 22 discriminator 3 view .LVU149
 501 018a DDF87CE0 		ldr	lr, [sp, #124]
 134:fips202.c     ****             BCo = Abo^Ago^Ako^Amo^Aso;
 502              		.loc 1 134 22 discriminator 3 view .LVU150
 503 018e 83EA0204 		eor	r4, r3, r2
 504 0192 139B     		ldr	r3, [sp, #76]
 505 0194 1D9A     		ldr	r2, [sp, #116]
 506 0196 83EA0201 		eor	r1, r3, r2
 134:fips202.c     ****             BCo = Abo^Ago^Ako^Amo^Aso;
 507              		.loc 1 134 26 discriminator 3 view .LVU151
 508 019a 269A     		ldr	r2, [sp, #152]
 509              		.loc 1 135 22 discriminator 3 view .LVU152
 510 019c 149B     		ldr	r3, [sp, #80]
 134:fips202.c     ****             BCo = Abo^Ago^Ako^Amo^Aso;
 511              		.loc 1 134 26 discriminator 3 view .LVU153
 512 019e 5440     		eors	r4, r4, r2
 513 01a0 279A     		ldr	r2, [sp, #156]
 514 01a2 5140     		eors	r1, r1, r2
 134:fips202.c     ****             BCo = Abo^Ago^Ako^Amo^Aso;
 515              		.loc 1 134 30 discriminator 3 view .LVU154
 516 01a4 309A     		ldr	r2, [sp, #192]
 517 01a6 5440     		eors	r4, r4, r2
 518 01a8 319A     		ldr	r2, [sp, #196]
 519 01aa 5140     		eors	r1, r1, r2
 134:fips202.c     ****             BCo = Abo^Ago^Ako^Amo^Aso;
 520              		.loc 1 134 17 discriminator 3 view .LVU155
 521 01ac 399A     		ldr	r2, [sp, #228]
 522 01ae 5440     		eors	r4, r4, r2
 523 01b0 3A9A     		ldr	r2, [sp, #232]
 524 01b2 5140     		eors	r1, r1, r2
 525              	.LVL65:
 526              		.loc 1 135 13 is_stmt 1 discriminator 3 view .LVU156
 527              		.loc 1 135 22 is_stmt 0 discriminator 3 view .LVU157
 528 01b4 1E9A     		ldr	r2, [sp, #120]
 529 01b6 5A40     		eors	r2, r2, r3
 530 01b8 159B     		ldr	r3, [sp, #84]
 531 01ba 83EA0E0E 		eor	lr, r3, lr
 532              		.loc 1 135 26 discriminator 3 view .LVU158
 533 01be 289B     		ldr	r3, [sp, #160]
 534 01c0 5A40     		eors	r2, r2, r3
 535 01c2 299B     		ldr	r3, [sp, #164]
 536 01c4 8EEA030E 		eor	lr, lr, r3
 537              		.loc 1 135 30 discriminator 3 view .LVU159
 538 01c8 329B     		ldr	r3, [sp, #200]
 539 01ca 5A40     		eors	r2, r2, r3
 540 01cc 339B     		ldr	r3, [sp, #204]
 541 01ce 8EEA030E 		eor	lr, lr, r3
 542              		.loc 1 135 17 discriminator 3 view .LVU160
 543 01d2 3B9B     		ldr	r3, [sp, #236]
 136:fips202.c     **** 
 137:fips202.c     ****             //thetaRhoPiChiIotaPrepareTheta(round  , A, E)
 138:fips202.c     ****             Da = BCu^ROL(BCe, 1);
 544              		.loc 1 138 22 discriminator 3 view .LVU161
 545 01d4 4FEA490B 		lsl	fp, r9, #1
 135:fips202.c     ****             BCu = Abu^Agu^Aku^Amu^Asu;
 546              		.loc 1 135 17 discriminator 3 view .LVU162
 547 01d8 5A40     		eors	r2, r2, r3
 548              		.loc 1 138 22 discriminator 3 view .LVU163
 549 01da 4BEAD87B 		orr	fp, fp, r8, lsr #31
 550 01de 4FEA480A 		lsl	r10, r8, #1
 135:fips202.c     ****             BCu = Abu^Agu^Aku^Amu^Asu;
 551              		.loc 1 135 17 discriminator 3 view .LVU164
 552 01e2 8EEA060E 		eor	lr, lr, r6
 553              	.LVL66:
 554              		.loc 1 138 13 is_stmt 1 discriminator 3 view .LVU165
 555              		.loc 1 138 16 is_stmt 0 discriminator 3 view .LVU166
 556 01e6 8BEA0203 		eor	r3, fp, r2
 557              		.loc 1 138 22 discriminator 3 view .LVU167
 558 01ea 4AEAD97A 		orr	r10, r10, r9, lsr #31
 559              		.loc 1 138 16 discriminator 3 view .LVU168
 560 01ee 0293     		str	r3, [sp, #8]
 561 01f0 8AEA0E03 		eor	r3, r10, lr
 562 01f4 0393     		str	r3, [sp, #12]
 563              	.LVL67:
 139:fips202.c     ****             De = BCa^ROL(BCi, 1);
 564              		.loc 1 139 13 is_stmt 1 discriminator 3 view .LVU169
 565              		.loc 1 139 22 is_stmt 0 discriminator 3 view .LVU170
 566 01f6 4FEA4C0B 		lsl	fp, ip, #1
 567              		.loc 1 139 16 discriminator 3 view .LVU171
 568 01fa 099B     		ldr	r3, [sp, #36]
 569              	.LVL68:
 570              		.loc 1 139 22 discriminator 3 view .LVU172
 571 01fc 4BEAD77B 		orr	fp, fp, r7, lsr #31
 572 0200 4FEA470A 		lsl	r10, r7, #1
 573 0204 4AEADC7A 		orr	r10, r10, ip, lsr #31
 574              		.loc 1 139 16 discriminator 3 view .LVU173
 575 0208 8BEA0303 		eor	r3, fp, r3
 576 020c 0493     		str	r3, [sp, #16]
 577 020e 8AEA0503 		eor	r3, r10, r5
 140:fips202.c     ****             Di = BCe^ROL(BCo, 1);
 578              		.loc 1 140 22 discriminator 3 view .LVU174
 579 0212 4FEA410A 		lsl	r10, r1, #1
 580 0216 4AEAD47A 		orr	r10, r10, r4, lsr #31
 139:fips202.c     ****             De = BCa^ROL(BCi, 1);
 581              		.loc 1 139 16 discriminator 3 view .LVU175
 582 021a 0593     		str	r3, [sp, #20]
 583              	.LVL69:
 584              		.loc 1 140 13 is_stmt 1 discriminator 3 view .LVU176
 585              		.loc 1 140 16 is_stmt 0 discriminator 3 view .LVU177
 586 021c 8AEA0803 		eor	r3, r10, r8
 587              	.LVL70:
 141:fips202.c     ****             Do = BCi^ROL(BCu, 1);
 588              		.loc 1 141 22 discriminator 3 view .LVU178
 589 0220 4FEA4E08 		lsl	r8, lr, #1
 590              	.LVL71:
 591              		.loc 1 141 22 discriminator 3 view .LVU179
 592 0224 48EAD278 		orr	r8, r8, r2, lsr #31
 593 0228 5200     		lsls	r2, r2, #1
 594              	.LVL72:
 595              		.loc 1 141 22 discriminator 3 view .LVU180
 596 022a 42EADE72 		orr	r2, r2, lr, lsr #31
 140:fips202.c     ****             Di = BCe^ROL(BCo, 1);
 597              		.loc 1 140 16 discriminator 3 view .LVU181
 598 022e 0693     		str	r3, [sp, #24]
 599              		.loc 1 141 16 discriminator 3 view .LVU182
 600 0230 82EA0C03 		eor	r3, r2, ip
 601 0234 0793     		str	r3, [sp, #28]
 602 0236 88EA0703 		eor	r3, r8, r7
 603 023a 0893     		str	r3, [sp, #32]
 142:fips202.c     ****             Du = BCo^ROL(BCa, 1);
 604              		.loc 1 142 22 discriminator 3 view .LVU183
 605 023c 099B     		ldr	r3, [sp, #36]
 606 023e 6A00     		lsls	r2, r5, #1
 607 0240 42EAD372 		orr	r2, r2, r3, lsr #31
 608 0244 5B00     		lsls	r3, r3, #1
 609 0246 43EAD573 		orr	r3, r3, r5, lsr #31
 610              		.loc 1 142 16 discriminator 3 view .LVU184
 611 024a 6340     		eors	r3, r3, r4
 612 024c 0993     		str	r3, [sp, #36]
 613              	.LVL73:
 614              		.loc 1 142 16 discriminator 3 view .LVU185
 615 024e 82EA0103 		eor	r3, r2, r1
 140:fips202.c     ****             Di = BCe^ROL(BCo, 1);
 616              		.loc 1 140 22 discriminator 3 view .LVU186
 617 0252 4FEA440B 		lsl	fp, r4, #1
 143:fips202.c     **** 
 144:fips202.c     ****             Aba ^= Da;
 618              		.loc 1 144 17 discriminator 3 view .LVU187
 619 0256 0C9A     		ldr	r2, [sp, #48]
 142:fips202.c     ****             Du = BCo^ROL(BCa, 1);
 620              		.loc 1 142 16 discriminator 3 view .LVU188
 621 0258 0A93     		str	r3, [sp, #40]
 622              		.loc 1 144 17 discriminator 3 view .LVU189
 623 025a 029B     		ldr	r3, [sp, #8]
 140:fips202.c     ****             Do = BCi^ROL(BCu, 1);
 624              		.loc 1 140 22 discriminator 3 view .LVU190
 625 025c 4BEAD17B 		orr	fp, fp, r1, lsr #31
 140:fips202.c     ****             Do = BCi^ROL(BCu, 1);
 626              		.loc 1 140 16 discriminator 3 view .LVU191
 627 0260 8BEA090B 		eor	fp, fp, r9
 628              	.LVL74:
 141:fips202.c     ****             Du = BCo^ROL(BCa, 1);
 629              		.loc 1 141 13 is_stmt 1 discriminator 3 view .LVU192
 142:fips202.c     **** 
 630              		.loc 1 142 13 discriminator 3 view .LVU193
 631              		.loc 1 144 13 discriminator 3 view .LVU194
 632              		.loc 1 144 17 is_stmt 0 discriminator 3 view .LVU195
 633 0264 83EA0209 		eor	r9, r3, r2
 634              	.LVL75:
 635              		.loc 1 144 17 discriminator 3 view .LVU196
 636 0268 039B     		ldr	r3, [sp, #12]
 637 026a 0D9A     		ldr	r2, [sp, #52]
 145:fips202.c     ****             BCa = Aba;
 146:fips202.c     ****             Age ^= De;
 147:fips202.c     ****             BCe = ROL(Age, 44);
 148:fips202.c     ****             Aki ^= Di;
 638              		.loc 1 148 17 discriminator 3 view .LVU197
 639 026c 0699     		ldr	r1, [sp, #24]
 640              	.LVL76:
 641              		.loc 1 148 17 discriminator 3 view .LVU198
 642 026e 259C     		ldr	r4, [sp, #148]
 643              	.LVL77:
 149:fips202.c     ****             BCi = ROL(Aki, 43);
 150:fips202.c     ****             Amo ^= Do;
 644              		.loc 1 150 17 discriminator 3 view .LVU199
 645 0270 319F     		ldr	r7, [sp, #196]
 646              	.LVL78:
 144:fips202.c     ****             BCa = Aba;
 647              		.loc 1 144 17 discriminator 3 view .LVU200
 648 0272 83EA020A 		eor	r10, r3, r2
 649              	.LVL79:
 145:fips202.c     ****             BCa = Aba;
 650              		.loc 1 145 13 is_stmt 1 discriminator 3 view .LVU201
 146:fips202.c     ****             BCe = ROL(Age, 44);
 651              		.loc 1 146 13 discriminator 3 view .LVU202
 147:fips202.c     ****             Aki ^= Di;
 652              		.loc 1 147 13 discriminator 3 view .LVU203
 146:fips202.c     ****             BCe = ROL(Age, 44);
 653              		.loc 1 146 17 is_stmt 0 discriminator 3 view .LVU204
 654 0276 189A     		ldr	r2, [sp, #96]
 655 0278 049B     		ldr	r3, [sp, #16]
 656 027a 83EA020E 		eor	lr, r3, r2
 657              	.LVL80:
 146:fips202.c     ****             BCe = ROL(Age, 44);
 658              		.loc 1 146 17 discriminator 3 view .LVU205
 659 027e 199A     		ldr	r2, [sp, #100]
 660 0280 059B     		ldr	r3, [sp, #20]
 661 0282 83EA020C 		eor	ip, r3, r2
 662              	.LVL81:
 148:fips202.c     ****             BCi = ROL(Aki, 43);
 663              		.loc 1 148 17 discriminator 3 view .LVU206
 664 0286 249A     		ldr	r2, [sp, #144]
 665 0288 8BEA0202 		eor	r2, fp, r2
 666 028c 4C40     		eors	r4, r4, r1
 149:fips202.c     ****             Amo ^= Do;
 667              		.loc 1 149 17 discriminator 3 view .LVU207
 668 028e 4FEA5258 		lsr	r8, r2, #21
 669 0292 48EAC428 		orr	r8, r8, r4, lsl #11
 670 0296 640D     		lsrs	r4, r4, #21
 671 0298 44EAC224 		orr	r4, r4, r2, lsl #11
 672              		.loc 1 150 17 discriminator 3 view .LVU208
 673 029c 3099     		ldr	r1, [sp, #192]
 674 029e 079A     		ldr	r2, [sp, #28]
 675 02a0 5140     		eors	r1, r1, r2
 676 02a2 089A     		ldr	r2, [sp, #32]
 147:fips202.c     ****             Aki ^= Di;
 677              		.loc 1 147 17 discriminator 3 view .LVU209
 678 02a4 4FEA1E55 		lsr	r5, lr, #20
 679 02a8 45EA0C35 		orr	r5, r5, ip, lsl #12
 680              		.loc 1 150 17 discriminator 3 view .LVU210
 681 02ac 7A40     		eors	r2, r2, r7
 147:fips202.c     ****             Aki ^= Di;
 682              		.loc 1 147 17 discriminator 3 view .LVU211
 683 02ae 4FEA1C5C 		lsr	ip, ip, #20
 684 02b2 4CEA0E33 		orr	r3, ip, lr, lsl #12
 685              	.LVL82:
 148:fips202.c     ****             BCi = ROL(Aki, 43);
 686              		.loc 1 148 13 is_stmt 1 discriminator 3 view .LVU212
 149:fips202.c     ****             Amo ^= Do;
 687              		.loc 1 149 13 discriminator 3 view .LVU213
 688              		.loc 1 150 13 discriminator 3 view .LVU214
 151:fips202.c     ****             BCo = ROL(Amo, 21);
 689              		.loc 1 151 13 discriminator 3 view .LVU215
 690              		.loc 1 151 17 is_stmt 0 discriminator 3 view .LVU216
 691 02b6 4FEA425E 		lsl	lr, r2, #21
 692 02ba 4EEAD12E 		orr	lr, lr, r1, lsr #11
 693 02be 4905     		lsls	r1, r1, #21
 694 02c0 41EAD221 		orr	r1, r1, r2, lsr #11
 695              	.LVL83:
 152:fips202.c     ****             Asu ^= Du;
 696              		.loc 1 152 13 is_stmt 1 discriminator 3 view .LVU217
 153:fips202.c     ****             BCu = ROL(Asu, 14);
 697              		.loc 1 153 13 discriminator 3 view .LVU218
 152:fips202.c     ****             Asu ^= Du;
 698              		.loc 1 152 17 is_stmt 0 discriminator 3 view .LVU219
 699 02c4 3B9F     		ldr	r7, [sp, #236]
 700 02c6 099A     		ldr	r2, [sp, #36]
 701 02c8 5740     		eors	r7, r7, r2
 702 02ca 0A9A     		ldr	r2, [sp, #40]
 703 02cc 5640     		eors	r6, r6, r2
 704              	.LVL84:
 705              		.loc 1 153 17 discriminator 3 view .LVU220
 706 02ce BA03     		lsls	r2, r7, #14
 707 02d0 42EA9642 		orr	r2, r2, r6, lsr #18
 708 02d4 4FEA863C 		lsl	ip, r6, #14
 154:fips202.c     ****             Eba =   BCa ^((~BCe)&  BCi );
 155:fips202.c     ****             Eba ^= (uint64_t)KeccakF_RoundConstants[round];
 709              		.loc 1 155 17 discriminator 3 view .LVU221
 710 02d8 019E     		ldr	r6, [sp, #4]
 153:fips202.c     ****             BCu = ROL(Asu, 14);
 711              		.loc 1 153 17 discriminator 3 view .LVU222
 712 02da 4CEA974C 		orr	ip, ip, r7, lsr #18
 713              	.LVL85:
 154:fips202.c     ****             Eba =   BCa ^((~BCe)&  BCi );
 714              		.loc 1 154 13 is_stmt 1 discriminator 3 view .LVU223
 715              		.loc 1 155 13 discriminator 3 view .LVU224
 716              		.loc 1 155 17 is_stmt 0 discriminator 3 view .LVU225
 717 02de D6E90076 		ldrd	r7, r6, [r6]
 718 02e2 8AEA0606 		eor	r6, r10, r6
 719 02e6 0D96     		str	r6, [sp, #52]
 720 02e8 89EA0707 		eor	r7, r9, r7
 721 02ec 28EA0506 		bic	r6, r8, r5
 722 02f0 7E40     		eors	r6, r6, r7
 723 02f2 0D9F     		ldr	r7, [sp, #52]
 724 02f4 0C96     		str	r6, [sp, #48]
 725 02f6 24EA0306 		bic	r6, r4, r3
 726 02fa 7740     		eors	r7, r7, r6
 156:fips202.c     ****             Ebe =   BCe ^((~BCi)&  BCo );
 727              		.loc 1 156 33 discriminator 3 view .LVU226
 728 02fc 2EEA0406 		bic	r6, lr, r4
 729              		.loc 1 156 17 discriminator 3 view .LVU227
 730 0300 5E40     		eors	r6, r6, r3
 155:fips202.c     ****             Ebe =   BCe ^((~BCi)&  BCo );
 731              		.loc 1 155 17 discriminator 3 view .LVU228
 732 0302 0D97     		str	r7, [sp, #52]
 733              	.LVL86:
 734              		.loc 1 156 13 is_stmt 1 discriminator 3 view .LVU229
 735              		.loc 1 156 33 is_stmt 0 discriminator 3 view .LVU230
 736 0304 21EA0807 		bic	r7, r1, r8
 737              	.LVL87:
 738              		.loc 1 156 17 discriminator 3 view .LVU231
 739 0308 6F40     		eors	r7, r7, r5
 740 030a 2596     		str	r6, [sp, #148]
 741              	.LVL88:
 157:fips202.c     ****             Ebi =   BCi ^((~BCo)&  BCu );
 742              		.loc 1 157 13 is_stmt 1 discriminator 3 view .LVU232
 158:fips202.c     ****             Ebo =   BCo ^((~BCu)&  BCa );
 159:fips202.c     ****             Ebu =   BCu ^((~BCa)&  BCe );
 743              		.loc 1 159 33 is_stmt 0 discriminator 3 view .LVU233
 744 030c 25EA0905 		bic	r5, r5, r9
 745              	.LVL89:
 157:fips202.c     ****             Ebi =   BCi ^((~BCo)&  BCu );
 746              		.loc 1 157 33 discriminator 3 view .LVU234
 747 0310 2CEA0E06 		bic	r6, ip, lr
 748              	.LVL90:
 749              		.loc 1 159 33 discriminator 3 view .LVU235
 750 0314 23EA0A03 		bic	r3, r3, r10
 751              	.LVL91:
 157:fips202.c     ****             Ebi =   BCi ^((~BCo)&  BCu );
 752              		.loc 1 157 17 discriminator 3 view .LVU236
 753 0318 7440     		eors	r4, r4, r6
 754              	.LVL92:
 755              		.loc 1 159 17 discriminator 3 view .LVU237
 756 031a 83EA0C03 		eor	r3, r3, ip
 158:fips202.c     ****             Ebo =   BCo ^((~BCu)&  BCa );
 757              		.loc 1 158 33 discriminator 3 view .LVU238
 758 031e 29EA0206 		bic	r6, r9, r2
 156:fips202.c     ****             Ebi =   BCi ^((~BCo)&  BCu );
 759              		.loc 1 156 17 discriminator 3 view .LVU239
 760 0322 2497     		str	r7, [sp, #144]
 761              	.LVL93:
 157:fips202.c     ****             Ebi =   BCi ^((~BCo)&  BCu );
 762              		.loc 1 157 33 discriminator 3 view .LVU240
 763 0324 22EA0107 		bic	r7, r2, r1
 764              		.loc 1 159 17 discriminator 3 view .LVU241
 765 0328 6A40     		eors	r2, r2, r5
 766              	.LVL94:
 158:fips202.c     ****             Ebo =   BCo ^((~BCu)&  BCa );
 767              		.loc 1 158 17 discriminator 3 view .LVU242
 768 032a 7140     		eors	r1, r1, r6
 769              	.LVL95:
 157:fips202.c     ****             Ebi =   BCi ^((~BCo)&  BCu );
 770              		.loc 1 157 17 discriminator 3 view .LVU243
 771 032c 3C94     		str	r4, [sp, #240]
 772              	.LVL96:
 158:fips202.c     ****             Ebo =   BCo ^((~BCu)&  BCa );
 773              		.loc 1 158 13 is_stmt 1 discriminator 3 view .LVU244
 774              		.loc 1 159 17 is_stmt 0 discriminator 3 view .LVU245
 775 032e 3092     		str	r2, [sp, #192]
 776              	.LVL97:
 158:fips202.c     ****             Ebo =   BCo ^((~BCu)&  BCa );
 777              		.loc 1 158 33 discriminator 3 view .LVU246
 778 0330 2AEA0C04 		bic	r4, r10, ip
 779              	.LVL98:
 160:fips202.c     **** 
 161:fips202.c     ****             Abo ^= Do;
 780              		.loc 1 161 17 discriminator 3 view .LVU247
 781 0334 129A     		ldr	r2, [sp, #72]
 159:fips202.c     **** 
 782              		.loc 1 159 17 discriminator 3 view .LVU248
 783 0336 3193     		str	r3, [sp, #196]
 784              		.loc 1 161 17 discriminator 3 view .LVU249
 785 0338 079B     		ldr	r3, [sp, #28]
 158:fips202.c     ****             Ebu =   BCu ^((~BCa)&  BCe );
 786              		.loc 1 158 17 discriminator 3 view .LVU250
 787 033a 1891     		str	r1, [sp, #96]
 788              	.LVL99:
 157:fips202.c     ****             Ebo =   BCo ^((~BCu)&  BCa );
 789              		.loc 1 157 17 discriminator 3 view .LVU251
 790 033c 87EA0807 		eor	r7, r7, r8
 158:fips202.c     ****             Ebu =   BCu ^((~BCa)&  BCe );
 791              		.loc 1 158 17 discriminator 3 view .LVU252
 792 0340 84EA0E01 		eor	r1, r4, lr
 793              		.loc 1 161 17 discriminator 3 view .LVU253
 794 0344 5A40     		eors	r2, r2, r3
 157:fips202.c     ****             Ebo =   BCo ^((~BCu)&  BCa );
 795              		.loc 1 157 17 discriminator 3 view .LVU254
 796 0346 3B97     		str	r7, [sp, #236]
 797              	.LVL100:
 158:fips202.c     ****             Ebu =   BCu ^((~BCa)&  BCe );
 798              		.loc 1 158 17 discriminator 3 view .LVU255
 799 0348 1991     		str	r1, [sp, #100]
 800              	.LVL101:
 159:fips202.c     **** 
 801              		.loc 1 159 13 is_stmt 1 discriminator 3 view .LVU256
 802              		.loc 1 161 13 discriminator 3 view .LVU257
 162:fips202.c     ****             BCa = ROL(Abo, 28);
 803              		.loc 1 162 13 discriminator 3 view .LVU258
 161:fips202.c     ****             BCa = ROL(Abo, 28);
 804              		.loc 1 161 17 is_stmt 0 discriminator 3 view .LVU259
 805 034a 089B     		ldr	r3, [sp, #32]
 806 034c 1399     		ldr	r1, [sp, #76]
 807              	.LVL102:
 163:fips202.c     ****             Agu ^= Du;
 164:fips202.c     ****             BCe = ROL(Agu, 20);
 165:fips202.c     ****             Aka ^= Da;
 808              		.loc 1 165 17 discriminator 3 view .LVU260
 809 034e 219C     		ldr	r4, [sp, #132]
 166:fips202.c     ****             BCi = ROL(Aka,  3);
 167:fips202.c     ****             Ame ^= De;
 168:fips202.c     ****             BCo = ROL(Ame, 45);
 169:fips202.c     ****             Asi ^= Di;
 810              		.loc 1 169 17 discriminator 3 view .LVU261
 811 0350 389F     		ldr	r7, [sp, #224]
 161:fips202.c     ****             BCa = ROL(Abo, 28);
 812              		.loc 1 161 17 discriminator 3 view .LVU262
 813 0352 5940     		eors	r1, r1, r3
 162:fips202.c     ****             Agu ^= Du;
 814              		.loc 1 162 17 discriminator 3 view .LVU263
 815 0354 4FEA017C 		lsl	ip, r1, #28
 816 0358 4CEA121C 		orr	ip, ip, r2, lsr #4
 817 035c 1207     		lsls	r2, r2, #28
 818 035e 42EA111E 		orr	lr, r2, r1, lsr #4
 819              	.LVL103:
 163:fips202.c     ****             BCe = ROL(Agu, 20);
 820              		.loc 1 163 13 is_stmt 1 discriminator 3 view .LVU264
 164:fips202.c     ****             Aka ^= Da;
 821              		.loc 1 164 13 discriminator 3 view .LVU265
 163:fips202.c     ****             BCe = ROL(Agu, 20);
 822              		.loc 1 163 17 is_stmt 0 discriminator 3 view .LVU266
 823 0362 099B     		ldr	r3, [sp, #36]
 824 0364 1E9A     		ldr	r2, [sp, #120]
 165:fips202.c     ****             BCi = ROL(Aka,  3);
 825              		.loc 1 165 17 discriminator 3 view .LVU267
 826 0366 2099     		ldr	r1, [sp, #128]
 163:fips202.c     ****             BCe = ROL(Agu, 20);
 827              		.loc 1 163 17 discriminator 3 view .LVU268
 828 0368 83EA0208 		eor	r8, r3, r2
 163:fips202.c     ****             BCe = ROL(Agu, 20);
 829              		.loc 1 163 17 discriminator 3 view .LVU269
 830 036c 1F9A     		ldr	r2, [sp, #124]
 831 036e 0A9B     		ldr	r3, [sp, #40]
 832 0370 83EA0206 		eor	r6, r3, r2
 165:fips202.c     ****             BCi = ROL(Aka,  3);
 833              		.loc 1 165 17 discriminator 3 view .LVU270
 834 0374 029A     		ldr	r2, [sp, #8]
 835 0376 4A40     		eors	r2, r2, r1
 836 0378 0399     		ldr	r1, [sp, #12]
 837 037a 4C40     		eors	r4, r4, r1
 166:fips202.c     ****             Ame ^= De;
 838              		.loc 1 166 17 discriminator 3 view .LVU271
 839 037c 4FEAC409 		lsl	r9, r4, #3
 840              	.LVL104:
 166:fips202.c     ****             Ame ^= De;
 841              		.loc 1 166 17 discriminator 3 view .LVU272
 842 0380 49EA5279 		orr	r9, r9, r2, lsr #29
 843 0384 D200     		lsls	r2, r2, #3
 844 0386 42EA5474 		orr	r4, r2, r4, lsr #29
 167:fips202.c     ****             BCo = ROL(Ame, 45);
 845              		.loc 1 167 17 discriminator 3 view .LVU273
 846 038a 2C99     		ldr	r1, [sp, #176]
 847 038c 049A     		ldr	r2, [sp, #16]
 164:fips202.c     ****             Aka ^= Da;
 848              		.loc 1 164 17 discriminator 3 view .LVU274
 849 038e 3505     		lsls	r5, r6, #20
 850 0390 45EA1835 		orr	r5, r5, r8, lsr #12
 851 0394 4FEA0858 		lsl	r8, r8, #20
 852 0398 48EA1633 		orr	r3, r8, r6, lsr #12
 853              	.LVL105:
 165:fips202.c     ****             BCi = ROL(Aka,  3);
 854              		.loc 1 165 13 is_stmt 1 discriminator 3 view .LVU275
 166:fips202.c     ****             Ame ^= De;
 855              		.loc 1 166 13 discriminator 3 view .LVU276
 167:fips202.c     ****             BCo = ROL(Ame, 45);
 856              		.loc 1 167 13 discriminator 3 view .LVU277
 168:fips202.c     ****             Asi ^= Di;
 857              		.loc 1 168 13 discriminator 3 view .LVU278
 167:fips202.c     ****             BCo = ROL(Ame, 45);
 858              		.loc 1 167 17 is_stmt 0 discriminator 3 view .LVU279
 859 039c 5140     		eors	r1, r1, r2
 860 039e 2D9E     		ldr	r6, [sp, #180]
 861 03a0 059A     		ldr	r2, [sp, #20]
 168:fips202.c     ****             Asi ^= Di;
 862              		.loc 1 168 17 discriminator 3 view .LVU280
 863 03a2 4FEAD148 		lsr	r8, r1, #19
 167:fips202.c     ****             BCo = ROL(Ame, 45);
 864              		.loc 1 167 17 discriminator 3 view .LVU281
 865 03a6 7240     		eors	r2, r2, r6
 168:fips202.c     ****             Asi ^= Di;
 866              		.loc 1 168 17 discriminator 3 view .LVU282
 867 03a8 48EA4238 		orr	r8, r8, r2, lsl #13
 868 03ac D20C     		lsrs	r2, r2, #19
 869 03ae 42EA4132 		orr	r2, r2, r1, lsl #13
 870              	.LVL106:
 871              		.loc 1 169 13 is_stmt 1 discriminator 3 view .LVU283
 170:fips202.c     ****             BCu = ROL(Asi, 61);
 872              		.loc 1 170 13 discriminator 3 view .LVU284
 169:fips202.c     ****             BCu = ROL(Asi, 61);
 873              		.loc 1 169 17 is_stmt 0 discriminator 3 view .LVU285
 874 03b2 3799     		ldr	r1, [sp, #220]
 875 03b4 8BEA0106 		eor	r6, fp, r1
 876 03b8 0699     		ldr	r1, [sp, #24]
 877 03ba 7940     		eors	r1, r1, r7
 878              		.loc 1 170 17 discriminator 3 view .LVU286
 879 03bc F708     		lsrs	r7, r6, #3
 880 03be 47EA4177 		orr	r7, r7, r1, lsl #29
 171:fips202.c     ****             Ega =   BCa ^((~BCe)&  BCi );
 881              		.loc 1 171 33 discriminator 3 view .LVU287
 882 03c2 24EA030A 		bic	r10, r4, r3
 170:fips202.c     ****             BCu = ROL(Asi, 61);
 883              		.loc 1 170 17 discriminator 3 view .LVU288
 884 03c6 C908     		lsrs	r1, r1, #3
 885 03c8 41EA4671 		orr	r1, r1, r6, lsl #29
 886              	.LVL107:
 887              		.loc 1 171 13 is_stmt 1 discriminator 3 view .LVU289
 888              		.loc 1 171 17 is_stmt 0 discriminator 3 view .LVU290
 889 03cc 8AEA0E0A 		eor	r10, r10, lr
 890              		.loc 1 171 33 discriminator 3 view .LVU291
 891 03d0 29EA0506 		bic	r6, r9, r5
 892              		.loc 1 171 17 discriminator 3 view .LVU292
 893 03d4 86EA0C06 		eor	r6, r6, ip
 894 03d8 CDF8B0A0 		str	r10, [sp, #176]
 895              	.LVL108:
 172:fips202.c     ****             Ege =   BCe ^((~BCi)&  BCo );
 896              		.loc 1 172 33 discriminator 3 view .LVU293
 897 03dc 28EA040A 		bic	r10, r8, r4
 898              		.loc 1 172 17 discriminator 3 view .LVU294
 899 03e0 8AEA030A 		eor	r10, r10, r3
 171:fips202.c     ****             Ega =   BCa ^((~BCe)&  BCi );
 900              		.loc 1 171 17 discriminator 3 view .LVU295
 901 03e4 2D96     		str	r6, [sp, #180]
 902              	.LVL109:
 903              		.loc 1 172 13 is_stmt 1 discriminator 3 view .LVU296
 904              		.loc 1 172 33 is_stmt 0 discriminator 3 view .LVU297
 905 03e6 22EA0906 		bic	r6, r2, r9
 906              	.LVL110:
 907              		.loc 1 172 17 discriminator 3 view .LVU298
 908 03ea 6E40     		eors	r6, r6, r5
 909 03ec CDF848A0 		str	r10, [sp, #72]
 910              	.LVL111:
 173:fips202.c     ****             Egi =   BCi ^((~BCo)&  BCu );
 911              		.loc 1 173 33 discriminator 3 view .LVU299
 912 03f0 27EA080A 		bic	r10, r7, r8
 913              		.loc 1 173 17 discriminator 3 view .LVU300
 914 03f4 8AEA0404 		eor	r4, r10, r4
 915              	.LVL112:
 172:fips202.c     ****             Ege =   BCe ^((~BCi)&  BCo );
 916              		.loc 1 172 17 discriminator 3 view .LVU301
 917 03f8 1396     		str	r6, [sp, #76]
 918              	.LVL113:
 919              		.loc 1 173 13 is_stmt 1 discriminator 3 view .LVU302
 920              		.loc 1 173 33 is_stmt 0 discriminator 3 view .LVU303
 921 03fa 21EA0206 		bic	r6, r1, r2
 922              	.LVL114:
 923              		.loc 1 173 17 discriminator 3 view .LVU304
 924 03fe 2094     		str	r4, [sp, #128]
 925              	.LVL115:
 926              		.loc 1 173 17 discriminator 3 view .LVU305
 927 0400 86EA0904 		eor	r4, r6, r9
 174:fips202.c     ****             Ego =   BCo ^((~BCu)&  BCa );
 928              		.loc 1 174 33 discriminator 3 view .LVU306
 929 0404 2EEA0706 		bic	r6, lr, r7
 175:fips202.c     ****             Egu =   BCu ^((~BCa)&  BCe );
 930              		.loc 1 175 33 discriminator 3 view .LVU307
 931 0408 23EA0E0E 		bic	lr, r3, lr
 932              	.LVL116:
 933              		.loc 1 175 17 discriminator 3 view .LVU308
 934 040c 8EEA0703 		eor	r3, lr, r7
 935              	.LVL117:
 936              		.loc 1 175 33 discriminator 3 view .LVU309
 937 0410 25EA0C05 		bic	r5, r5, ip
 938              	.LVL118:
 173:fips202.c     ****             Egi =   BCi ^((~BCo)&  BCu );
 939              		.loc 1 173 17 discriminator 3 view .LVU310
 940 0414 2194     		str	r4, [sp, #132]
 941              	.LVL119:
 174:fips202.c     ****             Ego =   BCo ^((~BCu)&  BCa );
 942              		.loc 1 174 13 is_stmt 1 discriminator 3 view .LVU311
 174:fips202.c     ****             Ego =   BCo ^((~BCu)&  BCa );
 943              		.loc 1 174 33 is_stmt 0 discriminator 3 view .LVU312
 944 0416 2CEA0104 		bic	r4, ip, r1
 945              	.LVL120:
 174:fips202.c     ****             Ego =   BCo ^((~BCu)&  BCa );
 946              		.loc 1 174 17 discriminator 3 view .LVU313
 947 041a 6240     		eors	r2, r2, r4
 948              	.LVL121:
 949              		.loc 1 175 17 discriminator 3 view .LVU314
 950 041c 1E93     		str	r3, [sp, #120]
 951              	.LVL122:
 952              		.loc 1 175 17 discriminator 3 view .LVU315
 953 041e 85EA0103 		eor	r3, r5, r1
 174:fips202.c     ****             Ego =   BCo ^((~BCu)&  BCa );
 954              		.loc 1 174 17 discriminator 3 view .LVU316
 955 0422 3892     		str	r2, [sp, #224]
 956              	.LVL123:
 957              		.loc 1 175 13 is_stmt 1 discriminator 3 view .LVU317
 958              		.loc 1 175 17 is_stmt 0 discriminator 3 view .LVU318
 959 0424 1F93     		str	r3, [sp, #124]
 960              	.LVL124:
 176:fips202.c     **** 
 177:fips202.c     ****             Abe ^= De;
 961              		.loc 1 177 13 is_stmt 1 discriminator 3 view .LVU319
 178:fips202.c     ****             BCa = ROL(Abe,  1);
 962              		.loc 1 178 13 discriminator 3 view .LVU320
 177:fips202.c     ****             BCa = ROL(Abe,  1);
 963              		.loc 1 177 17 is_stmt 0 discriminator 3 view .LVU321
 964 0426 0E9A     		ldr	r2, [sp, #56]
 965              	.LVL125:
 177:fips202.c     ****             BCa = ROL(Abe,  1);
 966              		.loc 1 177 17 discriminator 3 view .LVU322
 967 0428 049B     		ldr	r3, [sp, #16]
 968              	.LVL126:
 177:fips202.c     ****             BCa = ROL(Abe,  1);
 969              		.loc 1 177 17 discriminator 3 view .LVU323
 970 042a 83EA0209 		eor	r9, r3, r2
 971 042e 059B     		ldr	r3, [sp, #20]
 972 0430 0F9A     		ldr	r2, [sp, #60]
 973 0432 83EA0205 		eor	r5, r3, r2
 179:fips202.c     ****             Agi ^= Di;
 974              		.loc 1 179 17 discriminator 3 view .LVU324
 975 0436 1A9B     		ldr	r3, [sp, #104]
 174:fips202.c     ****             Egu =   BCu ^((~BCa)&  BCe );
 976              		.loc 1 174 17 discriminator 3 view .LVU325
 977 0438 86EA0806 		eor	r6, r6, r8
 978              		.loc 1 179 17 discriminator 3 view .LVU326
 979 043c 8BEA0302 		eor	r2, fp, r3
 174:fips202.c     ****             Egu =   BCu ^((~BCa)&  BCe );
 980              		.loc 1 174 17 discriminator 3 view .LVU327
 981 0440 3796     		str	r6, [sp, #220]
 982              	.LVL127:
 983              		.loc 1 179 17 discriminator 3 view .LVU328
 984 0442 069B     		ldr	r3, [sp, #24]
 985 0444 1B99     		ldr	r1, [sp, #108]
 986              	.LVL128:
 987              		.loc 1 179 17 discriminator 3 view .LVU329
 988 0446 83EA0107 		eor	r7, r3, r1
 180:fips202.c     ****             BCe = ROL(Agi,  6);
 989              		.loc 1 180 17 discriminator 3 view .LVU330
 990 044a BE01     		lsls	r6, r7, #6
 991 044c 46EA9266 		orr	r6, r6, r2, lsr #26
 992 0450 9201     		lsls	r2, r2, #6
 993 0452 42EA9763 		orr	r3, r2, r7, lsr #26
 181:fips202.c     ****             Ako ^= Do;
 994              		.loc 1 181 17 discriminator 3 view .LVU331
 995 0456 2699     		ldr	r1, [sp, #152]
 996 0458 079A     		ldr	r2, [sp, #28]
 997 045a 82EA0107 		eor	r7, r2, r1
 998 045e 2799     		ldr	r1, [sp, #156]
 999 0460 089A     		ldr	r2, [sp, #32]
 178:fips202.c     ****             Agi ^= Di;
 1000              		.loc 1 178 17 discriminator 3 view .LVU332
 1001 0462 4FEA450C 		lsl	ip, r5, #1
 1002 0466 4CEAD97C 		orr	ip, ip, r9, lsr #31
 1003              		.loc 1 181 17 discriminator 3 view .LVU333
 1004 046a 4A40     		eors	r2, r2, r1
 178:fips202.c     ****             Agi ^= Di;
 1005              		.loc 1 178 17 discriminator 3 view .LVU334
 1006 046c 4FEA4909 		lsl	r9, r9, #1
 182:fips202.c     ****             BCi = ROL(Ako, 25);
 1007              		.loc 1 182 17 discriminator 3 view .LVU335
 1008 0470 7906     		lsls	r1, r7, #25
 178:fips202.c     ****             Agi ^= Di;
 1009              		.loc 1 178 17 discriminator 3 view .LVU336
 1010 0472 49EAD574 		orr	r4, r9, r5, lsr #31
 1011              	.LVL129:
 179:fips202.c     ****             BCe = ROL(Agi,  6);
 1012              		.loc 1 179 13 is_stmt 1 discriminator 3 view .LVU337
 180:fips202.c     ****             Ako ^= Do;
 1013              		.loc 1 180 13 discriminator 3 view .LVU338
 181:fips202.c     ****             BCi = ROL(Ako, 25);
 1014              		.loc 1 181 13 discriminator 3 view .LVU339
 1015              		.loc 1 182 13 discriminator 3 view .LVU340
 1016              		.loc 1 182 17 is_stmt 0 discriminator 3 view .LVU341
 1017 0476 41EAD211 		orr	r1, r1, r2, lsr #7
 183:fips202.c     ****             Amu ^= Du;
 1018              		.loc 1 183 17 discriminator 3 view .LVU342
 1019 047a 329D     		ldr	r5, [sp, #200]
 184:fips202.c     ****             BCo = ROL(Amu,  8);
 185:fips202.c     ****             Asa ^= Da;
 1020              		.loc 1 185 17 discriminator 3 view .LVU343
 1021 047c DDF8D090 		ldr	r9, [sp, #208]
 182:fips202.c     ****             Amu ^= Du;
 1022              		.loc 1 182 17 discriminator 3 view .LVU344
 1023 0480 4FEA4268 		lsl	r8, r2, #25
 183:fips202.c     ****             Amu ^= Du;
 1024              		.loc 1 183 17 discriminator 3 view .LVU345
 1025 0484 099A     		ldr	r2, [sp, #36]
 182:fips202.c     ****             Amu ^= Du;
 1026              		.loc 1 182 17 discriminator 3 view .LVU346
 1027 0486 48EAD718 		orr	r8, r8, r7, lsr #7
 1028              	.LVL130:
 183:fips202.c     ****             Amu ^= Du;
 1029              		.loc 1 183 13 is_stmt 1 discriminator 3 view .LVU347
 184:fips202.c     ****             BCo = ROL(Amu,  8);
 1030              		.loc 1 184 13 discriminator 3 view .LVU348
 183:fips202.c     ****             Amu ^= Du;
 1031              		.loc 1 183 17 is_stmt 0 discriminator 3 view .LVU349
 1032 048a 5540     		eors	r5, r5, r2
 1033 048c 339F     		ldr	r7, [sp, #204]
 1034 048e 0A9A     		ldr	r2, [sp, #40]
 1035 0490 7A40     		eors	r2, r2, r7
 184:fips202.c     ****             BCo = ROL(Amu,  8);
 1036              		.loc 1 184 17 discriminator 3 view .LVU350
 1037 0492 4FEA022E 		lsl	lr, r2, #8
 1038 0496 4EEA156E 		orr	lr, lr, r5, lsr #24
 1039 049a 2D02     		lsls	r5, r5, #8
 1040 049c 45EA1265 		orr	r5, r5, r2, lsr #24
 1041              	.LVL131:
 1042              		.loc 1 185 13 is_stmt 1 discriminator 3 view .LVU351
 186:fips202.c     ****             BCu = ROL(Asa, 18);
 1043              		.loc 1 186 13 discriminator 3 view .LVU352
 185:fips202.c     ****             BCu = ROL(Asa, 18);
 1044              		.loc 1 185 17 is_stmt 0 discriminator 3 view .LVU353
 1045 04a0 0B9F     		ldr	r7, [sp, #44]
 1046 04a2 029A     		ldr	r2, [sp, #8]
 1047 04a4 7A40     		eors	r2, r2, r7
 1048 04a6 039F     		ldr	r7, [sp, #12]
 1049 04a8 87EA0909 		eor	r9, r7, r9
 1050              		.loc 1 186 17 discriminator 3 view .LVU354
 1051 04ac 4FEA8947 		lsl	r7, r9, #18
 1052 04b0 47EA9237 		orr	r7, r7, r2, lsr #14
 187:fips202.c     ****             Eka =   BCa ^((~BCe)&  BCi );
 1053              		.loc 1 187 33 discriminator 3 view .LVU355
 1054 04b4 21EA030A 		bic	r10, r1, r3
 186:fips202.c     ****             BCu = ROL(Asa, 18);
 1055              		.loc 1 186 17 discriminator 3 view .LVU356
 1056 04b8 9204     		lsls	r2, r2, #18
 1057 04ba 42EA9932 		orr	r2, r2, r9, lsr #14
 1058              	.LVL132:
 1059              		.loc 1 187 13 is_stmt 1 discriminator 3 view .LVU357
 1060              		.loc 1 187 17 is_stmt 0 discriminator 3 view .LVU358
 1061 04be 8AEA040A 		eor	r10, r10, r4
 1062              		.loc 1 187 33 discriminator 3 view .LVU359
 1063 04c2 28EA0609 		bic	r9, r8, r6
 1064              		.loc 1 187 17 discriminator 3 view .LVU360
 1065 04c6 89EA0C09 		eor	r9, r9, ip
 1066 04ca CDF868A0 		str	r10, [sp, #104]
 188:fips202.c     ****             Eke =   BCe ^((~BCi)&  BCo );
 1067              		.loc 1 188 33 discriminator 3 view .LVU361
 1068 04ce 25EA010A 		bic	r10, r5, r1
 1069              		.loc 1 188 17 discriminator 3 view .LVU362
 1070 04d2 8AEA030A 		eor	r10, r10, r3
 187:fips202.c     ****             Eka =   BCa ^((~BCe)&  BCi );
 1071              		.loc 1 187 17 discriminator 3 view .LVU363
 1072 04d6 CDF86C90 		str	r9, [sp, #108]
 1073              	.LVL133:
 1074              		.loc 1 188 13 is_stmt 1 discriminator 3 view .LVU364
 189:fips202.c     ****             Eki =   BCi ^((~BCo)&  BCu );
 190:fips202.c     ****             Eko =   BCo ^((~BCu)&  BCa );
 191:fips202.c     ****             Eku =   BCu ^((~BCa)&  BCe );
 1075              		.loc 1 191 33 is_stmt 0 discriminator 3 view .LVU365
 1076 04da 23EA0403 		bic	r3, r3, r4
 1077              	.LVL134:
 188:fips202.c     ****             Eke =   BCe ^((~BCi)&  BCo );
 1078              		.loc 1 188 33 discriminator 3 view .LVU366
 1079 04de 2EEA0809 		bic	r9, lr, r8
 1080              	.LVL135:
 188:fips202.c     ****             Eke =   BCe ^((~BCi)&  BCo );
 1081              		.loc 1 188 17 discriminator 3 view .LVU367
 1082 04e2 89EA0609 		eor	r9, r9, r6
 1083              		.loc 1 191 17 discriminator 3 view .LVU368
 1084 04e6 5340     		eors	r3, r3, r2
 1085              		.loc 1 191 33 discriminator 3 view .LVU369
 1086 04e8 26EA0C06 		bic	r6, r6, ip
 188:fips202.c     ****             Eke =   BCe ^((~BCi)&  BCo );
 1087              		.loc 1 188 17 discriminator 3 view .LVU370
 1088 04ec CDF8C8A0 		str	r10, [sp, #200]
 1089              	.LVL136:
 189:fips202.c     ****             Eki =   BCi ^((~BCo)&  BCu );
 1090              		.loc 1 189 33 discriminator 3 view .LVU371
 1091 04f0 22EA050A 		bic	r10, r2, r5
 189:fips202.c     ****             Eki =   BCi ^((~BCo)&  BCu );
 1092              		.loc 1 189 17 discriminator 3 view .LVU372
 1093 04f4 8AEA0101 		eor	r1, r10, r1
 1094              	.LVL137:
 188:fips202.c     ****             Eke =   BCe ^((~BCi)&  BCo );
 1095              		.loc 1 188 17 discriminator 3 view .LVU373
 1096 04f8 CDF8CC90 		str	r9, [sp, #204]
 1097              	.LVL138:
 189:fips202.c     ****             Eki =   BCi ^((~BCo)&  BCu );
 1098              		.loc 1 189 13 is_stmt 1 discriminator 3 view .LVU374
 1099              		.loc 1 191 17 is_stmt 0 discriminator 3 view .LVU375
 1100 04fc 3493     		str	r3, [sp, #208]
 1101              	.LVL139:
 189:fips202.c     ****             Eki =   BCi ^((~BCo)&  BCu );
 1102              		.loc 1 189 33 discriminator 3 view .LVU376
 1103 04fe 27EA0E09 		bic	r9, r7, lr
 1104              	.LVL140:
 1105              		.loc 1 191 17 discriminator 3 view .LVU377
 1106 0502 86EA0703 		eor	r3, r6, r7
 189:fips202.c     ****             Eki =   BCi ^((~BCo)&  BCu );
 1107              		.loc 1 189 17 discriminator 3 view .LVU378
 1108 0506 0E91     		str	r1, [sp, #56]
 1109              	.LVL141:
 1110              		.loc 1 191 17 discriminator 3 view .LVU379
 1111 0508 3D93     		str	r3, [sp, #244]
 189:fips202.c     ****             Eki =   BCi ^((~BCo)&  BCu );
 1112              		.loc 1 189 17 discriminator 3 view .LVU380
 1113 050a 89EA0801 		eor	r1, r9, r8
 192:fips202.c     **** 
 193:fips202.c     ****             Abu ^= Du;
 1114              		.loc 1 193 17 discriminator 3 view .LVU381
 1115 050e 099B     		ldr	r3, [sp, #36]
 189:fips202.c     ****             Eki =   BCi ^((~BCo)&  BCu );
 1116              		.loc 1 189 17 discriminator 3 view .LVU382
 1117 0510 0F91     		str	r1, [sp, #60]
 1118              	.LVL142:
 190:fips202.c     ****             Eku =   BCu ^((~BCa)&  BCe );
 1119              		.loc 1 190 13 is_stmt 1 discriminator 3 view .LVU383
 190:fips202.c     ****             Eku =   BCu ^((~BCa)&  BCe );
 1120              		.loc 1 190 33 is_stmt 0 discriminator 3 view .LVU384
 1121 0512 24EA0208 		bic	r8, r4, r2
 1122              	.LVL143:
 1123              		.loc 1 193 17 discriminator 3 view .LVU385
 1124 0516 149A     		ldr	r2, [sp, #80]
 1125              	.LVL144:
 190:fips202.c     ****             Eku =   BCu ^((~BCa)&  BCe );
 1126              		.loc 1 190 33 discriminator 3 view .LVU386
 1127 0518 2CEA0701 		bic	r1, ip, r7
 1128              	.LVL145:
 1129              		.loc 1 193 17 discriminator 3 view .LVU387
 1130 051c 83EA0207 		eor	r7, r3, r2
 1131 0520 0A9B     		ldr	r3, [sp, #40]
 1132 0522 159A     		ldr	r2, [sp, #84]
 1133 0524 83EA0206 		eor	r6, r3, r2
 194:fips202.c     ****             BCa = ROL(Abu, 27);
 195:fips202.c     ****             Aga ^= Da;
 1134              		.loc 1 195 17 discriminator 3 view .LVU388
 1135 0528 169A     		ldr	r2, [sp, #88]
 1136 052a 029B     		ldr	r3, [sp, #8]
 190:fips202.c     ****             Eku =   BCu ^((~BCa)&  BCe );
 1137              		.loc 1 190 17 discriminator 3 view .LVU389
 1138 052c 81EA0E01 		eor	r1, r1, lr
 1139              		.loc 1 195 17 discriminator 3 view .LVU390
 1140 0530 5340     		eors	r3, r3, r2
 190:fips202.c     ****             Eku =   BCu ^((~BCa)&  BCe );
 1141              		.loc 1 190 17 discriminator 3 view .LVU391
 1142 0532 2791     		str	r1, [sp, #156]
 1143              	.LVL146:
 191:fips202.c     **** 
 1144              		.loc 1 191 13 is_stmt 1 discriminator 3 view .LVU392
 193:fips202.c     ****             BCa = ROL(Abu, 27);
 1145              		.loc 1 193 13 discriminator 3 view .LVU393
 194:fips202.c     ****             BCa = ROL(Abu, 27);
 1146              		.loc 1 194 13 discriminator 3 view .LVU394
 1147              		.loc 1 195 17 is_stmt 0 discriminator 3 view .LVU395
 1148 0534 039A     		ldr	r2, [sp, #12]
 1149 0536 1799     		ldr	r1, [sp, #92]
 1150              	.LVL147:
 194:fips202.c     ****             BCa = ROL(Abu, 27);
 1151              		.loc 1 194 17 discriminator 3 view .LVU396
 1152 0538 4FEAC66E 		lsl	lr, r6, #27
 1153              	.LVL148:
 194:fips202.c     ****             BCa = ROL(Abu, 27);
 1154              		.loc 1 194 17 discriminator 3 view .LVU397
 1155 053c 4EEA571E 		orr	lr, lr, r7, lsr #5
 1156 0540 FF06     		lsls	r7, r7, #27
 1157 0542 47EA561C 		orr	ip, r7, r6, lsr #5
 1158              	.LVL149:
 1159              		.loc 1 195 13 is_stmt 1 discriminator 3 view .LVU398
 196:fips202.c     ****             BCe = ROL(Aga, 36);
 1160              		.loc 1 196 13 discriminator 3 view .LVU399
 195:fips202.c     ****             BCe = ROL(Aga, 36);
 1161              		.loc 1 195 17 is_stmt 0 discriminator 3 view .LVU400
 1162 0546 5140     		eors	r1, r1, r2
 1163              		.loc 1 196 17 discriminator 3 view .LVU401
 1164 0548 1E0F     		lsrs	r6, r3, #28
 1165 054a 46EA0116 		orr	r6, r6, r1, lsl #4
 190:fips202.c     ****             Eku =   BCu ^((~BCa)&  BCe );
 1166              		.loc 1 190 17 discriminator 3 view .LVU402
 1167 054e 88EA0505 		eor	r5, r8, r5
 1168              		.loc 1 196 17 discriminator 3 view .LVU403
 1169 0552 090F     		lsrs	r1, r1, #28
 1170 0554 41EA0311 		orr	r1, r1, r3, lsl #4
 1171              	.LVL150:
 197:fips202.c     ****             Ake ^= De;
 1172              		.loc 1 197 13 is_stmt 1 discriminator 3 view .LVU404
 198:fips202.c     ****             BCi = ROL(Ake, 10);
 1173              		.loc 1 198 13 discriminator 3 view .LVU405
 190:fips202.c     ****             Eku =   BCu ^((~BCa)&  BCe );
 1174              		.loc 1 190 17 is_stmt 0 discriminator 3 view .LVU406
 1175 0558 2695     		str	r5, [sp, #152]
 1176              	.LVL151:
 197:fips202.c     ****             Ake ^= De;
 1177              		.loc 1 197 17 discriminator 3 view .LVU407
 1178 055a 049B     		ldr	r3, [sp, #16]
 1179 055c 229A     		ldr	r2, [sp, #136]
 199:fips202.c     ****             Ami ^= Di;
 200:fips202.c     ****             BCo = ROL(Ami, 15);
 201:fips202.c     ****             Aso ^= Do;
 1180              		.loc 1 201 17 discriminator 3 view .LVU408
 1181 055e 399F     		ldr	r7, [sp, #228]
 197:fips202.c     ****             BCi = ROL(Ake, 10);
 1182              		.loc 1 197 17 discriminator 3 view .LVU409
 1183 0560 83EA0204 		eor	r4, r3, r2
 1184 0564 239A     		ldr	r2, [sp, #140]
 1185 0566 059B     		ldr	r3, [sp, #20]
 1186 0568 83EA0205 		eor	r5, r3, r2
 198:fips202.c     ****             BCi = ROL(Ake, 10);
 1187              		.loc 1 198 17 discriminator 3 view .LVU410
 1188 056c 4FEA8528 		lsl	r8, r5, #10
 1189 0570 48EA9458 		orr	r8, r8, r4, lsr #22
 1190 0574 A402     		lsls	r4, r4, #10
 1191 0576 44EA9555 		orr	r5, r4, r5, lsr #22
 1192              	.LVL152:
 199:fips202.c     ****             Ami ^= Di;
 1193              		.loc 1 199 13 is_stmt 1 discriminator 3 view .LVU411
 200:fips202.c     ****             Aso ^= Do;
 1194              		.loc 1 200 13 discriminator 3 view .LVU412
 199:fips202.c     ****             Ami ^= Di;
 1195              		.loc 1 199 17 is_stmt 0 discriminator 3 view .LVU413
 1196 057a 069A     		ldr	r2, [sp, #24]
 1197 057c 2F9C     		ldr	r4, [sp, #188]
 1198 057e 2E9B     		ldr	r3, [sp, #184]
 1199 0580 5440     		eors	r4, r4, r2
 1200 0582 8BEA0303 		eor	r3, fp, r3
 200:fips202.c     ****             Aso ^= Do;
 1201              		.loc 1 200 17 discriminator 3 view .LVU414
 1202 0586 E203     		lsls	r2, r4, #15
 1203 0588 42EA5342 		orr	r2, r2, r3, lsr #17
 1204 058c DB03     		lsls	r3, r3, #15
 1205 058e 43EA5443 		orr	r3, r3, r4, lsr #17
 1206              	.LVL153:
 1207              		.loc 1 201 13 is_stmt 1 discriminator 3 view .LVU415
 202:fips202.c     ****             BCu = ROL(Aso, 56);
 1208              		.loc 1 202 13 discriminator 3 view .LVU416
 201:fips202.c     ****             BCu = ROL(Aso, 56);
 1209              		.loc 1 201 17 is_stmt 0 discriminator 3 view .LVU417
 1210 0592 079C     		ldr	r4, [sp, #28]
 1211 0594 84EA0709 		eor	r9, r4, r7
 1212 0598 3A9F     		ldr	r7, [sp, #232]
 1213 059a 089C     		ldr	r4, [sp, #32]
 1214 059c 7C40     		eors	r4, r4, r7
 1215              		.loc 1 202 17 discriminator 3 view .LVU418
 1216 059e 4FEA1927 		lsr	r7, r9, #8
 1217 05a2 47EA0467 		orr	r7, r7, r4, lsl #24
 203:fips202.c     ****             Ema =   BCa ^((~BCe)&  BCi );
 1218              		.loc 1 203 33 discriminator 3 view .LVU419
 1219 05a6 25EA060A 		bic	r10, r5, r6
 202:fips202.c     ****             BCu = ROL(Aso, 56);
 1220              		.loc 1 202 17 discriminator 3 view .LVU420
 1221 05aa 240A     		lsrs	r4, r4, #8
 1222 05ac 44EA0964 		orr	r4, r4, r9, lsl #24
 1223              	.LVL154:
 1224              		.loc 1 203 13 is_stmt 1 discriminator 3 view .LVU421
 1225              		.loc 1 203 17 is_stmt 0 discriminator 3 view .LVU422
 1226 05b0 8AEA0C0A 		eor	r10, r10, ip
 1227              		.loc 1 203 33 discriminator 3 view .LVU423
 1228 05b4 28EA0109 		bic	r9, r8, r1
 1229              		.loc 1 203 17 discriminator 3 view .LVU424
 1230 05b8 89EA0E09 		eor	r9, r9, lr
 1231 05bc CDF8E4A0 		str	r10, [sp, #228]
 1232              	.LVL155:
 204:fips202.c     ****             Eme =   BCe ^((~BCi)&  BCo );
 1233              		.loc 1 204 33 discriminator 3 view .LVU425
 1234 05c0 23EA050A 		bic	r10, r3, r5
 1235              		.loc 1 204 17 discriminator 3 view .LVU426
 1236 05c4 8AEA060A 		eor	r10, r10, r6
 203:fips202.c     ****             Ema =   BCa ^((~BCe)&  BCi );
 1237              		.loc 1 203 17 discriminator 3 view .LVU427
 1238 05c8 CDF8E890 		str	r9, [sp, #232]
 1239              	.LVL156:
 1240              		.loc 1 204 13 is_stmt 1 discriminator 3 view .LVU428
 1241              		.loc 1 204 33 is_stmt 0 discriminator 3 view .LVU429
 1242 05cc 22EA0809 		bic	r9, r2, r8
 1243              	.LVL157:
 1244              		.loc 1 204 17 discriminator 3 view .LVU430
 1245 05d0 89EA0109 		eor	r9, r9, r1
 1246 05d4 CDF858A0 		str	r10, [sp, #88]
 1247              	.LVL158:
 205:fips202.c     ****             Emi =   BCi ^((~BCo)&  BCu );
 1248              		.loc 1 205 33 discriminator 3 view .LVU431
 1249 05d8 27EA030A 		bic	r10, r7, r3
 1250              		.loc 1 205 17 discriminator 3 view .LVU432
 1251 05dc 8AEA0505 		eor	r5, r10, r5
 1252              	.LVL159:
 204:fips202.c     ****             Eme =   BCe ^((~BCi)&  BCo );
 1253              		.loc 1 204 17 discriminator 3 view .LVU433
 1254 05e0 CDF85C90 		str	r9, [sp, #92]
 1255              	.LVL160:
 1256              		.loc 1 205 13 is_stmt 1 discriminator 3 view .LVU434
 1257              		.loc 1 205 33 is_stmt 0 discriminator 3 view .LVU435
 1258 05e4 24EA0209 		bic	r9, r4, r2
 1259              	.LVL161:
 1260              		.loc 1 205 17 discriminator 3 view .LVU436
 1261 05e8 2E95     		str	r5, [sp, #184]
 1262              	.LVL162:
 1263              		.loc 1 205 17 discriminator 3 view .LVU437
 1264 05ea 89EA0805 		eor	r5, r9, r8
 206:fips202.c     ****             Emo =   BCo ^((~BCu)&  BCa );
 1265              		.loc 1 206 33 discriminator 3 view .LVU438
 1266 05ee 2CEA0708 		bic	r8, ip, r7
 1267              	.LVL163:
 1268              		.loc 1 206 17 discriminator 3 view .LVU439
 1269 05f2 88EA0303 		eor	r3, r8, r3
 1270              	.LVL164:
 205:fips202.c     ****             Emi =   BCi ^((~BCo)&  BCu );
 1271              		.loc 1 205 17 discriminator 3 view .LVU440
 1272 05f6 2F95     		str	r5, [sp, #188]
 1273              	.LVL165:
 1274              		.loc 1 206 13 is_stmt 1 discriminator 3 view .LVU441
 1275              		.loc 1 206 33 is_stmt 0 discriminator 3 view .LVU442
 1276 05f8 2EEA0405 		bic	r5, lr, r4
 1277              	.LVL166:
 207:fips202.c     ****             Emu =   BCu ^((~BCa)&  BCe );
 1278              		.loc 1 207 33 discriminator 3 view .LVU443
 1279 05fc 26EA0C0C 		bic	ip, r6, ip
 1280              	.LVL167:
 206:fips202.c     ****             Emo =   BCo ^((~BCu)&  BCa );
 1281              		.loc 1 206 17 discriminator 3 view .LVU444
 1282 0600 1493     		str	r3, [sp, #80]
 1283              	.LVL168:
 206:fips202.c     ****             Emo =   BCo ^((~BCu)&  BCa );
 1284              		.loc 1 206 17 discriminator 3 view .LVU445
 1285 0602 85EA0203 		eor	r3, r5, r2
 1286              		.loc 1 207 33 discriminator 3 view .LVU446
 1287 0606 21EA0E01 		bic	r1, r1, lr
 1288              	.LVL169:
 206:fips202.c     ****             Emo =   BCo ^((~BCu)&  BCa );
 1289              		.loc 1 206 17 discriminator 3 view .LVU447
 1290 060a 1593     		str	r3, [sp, #84]
 1291              	.LVL170:
 1292              		.loc 1 207 13 is_stmt 1 discriminator 3 view .LVU448
 1293              		.loc 1 207 17 is_stmt 0 discriminator 3 view .LVU449
 1294 060c 8CEA0703 		eor	r3, ip, r7
 1295              	.LVL171:
 1296              		.loc 1 207 17 discriminator 3 view .LVU450
 1297 0610 2293     		str	r3, [sp, #136]
 1298              	.LVL172:
 1299              		.loc 1 207 17 discriminator 3 view .LVU451
 1300 0612 81EA0403 		eor	r3, r1, r4
 1301 0616 2393     		str	r3, [sp, #140]
 1302              	.LVL173:
 208:fips202.c     **** 
 209:fips202.c     ****             Abi ^= Di;
 1303              		.loc 1 209 13 is_stmt 1 discriminator 3 view .LVU452
 210:fips202.c     ****             BCa = ROL(Abi, 62);
 1304              		.loc 1 210 13 discriminator 3 view .LVU453
 209:fips202.c     ****             BCa = ROL(Abi, 62);
 1305              		.loc 1 209 17 is_stmt 0 discriminator 3 view .LVU454
 1306 0618 109B     		ldr	r3, [sp, #64]
 1307              	.LVL174:
 209:fips202.c     ****             BCa = ROL(Abi, 62);
 1308              		.loc 1 209 17 discriminator 3 view .LVU455
 1309 061a 119A     		ldr	r2, [sp, #68]
 1310 061c 8BEA0309 		eor	r9, fp, r3
 1311 0620 069B     		ldr	r3, [sp, #24]
 1312 0622 83EA020A 		eor	r10, r3, r2
 211:fips202.c     ****             Ago ^= Do;
 1313              		.loc 1 211 17 discriminator 3 view .LVU456
 1314 0626 079B     		ldr	r3, [sp, #28]
 1315 0628 1C9A     		ldr	r2, [sp, #112]
 1316 062a 83EA020C 		eor	ip, r3, r2
 1317 062e 089B     		ldr	r3, [sp, #32]
 1318 0630 1D9A     		ldr	r2, [sp, #116]
 1319 0632 83EA0207 		eor	r7, r3, r2
 1320              	.LVL175:
 212:fips202.c     ****             BCe = ROL(Ago, 55);
 213:fips202.c     ****             Aku ^= Du;
 1321              		.loc 1 213 17 discriminator 3 view .LVU457
 1322 0636 099B     		ldr	r3, [sp, #36]
 1323 0638 289A     		ldr	r2, [sp, #160]
 1324 063a 83EA0204 		eor	r4, r3, r2
 1325 063e 299A     		ldr	r2, [sp, #164]
 1326 0640 0A9B     		ldr	r3, [sp, #40]
 1327 0642 83EA0201 		eor	r1, r3, r2
 214:fips202.c     ****             BCi = ROL(Aku, 39);
 215:fips202.c     ****             Ama ^= Da;
 1328              		.loc 1 215 17 discriminator 3 view .LVU458
 1329 0646 029B     		ldr	r3, [sp, #8]
 1330 0648 2A9A     		ldr	r2, [sp, #168]
 210:fips202.c     ****             Ago ^= Do;
 1331              		.loc 1 210 17 discriminator 3 view .LVU459
 1332 064a 4FEA9906 		lsr	r6, r9, #2
 1333              		.loc 1 215 17 discriminator 3 view .LVU460
 1334 064e 83EA020B 		eor	fp, r3, r2
 1335              	.LVL176:
 212:fips202.c     ****             BCe = ROL(Ago, 55);
 1336              		.loc 1 212 17 discriminator 3 view .LVU461
 1337 0652 4FEA5C2E 		lsr	lr, ip, #9
 1338              		.loc 1 215 17 discriminator 3 view .LVU462
 1339 0656 2B9A     		ldr	r2, [sp, #172]
 1340 0658 039B     		ldr	r3, [sp, #12]
 210:fips202.c     ****             Ago ^= Do;
 1341              		.loc 1 210 17 discriminator 3 view .LVU463
 1342 065a 46EA8A76 		orr	r6, r6, r10, lsl #30
 212:fips202.c     ****             BCe = ROL(Ago, 55);
 1343              		.loc 1 212 17 discriminator 3 view .LVU464
 1344 065e 4EEAC75E 		orr	lr, lr, r7, lsl #23
 210:fips202.c     ****             Ago ^= Do;
 1345              		.loc 1 210 17 discriminator 3 view .LVU465
 1346 0662 4FEA9A0A 		lsr	r10, r10, #2
 212:fips202.c     ****             BCe = ROL(Ago, 55);
 1347              		.loc 1 212 17 discriminator 3 view .LVU466
 1348 0666 7F0A     		lsrs	r7, r7, #9
 1349 0668 47EACC55 		orr	r5, r7, ip, lsl #23
 210:fips202.c     ****             Ago ^= Do;
 1350              		.loc 1 210 17 discriminator 3 view .LVU467
 1351 066c 4AEA8979 		orr	r9, r10, r9, lsl #30
 1352              	.LVL177:
 211:fips202.c     ****             BCe = ROL(Ago, 55);
 1353              		.loc 1 211 13 is_stmt 1 discriminator 3 view .LVU468
 212:fips202.c     ****             Aku ^= Du;
 1354              		.loc 1 212 13 discriminator 3 view .LVU469
 213:fips202.c     ****             BCi = ROL(Aku, 39);
 1355              		.loc 1 213 13 discriminator 3 view .LVU470
 214:fips202.c     ****             Ama ^= Da;
 1356              		.loc 1 214 13 discriminator 3 view .LVU471
 214:fips202.c     ****             Ama ^= Da;
 1357              		.loc 1 214 17 is_stmt 0 discriminator 3 view .LVU472
 1358 0670 4FEA546C 		lsr	ip, r4, #25
 1359              		.loc 1 215 17 discriminator 3 view .LVU473
 1360 0674 83EA020A 		eor	r10, r3, r2
 216:fips202.c     ****             BCo = ROL(Ama, 41);
 217:fips202.c     ****             Ase ^= De;
 1361              		.loc 1 217 17 discriminator 3 view .LVU474
 1362 0678 359A     		ldr	r2, [sp, #212]
 1363 067a 049B     		ldr	r3, [sp, #16]
 214:fips202.c     ****             Ama ^= Da;
 1364              		.loc 1 214 17 discriminator 3 view .LVU475
 1365 067c 4CEAC11C 		orr	ip, ip, r1, lsl #7
 216:fips202.c     ****             BCo = ROL(Ama, 41);
 1366              		.loc 1 216 17 discriminator 3 view .LVU476
 1367 0680 4FEADA57 		lsr	r7, r10, #23
 214:fips202.c     ****             Ama ^= Da;
 1368              		.loc 1 214 17 discriminator 3 view .LVU477
 1369 0684 490E     		lsrs	r1, r1, #25
 1370 0686 41EAC418 		orr	r8, r1, r4, lsl #7
 1371              	.LVL178:
 215:fips202.c     ****             BCo = ROL(Ama, 41);
 1372              		.loc 1 215 13 is_stmt 1 discriminator 3 view .LVU478
 216:fips202.c     ****             BCo = ROL(Ama, 41);
 1373              		.loc 1 216 13 discriminator 3 view .LVU479
 216:fips202.c     ****             BCo = ROL(Ama, 41);
 1374              		.loc 1 216 17 is_stmt 0 discriminator 3 view .LVU480
 1375 068a 47EA4B27 		orr	r7, r7, fp, lsl #9
 1376 068e 4FEADB51 		lsr	r1, fp, #23
 1377              		.loc 1 217 17 discriminator 3 view .LVU481
 1378 0692 83EA020B 		eor	fp, r3, r2
 1379 0696 369A     		ldr	r2, [sp, #216]
 1380 0698 059B     		ldr	r3, [sp, #20]
 216:fips202.c     ****             BCo = ROL(Ama, 41);
 1381              		.loc 1 216 17 discriminator 3 view .LVU482
 1382 069a 41EA4A21 		orr	r1, r1, r10, lsl #9
 1383              	.LVL179:
 1384              		.loc 1 217 13 is_stmt 1 discriminator 3 view .LVU483
 218:fips202.c     ****             BCu = ROL(Ase,  2);
 1385              		.loc 1 218 13 discriminator 3 view .LVU484
 217:fips202.c     ****             BCu = ROL(Ase,  2);
 1386              		.loc 1 217 17 is_stmt 0 discriminator 3 view .LVU485
 1387 069e 83EA020A 		eor	r10, r3, r2
 1388              		.loc 1 218 17 discriminator 3 view .LVU486
 1389 06a2 4FEA8B03 		lsl	r3, fp, #2
 1390 06a6 43EA9A72 		orr	r2, r3, r10, lsr #30
 219:fips202.c     ****             Esa =   BCa ^((~BCe)&  BCi );
 1391              		.loc 1 219 33 discriminator 3 view .LVU487
 1392 06aa 28EA0503 		bic	r3, r8, r5
 1393              		.loc 1 219 17 discriminator 3 view .LVU488
 1394 06ae 83EA0903 		eor	r3, r3, r9
 218:fips202.c     ****             BCu = ROL(Ase,  2);
 1395              		.loc 1 218 17 discriminator 3 view .LVU489
 1396 06b2 4FEA8A04 		lsl	r4, r10, #2
 1397              		.loc 1 219 33 discriminator 3 view .LVU490
 1398 06b6 2CEA0E0A 		bic	r10, ip, lr
 1399              		.loc 1 219 17 discriminator 3 view .LVU491
 1400 06ba 8AEA060A 		eor	r10, r10, r6
 1401 06be 2993     		str	r3, [sp, #164]
 220:fips202.c     ****             Ese =   BCe ^((~BCi)&  BCo );
 1402              		.loc 1 220 33 discriminator 3 view .LVU492
 1403 06c0 21EA0C03 		bic	r3, r1, ip
 219:fips202.c     ****             Esa =   BCa ^((~BCe)&  BCi );
 1404              		.loc 1 219 17 discriminator 3 view .LVU493
 1405 06c4 CDF8A0A0 		str	r10, [sp, #160]
 1406              		.loc 1 220 17 discriminator 3 view .LVU494
 1407 06c8 83EA0E03 		eor	r3, r3, lr
 1408              		.loc 1 220 33 discriminator 3 view .LVU495
 1409 06cc 27EA080A 		bic	r10, r7, r8
 218:fips202.c     ****             Esa =   BCa ^((~BCe)&  BCi );
 1410              		.loc 1 218 17 discriminator 3 view .LVU496
 1411 06d0 44EA9B74 		orr	r4, r4, fp, lsr #30
 1412              	.LVL180:
 219:fips202.c     ****             Esa =   BCa ^((~BCe)&  BCi );
 1413              		.loc 1 219 13 is_stmt 1 discriminator 3 view .LVU497
 1414              		.loc 1 220 13 discriminator 3 view .LVU498
 1415              		.loc 1 220 17 is_stmt 0 discriminator 3 view .LVU499
 1416 06d4 3593     		str	r3, [sp, #212]
 1417              	.LVL181:
 1418              		.loc 1 220 17 discriminator 3 view .LVU500
 1419 06d6 8AEA0503 		eor	r3, r10, r5
 1420 06da 3693     		str	r3, [sp, #216]
 1421              	.LVL182:
 221:fips202.c     ****             Esi =   BCi ^((~BCo)&  BCu );
 1422              		.loc 1 221 13 is_stmt 1 discriminator 3 view .LVU501
 1423              		.loc 1 221 33 is_stmt 0 discriminator 3 view .LVU502
 1424 06dc 24EA0703 		bic	r3, r4, r7
 1425              	.LVL183:
 1426              		.loc 1 221 17 discriminator 3 view .LVU503
 1427 06e0 83EA0803 		eor	r3, r3, r8
 1428 06e4 1D93     		str	r3, [sp, #116]
 1429              	.LVL184:
 222:fips202.c     ****             Eso =   BCo ^((~BCu)&  BCa );
 1430              		.loc 1 222 13 is_stmt 1 discriminator 3 view .LVU504
 1431              		.loc 1 222 33 is_stmt 0 discriminator 3 view .LVU505
 1432 06e6 29EA0403 		bic	r3, r9, r4
 1433              	.LVL185:
 1434              		.loc 1 222 17 discriminator 3 view .LVU506
 1435 06ea 7B40     		eors	r3, r3, r7
 1436 06ec 2B93     		str	r3, [sp, #172]
 1437              	.LVL186:
 223:fips202.c     ****             Esu =   BCu ^((~BCa)&  BCe );
 1438              		.loc 1 223 13 is_stmt 1 discriminator 3 view .LVU507
 1439              		.loc 1 223 33 is_stmt 0 discriminator 3 view .LVU508
 1440 06ee 2EEA0603 		bic	r3, lr, r6
 1441              	.LVL187:
 221:fips202.c     ****             Esi =   BCi ^((~BCo)&  BCu );
 1442              		.loc 1 221 33 discriminator 3 view .LVU509
 1443 06f2 22EA010A 		bic	r10, r2, r1
 1444              		.loc 1 223 33 discriminator 3 view .LVU510
 1445 06f6 25EA0909 		bic	r9, r5, r9
 1446              	.LVL188:
 1447              		.loc 1 223 17 discriminator 3 view .LVU511
 1448 06fa 5340     		eors	r3, r3, r2
 221:fips202.c     ****             Esi =   BCi ^((~BCo)&  BCu );
 1449              		.loc 1 221 17 discriminator 3 view .LVU512
 1450 06fc 8AEA0C0C 		eor	ip, r10, ip
 1451              	.LVL189:
 1452              		.loc 1 223 17 discriminator 3 view .LVU513
 1453 0700 1093     		str	r3, [sp, #64]
 1454 0702 89EA0403 		eor	r3, r9, r4
 221:fips202.c     ****             Esi =   BCi ^((~BCo)&  BCu );
 1455              		.loc 1 221 17 discriminator 3 view .LVU514
 1456 0706 CDF870C0 		str	ip, [sp, #112]
 1457              	.LVL190:
 1458              		.loc 1 223 17 discriminator 3 view .LVU515
 1459 070a 1193     		str	r3, [sp, #68]
 1460              	.LVL191:
 224:fips202.c     **** 
 225:fips202.c     ****             //    prepareTheta
 226:fips202.c     ****             BCa = Eba^Ega^Eka^Ema^Esa;
 1461              		.loc 1 226 13 is_stmt 1 discriminator 3 view .LVU516
 222:fips202.c     ****             Esu =   BCu ^((~BCa)&  BCe );
 1462              		.loc 1 222 33 is_stmt 0 discriminator 3 view .LVU517
 1463 070c 26EA020C 		bic	ip, r6, r2
 1464              		.loc 1 226 17 discriminator 3 view .LVU518
 1465 0710 0C9B     		ldr	r3, [sp, #48]
 1466              	.LVL192:
 1467              		.loc 1 226 17 discriminator 3 view .LVU519
 1468 0712 2C9A     		ldr	r2, [sp, #176]
 1469              	.LVL193:
 222:fips202.c     ****             Esu =   BCu ^((~BCa)&  BCe );
 1470              		.loc 1 222 17 discriminator 3 view .LVU520
 1471 0714 8CEA0101 		eor	r1, ip, r1
 1472              	.LVL194:
 222:fips202.c     ****             Esu =   BCu ^((~BCa)&  BCe );
 1473              		.loc 1 222 17 discriminator 3 view .LVU521
 1474 0718 2A91     		str	r1, [sp, #168]
 1475              	.LVL195:
 1476              		.loc 1 226 17 discriminator 3 view .LVU522
 1477 071a 5A40     		eors	r2, r2, r3
 1478 071c 2D99     		ldr	r1, [sp, #180]
 1479 071e 0D9B     		ldr	r3, [sp, #52]
 1480 0720 83EA0106 		eor	r6, r3, r1
 1481              		.loc 1 226 17 discriminator 3 view .LVU523
 1482 0724 1A99     		ldr	r1, [sp, #104]
 227:fips202.c     ****             BCe = Ebe^Ege^Eke^Eme^Ese;
 1483              		.loc 1 227 22 discriminator 3 view .LVU524
 1484 0726 249B     		ldr	r3, [sp, #144]
 226:fips202.c     ****             BCe = Ebe^Ege^Eke^Eme^Ese;
 1485              		.loc 1 226 17 discriminator 3 view .LVU525
 1486 0728 4A40     		eors	r2, r2, r1
 1487 072a 1B99     		ldr	r1, [sp, #108]
 1488 072c 4E40     		eors	r6, r6, r1
 1489 072e 3999     		ldr	r1, [sp, #228]
 1490 0730 4A40     		eors	r2, r2, r1
 1491 0732 3A99     		ldr	r1, [sp, #232]
 1492 0734 4E40     		eors	r6, r6, r1
 1493 0736 2899     		ldr	r1, [sp, #160]
 1494 0738 4A40     		eors	r2, r2, r1
 1495 073a 2999     		ldr	r1, [sp, #164]
 1496 073c 4E40     		eors	r6, r6, r1
 1497              	.LVL196:
 1498              		.loc 1 227 13 is_stmt 1 discriminator 3 view .LVU526
 1499              		.loc 1 227 22 is_stmt 0 discriminator 3 view .LVU527
 1500 073e 1299     		ldr	r1, [sp, #72]
 1501 0740 83EA0109 		eor	r9, r3, r1
 1502 0744 1399     		ldr	r1, [sp, #76]
 1503 0746 259B     		ldr	r3, [sp, #148]
 1504 0748 83EA0108 		eor	r8, r3, r1
 1505              		.loc 1 227 26 discriminator 3 view .LVU528
 1506 074c 329B     		ldr	r3, [sp, #200]
 228:fips202.c     ****             BCi = Ebi^Egi^Eki^Emi^Esi;
 1507              		.loc 1 228 22 discriminator 3 view .LVU529
 1508 074e 2099     		ldr	r1, [sp, #128]
 229:fips202.c     ****             BCo = Ebo^Ego^Eko^Emo^Eso;
 230:fips202.c     ****             BCu = Ebu^Egu^Eku^Emu^Esu;
 1509              		.loc 1 230 26 discriminator 3 view .LVU530
 1510 0750 DDF8F4E0 		ldr	lr, [sp, #244]
 1511              	.LVL197:
 227:fips202.c     ****             BCi = Ebi^Egi^Eki^Emi^Esi;
 1512              		.loc 1 227 26 discriminator 3 view .LVU531
 1513 0754 89EA0309 		eor	r9, r9, r3
 1514 0758 339B     		ldr	r3, [sp, #204]
 1515 075a 88EA0308 		eor	r8, r8, r3
 227:fips202.c     ****             BCi = Ebi^Egi^Eki^Emi^Esi;
 1516              		.loc 1 227 30 discriminator 3 view .LVU532
 1517 075e 169B     		ldr	r3, [sp, #88]
 1518 0760 89EA0309 		eor	r9, r9, r3
 1519 0764 179B     		ldr	r3, [sp, #92]
 1520 0766 88EA0308 		eor	r8, r8, r3
 227:fips202.c     ****             BCi = Ebi^Egi^Eki^Emi^Esi;
 1521              		.loc 1 227 17 discriminator 3 view .LVU533
 1522 076a 359B     		ldr	r3, [sp, #212]
 1523 076c 89EA0309 		eor	r9, r9, r3
 1524 0770 369B     		ldr	r3, [sp, #216]
 1525 0772 88EA0308 		eor	r8, r8, r3
 1526              	.LVL198:
 228:fips202.c     ****             BCi = Ebi^Egi^Eki^Emi^Esi;
 1527              		.loc 1 228 13 is_stmt 1 discriminator 3 view .LVU534
 228:fips202.c     ****             BCi = Ebi^Egi^Eki^Emi^Esi;
 1528              		.loc 1 228 22 is_stmt 0 discriminator 3 view .LVU535
 1529 0776 3B9B     		ldr	r3, [sp, #236]
 1530 0778 83EA010C 		eor	ip, r3, r1
 1531 077c 3C9B     		ldr	r3, [sp, #240]
 1532 077e 2199     		ldr	r1, [sp, #132]
 1533 0780 83EA0107 		eor	r7, r3, r1
 228:fips202.c     ****             BCi = Ebi^Egi^Eki^Emi^Esi;
 1534              		.loc 1 228 26 discriminator 3 view .LVU536
 1535 0784 0E9B     		ldr	r3, [sp, #56]
 1536 0786 0F99     		ldr	r1, [sp, #60]
 1537 0788 8CEA030C 		eor	ip, ip, r3
 1538 078c 4F40     		eors	r7, r7, r1
 228:fips202.c     ****             BCi = Ebi^Egi^Eki^Emi^Esi;
 1539              		.loc 1 228 30 discriminator 3 view .LVU537
 1540 078e 2E9B     		ldr	r3, [sp, #184]
 1541 0790 2F99     		ldr	r1, [sp, #188]
 1542 0792 8CEA030C 		eor	ip, ip, r3
 1543 0796 4F40     		eors	r7, r7, r1
 228:fips202.c     ****             BCi = Ebi^Egi^Eki^Emi^Esi;
 1544              		.loc 1 228 17 discriminator 3 view .LVU538
 1545 0798 1C9B     		ldr	r3, [sp, #112]
 1546 079a 1D99     		ldr	r1, [sp, #116]
 1547 079c 8CEA030C 		eor	ip, ip, r3
 1548 07a0 4F40     		eors	r7, r7, r1
 1549              	.LVL199:
 229:fips202.c     ****             BCo = Ebo^Ego^Eko^Emo^Eso;
 1550              		.loc 1 229 13 is_stmt 1 discriminator 3 view .LVU539
 229:fips202.c     ****             BCo = Ebo^Ego^Eko^Emo^Eso;
 1551              		.loc 1 229 22 is_stmt 0 discriminator 3 view .LVU540
 1552 07a2 189B     		ldr	r3, [sp, #96]
 1553 07a4 3799     		ldr	r1, [sp, #220]
 1554 07a6 83EA0105 		eor	r5, r3, r1
 1555 07aa 199B     		ldr	r3, [sp, #100]
 1556 07ac 3899     		ldr	r1, [sp, #224]
 1557 07ae 83EA0104 		eor	r4, r3, r1
 229:fips202.c     ****             BCo = Ebo^Ego^Eko^Emo^Eso;
 1558              		.loc 1 229 26 discriminator 3 view .LVU541
 1559 07b2 2699     		ldr	r1, [sp, #152]
 1560              		.loc 1 230 26 discriminator 3 view .LVU542
 1561 07b4 1E9B     		ldr	r3, [sp, #120]
 229:fips202.c     ****             BCo = Ebo^Ego^Eko^Emo^Eso;
 1562              		.loc 1 229 26 discriminator 3 view .LVU543
 1563 07b6 4D40     		eors	r5, r5, r1
 1564 07b8 2799     		ldr	r1, [sp, #156]
 1565 07ba 4C40     		eors	r4, r4, r1
 229:fips202.c     ****             BCo = Ebo^Ego^Eko^Emo^Eso;
 1566              		.loc 1 229 30 discriminator 3 view .LVU544
 1567 07bc 1499     		ldr	r1, [sp, #80]
 1568 07be 4D40     		eors	r5, r5, r1
 1569 07c0 1599     		ldr	r1, [sp, #84]
 1570 07c2 4C40     		eors	r4, r4, r1
 229:fips202.c     ****             BCo = Ebo^Ego^Eko^Emo^Eso;
 1571              		.loc 1 229 17 discriminator 3 view .LVU545
 1572 07c4 2A99     		ldr	r1, [sp, #168]
 1573 07c6 4D40     		eors	r5, r5, r1
 1574 07c8 2B99     		ldr	r1, [sp, #172]
 1575 07ca 4C40     		eors	r4, r4, r1
 1576              	.LVL200:
 1577              		.loc 1 230 13 is_stmt 1 discriminator 3 view .LVU546
 1578              		.loc 1 230 26 is_stmt 0 discriminator 3 view .LVU547
 1579 07cc 3499     		ldr	r1, [sp, #208]
 1580 07ce 5940     		eors	r1, r1, r3
 1581 07d0 1F9B     		ldr	r3, [sp, #124]
 1582 07d2 83EA0E0E 		eor	lr, r3, lr
 1583 07d6 309B     		ldr	r3, [sp, #192]
 1584 07d8 5940     		eors	r1, r1, r3
 1585 07da 319B     		ldr	r3, [sp, #196]
 1586 07dc 8EEA030E 		eor	lr, lr, r3
 1587              		.loc 1 230 30 discriminator 3 view .LVU548
 1588 07e0 229B     		ldr	r3, [sp, #136]
 1589 07e2 5940     		eors	r1, r1, r3
 1590 07e4 239B     		ldr	r3, [sp, #140]
 1591 07e6 8EEA030E 		eor	lr, lr, r3
 1592              		.loc 1 230 17 discriminator 3 view .LVU549
 1593 07ea 109B     		ldr	r3, [sp, #64]
 231:fips202.c     **** 
 232:fips202.c     ****             //thetaRhoPiChiIotaPrepareTheta(round+1, E, A)
 233:fips202.c     ****             Da = BCu^ROL(BCe, 1);
 1594              		.loc 1 233 22 discriminator 3 view .LVU550
 1595 07ec 4FEA490B 		lsl	fp, r9, #1
 230:fips202.c     **** 
 1596              		.loc 1 230 17 discriminator 3 view .LVU551
 1597 07f0 5940     		eors	r1, r1, r3
 1598 07f2 119B     		ldr	r3, [sp, #68]
 1599              		.loc 1 233 22 discriminator 3 view .LVU552
 1600 07f4 4BEAD87B 		orr	fp, fp, r8, lsr #31
 1601 07f8 4FEA480A 		lsl	r10, r8, #1
 230:fips202.c     **** 
 1602              		.loc 1 230 17 discriminator 3 view .LVU553
 1603 07fc 8EEA030E 		eor	lr, lr, r3
 1604              	.LVL201:
 1605              		.loc 1 233 13 is_stmt 1 discriminator 3 view .LVU554
 1606              		.loc 1 233 22 is_stmt 0 discriminator 3 view .LVU555
 1607 0800 4AEAD97A 		orr	r10, r10, r9, lsr #31
 1608              		.loc 1 233 16 discriminator 3 view .LVU556
 1609 0804 8BEA0103 		eor	r3, fp, r1
 234:fips202.c     ****             De = BCa^ROL(BCi, 1);
 1610              		.loc 1 234 22 discriminator 3 view .LVU557
 1611 0808 4FEA4C0B 		lsl	fp, ip, #1
 233:fips202.c     ****             De = BCa^ROL(BCi, 1);
 1612              		.loc 1 233 16 discriminator 3 view .LVU558
 1613 080c 0293     		str	r3, [sp, #8]
 1614              	.LVL202:
 1615              		.loc 1 234 22 discriminator 3 view .LVU559
 1616 080e 4BEAD77B 		orr	fp, fp, r7, lsr #31
 233:fips202.c     ****             De = BCa^ROL(BCi, 1);
 1617              		.loc 1 233 16 discriminator 3 view .LVU560
 1618 0812 8AEA0E03 		eor	r3, r10, lr
 1619              		.loc 1 234 22 discriminator 3 view .LVU561
 1620 0816 4FEA470A 		lsl	r10, r7, #1
 233:fips202.c     ****             De = BCa^ROL(BCi, 1);
 1621              		.loc 1 233 16 discriminator 3 view .LVU562
 1622 081a 0393     		str	r3, [sp, #12]
 1623              	.LVL203:
 1624              		.loc 1 234 13 is_stmt 1 discriminator 3 view .LVU563
 1625              		.loc 1 234 22 is_stmt 0 discriminator 3 view .LVU564
 1626 081c 4AEADC7A 		orr	r10, r10, ip, lsr #31
 1627              		.loc 1 234 16 discriminator 3 view .LVU565
 1628 0820 8BEA0203 		eor	r3, fp, r2
 1629              	.LVL204:
 235:fips202.c     ****             Di = BCe^ROL(BCo, 1);
 1630              		.loc 1 235 22 discriminator 3 view .LVU566
 1631 0824 4FEA450B 		lsl	fp, r5, #1
 234:fips202.c     ****             De = BCa^ROL(BCi, 1);
 1632              		.loc 1 234 16 discriminator 3 view .LVU567
 1633 0828 0493     		str	r3, [sp, #16]
 1634              	.LVL205:
 1635              		.loc 1 235 22 discriminator 3 view .LVU568
 1636 082a 4BEAD47B 		orr	fp, fp, r4, lsr #31
 234:fips202.c     ****             De = BCa^ROL(BCi, 1);
 1637              		.loc 1 234 16 discriminator 3 view .LVU569
 1638 082e 8AEA0603 		eor	r3, r10, r6
 1639              		.loc 1 235 22 discriminator 3 view .LVU570
 1640 0832 4FEA440A 		lsl	r10, r4, #1
 234:fips202.c     ****             De = BCa^ROL(BCi, 1);
 1641              		.loc 1 234 16 discriminator 3 view .LVU571
 1642 0836 0593     		str	r3, [sp, #20]
 1643              	.LVL206:
 1644              		.loc 1 235 13 is_stmt 1 discriminator 3 view .LVU572
 1645              		.loc 1 235 22 is_stmt 0 discriminator 3 view .LVU573
 1646 0838 4AEAD57A 		orr	r10, r10, r5, lsr #31
 1647              		.loc 1 235 16 discriminator 3 view .LVU574
 1648 083c 8BEA0903 		eor	r3, fp, r9
 1649              	.LVL207:
 1650              		.loc 1 235 16 discriminator 3 view .LVU575
 1651 0840 0693     		str	r3, [sp, #24]
 1652 0842 8AEA0803 		eor	r3, r10, r8
 236:fips202.c     ****             Do = BCi^ROL(BCu, 1);
 1653              		.loc 1 236 22 discriminator 3 view .LVU576
 1654 0846 4FEA4E08 		lsl	r8, lr, #1
 1655              	.LVL208:
 1656              		.loc 1 236 22 discriminator 3 view .LVU577
 1657 084a 48EAD178 		orr	r8, r8, r1, lsr #31
 1658 084e 4900     		lsls	r1, r1, #1
 1659              	.LVL209:
 1660              		.loc 1 236 22 discriminator 3 view .LVU578
 1661 0850 41EADE71 		orr	r1, r1, lr, lsr #31
 235:fips202.c     ****             Di = BCe^ROL(BCo, 1);
 1662              		.loc 1 235 16 discriminator 3 view .LVU579
 1663 0854 0793     		str	r3, [sp, #28]
 1664              	.LVL210:
 1665              		.loc 1 236 13 is_stmt 1 discriminator 3 view .LVU580
 1666              		.loc 1 236 16 is_stmt 0 discriminator 3 view .LVU581
 1667 0856 81EA0C03 		eor	r3, r1, ip
 1668              	.LVL211:
 1669              		.loc 1 236 16 discriminator 3 view .LVU582
 1670 085a 0893     		str	r3, [sp, #32]
 1671 085c 88EA0703 		eor	r3, r8, r7
 237:fips202.c     ****             Du = BCo^ROL(BCa, 1);
 1672              		.loc 1 237 22 discriminator 3 view .LVU583
 1673 0860 7700     		lsls	r7, r6, #1
 1674              	.LVL212:
 1675              		.loc 1 237 22 discriminator 3 view .LVU584
 1676 0862 47EAD277 		orr	r7, r7, r2, lsr #31
 1677 0866 5200     		lsls	r2, r2, #1
 1678              	.LVL213:
 1679              		.loc 1 237 22 discriminator 3 view .LVU585
 1680 0868 42EAD672 		orr	r2, r2, r6, lsr #31
 236:fips202.c     ****             Do = BCi^ROL(BCu, 1);
 1681              		.loc 1 236 16 discriminator 3 view .LVU586
 1682 086c 0993     		str	r3, [sp, #36]
 1683              	.LVL214:
 1684              		.loc 1 237 13 is_stmt 1 discriminator 3 view .LVU587
 1685              		.loc 1 237 16 is_stmt 0 discriminator 3 view .LVU588
 1686 086e 82EA0503 		eor	r3, r2, r5
 1687              	.LVL215:
 1688              		.loc 1 237 16 discriminator 3 view .LVU589
 1689 0872 0A93     		str	r3, [sp, #40]
 1690 0874 87EA0403 		eor	r3, r7, r4
 238:fips202.c     **** 
 239:fips202.c     ****             Eba ^= Da;
 1691              		.loc 1 239 17 discriminator 3 view .LVU590
 1692 0878 029A     		ldr	r2, [sp, #8]
 237:fips202.c     ****             Du = BCo^ROL(BCa, 1);
 1693              		.loc 1 237 16 discriminator 3 view .LVU591
 1694 087a 0B93     		str	r3, [sp, #44]
 1695              	.LVL216:
 1696              		.loc 1 239 13 is_stmt 1 discriminator 3 view .LVU592
 1697              		.loc 1 239 17 is_stmt 0 discriminator 3 view .LVU593
 1698 087c 0C9B     		ldr	r3, [sp, #48]
 1699              	.LVL217:
 1700              		.loc 1 239 17 discriminator 3 view .LVU594
 1701 087e 83EA0207 		eor	r7, r3, r2
 1702 0882 0D9B     		ldr	r3, [sp, #52]
 1703 0884 039A     		ldr	r2, [sp, #12]
 1704 0886 83EA020B 		eor	fp, r3, r2
 1705              	.LVL218:
 240:fips202.c     ****             BCa = Eba;
 1706              		.loc 1 240 13 is_stmt 1 discriminator 3 view .LVU595
 241:fips202.c     ****             Ege ^= De;
 1707              		.loc 1 241 13 discriminator 3 view .LVU596
 242:fips202.c     ****             BCe = ROL(Ege, 44);
 1708              		.loc 1 242 13 discriminator 3 view .LVU597
 241:fips202.c     ****             Ege ^= De;
 1709              		.loc 1 241 17 is_stmt 0 discriminator 3 view .LVU598
 1710 088a 129B     		ldr	r3, [sp, #72]
 1711 088c 049A     		ldr	r2, [sp, #16]
 1712 088e 83EA020A 		eor	r10, r3, r2
 1713 0892 139B     		ldr	r3, [sp, #76]
 1714 0894 059A     		ldr	r2, [sp, #20]
 1715              		.loc 1 242 17 discriminator 3 view .LVU599
 1716 0896 4FEA1A54 		lsr	r4, r10, #20
 1717              	.LVL219:
 241:fips202.c     ****             Ege ^= De;
 1718              		.loc 1 241 17 discriminator 3 view .LVU600
 1719 089a 83EA0206 		eor	r6, r3, r2
 243:fips202.c     ****             Eki ^= Di;
 1720              		.loc 1 243 17 discriminator 3 view .LVU601
 1721 089e 0E9B     		ldr	r3, [sp, #56]
 1722 08a0 069A     		ldr	r2, [sp, #24]
 242:fips202.c     ****             BCe = ROL(Ege, 44);
 1723              		.loc 1 242 17 discriminator 3 view .LVU602
 1724 08a2 44EA0634 		orr	r4, r4, r6, lsl #12
 1725 08a6 360D     		lsrs	r6, r6, #20
 1726 08a8 46EA0A36 		orr	r6, r6, r10, lsl #12
 1727              	.LVL220:
 1728              		.loc 1 243 13 is_stmt 1 discriminator 3 view .LVU603
 244:fips202.c     ****             BCi = ROL(Eki, 43);
 1729              		.loc 1 244 13 discriminator 3 view .LVU604
 243:fips202.c     ****             Eki ^= Di;
 1730              		.loc 1 243 17 is_stmt 0 discriminator 3 view .LVU605
 1731 08ac 83EA020A 		eor	r10, r3, r2
 1732 08b0 0F9B     		ldr	r3, [sp, #60]
 1733 08b2 079A     		ldr	r2, [sp, #28]
 1734 08b4 83EA0209 		eor	r9, r3, r2
 245:fips202.c     ****             Emo ^= Do;
 1735              		.loc 1 245 17 discriminator 3 view .LVU606
 1736 08b8 149B     		ldr	r3, [sp, #80]
 1737 08ba 089A     		ldr	r2, [sp, #32]
 1738 08bc 83EA020C 		eor	ip, r3, r2
 1739              	.LVL221:
 1740              		.loc 1 245 17 discriminator 3 view .LVU607
 1741 08c0 159B     		ldr	r3, [sp, #84]
 1742 08c2 099A     		ldr	r2, [sp, #36]
 1743 08c4 83EA0205 		eor	r5, r3, r2
 1744              	.LVL222:
 246:fips202.c     ****             BCo = ROL(Emo, 21);
 1745              		.loc 1 246 17 discriminator 3 view .LVU608
 1746 08c8 4FEA4C52 		lsl	r2, ip, #21
 1747 08cc 42EAD522 		orr	r2, r2, r5, lsr #11
 247:fips202.c     ****             Esu ^= Du;
 1748              		.loc 1 247 17 discriminator 3 view .LVU609
 1749 08d0 0A9B     		ldr	r3, [sp, #40]
 246:fips202.c     ****             BCo = ROL(Emo, 21);
 1750              		.loc 1 246 17 discriminator 3 view .LVU610
 1751 08d2 4FEA455E 		lsl	lr, r5, #21
 1752              	.LVL223:
 1753              		.loc 1 247 17 discriminator 3 view .LVU611
 1754 08d6 109D     		ldr	r5, [sp, #64]
 1755 08d8 5D40     		eors	r5, r5, r3
 246:fips202.c     ****             BCo = ROL(Emo, 21);
 1756              		.loc 1 246 17 discriminator 3 view .LVU612
 1757 08da 4EEADC2E 		orr	lr, lr, ip, lsr #11
 1758              		.loc 1 247 17 discriminator 3 view .LVU613
 1759 08de 2B46     		mov	r3, r5
 1760 08e0 119D     		ldr	r5, [sp, #68]
 1761 08e2 DDF82CC0 		ldr	ip, [sp, #44]
 1762 08e6 85EA0C05 		eor	r5, r5, ip
 248:fips202.c     ****             BCu = ROL(Esu, 14);
 1763              		.loc 1 248 17 discriminator 3 view .LVU614
 1764 08ea 4FEA853C 		lsl	ip, r5, #14
 1765 08ee 4CEA934C 		orr	ip, ip, r3, lsr #18
 1766 08f2 9B03     		lsls	r3, r3, #14
 1767 08f4 43EA9543 		orr	r3, r3, r5, lsr #18
 249:fips202.c     ****             Aba =   BCa ^((~BCe)&  BCi );
 250:fips202.c     ****             Aba ^= (uint64_t)KeccakF_RoundConstants[round+1];
 1768              		.loc 1 250 17 discriminator 3 view .LVU615
 1769 08f8 019D     		ldr	r5, [sp, #4]
 1770 08fa AD68     		ldr	r5, [r5, #8]
 1771 08fc 0C95     		str	r5, [sp, #48]
 1772 08fe 019D     		ldr	r5, [sp, #4]
 244:fips202.c     ****             Emo ^= Do;
 1773              		.loc 1 244 17 discriminator 3 view .LVU616
 1774 0900 4FEA5A58 		lsr	r8, r10, #21
 1775 0904 48EAC928 		orr	r8, r8, r9, lsl #11
 1776              		.loc 1 250 17 discriminator 3 view .LVU617
 1777 0908 ED68     		ldr	r5, [r5, #12]
 244:fips202.c     ****             Emo ^= Do;
 1778              		.loc 1 244 17 discriminator 3 view .LVU618
 1779 090a 4FEA5959 		lsr	r9, r9, #21
 1780 090e 49EACA21 		orr	r1, r9, r10, lsl #11
 1781              	.LVL224:
 245:fips202.c     ****             BCo = ROL(Emo, 21);
 1782              		.loc 1 245 13 is_stmt 1 discriminator 3 view .LVU619
 246:fips202.c     ****             Esu ^= Du;
 1783              		.loc 1 246 13 discriminator 3 view .LVU620
 247:fips202.c     ****             BCu = ROL(Esu, 14);
 1784              		.loc 1 247 13 discriminator 3 view .LVU621
 248:fips202.c     ****             Aba =   BCa ^((~BCe)&  BCi );
 1785              		.loc 1 248 13 discriminator 3 view .LVU622
 249:fips202.c     ****             Aba ^= (uint64_t)KeccakF_RoundConstants[round+1];
 1786              		.loc 1 249 13 discriminator 3 view .LVU623
 1787              		.loc 1 250 13 discriminator 3 view .LVU624
 1788              		.loc 1 250 17 is_stmt 0 discriminator 3 view .LVU625
 1789 0912 DDF83090 		ldr	r9, [sp, #48]
 249:fips202.c     ****             Aba ^= (uint64_t)KeccakF_RoundConstants[round+1];
 1790              		.loc 1 249 33 discriminator 3 view .LVU626
 1791 0916 28EA040A 		bic	r10, r8, r4
 1792              		.loc 1 250 17 discriminator 3 view .LVU627
 1793 091a 8BEA0505 		eor	r5, fp, r5
 1794 091e 0D95     		str	r5, [sp, #52]
 1795 0920 87EA0909 		eor	r9, r7, r9
 249:fips202.c     ****             Aba ^= (uint64_t)KeccakF_RoundConstants[round+1];
 1796              		.loc 1 249 33 discriminator 3 view .LVU628
 1797 0924 5546     		mov	r5, r10
 1798              		.loc 1 250 17 discriminator 3 view .LVU629
 1799 0926 89EA0509 		eor	r9, r9, r5
 1800 092a 0D9D     		ldr	r5, [sp, #52]
 1801 092c CDF83090 		str	r9, [sp, #48]
 249:fips202.c     ****             Aba ^= (uint64_t)KeccakF_RoundConstants[round+1];
 1802              		.loc 1 249 33 discriminator 3 view .LVU630
 1803 0930 21EA060A 		bic	r10, r1, r6
 1804              		.loc 1 250 17 discriminator 3 view .LVU631
 1805 0934 85EA0A05 		eor	r5, r5, r10
 1806 0938 0D95     		str	r5, [sp, #52]
 1807              	.LVL225:
 251:fips202.c     ****             Abe =   BCe ^((~BCi)&  BCo );
 1808              		.loc 1 251 13 is_stmt 1 discriminator 3 view .LVU632
 1809              		.loc 1 251 33 is_stmt 0 discriminator 3 view .LVU633
 1810 093a 2EEA0105 		bic	r5, lr, r1
 1811              	.LVL226:
 1812              		.loc 1 251 17 discriminator 3 view .LVU634
 1813 093e 7540     		eors	r5, r5, r6
 1814              		.loc 1 251 33 discriminator 3 view .LVU635
 1815 0940 22EA0809 		bic	r9, r2, r8
 1816              	.LVL227:
 1817              		.loc 1 251 17 discriminator 3 view .LVU636
 1818 0944 0F95     		str	r5, [sp, #60]
 1819              	.LVL228:
 252:fips202.c     ****             Abi =   BCi ^((~BCo)&  BCu );
 1820              		.loc 1 252 13 is_stmt 1 discriminator 3 view .LVU637
 1821              		.loc 1 252 33 is_stmt 0 discriminator 3 view .LVU638
 1822 0946 2CEA0E05 		bic	r5, ip, lr
 1823              	.LVL229:
 251:fips202.c     ****             Abe =   BCe ^((~BCi)&  BCo );
 1824              		.loc 1 251 17 discriminator 3 view .LVU639
 1825 094a 89EA0409 		eor	r9, r9, r4
 1826              		.loc 1 252 17 discriminator 3 view .LVU640
 1827 094e 6940     		eors	r1, r1, r5
 1828              	.LVL230:
 253:fips202.c     ****             Abo =   BCo ^((~BCu)&  BCa );
 1829              		.loc 1 253 33 discriminator 3 view .LVU641
 1830 0950 27EA0305 		bic	r5, r7, r3
 254:fips202.c     ****             Abu =   BCu ^((~BCa)&  BCe );
 1831              		.loc 1 254 33 discriminator 3 view .LVU642
 1832 0954 24EA0707 		bic	r7, r4, r7
 1833              	.LVL231:
 1834              		.loc 1 254 33 discriminator 3 view .LVU643
 1835 0958 26EA0B06 		bic	r6, r6, fp
 1836              	.LVL232:
 251:fips202.c     ****             Abi =   BCi ^((~BCo)&  BCu );
 1837              		.loc 1 251 17 discriminator 3 view .LVU644
 1838 095c CDF83890 		str	r9, [sp, #56]
 1839              	.LVL233:
 252:fips202.c     ****             Abo =   BCo ^((~BCu)&  BCa );
 1840              		.loc 1 252 17 discriminator 3 view .LVU645
 1841 0960 1191     		str	r1, [sp, #68]
 1842              	.LVL234:
 253:fips202.c     ****             Abu =   BCu ^((~BCa)&  BCe );
 1843              		.loc 1 253 13 is_stmt 1 discriminator 3 view .LVU646
 252:fips202.c     ****             Abo =   BCo ^((~BCu)&  BCa );
 1844              		.loc 1 252 33 is_stmt 0 discriminator 3 view .LVU647
 1845 0962 23EA0209 		bic	r9, r3, r2
 253:fips202.c     ****             Abu =   BCu ^((~BCa)&  BCe );
 1846              		.loc 1 253 33 discriminator 3 view .LVU648
 1847 0966 2BEA0C01 		bic	r1, fp, ip
 1848              	.LVL235:
 253:fips202.c     ****             Abu =   BCu ^((~BCa)&  BCe );
 1849              		.loc 1 253 17 discriminator 3 view .LVU649
 1850 096a 6A40     		eors	r2, r2, r5
 1851              	.LVL236:
 1852              		.loc 1 254 17 discriminator 3 view .LVU650
 1853 096c 7B40     		eors	r3, r3, r7
 1854              	.LVL237:
 253:fips202.c     ****             Abu =   BCu ^((~BCa)&  BCe );
 1855              		.loc 1 253 17 discriminator 3 view .LVU651
 1856 096e 1292     		str	r2, [sp, #72]
 1857              	.LVL238:
 1858              		.loc 1 254 17 discriminator 3 view .LVU652
 1859 0970 1493     		str	r3, [sp, #80]
 1860              	.LVL239:
 253:fips202.c     ****             Abu =   BCu ^((~BCa)&  BCe );
 1861              		.loc 1 253 17 discriminator 3 view .LVU653
 1862 0972 81EA0E02 		eor	r2, r1, lr
 1863              		.loc 1 254 17 discriminator 3 view .LVU654
 1864 0976 86EA0C03 		eor	r3, r6, ip
 253:fips202.c     ****             Abu =   BCu ^((~BCa)&  BCe );
 1865              		.loc 1 253 17 discriminator 3 view .LVU655
 1866 097a 1392     		str	r2, [sp, #76]
 1867              	.LVL240:
 1868              		.loc 1 254 13 is_stmt 1 discriminator 3 view .LVU656
 1869              		.loc 1 254 17 is_stmt 0 discriminator 3 view .LVU657
 1870 097c 1593     		str	r3, [sp, #84]
 1871              	.LVL241:
 255:fips202.c     **** 
 256:fips202.c     ****             Ebo ^= Do;
 1872              		.loc 1 256 13 is_stmt 1 discriminator 3 view .LVU658
 257:fips202.c     ****             BCa = ROL(Ebo, 28);
 1873              		.loc 1 257 13 discriminator 3 view .LVU659
 256:fips202.c     ****             BCa = ROL(Ebo, 28);
 1874              		.loc 1 256 17 is_stmt 0 discriminator 3 view .LVU660
 1875 097e 089A     		ldr	r2, [sp, #32]
 1876              	.LVL242:
 256:fips202.c     ****             BCa = ROL(Ebo, 28);
 1877              		.loc 1 256 17 discriminator 3 view .LVU661
 1878 0980 189B     		ldr	r3, [sp, #96]
 1879              	.LVL243:
 256:fips202.c     ****             BCa = ROL(Ebo, 28);
 1880              		.loc 1 256 17 discriminator 3 view .LVU662
 1881 0982 83EA0201 		eor	r1, r3, r2
 1882 0986 199B     		ldr	r3, [sp, #100]
 1883 0988 099A     		ldr	r2, [sp, #36]
 1884 098a 83EA020E 		eor	lr, r3, r2
 1885              		.loc 1 257 17 discriminator 3 view .LVU663
 1886 098e 4FEA0E7B 		lsl	fp, lr, #28
 258:fips202.c     ****             Egu ^= Du;
 1887              		.loc 1 258 17 discriminator 3 view .LVU664
 1888 0992 1E9B     		ldr	r3, [sp, #120]
 1889 0994 0A9A     		ldr	r2, [sp, #40]
 257:fips202.c     ****             BCa = ROL(Ebo, 28);
 1890              		.loc 1 257 17 discriminator 3 view .LVU665
 1891 0996 4BEA111B 		orr	fp, fp, r1, lsr #4
 1892 099a 0907     		lsls	r1, r1, #28
 1893 099c 41EA1E14 		orr	r4, r1, lr, lsr #4
 1894              	.LVL244:
 1895              		.loc 1 258 13 is_stmt 1 discriminator 3 view .LVU666
 259:fips202.c     ****             BCe = ROL(Egu, 20);
 1896              		.loc 1 259 13 discriminator 3 view .LVU667
 258:fips202.c     ****             Egu ^= Du;
 1897              		.loc 1 258 17 is_stmt 0 discriminator 3 view .LVU668
 1898 09a0 83EA020E 		eor	lr, r3, r2
 1899 09a4 1F9B     		ldr	r3, [sp, #124]
 1900 09a6 0B9A     		ldr	r2, [sp, #44]
 1901 09a8 83EA0205 		eor	r5, r3, r2
 260:fips202.c     ****             Eka ^= Da;
 1902              		.loc 1 260 17 discriminator 3 view .LVU669
 1903 09ac 1A9B     		ldr	r3, [sp, #104]
 1904 09ae 029A     		ldr	r2, [sp, #8]
 259:fips202.c     ****             BCe = ROL(Egu, 20);
 1905              		.loc 1 259 17 discriminator 3 view .LVU670
 1906 09b0 2E05     		lsls	r6, r5, #20
 1907              		.loc 1 260 17 discriminator 3 view .LVU671
 1908 09b2 83EA020A 		eor	r10, r3, r2
 1909 09b6 039A     		ldr	r2, [sp, #12]
 1910 09b8 1B9B     		ldr	r3, [sp, #108]
 259:fips202.c     ****             BCe = ROL(Egu, 20);
 1911              		.loc 1 259 17 discriminator 3 view .LVU672
 1912 09ba 46EA1E36 		orr	r6, r6, lr, lsr #12
 252:fips202.c     ****             Abo =   BCo ^((~BCu)&  BCa );
 1913              		.loc 1 252 17 discriminator 3 view .LVU673
 1914 09be 89EA0808 		eor	r8, r9, r8
 259:fips202.c     ****             BCe = ROL(Egu, 20);
 1915              		.loc 1 259 17 discriminator 3 view .LVU674
 1916 09c2 4FEA0E5E 		lsl	lr, lr, #20
 1917 09c6 4EEA1531 		orr	r1, lr, r5, lsr #12
 1918              	.LVL245:
 1919              		.loc 1 260 13 is_stmt 1 discriminator 3 view .LVU675
 261:fips202.c     ****             BCi = ROL(Eka, 3);
 1920              		.loc 1 261 13 discriminator 3 view .LVU676
 260:fips202.c     ****             Eka ^= Da;
 1921              		.loc 1 260 17 is_stmt 0 discriminator 3 view .LVU677
 1922 09ca 83EA0209 		eor	r9, r3, r2
 252:fips202.c     ****             Abo =   BCo ^((~BCu)&  BCa );
 1923              		.loc 1 252 17 discriminator 3 view .LVU678
 1924 09ce CDF84080 		str	r8, [sp, #64]
 1925              	.LVL246:
 262:fips202.c     ****             Eme ^= De;
 1926              		.loc 1 262 17 discriminator 3 view .LVU679
 1927 09d2 169B     		ldr	r3, [sp, #88]
 1928 09d4 049D     		ldr	r5, [sp, #16]
 1929 09d6 DDF814C0 		ldr	ip, [sp, #20]
 263:fips202.c     ****             BCo = ROL(Eme, 45);
 264:fips202.c     ****             Esi ^= Di;
 1930              		.loc 1 264 17 discriminator 3 view .LVU680
 1931 09da DDF81CE0 		ldr	lr, [sp, #28]
 262:fips202.c     ****             Eme ^= De;
 1932              		.loc 1 262 17 discriminator 3 view .LVU681
 1933 09de 6B40     		eors	r3, r3, r5
 261:fips202.c     ****             Eme ^= De;
 1934              		.loc 1 261 17 discriminator 3 view .LVU682
 1935 09e0 4FEAC907 		lsl	r7, r9, #3
 262:fips202.c     ****             Eme ^= De;
 1936              		.loc 1 262 17 discriminator 3 view .LVU683
 1937 09e4 179D     		ldr	r5, [sp, #92]
 261:fips202.c     ****             Eme ^= De;
 1938              		.loc 1 261 17 discriminator 3 view .LVU684
 1939 09e6 47EA5A77 		orr	r7, r7, r10, lsr #29
 1940 09ea 4FEACA0A 		lsl	r10, r10, #3
 1941 09ee 4AEA5972 		orr	r2, r10, r9, lsr #29
 1942              	.LVL247:
 262:fips202.c     ****             Eme ^= De;
 1943              		.loc 1 262 13 is_stmt 1 discriminator 3 view .LVU685
 263:fips202.c     ****             BCo = ROL(Eme, 45);
 1944              		.loc 1 263 13 discriminator 3 view .LVU686
 262:fips202.c     ****             Eme ^= De;
 1945              		.loc 1 262 17 is_stmt 0 discriminator 3 view .LVU687
 1946 09f2 85EA0C09 		eor	r9, r5, ip
 263:fips202.c     ****             BCo = ROL(Eme, 45);
 1947              		.loc 1 263 17 discriminator 3 view .LVU688
 1948 09f6 DD0C     		lsrs	r5, r3, #19
 1949 09f8 45EA4935 		orr	r5, r5, r9, lsl #13
 1950 09fc 4FEAD949 		lsr	r9, r9, #19
 1951 0a00 49EA433A 		orr	r10, r9, r3, lsl #13
 1952              	.LVL248:
 1953              		.loc 1 264 13 is_stmt 1 discriminator 3 view .LVU689
 265:fips202.c     ****             BCu = ROL(Esi, 61);
 1954              		.loc 1 265 13 discriminator 3 view .LVU690
 264:fips202.c     ****             BCu = ROL(Esi, 61);
 1955              		.loc 1 264 17 is_stmt 0 discriminator 3 view .LVU691
 1956 0a04 DDF818C0 		ldr	ip, [sp, #24]
 1957 0a08 1C9B     		ldr	r3, [sp, #112]
 1958 0a0a 83EA0C0C 		eor	ip, r3, ip
 1959 0a0e 1D9B     		ldr	r3, [sp, #116]
 1960              		.loc 1 265 17 discriminator 3 view .LVU692
 1961 0a10 4FEADC08 		lsr	r8, ip, #3
 264:fips202.c     ****             BCu = ROL(Esi, 61);
 1962              		.loc 1 264 17 discriminator 3 view .LVU693
 1963 0a14 83EA0E03 		eor	r3, r3, lr
 1964              		.loc 1 265 17 discriminator 3 view .LVU694
 1965 0a18 48EA4378 		orr	r8, r8, r3, lsl #29
 266:fips202.c     ****             Aga =   BCa ^((~BCe)&  BCi );
 1966              		.loc 1 266 33 discriminator 3 view .LVU695
 1967 0a1c 22EA010E 		bic	lr, r2, r1
 265:fips202.c     ****             BCu = ROL(Esi, 61);
 1968              		.loc 1 265 17 discriminator 3 view .LVU696
 1969 0a20 DB08     		lsrs	r3, r3, #3
 1970 0a22 43EA4C73 		orr	r3, r3, ip, lsl #29
 1971              	.LVL249:
 1972              		.loc 1 266 13 is_stmt 1 discriminator 3 view .LVU697
 1973              		.loc 1 266 17 is_stmt 0 discriminator 3 view .LVU698
 1974 0a26 8EEA040E 		eor	lr, lr, r4
 1975              		.loc 1 266 33 discriminator 3 view .LVU699
 1976 0a2a 27EA060C 		bic	ip, r7, r6
 1977              		.loc 1 266 17 discriminator 3 view .LVU700
 1978 0a2e 8CEA0B0C 		eor	ip, ip, fp
 1979 0a32 CDF858E0 		str	lr, [sp, #88]
 267:fips202.c     ****             Age =   BCe ^((~BCi)&  BCo );
 1980              		.loc 1 267 33 discriminator 3 view .LVU701
 1981 0a36 25EA020E 		bic	lr, r5, r2
 1982              		.loc 1 267 17 discriminator 3 view .LVU702
 1983 0a3a 8EEA010E 		eor	lr, lr, r1
 266:fips202.c     ****             Aga =   BCa ^((~BCe)&  BCi );
 1984              		.loc 1 266 17 discriminator 3 view .LVU703
 1985 0a3e CDF85CC0 		str	ip, [sp, #92]
 1986              	.LVL250:
 1987              		.loc 1 267 13 is_stmt 1 discriminator 3 view .LVU704
 1988              		.loc 1 267 33 is_stmt 0 discriminator 3 view .LVU705
 1989 0a42 2AEA070C 		bic	ip, r10, r7
 1990              	.LVL251:
 1991              		.loc 1 267 17 discriminator 3 view .LVU706
 1992 0a46 8CEA060C 		eor	ip, ip, r6
 1993 0a4a CDF860E0 		str	lr, [sp, #96]
 1994              	.LVL252:
 268:fips202.c     ****             Agi =   BCi ^((~BCo)&  BCu );
 1995              		.loc 1 268 33 discriminator 3 view .LVU707
 1996 0a4e 28EA050E 		bic	lr, r8, r5
 1997              		.loc 1 268 17 discriminator 3 view .LVU708
 1998 0a52 8EEA0202 		eor	r2, lr, r2
 1999              	.LVL253:
 267:fips202.c     ****             Age =   BCe ^((~BCi)&  BCo );
 2000              		.loc 1 267 17 discriminator 3 view .LVU709
 2001 0a56 CDF864C0 		str	ip, [sp, #100]
 2002              	.LVL254:
 2003              		.loc 1 268 13 is_stmt 1 discriminator 3 view .LVU710
 2004              		.loc 1 268 33 is_stmt 0 discriminator 3 view .LVU711
 2005 0a5a 23EA0A0C 		bic	ip, r3, r10
 2006              	.LVL255:
 2007              		.loc 1 268 17 discriminator 3 view .LVU712
 2008 0a5e 1A92     		str	r2, [sp, #104]
 2009              	.LVL256:
 2010              		.loc 1 268 17 discriminator 3 view .LVU713
 2011 0a60 8CEA0702 		eor	r2, ip, r7
 2012 0a64 1B92     		str	r2, [sp, #108]
 2013              	.LVL257:
 269:fips202.c     ****             Ago =   BCo ^((~BCu)&  BCa );
 2014              		.loc 1 269 13 is_stmt 1 discriminator 3 view .LVU714
 2015              		.loc 1 269 33 is_stmt 0 discriminator 3 view .LVU715
 2016 0a66 2BEA0302 		bic	r2, fp, r3
 2017              	.LVL258:
 2018              		.loc 1 269 17 discriminator 3 view .LVU716
 2019 0a6a 82EA0A02 		eor	r2, r2, r10
 270:fips202.c     ****             Agu =   BCu ^((~BCa)&  BCe );
 2020              		.loc 1 270 33 discriminator 3 view .LVU717
 2021 0a6e 21EA0401 		bic	r1, r1, r4
 2022              	.LVL259:
 2023              		.loc 1 270 33 discriminator 3 view .LVU718
 2024 0a72 26EA0B06 		bic	r6, r6, fp
 2025              	.LVL260:
 2026              		.loc 1 270 17 discriminator 3 view .LVU719
 2027 0a76 7340     		eors	r3, r3, r6
 2028              	.LVL261:
 269:fips202.c     ****             Ago =   BCo ^((~BCu)&  BCa );
 2029              		.loc 1 269 17 discriminator 3 view .LVU720
 2030 0a78 1D92     		str	r2, [sp, #116]
 2031              	.LVL262:
 2032              		.loc 1 270 13 is_stmt 1 discriminator 3 view .LVU721
 2033              		.loc 1 270 17 is_stmt 0 discriminator 3 view .LVU722
 2034 0a7a 81EA0802 		eor	r2, r1, r8
 2035              	.LVL263:
 2036              		.loc 1 270 17 discriminator 3 view .LVU723
 2037 0a7e 1E92     		str	r2, [sp, #120]
 2038              	.LVL264:
 2039              		.loc 1 270 17 discriminator 3 view .LVU724
 2040 0a80 1F93     		str	r3, [sp, #124]
 2041              	.LVL265:
 271:fips202.c     **** 
 272:fips202.c     ****             Ebe ^= De;
 2042              		.loc 1 272 13 is_stmt 1 discriminator 3 view .LVU725
 273:fips202.c     ****             BCa = ROL(Ebe, 1);
 2043              		.loc 1 273 13 discriminator 3 view .LVU726
 272:fips202.c     ****             BCa = ROL(Ebe, 1);
 2044              		.loc 1 272 17 is_stmt 0 discriminator 3 view .LVU727
 2045 0a82 049A     		ldr	r2, [sp, #16]
 2046              	.LVL266:
 272:fips202.c     ****             BCa = ROL(Ebe, 1);
 2047              		.loc 1 272 17 discriminator 3 view .LVU728
 2048 0a84 249B     		ldr	r3, [sp, #144]
 2049              	.LVL267:
 269:fips202.c     ****             Agu =   BCu ^((~BCa)&  BCe );
 2050              		.loc 1 269 33 discriminator 3 view .LVU729
 2051 0a86 24EA0807 		bic	r7, r4, r8
 269:fips202.c     ****             Agu =   BCu ^((~BCa)&  BCe );
 2052              		.loc 1 269 17 discriminator 3 view .LVU730
 2053 0a8a 7D40     		eors	r5, r5, r7
 2054              	.LVL268:
 272:fips202.c     ****             BCa = ROL(Ebe, 1);
 2055              		.loc 1 272 17 discriminator 3 view .LVU731
 2056 0a8c 83EA0207 		eor	r7, r3, r2
 2057 0a90 259B     		ldr	r3, [sp, #148]
 2058 0a92 059A     		ldr	r2, [sp, #20]
 269:fips202.c     ****             Agu =   BCu ^((~BCa)&  BCe );
 2059              		.loc 1 269 17 discriminator 3 view .LVU732
 2060 0a94 1C95     		str	r5, [sp, #112]
 2061              	.LVL269:
 272:fips202.c     ****             BCa = ROL(Ebe, 1);
 2062              		.loc 1 272 17 discriminator 3 view .LVU733
 2063 0a96 83EA0206 		eor	r6, r3, r2
 274:fips202.c     ****             Egi ^= Di;
 2064              		.loc 1 274 17 discriminator 3 view .LVU734
 2065 0a9a 209B     		ldr	r3, [sp, #128]
 2066 0a9c 069A     		ldr	r2, [sp, #24]
 273:fips202.c     ****             Egi ^= Di;
 2067              		.loc 1 273 17 discriminator 3 view .LVU735
 2068 0a9e 4FEA4608 		lsl	r8, r6, #1
 2069              		.loc 1 274 17 discriminator 3 view .LVU736
 2070 0aa2 83EA0204 		eor	r4, r3, r2
 2071              	.LVL270:
 2072              		.loc 1 274 17 discriminator 3 view .LVU737
 2073 0aa6 219B     		ldr	r3, [sp, #132]
 2074 0aa8 079A     		ldr	r2, [sp, #28]
 273:fips202.c     ****             Egi ^= Di;
 2075              		.loc 1 273 17 discriminator 3 view .LVU738
 2076 0aaa 48EAD778 		orr	r8, r8, r7, lsr #31
 2077 0aae 7F00     		lsls	r7, r7, #1
 2078 0ab0 47EAD67B 		orr	fp, r7, r6, lsr #31
 2079              	.LVL271:
 2080              		.loc 1 274 13 is_stmt 1 discriminator 3 view .LVU739
 275:fips202.c     ****             BCe = ROL(Egi, 6);
 2081              		.loc 1 275 13 discriminator 3 view .LVU740
 274:fips202.c     ****             Egi ^= Di;
 2082              		.loc 1 274 17 is_stmt 0 discriminator 3 view .LVU741
 2083 0ab4 83EA0206 		eor	r6, r3, r2
 276:fips202.c     ****             Eko ^= Do;
 2084              		.loc 1 276 17 discriminator 3 view .LVU742
 2085 0ab8 269B     		ldr	r3, [sp, #152]
 2086 0aba 089A     		ldr	r2, [sp, #32]
 2087 0abc 83EA0205 		eor	r5, r3, r2
 2088 0ac0 279B     		ldr	r3, [sp, #156]
 2089 0ac2 099A     		ldr	r2, [sp, #36]
 2090 0ac4 83EA0201 		eor	r1, r3, r2
 277:fips202.c     ****             BCi = ROL(Eko, 25);
 2091              		.loc 1 277 17 discriminator 3 view .LVU743
 2092 0ac8 6A06     		lsls	r2, r5, #25
 2093 0aca 42EAD112 		orr	r2, r2, r1, lsr #7
 278:fips202.c     ****             Emu ^= Du;
 2094              		.loc 1 278 17 discriminator 3 view .LVU744
 2095 0ace 229B     		ldr	r3, [sp, #136]
 277:fips202.c     ****             BCi = ROL(Eko, 25);
 2096              		.loc 1 277 17 discriminator 3 view .LVU745
 2097 0ad0 4FEA416A 		lsl	r10, r1, #25
 2098              		.loc 1 278 17 discriminator 3 view .LVU746
 2099 0ad4 0A99     		ldr	r1, [sp, #40]
 275:fips202.c     ****             Eko ^= Do;
 2100              		.loc 1 275 17 discriminator 3 view .LVU747
 2101 0ad6 4FEA861C 		lsl	ip, r6, #6
 2102              		.loc 1 278 17 discriminator 3 view .LVU748
 2103 0ada 83EA0107 		eor	r7, r3, r1
 2104 0ade 239B     		ldr	r3, [sp, #140]
 2105 0ae0 0B99     		ldr	r1, [sp, #44]
 275:fips202.c     ****             Eko ^= Do;
 2106              		.loc 1 275 17 discriminator 3 view .LVU749
 2107 0ae2 4CEA946C 		orr	ip, ip, r4, lsr #26
 2108 0ae6 A401     		lsls	r4, r4, #6
 2109 0ae8 44EA9669 		orr	r9, r4, r6, lsr #26
 2110              	.LVL272:
 276:fips202.c     ****             BCi = ROL(Eko, 25);
 2111              		.loc 1 276 13 is_stmt 1 discriminator 3 view .LVU750
 277:fips202.c     ****             Emu ^= Du;
 2112              		.loc 1 277 13 discriminator 3 view .LVU751
 2113              		.loc 1 278 17 is_stmt 0 discriminator 3 view .LVU752
 2114 0aec 83EA0104 		eor	r4, r3, r1
 279:fips202.c     ****             BCo = ROL(Emu, 8);
 2115              		.loc 1 279 17 discriminator 3 view .LVU753
 2116 0af0 2102     		lsls	r1, r4, #8
 2117 0af2 41EA1761 		orr	r1, r1, r7, lsr #24
 2118 0af6 3F02     		lsls	r7, r7, #8
 2119 0af8 47EA1467 		orr	r7, r7, r4, lsr #24
 280:fips202.c     ****             Esa ^= Da;
 2120              		.loc 1 280 17 discriminator 3 view .LVU754
 2121 0afc 289B     		ldr	r3, [sp, #160]
 2122 0afe 029C     		ldr	r4, [sp, #8]
 277:fips202.c     ****             Emu ^= Du;
 2123              		.loc 1 277 17 discriminator 3 view .LVU755
 2124 0b00 4AEAD51A 		orr	r10, r10, r5, lsr #7
 2125              	.LVL273:
 278:fips202.c     ****             BCo = ROL(Emu, 8);
 2126              		.loc 1 278 13 is_stmt 1 discriminator 3 view .LVU756
 279:fips202.c     ****             BCo = ROL(Emu, 8);
 2127              		.loc 1 279 13 discriminator 3 view .LVU757
 2128              		.loc 1 280 13 discriminator 3 view .LVU758
 281:fips202.c     ****             BCu = ROL(Esa, 18);
 2129              		.loc 1 281 13 discriminator 3 view .LVU759
 280:fips202.c     ****             Esa ^= Da;
 2130              		.loc 1 280 17 is_stmt 0 discriminator 3 view .LVU760
 2131 0b04 6340     		eors	r3, r3, r4
 2132 0b06 039D     		ldr	r5, [sp, #12]
 2133 0b08 299C     		ldr	r4, [sp, #164]
 2134 0b0a 6C40     		eors	r4, r4, r5
 2135              		.loc 1 281 17 discriminator 3 view .LVU761
 2136 0b0c 4FEA844E 		lsl	lr, r4, #18
 2137 0b10 4EEA933E 		orr	lr, lr, r3, lsr #14
 2138 0b14 9B04     		lsls	r3, r3, #18
 2139 0b16 43EA9433 		orr	r3, r3, r4, lsr #14
 2140              	.LVL274:
 282:fips202.c     ****             Aka =   BCa ^((~BCe)&  BCi );
 2141              		.loc 1 282 13 is_stmt 1 discriminator 3 view .LVU762
 2142              		.loc 1 282 33 is_stmt 0 discriminator 3 view .LVU763
 2143 0b1a 2AEA0C04 		bic	r4, r10, ip
 2144 0b1e 22EA0905 		bic	r5, r2, r9
 2145              		.loc 1 282 17 discriminator 3 view .LVU764
 2146 0b22 84EA0804 		eor	r4, r4, r8
 2147 0b26 85EA0B05 		eor	r5, r5, fp
 2148 0b2a 2194     		str	r4, [sp, #132]
 2149              	.LVL275:
 283:fips202.c     ****             Ake =   BCe ^((~BCi)&  BCo );
 2150              		.loc 1 283 13 is_stmt 1 discriminator 3 view .LVU765
 2151              		.loc 1 283 33 is_stmt 0 discriminator 3 view .LVU766
 2152 0b2c 27EA0204 		bic	r4, r7, r2
 2153              	.LVL276:
 2154              		.loc 1 283 17 discriminator 3 view .LVU767
 2155 0b30 84EA0904 		eor	r4, r4, r9
 282:fips202.c     ****             Aka =   BCa ^((~BCe)&  BCi );
 2156              		.loc 1 282 17 discriminator 3 view .LVU768
 2157 0b34 2095     		str	r5, [sp, #128]
 2158              	.LVL277:
 2159              		.loc 1 283 33 discriminator 3 view .LVU769
 2160 0b36 21EA0A05 		bic	r5, r1, r10
 2161              		.loc 1 283 17 discriminator 3 view .LVU770
 2162 0b3a 2294     		str	r4, [sp, #136]
 2163 0b3c 85EA0C04 		eor	r4, r5, ip
 284:fips202.c     ****             Aki =   BCi ^((~BCo)&  BCu );
 2164              		.loc 1 284 33 discriminator 3 view .LVU771
 2165 0b40 23EA0705 		bic	r5, r3, r7
 2166              		.loc 1 284 17 discriminator 3 view .LVU772
 2167 0b44 6A40     		eors	r2, r2, r5
 2168              	.LVL278:
 283:fips202.c     ****             Ake =   BCe ^((~BCi)&  BCo );
 2169              		.loc 1 283 17 discriminator 3 view .LVU773
 2170 0b46 2394     		str	r4, [sp, #140]
 2171              	.LVL279:
 2172              		.loc 1 284 13 is_stmt 1 discriminator 3 view .LVU774
 2173              		.loc 1 284 33 is_stmt 0 discriminator 3 view .LVU775
 2174 0b48 2EEA0104 		bic	r4, lr, r1
 2175              	.LVL280:
 285:fips202.c     ****             Ako =   BCo ^((~BCu)&  BCa );
 286:fips202.c     ****             Aku =   BCu ^((~BCa)&  BCe );
 2176              		.loc 1 286 33 discriminator 3 view .LVU776
 2177 0b4c 29EA0B09 		bic	r9, r9, fp
 2178              	.LVL281:
 284:fips202.c     ****             Aki =   BCi ^((~BCo)&  BCu );
 2179              		.loc 1 284 17 discriminator 3 view .LVU777
 2180 0b50 2492     		str	r2, [sp, #144]
 2181              	.LVL282:
 284:fips202.c     ****             Aki =   BCi ^((~BCo)&  BCu );
 2182              		.loc 1 284 17 discriminator 3 view .LVU778
 2183 0b52 84EA0A02 		eor	r2, r4, r10
 2184              		.loc 1 286 33 discriminator 3 view .LVU779
 2185 0b56 2CEA080C 		bic	ip, ip, r8
 285:fips202.c     ****             Ako =   BCo ^((~BCu)&  BCa );
 2186              		.loc 1 285 33 discriminator 3 view .LVU780
 2187 0b5a 2BEA0304 		bic	r4, fp, r3
 284:fips202.c     ****             Aki =   BCi ^((~BCo)&  BCu );
 2188              		.loc 1 284 17 discriminator 3 view .LVU781
 2189 0b5e 2592     		str	r2, [sp, #148]
 2190              	.LVL283:
 285:fips202.c     ****             Ako =   BCo ^((~BCu)&  BCa );
 2191              		.loc 1 285 13 is_stmt 1 discriminator 3 view .LVU782
 2192              		.loc 1 286 17 is_stmt 0 discriminator 3 view .LVU783
 2193 0b60 89EA0303 		eor	r3, r9, r3
 2194              	.LVL284:
 285:fips202.c     ****             Ako =   BCo ^((~BCu)&  BCa );
 2195              		.loc 1 285 33 discriminator 3 view .LVU784
 2196 0b64 28EA0E02 		bic	r2, r8, lr
 2197              	.LVL285:
 285:fips202.c     ****             Ako =   BCo ^((~BCu)&  BCa );
 2198              		.loc 1 285 17 discriminator 3 view .LVU785
 2199 0b68 4A40     		eors	r2, r2, r1
 2200              		.loc 1 286 17 discriminator 3 view .LVU786
 2201 0b6a 2893     		str	r3, [sp, #160]
 2202              	.LVL286:
 2203              		.loc 1 286 17 discriminator 3 view .LVU787
 2204 0b6c 8CEA0E03 		eor	r3, ip, lr
 285:fips202.c     ****             Ako =   BCo ^((~BCu)&  BCa );
 2205              		.loc 1 285 17 discriminator 3 view .LVU788
 2206 0b70 2792     		str	r2, [sp, #156]
 2207              	.LVL287:
 2208              		.loc 1 286 13 is_stmt 1 discriminator 3 view .LVU789
 2209              		.loc 1 286 17 is_stmt 0 discriminator 3 view .LVU790
 2210 0b72 2993     		str	r3, [sp, #164]
 2211              	.LVL288:
 287:fips202.c     **** 
 288:fips202.c     ****             Ebu ^= Du;
 2212              		.loc 1 288 13 is_stmt 1 discriminator 3 view .LVU791
 289:fips202.c     ****             BCa = ROL(Ebu, 27);
 2213              		.loc 1 289 13 discriminator 3 view .LVU792
 288:fips202.c     ****             BCa = ROL(Ebu, 27);
 2214              		.loc 1 288 17 is_stmt 0 discriminator 3 view .LVU793
 2215 0b74 0A9A     		ldr	r2, [sp, #40]
 2216              	.LVL289:
 288:fips202.c     ****             BCa = ROL(Ebu, 27);
 2217              		.loc 1 288 17 discriminator 3 view .LVU794
 2218 0b76 309B     		ldr	r3, [sp, #192]
 2219              	.LVL290:
 290:fips202.c     ****             Ega ^= Da;
 291:fips202.c     ****             BCe = ROL(Ega, 36);
 292:fips202.c     ****             Eke ^= De;
 2220              		.loc 1 292 17 discriminator 3 view .LVU795
 2221 0b78 0599     		ldr	r1, [sp, #20]
 2222              	.LVL291:
 288:fips202.c     ****             BCa = ROL(Ebu, 27);
 2223              		.loc 1 288 17 discriminator 3 view .LVU796
 2224 0b7a 83EA0205 		eor	r5, r3, r2
 2225 0b7e 0B9A     		ldr	r2, [sp, #44]
 2226 0b80 319B     		ldr	r3, [sp, #196]
 2227 0b82 5340     		eors	r3, r3, r2
 289:fips202.c     ****             Ega ^= Da;
 2228              		.loc 1 289 17 discriminator 3 view .LVU797
 2229 0b84 4FEAC36B 		lsl	fp, r3, #27
 2230              	.LVL292:
 289:fips202.c     ****             Ega ^= Da;
 2231              		.loc 1 289 17 discriminator 3 view .LVU798
 2232 0b88 4BEA551B 		orr	fp, fp, r5, lsr #5
 2233 0b8c ED06     		lsls	r5, r5, #27
 2234 0b8e 45EA531C 		orr	ip, r5, r3, lsr #5
 2235              	.LVL293:
 290:fips202.c     ****             Ega ^= Da;
 2236              		.loc 1 290 13 is_stmt 1 discriminator 3 view .LVU799
 291:fips202.c     ****             Eke ^= De;
 2237              		.loc 1 291 13 discriminator 3 view .LVU800
 290:fips202.c     ****             Ega ^= Da;
 2238              		.loc 1 290 17 is_stmt 0 discriminator 3 view .LVU801
 2239 0b92 029A     		ldr	r2, [sp, #8]
 2240 0b94 2C9B     		ldr	r3, [sp, #176]
 2241 0b96 83EA020A 		eor	r10, r3, r2
 2242 0b9a 2D9B     		ldr	r3, [sp, #180]
 2243 0b9c 039A     		ldr	r2, [sp, #12]
 2244 0b9e 83EA0206 		eor	r6, r3, r2
 2245              		.loc 1 292 17 discriminator 3 view .LVU802
 2246 0ba2 329B     		ldr	r3, [sp, #200]
 2247 0ba4 049A     		ldr	r2, [sp, #16]
 2248 0ba6 5A40     		eors	r2, r2, r3
 2249 0ba8 339B     		ldr	r3, [sp, #204]
 291:fips202.c     ****             Eke ^= De;
 2250              		.loc 1 291 17 discriminator 3 view .LVU803
 2251 0baa 4FEA1A7E 		lsr	lr, r10, #28
 2252 0bae 4EEA061E 		orr	lr, lr, r6, lsl #4
 2253              		.loc 1 292 17 discriminator 3 view .LVU804
 2254 0bb2 83EA0109 		eor	r9, r3, r1
 291:fips202.c     ****             Eke ^= De;
 2255              		.loc 1 291 17 discriminator 3 view .LVU805
 2256 0bb6 360F     		lsrs	r6, r6, #28
 2257 0bb8 46EA0A16 		orr	r6, r6, r10, lsl #4
 2258              	.LVL294:
 2259              		.loc 1 292 13 is_stmt 1 discriminator 3 view .LVU806
 293:fips202.c     ****             BCi = ROL(Eke, 10);
 2260              		.loc 1 293 13 discriminator 3 view .LVU807
 2261              		.loc 1 293 17 is_stmt 0 discriminator 3 view .LVU808
 2262 0bbc 4FEA892A 		lsl	r10, r9, #10
 2263 0bc0 4AEA925A 		orr	r10, r10, r2, lsr #22
 294:fips202.c     ****             Emi ^= Di;
 2264              		.loc 1 294 17 discriminator 3 view .LVU809
 2265 0bc4 0699     		ldr	r1, [sp, #24]
 293:fips202.c     ****             BCi = ROL(Eke, 10);
 2266              		.loc 1 293 17 discriminator 3 view .LVU810
 2267 0bc6 9302     		lsls	r3, r2, #10
 2268              		.loc 1 294 17 discriminator 3 view .LVU811
 2269 0bc8 2E9A     		ldr	r2, [sp, #184]
 2270 0bca 82EA0105 		eor	r5, r2, r1
 2271 0bce 0799     		ldr	r1, [sp, #28]
 2272 0bd0 2F9A     		ldr	r2, [sp, #188]
 293:fips202.c     ****             BCi = ROL(Eke, 10);
 2273              		.loc 1 293 17 discriminator 3 view .LVU812
 2274 0bd2 43EA9953 		orr	r3, r3, r9, lsr #22
 2275              	.LVL295:
 2276              		.loc 1 294 13 is_stmt 1 discriminator 3 view .LVU813
 295:fips202.c     ****             BCo = ROL(Emi, 15);
 2277              		.loc 1 295 13 discriminator 3 view .LVU814
 285:fips202.c     ****             Aku =   BCu ^((~BCa)&  BCe );
 2278              		.loc 1 285 17 is_stmt 0 discriminator 3 view .LVU815
 2279 0bd6 7C40     		eors	r4, r4, r7
 294:fips202.c     ****             Emi ^= Di;
 2280              		.loc 1 294 17 discriminator 3 view .LVU816
 2281 0bd8 82EA0109 		eor	r9, r2, r1
 285:fips202.c     ****             Aku =   BCu ^((~BCa)&  BCe );
 2282              		.loc 1 285 17 discriminator 3 view .LVU817
 2283 0bdc 2694     		str	r4, [sp, #152]
 2284              	.LVL296:
 296:fips202.c     ****             Eso ^= Do;
 2285              		.loc 1 296 17 discriminator 3 view .LVU818
 2286 0bde 2A9A     		ldr	r2, [sp, #168]
 2287 0be0 0899     		ldr	r1, [sp, #32]
 295:fips202.c     ****             BCo = ROL(Emi, 15);
 2288              		.loc 1 295 17 discriminator 3 view .LVU819
 2289 0be2 4FEAC934 		lsl	r4, r9, #15
 2290 0be6 44EA5544 		orr	r4, r4, r5, lsr #17
 2291 0bea ED03     		lsls	r5, r5, #15
 2292 0bec 45EA5948 		orr	r8, r5, r9, lsr #17
 2293              	.LVL297:
 2294              		.loc 1 296 13 is_stmt 1 discriminator 3 view .LVU820
 297:fips202.c     ****             BCu = ROL(Eso, 56);
 2295              		.loc 1 297 13 discriminator 3 view .LVU821
 296:fips202.c     ****             Eso ^= Do;
 2296              		.loc 1 296 17 is_stmt 0 discriminator 3 view .LVU822
 2297 0bf0 5140     		eors	r1, r1, r2
 2298 0bf2 099D     		ldr	r5, [sp, #36]
 2299 0bf4 2B9A     		ldr	r2, [sp, #172]
 2300              		.loc 1 297 17 discriminator 3 view .LVU823
 2301 0bf6 4FEA1129 		lsr	r9, r1, #8
 296:fips202.c     ****             Eso ^= Do;
 2302              		.loc 1 296 17 discriminator 3 view .LVU824
 2303 0bfa 82EA0507 		eor	r7, r2, r5
 2304              		.loc 1 297 17 discriminator 3 view .LVU825
 2305 0bfe 49EA0769 		orr	r9, r9, r7, lsl #24
 2306 0c02 3F0A     		lsrs	r7, r7, #8
 2307 0c04 47EA0167 		orr	r7, r7, r1, lsl #24
 2308              	.LVL298:
 298:fips202.c     ****             Ama =   BCa ^((~BCe)&  BCi );
 2309              		.loc 1 298 13 is_stmt 1 discriminator 3 view .LVU826
 2310              		.loc 1 298 33 is_stmt 0 discriminator 3 view .LVU827
 2311 0c08 23EA0E01 		bic	r1, r3, lr
 2312 0c0c 2AEA0602 		bic	r2, r10, r6
 2313              		.loc 1 298 17 discriminator 3 view .LVU828
 2314 0c10 81EA0C01 		eor	r1, r1, ip
 2315 0c14 82EA0B02 		eor	r2, r2, fp
 2316 0c18 2A91     		str	r1, [sp, #168]
 299:fips202.c     ****             Ame =   BCe ^((~BCi)&  BCo );
 2317              		.loc 1 299 33 discriminator 3 view .LVU829
 2318 0c1a 28EA0301 		bic	r1, r8, r3
 2319              		.loc 1 299 17 discriminator 3 view .LVU830
 2320 0c1e 81EA0E01 		eor	r1, r1, lr
 298:fips202.c     ****             Ama =   BCa ^((~BCe)&  BCi );
 2321              		.loc 1 298 17 discriminator 3 view .LVU831
 2322 0c22 2B92     		str	r2, [sp, #172]
 2323              	.LVL299:
 2324              		.loc 1 299 13 is_stmt 1 discriminator 3 view .LVU832
 2325              		.loc 1 299 33 is_stmt 0 discriminator 3 view .LVU833
 2326 0c24 24EA0A02 		bic	r2, r4, r10
 2327              	.LVL300:
 2328              		.loc 1 299 17 discriminator 3 view .LVU834
 2329 0c28 7240     		eors	r2, r2, r6
 2330 0c2a 2C91     		str	r1, [sp, #176]
 2331              	.LVL301:
 300:fips202.c     ****             Ami =   BCi ^((~BCo)&  BCu );
 2332              		.loc 1 300 33 discriminator 3 view .LVU835
 2333 0c2c 29EA0801 		bic	r1, r9, r8
 2334              		.loc 1 300 17 discriminator 3 view .LVU836
 2335 0c30 4B40     		eors	r3, r3, r1
 2336              	.LVL302:
 299:fips202.c     ****             Ame =   BCe ^((~BCi)&  BCo );
 2337              		.loc 1 299 17 discriminator 3 view .LVU837
 2338 0c32 2D92     		str	r2, [sp, #180]
 2339              	.LVL303:
 2340              		.loc 1 300 13 is_stmt 1 discriminator 3 view .LVU838
 2341              		.loc 1 300 33 is_stmt 0 discriminator 3 view .LVU839
 2342 0c34 27EA0402 		bic	r2, r7, r4
 2343              	.LVL304:
 301:fips202.c     ****             Amo =   BCo ^((~BCu)&  BCa );
 2344              		.loc 1 301 33 discriminator 3 view .LVU840
 2345 0c38 2CEA0901 		bic	r1, ip, r9
 300:fips202.c     ****             Ami =   BCi ^((~BCo)&  BCu );
 2346              		.loc 1 300 17 discriminator 3 view .LVU841
 2347 0c3c 2E93     		str	r3, [sp, #184]
 2348              	.LVL305:
 300:fips202.c     ****             Ami =   BCi ^((~BCo)&  BCu );
 2349              		.loc 1 300 17 discriminator 3 view .LVU842
 2350 0c3e 82EA0A03 		eor	r3, r2, r10
 2351 0c42 2F93     		str	r3, [sp, #188]
 2352              	.LVL306:
 2353              		.loc 1 301 13 is_stmt 1 discriminator 3 view .LVU843
 2354              		.loc 1 301 33 is_stmt 0 discriminator 3 view .LVU844
 2355 0c44 2BEA0702 		bic	r2, fp, r7
 2356              		.loc 1 301 17 discriminator 3 view .LVU845
 2357 0c48 81EA0803 		eor	r3, r1, r8
 2358              	.LVL307:
 302:fips202.c     ****             Amu =   BCu ^((~BCa)&  BCe );
 2359              		.loc 1 302 33 discriminator 3 view .LVU846
 2360 0c4c 2EEA0C0C 		bic	ip, lr, ip
 2361              	.LVL308:
 301:fips202.c     ****             Amo =   BCo ^((~BCu)&  BCa );
 2362              		.loc 1 301 17 discriminator 3 view .LVU847
 2363 0c50 3093     		str	r3, [sp, #192]
 2364              	.LVL309:
 301:fips202.c     ****             Amo =   BCo ^((~BCu)&  BCa );
 2365              		.loc 1 301 17 discriminator 3 view .LVU848
 2366 0c52 82EA0403 		eor	r3, r2, r4
 2367              		.loc 1 302 33 discriminator 3 view .LVU849
 2368 0c56 26EA0B06 		bic	r6, r6, fp
 2369              	.LVL310:
 301:fips202.c     ****             Amo =   BCo ^((~BCu)&  BCa );
 2370              		.loc 1 301 17 discriminator 3 view .LVU850
 2371 0c5a 3193     		str	r3, [sp, #196]
 2372              	.LVL311:
 2373              		.loc 1 302 13 is_stmt 1 discriminator 3 view .LVU851
 2374              		.loc 1 302 17 is_stmt 0 discriminator 3 view .LVU852
 2375 0c5c 8CEA0903 		eor	r3, ip, r9
 2376              	.LVL312:
 2377              		.loc 1 302 17 discriminator 3 view .LVU853
 2378 0c60 3293     		str	r3, [sp, #200]
 2379              	.LVL313:
 2380              		.loc 1 302 17 discriminator 3 view .LVU854
 2381 0c62 86EA0703 		eor	r3, r6, r7
 303:fips202.c     **** 
 304:fips202.c     ****             Ebi ^= Di;
 2382              		.loc 1 304 17 discriminator 3 view .LVU855
 2383 0c66 069A     		ldr	r2, [sp, #24]
 302:fips202.c     ****             Amu =   BCu ^((~BCa)&  BCe );
 2384              		.loc 1 302 17 discriminator 3 view .LVU856
 2385 0c68 3393     		str	r3, [sp, #204]
 2386              	.LVL314:
 2387              		.loc 1 304 13 is_stmt 1 discriminator 3 view .LVU857
 305:fips202.c     ****             BCa = ROL(Ebi, 62);
 2388              		.loc 1 305 13 discriminator 3 view .LVU858
 304:fips202.c     ****             BCa = ROL(Ebi, 62);
 2389              		.loc 1 304 17 is_stmt 0 discriminator 3 view .LVU859
 2390 0c6a 3B9B     		ldr	r3, [sp, #236]
 2391              	.LVL315:
 306:fips202.c     ****             Ego ^= Do;
 2392              		.loc 1 306 17 discriminator 3 view .LVU860
 2393 0c6c 0899     		ldr	r1, [sp, #32]
 304:fips202.c     ****             BCa = ROL(Ebi, 62);
 2394              		.loc 1 304 17 discriminator 3 view .LVU861
 2395 0c6e 83EA0209 		eor	r9, r3, r2
 2396              	.LVL316:
 304:fips202.c     ****             BCa = ROL(Ebi, 62);
 2397              		.loc 1 304 17 discriminator 3 view .LVU862
 2398 0c72 3C9B     		ldr	r3, [sp, #240]
 2399 0c74 079A     		ldr	r2, [sp, #28]
 2400 0c76 83EA0208 		eor	r8, r3, r2
 2401              	.LVL317:
 2402              		.loc 1 306 17 discriminator 3 view .LVU863
 2403 0c7a 379A     		ldr	r2, [sp, #220]
 305:fips202.c     ****             BCa = ROL(Ebi, 62);
 2404              		.loc 1 305 17 discriminator 3 view .LVU864
 2405 0c7c 4FEA990C 		lsr	ip, r9, #2
 2406              		.loc 1 306 17 discriminator 3 view .LVU865
 2407 0c80 82EA0106 		eor	r6, r2, r1
 2408 0c84 389A     		ldr	r2, [sp, #224]
 307:fips202.c     ****             BCe = ROL(Ego, 55);
 308:fips202.c     ****             Eku ^= Du;
 2409              		.loc 1 308 17 discriminator 3 view .LVU866
 2410 0c86 0A99     		ldr	r1, [sp, #40]
 305:fips202.c     ****             Ego ^= Do;
 2411              		.loc 1 305 17 discriminator 3 view .LVU867
 2412 0c88 4CEA887C 		orr	ip, ip, r8, lsl #30
 2413 0c8c 4FEA9808 		lsr	r8, r8, #2
 2414 0c90 48EA8973 		orr	r3, r8, r9, lsl #30
 2415              	.LVL318:
 306:fips202.c     ****             Ego ^= Do;
 2416              		.loc 1 306 13 is_stmt 1 discriminator 3 view .LVU868
 307:fips202.c     ****             BCe = ROL(Ego, 55);
 2417              		.loc 1 307 13 discriminator 3 view .LVU869
 306:fips202.c     ****             Ego ^= Do;
 2418              		.loc 1 306 17 is_stmt 0 discriminator 3 view .LVU870
 2419 0c94 82EA0508 		eor	r8, r2, r5
 2420              		.loc 1 308 17 discriminator 3 view .LVU871
 2421 0c98 349A     		ldr	r2, [sp, #208]
 2422 0c9a 82EA0105 		eor	r5, r2, r1
 2423 0c9e 3D9A     		ldr	r2, [sp, #244]
 2424 0ca0 0B99     		ldr	r1, [sp, #44]
 309:fips202.c     ****             BCi = ROL(Eku, 39);
 2425              		.loc 1 309 17 discriminator 3 view .LVU872
 2426 0ca2 4FEA556B 		lsr	fp, r5, #25
 308:fips202.c     ****             BCi = ROL(Eku, 39);
 2427              		.loc 1 308 17 discriminator 3 view .LVU873
 2428 0ca6 82EA0104 		eor	r4, r2, r1
 2429              		.loc 1 309 17 discriminator 3 view .LVU874
 2430 0caa 4BEAC41B 		orr	fp, fp, r4, lsl #7
 310:fips202.c     ****             Ema ^= Da;
 2431              		.loc 1 310 17 discriminator 3 view .LVU875
 2432 0cae 399A     		ldr	r2, [sp, #228]
 309:fips202.c     ****             BCi = ROL(Eku, 39);
 2433              		.loc 1 309 17 discriminator 3 view .LVU876
 2434 0cb0 610E     		lsrs	r1, r4, #25
 2435              		.loc 1 310 17 discriminator 3 view .LVU877
 2436 0cb2 029C     		ldr	r4, [sp, #8]
 309:fips202.c     ****             BCi = ROL(Eku, 39);
 2437              		.loc 1 309 17 discriminator 3 view .LVU878
 2438 0cb4 41EAC511 		orr	r1, r1, r5, lsl #7
 2439              		.loc 1 310 17 discriminator 3 view .LVU879
 2440 0cb8 6240     		eors	r2, r2, r4
 2441 0cba 039D     		ldr	r5, [sp, #12]
 2442 0cbc 3A9C     		ldr	r4, [sp, #232]
 2443 0cbe 84EA050A 		eor	r10, r4, r5
 311:fips202.c     ****             BCo = ROL(Ema, 41);
 2444              		.loc 1 311 17 discriminator 3 view .LVU880
 2445 0cc2 4FEADA54 		lsr	r4, r10, #23
 2446 0cc6 44EA4224 		orr	r4, r4, r2, lsl #9
 312:fips202.c     ****             Ese ^= De;
 2447              		.loc 1 312 17 discriminator 3 view .LVU881
 2448 0cca 049D     		ldr	r5, [sp, #16]
 311:fips202.c     ****             BCo = ROL(Ema, 41);
 2449              		.loc 1 311 17 discriminator 3 view .LVU882
 2450 0ccc D70D     		lsrs	r7, r2, #23
 2451              		.loc 1 312 17 discriminator 3 view .LVU883
 2452 0cce 359A     		ldr	r2, [sp, #212]
 2453 0cd0 82EA0509 		eor	r9, r2, r5
 2454 0cd4 369A     		ldr	r2, [sp, #216]
 2455 0cd6 059D     		ldr	r5, [sp, #20]
 307:fips202.c     ****             Eku ^= Du;
 2456              		.loc 1 307 17 discriminator 3 view .LVU884
 2457 0cd8 4FEA562E 		lsr	lr, r6, #9
 307:fips202.c     ****             Eku ^= Du;
 2458              		.loc 1 307 17 discriminator 3 view .LVU885
 2459 0cdc 4EEAC85E 		orr	lr, lr, r8, lsl #23
 311:fips202.c     ****             BCo = ROL(Ema, 41);
 2460              		.loc 1 311 17 discriminator 3 view .LVU886
 2461 0ce0 47EA4A27 		orr	r7, r7, r10, lsl #9
 307:fips202.c     ****             Eku ^= Du;
 2462              		.loc 1 307 17 discriminator 3 view .LVU887
 2463 0ce4 4FEA5828 		lsr	r8, r8, #9
 2464              		.loc 1 312 17 discriminator 3 view .LVU888
 2465 0ce8 82EA050A 		eor	r10, r2, r5
 307:fips202.c     ****             Eku ^= Du;
 2466              		.loc 1 307 17 discriminator 3 view .LVU889
 2467 0cec 48EAC658 		orr	r8, r8, r6, lsl #23
 2468              	.LVL319:
 308:fips202.c     ****             BCi = ROL(Eku, 39);
 2469              		.loc 1 308 13 is_stmt 1 discriminator 3 view .LVU890
 309:fips202.c     ****             Ema ^= Da;
 2470              		.loc 1 309 13 discriminator 3 view .LVU891
 310:fips202.c     ****             BCo = ROL(Ema, 41);
 2471              		.loc 1 310 13 discriminator 3 view .LVU892
 311:fips202.c     ****             Ese ^= De;
 2472              		.loc 1 311 13 discriminator 3 view .LVU893
 2473              		.loc 1 312 13 discriminator 3 view .LVU894
 313:fips202.c     ****             BCu = ROL(Ese, 2);
 2474              		.loc 1 313 13 discriminator 3 view .LVU895
 2475              		.loc 1 313 17 is_stmt 0 discriminator 3 view .LVU896
 2476 0cf0 4FEA8A06 		lsl	r6, r10, #2
 2477 0cf4 46EA9975 		orr	r5, r6, r9, lsr #30
 314:fips202.c     ****             Asa =   BCa ^((~BCe)&  BCi );
 2478              		.loc 1 314 33 discriminator 3 view .LVU897
 2479 0cf8 2BEA0E02 		bic	r2, fp, lr
 313:fips202.c     ****             BCu = ROL(Ese, 2);
 2480              		.loc 1 313 17 discriminator 3 view .LVU898
 2481 0cfc 4FEA8909 		lsl	r9, r9, #2
 2482 0d00 49EA9A7A 		orr	r10, r9, r10, lsr #30
 2483              	.LVL320:
 2484              		.loc 1 314 13 is_stmt 1 discriminator 3 view .LVU899
 2485              		.loc 1 314 17 is_stmt 0 discriminator 3 view .LVU900
 2486 0d04 82EA0C02 		eor	r2, r2, ip
 2487              		.loc 1 314 33 discriminator 3 view .LVU901
 2488 0d08 21EA0809 		bic	r9, r1, r8
 2489              		.loc 1 314 17 discriminator 3 view .LVU902
 2490 0d0c 0B92     		str	r2, [sp, #44]
 2491              	.LVL321:
 2492              		.loc 1 314 17 discriminator 3 view .LVU903
 2493 0d0e 89EA0302 		eor	r2, r9, r3
 2494 0d12 3492     		str	r2, [sp, #208]
 2495              	.LVL322:
 315:fips202.c     ****             Ase =   BCe ^((~BCi)&  BCo );
 2496              		.loc 1 315 13 is_stmt 1 discriminator 3 view .LVU904
 2497              		.loc 1 315 33 is_stmt 0 discriminator 3 view .LVU905
 2498 0d14 27EA0B06 		bic	r6, r7, fp
 2499 0d18 24EA0102 		bic	r2, r4, r1
 2500              	.LVL323:
 2501              		.loc 1 315 17 discriminator 3 view .LVU906
 2502 0d1c 86EA0E06 		eor	r6, r6, lr
 2503 0d20 82EA0802 		eor	r2, r2, r8
 2504 0d24 3596     		str	r6, [sp, #212]
 2505 0d26 3692     		str	r2, [sp, #216]
 2506              	.LVL324:
 316:fips202.c     ****             Asi =   BCi ^((~BCo)&  BCu );
 2507              		.loc 1 316 13 is_stmt 1 discriminator 3 view .LVU907
 2508              		.loc 1 316 33 is_stmt 0 discriminator 3 view .LVU908
 2509 0d28 2AEA0706 		bic	r6, r10, r7
 2510              	.LVL325:
 2511              		.loc 1 316 33 discriminator 3 view .LVU909
 2512 0d2c 25EA0402 		bic	r2, r5, r4
 2513              	.LVL326:
 2514              		.loc 1 316 17 discriminator 3 view .LVU910
 2515 0d30 4A40     		eors	r2, r2, r1
 2516 0d32 86EA0B06 		eor	r6, r6, fp
 317:fips202.c     ****             Aso =   BCo ^((~BCu)&  BCa );
 318:fips202.c     ****             Asu =   BCu ^((~BCa)&  BCe );
 2517              		.loc 1 318 33 discriminator 3 view .LVU911
 2518 0d36 2EEA0C0E 		bic	lr, lr, ip
 2519              	.LVL327:
 316:fips202.c     ****             Asi =   BCi ^((~BCo)&  BCu );
 2520              		.loc 1 316 17 discriminator 3 view .LVU912
 2521 0d3a 3796     		str	r6, [sp, #220]
 2522              	.LVL328:
 316:fips202.c     ****             Asi =   BCi ^((~BCo)&  BCu );
 2523              		.loc 1 316 17 discriminator 3 view .LVU913
 2524 0d3c 3892     		str	r2, [sp, #224]
 2525              	.LVL329:
 317:fips202.c     ****             Aso =   BCo ^((~BCu)&  BCa );
 2526              		.loc 1 317 13 is_stmt 1 discriminator 3 view .LVU914
 2527              		.loc 1 318 33 is_stmt 0 discriminator 3 view .LVU915
 2528 0d3e 28EA0306 		bic	r6, r8, r3
 2529              	.LVL330:
 317:fips202.c     ****             Aso =   BCo ^((~BCu)&  BCa );
 2530              		.loc 1 317 33 discriminator 3 view .LVU916
 2531 0d42 23EA0502 		bic	r2, r3, r5
 2532              	.LVL331:
 2533              		.loc 1 318 17 discriminator 3 view .LVU917
 2534 0d46 8EEA0A03 		eor	r3, lr, r10
 2535              	.LVL332:
 2536              		.loc 1 318 17 discriminator 3 view .LVU918
 2537 0d4a 3B93     		str	r3, [sp, #236]
 2538              	.LVL333:
 128:fips202.c     ****         {
 2539              		.loc 1 128 9 discriminator 3 view .LVU919
 2540 0d4c 019B     		ldr	r3, [sp, #4]
 2541 0d4e 1033     		adds	r3, r3, #16
 317:fips202.c     ****             Aso =   BCo ^((~BCu)&  BCa );
 2542              		.loc 1 317 17 discriminator 3 view .LVU920
 2543 0d50 6240     		eors	r2, r2, r4
 128:fips202.c     ****         {
 2544              		.loc 1 128 9 discriminator 3 view .LVU921
 2545 0d52 0193     		str	r3, [sp, #4]
 317:fips202.c     ****             Aso =   BCo ^((~BCu)&  BCa );
 2546              		.loc 1 317 17 discriminator 3 view .LVU922
 2547 0d54 3A92     		str	r2, [sp, #232]
 2548              	.LVL334:
 2549              		.loc 1 318 13 is_stmt 1 discriminator 3 view .LVU923
 128:fips202.c     ****         {
 2550              		.loc 1 128 9 is_stmt 0 discriminator 3 view .LVU924
 2551 0d56 404B     		ldr	r3, .L13
 2552 0d58 019A     		ldr	r2, [sp, #4]
 2553              	.LVL335:
 317:fips202.c     ****             Aso =   BCo ^((~BCu)&  BCa );
 2554              		.loc 1 317 33 discriminator 3 view .LVU925
 2555 0d5a 2CEA0A09 		bic	r9, ip, r10
 317:fips202.c     ****             Aso =   BCo ^((~BCu)&  BCa );
 2556              		.loc 1 317 17 discriminator 3 view .LVU926
 2557 0d5e 89EA0701 		eor	r1, r9, r7
 2558              	.LVL336:
 128:fips202.c     ****         {
 2559              		.loc 1 128 9 discriminator 3 view .LVU927
 2560 0d62 9342     		cmp	r3, r2
 317:fips202.c     ****             Aso =   BCo ^((~BCu)&  BCa );
 2561              		.loc 1 317 17 discriminator 3 view .LVU928
 2562 0d64 3991     		str	r1, [sp, #228]
 2563              	.LVL337:
 2564              		.loc 1 318 17 discriminator 3 view .LVU929
 2565 0d66 86EA0506 		eor	r6, r6, r5
 2566              	.LVL338:
 128:fips202.c     ****         {
 2567              		.loc 1 128 42 is_stmt 1 discriminator 3 view .LVU930
 128:fips202.c     ****         {
 2568              		.loc 1 128 25 discriminator 3 view .LVU931
 128:fips202.c     ****         {
 2569              		.loc 1 128 9 is_stmt 0 discriminator 3 view .LVU932
 2570 0d6a 7FF4C7A9 		bne	.L8
 319:fips202.c     ****         }
 320:fips202.c     **** 
 321:fips202.c     ****         //copyToState(state, A)
 322:fips202.c     ****         state[ 0] = Aba;
 2571              		.loc 1 322 9 is_stmt 1 view .LVU933
 2572              		.loc 1 322 19 is_stmt 0 view .LVU934
 2573 0d6e 0C9B     		ldr	r3, [sp, #48]
 2574 0d70 0360     		str	r3, [r0]
 2575 0d72 0D9B     		ldr	r3, [sp, #52]
 2576 0d74 4360     		str	r3, [r0, #4]
 323:fips202.c     ****         state[ 1] = Abe;
 2577              		.loc 1 323 9 is_stmt 1 view .LVU935
 2578              		.loc 1 323 19 is_stmt 0 view .LVU936
 2579 0d76 0E9B     		ldr	r3, [sp, #56]
 2580 0d78 8360     		str	r3, [r0, #8]
 2581 0d7a 0F9B     		ldr	r3, [sp, #60]
 2582 0d7c C360     		str	r3, [r0, #12]
 324:fips202.c     ****         state[ 2] = Abi;
 2583              		.loc 1 324 9 is_stmt 1 view .LVU937
 2584              		.loc 1 324 19 is_stmt 0 view .LVU938
 2585 0d7e 109B     		ldr	r3, [sp, #64]
 2586 0d80 0361     		str	r3, [r0, #16]
 2587 0d82 119B     		ldr	r3, [sp, #68]
 2588 0d84 4361     		str	r3, [r0, #20]
 325:fips202.c     ****         state[ 3] = Abo;
 2589              		.loc 1 325 9 is_stmt 1 view .LVU939
 2590              		.loc 1 325 19 is_stmt 0 view .LVU940
 2591 0d86 129B     		ldr	r3, [sp, #72]
 2592 0d88 8361     		str	r3, [r0, #24]
 2593 0d8a 139B     		ldr	r3, [sp, #76]
 2594 0d8c C361     		str	r3, [r0, #28]
 326:fips202.c     ****         state[ 4] = Abu;
 2595              		.loc 1 326 9 is_stmt 1 view .LVU941
 2596              		.loc 1 326 19 is_stmt 0 view .LVU942
 2597 0d8e 149B     		ldr	r3, [sp, #80]
 2598 0d90 0362     		str	r3, [r0, #32]
 2599 0d92 159B     		ldr	r3, [sp, #84]
 2600 0d94 4362     		str	r3, [r0, #36]
 327:fips202.c     ****         state[ 5] = Aga;
 2601              		.loc 1 327 9 is_stmt 1 view .LVU943
 2602              		.loc 1 327 19 is_stmt 0 view .LVU944
 2603 0d96 169B     		ldr	r3, [sp, #88]
 2604 0d98 8362     		str	r3, [r0, #40]
 2605 0d9a 179B     		ldr	r3, [sp, #92]
 2606 0d9c C362     		str	r3, [r0, #44]
 328:fips202.c     ****         state[ 6] = Age;
 2607              		.loc 1 328 9 is_stmt 1 view .LVU945
 2608              		.loc 1 328 19 is_stmt 0 view .LVU946
 2609 0d9e 189B     		ldr	r3, [sp, #96]
 2610 0da0 0363     		str	r3, [r0, #48]
 2611 0da2 199B     		ldr	r3, [sp, #100]
 2612 0da4 4363     		str	r3, [r0, #52]
 329:fips202.c     ****         state[ 7] = Agi;
 2613              		.loc 1 329 9 is_stmt 1 view .LVU947
 2614              		.loc 1 329 19 is_stmt 0 view .LVU948
 2615 0da6 1A9B     		ldr	r3, [sp, #104]
 2616 0da8 8363     		str	r3, [r0, #56]
 2617 0daa 1B9B     		ldr	r3, [sp, #108]
 2618 0dac C363     		str	r3, [r0, #60]
 330:fips202.c     ****         state[ 8] = Ago;
 2619              		.loc 1 330 9 is_stmt 1 view .LVU949
 2620              		.loc 1 330 19 is_stmt 0 view .LVU950
 2621 0dae 1C9B     		ldr	r3, [sp, #112]
 2622 0db0 0364     		str	r3, [r0, #64]
 2623 0db2 1D9B     		ldr	r3, [sp, #116]
 2624 0db4 4364     		str	r3, [r0, #68]
 331:fips202.c     ****         state[ 9] = Agu;
 2625              		.loc 1 331 9 is_stmt 1 view .LVU951
 2626              		.loc 1 331 19 is_stmt 0 view .LVU952
 2627 0db6 1E9B     		ldr	r3, [sp, #120]
 2628 0db8 8364     		str	r3, [r0, #72]
 2629 0dba 1F9B     		ldr	r3, [sp, #124]
 2630 0dbc C364     		str	r3, [r0, #76]
 332:fips202.c     ****         state[10] = Aka;
 2631              		.loc 1 332 9 is_stmt 1 view .LVU953
 2632              		.loc 1 332 19 is_stmt 0 view .LVU954
 2633 0dbe 209B     		ldr	r3, [sp, #128]
 2634 0dc0 0365     		str	r3, [r0, #80]
 2635 0dc2 219B     		ldr	r3, [sp, #132]
 2636 0dc4 4365     		str	r3, [r0, #84]
 333:fips202.c     ****         state[11] = Ake;
 2637              		.loc 1 333 9 is_stmt 1 view .LVU955
 2638              		.loc 1 333 19 is_stmt 0 view .LVU956
 2639 0dc6 229B     		ldr	r3, [sp, #136]
 2640 0dc8 8365     		str	r3, [r0, #88]
 2641 0dca 239B     		ldr	r3, [sp, #140]
 2642 0dcc C365     		str	r3, [r0, #92]
 334:fips202.c     ****         state[12] = Aki;
 2643              		.loc 1 334 9 is_stmt 1 view .LVU957
 2644              		.loc 1 334 19 is_stmt 0 view .LVU958
 2645 0dce 249B     		ldr	r3, [sp, #144]
 2646 0dd0 0366     		str	r3, [r0, #96]
 2647 0dd2 259B     		ldr	r3, [sp, #148]
 2648 0dd4 4366     		str	r3, [r0, #100]
 335:fips202.c     ****         state[13] = Ako;
 2649              		.loc 1 335 9 is_stmt 1 view .LVU959
 2650              		.loc 1 335 19 is_stmt 0 view .LVU960
 2651 0dd6 269B     		ldr	r3, [sp, #152]
 2652 0dd8 8366     		str	r3, [r0, #104]
 2653 0dda 279B     		ldr	r3, [sp, #156]
 2654 0ddc C366     		str	r3, [r0, #108]
 336:fips202.c     ****         state[14] = Aku;
 2655              		.loc 1 336 9 is_stmt 1 view .LVU961
 2656              		.loc 1 336 19 is_stmt 0 view .LVU962
 2657 0dde 289B     		ldr	r3, [sp, #160]
 2658 0de0 0367     		str	r3, [r0, #112]
 2659 0de2 299B     		ldr	r3, [sp, #164]
 2660 0de4 4367     		str	r3, [r0, #116]
 337:fips202.c     ****         state[15] = Ama;
 2661              		.loc 1 337 9 is_stmt 1 view .LVU963
 2662              		.loc 1 337 19 is_stmt 0 view .LVU964
 2663 0de6 2A9B     		ldr	r3, [sp, #168]
 2664 0de8 8367     		str	r3, [r0, #120]
 2665 0dea 2B9B     		ldr	r3, [sp, #172]
 2666 0dec C367     		str	r3, [r0, #124]
 338:fips202.c     ****         state[16] = Ame;
 2667              		.loc 1 338 9 is_stmt 1 view .LVU965
 2668              		.loc 1 338 19 is_stmt 0 view .LVU966
 2669 0dee 2C9B     		ldr	r3, [sp, #176]
 2670 0df0 C0F88030 		str	r3, [r0, #128]
 2671 0df4 2D9B     		ldr	r3, [sp, #180]
 2672 0df6 C0F88430 		str	r3, [r0, #132]
 339:fips202.c     ****         state[17] = Ami;
 2673              		.loc 1 339 9 is_stmt 1 view .LVU967
 2674              		.loc 1 339 19 is_stmt 0 view .LVU968
 2675 0dfa 2E9B     		ldr	r3, [sp, #184]
 2676 0dfc C0F88830 		str	r3, [r0, #136]
 2677 0e00 2F9B     		ldr	r3, [sp, #188]
 2678 0e02 C0F88C30 		str	r3, [r0, #140]
 340:fips202.c     ****         state[18] = Amo;
 2679              		.loc 1 340 9 is_stmt 1 view .LVU969
 2680              		.loc 1 340 19 is_stmt 0 view .LVU970
 2681 0e06 309B     		ldr	r3, [sp, #192]
 2682 0e08 C0F89030 		str	r3, [r0, #144]
 2683 0e0c 319B     		ldr	r3, [sp, #196]
 2684 0e0e C0F89430 		str	r3, [r0, #148]
 341:fips202.c     ****         state[19] = Amu;
 2685              		.loc 1 341 9 is_stmt 1 view .LVU971
 2686              		.loc 1 341 19 is_stmt 0 view .LVU972
 2687 0e12 329B     		ldr	r3, [sp, #200]
 2688 0e14 C0F89830 		str	r3, [r0, #152]
 2689 0e18 339B     		ldr	r3, [sp, #204]
 2690 0e1a C0F89C30 		str	r3, [r0, #156]
 342:fips202.c     ****         state[20] = Asa;
 2691              		.loc 1 342 9 is_stmt 1 view .LVU973
 2692              		.loc 1 342 19 is_stmt 0 view .LVU974
 2693 0e1e 0B9B     		ldr	r3, [sp, #44]
 2694 0e20 C0F8A030 		str	r3, [r0, #160]
 2695 0e24 349B     		ldr	r3, [sp, #208]
 2696 0e26 C0F8A430 		str	r3, [r0, #164]
 343:fips202.c     ****         state[21] = Ase;
 2697              		.loc 1 343 9 is_stmt 1 view .LVU975
 2698              		.loc 1 343 19 is_stmt 0 view .LVU976
 2699 0e2a 359B     		ldr	r3, [sp, #212]
 2700 0e2c C0F8A830 		str	r3, [r0, #168]
 2701 0e30 369B     		ldr	r3, [sp, #216]
 2702 0e32 C0F8AC30 		str	r3, [r0, #172]
 344:fips202.c     ****         state[22] = Asi;
 2703              		.loc 1 344 9 is_stmt 1 view .LVU977
 2704              		.loc 1 344 19 is_stmt 0 view .LVU978
 2705 0e36 379B     		ldr	r3, [sp, #220]
 2706 0e38 C0F8B030 		str	r3, [r0, #176]
 2707 0e3c 389B     		ldr	r3, [sp, #224]
 2708 0e3e C0F8B430 		str	r3, [r0, #180]
 345:fips202.c     ****         state[23] = Aso;
 2709              		.loc 1 345 9 is_stmt 1 view .LVU979
 2710              		.loc 1 345 19 is_stmt 0 view .LVU980
 2711 0e42 3A9B     		ldr	r3, [sp, #232]
 2712 0e44 C0F8BC30 		str	r3, [r0, #188]
 346:fips202.c     ****         state[24] = Asu;
 2713              		.loc 1 346 9 is_stmt 1 view .LVU981
 2714              		.loc 1 346 19 is_stmt 0 view .LVU982
 2715 0e48 3B9B     		ldr	r3, [sp, #236]
 345:fips202.c     ****         state[23] = Aso;
 2716              		.loc 1 345 19 view .LVU983
 2717 0e4a C0F8B810 		str	r1, [r0, #184]
 2718              		.loc 1 346 19 view .LVU984
 2719 0e4e C0E93036 		strd	r3, r6, [r0, #192]
 347:fips202.c     **** }
 2720              		.loc 1 347 1 view .LVU985
 2721 0e52 3FB0     		add	sp, sp, #252
 2722              	.LCFI4:
 2723              		.cfi_def_cfa_offset 36
 2724              		@ sp needed
 2725 0e54 BDE8F08F 		pop	{r4, r5, r6, r7, r8, r9, r10, fp, pc}
 2726              	.LVL339:
 2727              	.L14:
 2728              		.loc 1 347 1 view .LVU986
 2729              		.align	2
 2730              	.L13:
 2731 0e58 C0000000 		.word	.LANCHOR0+192
 2732              		.cfi_endproc
 2733              	.LFE2:
 2735              		.section	.text.keccak_init,"ax",%progbits
 2736              		.align	1
 2737              		.syntax unified
 2738              		.thumb
 2739              		.thumb_func
 2740              		.fpu softvfp
 2742              	keccak_init:
 2743              	.LVL340:
 2744              	.LFB3:
 348:fips202.c     **** 
 349:fips202.c     **** /*************************************************
 350:fips202.c     **** * Name:        keccak_init
 351:fips202.c     **** *
 352:fips202.c     **** * Description: Initializes the Keccak state.
 353:fips202.c     **** *
 354:fips202.c     **** * Arguments:   - keccak_state *state: pointer to Keccak state
 355:fips202.c     **** **************************************************/
 356:fips202.c     **** static void keccak_init(keccak_state *state)
 357:fips202.c     **** {
 2745              		.loc 1 357 1 is_stmt 1 view -0
 2746              		.cfi_startproc
 2747              		@ args = 0, pretend = 0, frame = 0
 2748              		@ frame_needed = 0, uses_anonymous_args = 0
 358:fips202.c     ****   unsigned int i;
 2749              		.loc 1 358 3 view .LVU988
 359:fips202.c     ****   for(i=0;i<25;i++)
 2750              		.loc 1 359 3 view .LVU989
 2751              		.loc 1 359 11 view .LVU990
 357:fips202.c     ****   unsigned int i;
 2752              		.loc 1 357 1 is_stmt 0 view .LVU991
 2753 0000 10B5     		push	{r4, lr}
 2754              	.LCFI5:
 2755              		.cfi_def_cfa_offset 8
 2756              		.cfi_offset 4, -8
 2757              		.cfi_offset 14, -4
 360:fips202.c     ****     state->s[i] = 0;
 2758              		.loc 1 360 17 view .LVU992
 2759 0002 C822     		movs	r2, #200
 357:fips202.c     ****   unsigned int i;
 2760              		.loc 1 357 1 view .LVU993
 2761 0004 0446     		mov	r4, r0
 2762              		.loc 1 360 17 view .LVU994
 2763 0006 0021     		movs	r1, #0
 2764 0008 FFF7FEFF 		bl	memset
 2765              	.LVL341:
 361:fips202.c     ****   state->pos = 0;
 2766              		.loc 1 361 3 is_stmt 1 view .LVU995
 2767              		.loc 1 361 14 is_stmt 0 view .LVU996
 2768 000c 0023     		movs	r3, #0
 2769 000e C4F8C830 		str	r3, [r4, #200]
 362:fips202.c     **** }
 2770              		.loc 1 362 1 view .LVU997
 2771 0012 10BD     		pop	{r4, pc}
 2772              		.loc 1 362 1 view .LVU998
 2773              		.cfi_endproc
 2774              	.LFE3:
 2776              		.section	.text.keccak_absorb,"ax",%progbits
 2777              		.align	1
 2778              		.syntax unified
 2779              		.thumb
 2780              		.thumb_func
 2781              		.fpu softvfp
 2783              	keccak_absorb:
 2784              	.LVL342:
 2785              	.LFB4:
 363:fips202.c     **** 
 364:fips202.c     **** /*************************************************
 365:fips202.c     **** * Name:        keccak_absorb
 366:fips202.c     **** *
 367:fips202.c     **** * Description: Absorb step of Keccak; incremental.
 368:fips202.c     **** *
 369:fips202.c     **** * Arguments:   - uint64_t *s:      pointer to Keccak state
 370:fips202.c     **** *              - unsigned int r:   rate in bytes (e.g., 168 for SHAKE128)
 371:fips202.c     **** *              - unsigned int pos: position in current block to be absorbed
 372:fips202.c     **** *              - const uint8_t *m: pointer to input to be absorbed into s
 373:fips202.c     **** *              - size_t mlen:      length of input in bytes
 374:fips202.c     **** *
 375:fips202.c     **** * Returns new position pos in current block
 376:fips202.c     **** **************************************************/
 377:fips202.c     **** static unsigned int keccak_absorb(uint64_t s[25],
 378:fips202.c     ****                                   unsigned int r,
 379:fips202.c     ****                                   unsigned int pos,
 380:fips202.c     ****                                   const uint8_t *m,
 381:fips202.c     ****                                   size_t mlen)
 382:fips202.c     **** {
 2786              		.loc 1 382 1 is_stmt 1 view -0
 2787              		.cfi_startproc
 2788              		@ args = 4, pretend = 0, frame = 16
 2789              		@ frame_needed = 0, uses_anonymous_args = 0
 2790              		.loc 1 382 1 is_stmt 0 view .LVU1000
 2791 0000 2DE9F04F 		push	{r4, r5, r6, r7, r8, r9, r10, fp, lr}
 2792              	.LCFI6:
 2793              		.cfi_def_cfa_offset 36
 2794              		.cfi_offset 4, -36
 2795              		.cfi_offset 5, -32
 2796              		.cfi_offset 6, -28
 2797              		.cfi_offset 7, -24
 2798              		.cfi_offset 8, -20
 2799              		.cfi_offset 9, -16
 2800              		.cfi_offset 10, -12
 2801              		.cfi_offset 11, -8
 2802              		.cfi_offset 14, -4
 2803 0004 85B0     		sub	sp, sp, #20
 2804              	.LCFI7:
 2805              		.cfi_def_cfa_offset 56
 2806              		.loc 1 382 1 view .LVU1001
 2807 0006 1C46     		mov	r4, r3
 383:fips202.c     ****   unsigned int i;
 384:fips202.c     ****   uint8_t t[8] = {0};
 385:fips202.c     **** 
 386:fips202.c     ****   if(pos & 7) {
 2808              		.loc 1 386 5 view .LVU1002
 2809 0008 12F00708 		ands	r8, r2, #7
 384:fips202.c     **** 
 2810              		.loc 1 384 11 view .LVU1003
 2811 000c 4FF00003 		mov	r3, #0
 2812              	.LVL343:
 384:fips202.c     **** 
 2813              		.loc 1 384 11 view .LVU1004
 2814 0010 CDE90233 		strd	r3, r3, [sp, #8]
 382:fips202.c     ****   unsigned int i;
 2815              		.loc 1 382 1 view .LVU1005
 2816 0014 0E9E     		ldr	r6, [sp, #56]
 2817 0016 0746     		mov	r7, r0
 2818 0018 8946     		mov	r9, r1
 2819 001a 1546     		mov	r5, r2
 383:fips202.c     ****   unsigned int i;
 2820              		.loc 1 383 3 is_stmt 1 view .LVU1006
 384:fips202.c     **** 
 2821              		.loc 1 384 3 view .LVU1007
 2822              		.loc 1 386 3 view .LVU1008
 2823              		.loc 1 386 5 is_stmt 0 view .LVU1009
 2824 001c 21D0     		beq	.L18
 2825              	.LVL344:
 2826              	.L17:
 387:fips202.c     ****     i = pos & 7;
 388:fips202.c     ****     while(i < 8 && mlen > 0) {
 2827              		.loc 1 388 17 discriminator 1 view .LVU1010
 2828 001e 6EB1     		cbz	r6, .L19
 389:fips202.c     ****       t[i++] = *m++;
 2829              		.loc 1 389 7 is_stmt 1 view .LVU1011
 2830              	.LVL345:
 2831              		.loc 1 389 14 is_stmt 0 view .LVU1012
 2832 0020 02AA     		add	r2, sp, #8
 2833 0022 14F8013B 		ldrb	r3, [r4], #1	@ zero_extendqisi2
 2834              	.LVL346:
 2835              		.loc 1 389 14 view .LVU1013
 2836 0026 02F80830 		strb	r3, [r2, r8]
 390:fips202.c     ****       mlen--;
 2837              		.loc 1 390 7 is_stmt 1 view .LVU1014
 388:fips202.c     ****       t[i++] = *m++;
 2838              		.loc 1 388 10 is_stmt 0 view .LVU1015
 2839 002a 08F10108 		add	r8, r8, #1
 2840              	.LVL347:
 388:fips202.c     ****       t[i++] = *m++;
 2841              		.loc 1 388 10 view .LVU1016
 2842 002e B8F1080F 		cmp	r8, #8
 2843              		.loc 1 390 11 view .LVU1017
 2844 0032 06F1FF36 		add	r6, r6, #-1
 2845              	.LVL348:
 391:fips202.c     ****       pos++;
 2846              		.loc 1 391 7 is_stmt 1 view .LVU1018
 2847              		.loc 1 391 10 is_stmt 0 view .LVU1019
 2848 0036 05F10105 		add	r5, r5, #1
 2849              	.LVL349:
 388:fips202.c     ****       t[i++] = *m++;
 2850              		.loc 1 388 10 is_stmt 1 view .LVU1020
 2851 003a F0D1     		bne	.L17
 2852              	.LVL350:
 2853              	.L19:
 392:fips202.c     ****     }
 393:fips202.c     ****     s[(pos-i)/8] ^= load64(t);
 2854              		.loc 1 393 5 view .LVU1021
 2855              		.loc 1 393 18 is_stmt 0 view .LVU1022
 2856 003c A5EB0808 		sub	r8, r5, r8
 2857 0040 28F00708 		bic	r8, r8, #7
 2858              		.loc 1 393 21 view .LVU1023
 2859 0044 02A8     		add	r0, sp, #8
 2860              	.LVL351:
 2861              		.loc 1 393 21 view .LVU1024
 2862 0046 FFF7FEFF 		bl	load64
 2863              	.LVL352:
 2864              		.loc 1 393 18 view .LVU1025
 2865 004a 07EB080C 		add	ip, r7, r8
 2866 004e 57F80820 		ldr	r2, [r7, r8]
 2867 0052 DCF80430 		ldr	r3, [ip, #4]
 2868 0056 4240     		eors	r2, r2, r0
 2869 0058 4B40     		eors	r3, r3, r1
 2870 005a 47F80820 		str	r2, [r7, r8]
 2871 005e CCF80430 		str	r3, [ip, #4]
 2872              	.LVL353:
 2873              	.L18:
 394:fips202.c     ****   }
 395:fips202.c     **** 
 396:fips202.c     ****   if(pos && mlen >= r-pos) {
 2874              		.loc 1 396 3 is_stmt 1 view .LVU1026
 2875              		.loc 1 396 5 is_stmt 0 view .LVU1027
 2876 0062 A5B1     		cbz	r5, .L21
 2877              		.loc 1 396 22 discriminator 1 view .LVU1028
 2878 0064 A9EB050B 		sub	fp, r9, r5
 2879              		.loc 1 396 10 discriminator 1 view .LVU1029
 2880 0068 B345     		cmp	fp, r6
 2881 006a 10D8     		bhi	.L21
 2882 006c 25F00708 		bic	r8, r5, #7
 2883 0070 2BF00703 		bic	r3, fp, #7
 2884 0074 A246     		mov	r10, r4
 2885 0076 B844     		add	r8, r8, r7
 2886 0078 2344     		add	r3, r3, r4
 2887              	.L22:
 397:fips202.c     ****     for(i=0;i<(r-pos)/8;i++)
 2888              		.loc 1 397 13 is_stmt 1 discriminator 1 view .LVU1030
 2889              		.loc 1 397 5 is_stmt 0 discriminator 1 view .LVU1031
 2890 007a 5345     		cmp	r3, r10
 2891 007c 0AD1     		bne	.L23
 398:fips202.c     ****       s[pos/8+i] ^= load64(m+8*i);
 399:fips202.c     ****     m += r-pos;
 2892              		.loc 1 399 5 is_stmt 1 view .LVU1032
 2893              	.LVL354:
 400:fips202.c     ****     mlen -= r-pos;
 401:fips202.c     ****     pos = 0;
 402:fips202.c     ****     KeccakF1600_StatePermute(s);
 2894              		.loc 1 402 5 is_stmt 0 view .LVU1033
 2895 007e 3846     		mov	r0, r7
 2896 0080 FFF7FEFF 		bl	KeccakF1600_StatePermute
 2897              	.LVL355:
 2898 0084 2E44     		add	r6, r6, r5
 2899              	.LVL356:
 399:fips202.c     ****     mlen -= r-pos;
 2900              		.loc 1 399 7 view .LVU1034
 2901 0086 5C44     		add	r4, r4, fp
 2902              	.LVL357:
 400:fips202.c     ****     mlen -= r-pos;
 2903              		.loc 1 400 5 is_stmt 1 view .LVU1035
 400:fips202.c     ****     mlen -= r-pos;
 2904              		.loc 1 400 10 is_stmt 0 view .LVU1036
 2905 0088 A6EB0906 		sub	r6, r6, r9
 2906              	.LVL358:
 401:fips202.c     ****     KeccakF1600_StatePermute(s);
 2907              		.loc 1 401 5 is_stmt 1 view .LVU1037
 2908              		.loc 1 402 5 view .LVU1038
 401:fips202.c     ****     KeccakF1600_StatePermute(s);
 2909              		.loc 1 401 9 is_stmt 0 view .LVU1039
 2910 008c 0025     		movs	r5, #0
 2911              	.LVL359:
 2912              	.L21:
 403:fips202.c     ****   }
 404:fips202.c     **** 
 405:fips202.c     ****   while(mlen >= r) {
 406:fips202.c     ****     for(i=0;i<r/8;i++)
 2913              		.loc 1 406 16 view .LVU1040
 2914 008e 4FEAD90B 		lsr	fp, r9, #3
 2915 0092 29E0     		b	.L25
 2916              	.LVL360:
 2917              	.L23:
 398:fips202.c     ****     m += r-pos;
 2918              		.loc 1 398 21 discriminator 3 view .LVU1041
 2919 0094 5046     		mov	r0, r10
 2920 0096 0193     		str	r3, [sp, #4]
 398:fips202.c     ****     m += r-pos;
 2921              		.loc 1 398 7 is_stmt 1 discriminator 3 view .LVU1042
 398:fips202.c     ****     m += r-pos;
 2922              		.loc 1 398 21 is_stmt 0 discriminator 3 view .LVU1043
 2923 0098 FFF7FEFF 		bl	load64
 2924              	.LVL361:
 398:fips202.c     ****     m += r-pos;
 2925              		.loc 1 398 18 discriminator 3 view .LVU1044
 2926 009c D8E90032 		ldrd	r3, r2, [r8]
 2927 00a0 5840     		eors	r0, r0, r3
 2928 00a2 48F8080B 		str	r0, [r8], #8
 2929 00a6 4A40     		eors	r2, r2, r1
 2930 00a8 019B     		ldr	r3, [sp, #4]
 2931 00aa 48F8042C 		str	r2, [r8, #-4]
 397:fips202.c     ****       s[pos/8+i] ^= load64(m+8*i);
 2932              		.loc 1 397 25 is_stmt 1 discriminator 3 view .LVU1045
 2933 00ae 0AF1080A 		add	r10, r10, #8
 2934 00b2 E2E7     		b	.L22
 2935              	.LVL362:
 2936              	.L26:
 397:fips202.c     ****       s[pos/8+i] ^= load64(m+8*i);
 2937              		.loc 1 397 25 is_stmt 0 discriminator 3 view .LVU1046
 2938 00b4 A7F10808 		sub	r8, r7, #8
 2939              		.loc 1 406 10 view .LVU1047
 2940 00b8 4FF0000A 		mov	r10, #0
 2941              	.L24:
 2942              	.LVL363:
 407:fips202.c     ****       s[i] ^= load64(m+8*i);
 2943              		.loc 1 407 7 is_stmt 1 discriminator 3 view .LVU1048
 2944              		.loc 1 407 15 is_stmt 0 discriminator 3 view .LVU1049
 2945 00bc 04EBCA00 		add	r0, r4, r10, lsl #3
 2946 00c0 FFF7FEFF 		bl	load64
 2947              	.LVL364:
 2948              		.loc 1 407 12 discriminator 3 view .LVU1050
 2949 00c4 58F8082F 		ldr	r2, [r8, #8]!
 2950 00c8 D8F80430 		ldr	r3, [r8, #4]
 406:fips202.c     ****       s[i] ^= load64(m+8*i);
 2951              		.loc 1 406 20 discriminator 3 view .LVU1051
 2952 00cc 0AF1010A 		add	r10, r10, #1
 2953              	.LVL365:
 2954              		.loc 1 407 12 discriminator 3 view .LVU1052
 2955 00d0 4240     		eors	r2, r2, r0
 2956 00d2 4B40     		eors	r3, r3, r1
 406:fips202.c     ****       s[i] ^= load64(m+8*i);
 2957              		.loc 1 406 5 discriminator 3 view .LVU1053
 2958 00d4 D345     		cmp	fp, r10
 2959              		.loc 1 407 12 discriminator 3 view .LVU1054
 2960 00d6 C8E90023 		strd	r2, r3, [r8]
 406:fips202.c     ****       s[i] ^= load64(m+8*i);
 2961              		.loc 1 406 19 is_stmt 1 discriminator 3 view .LVU1055
 2962              	.LVL366:
 406:fips202.c     ****       s[i] ^= load64(m+8*i);
 2963              		.loc 1 406 13 discriminator 3 view .LVU1056
 406:fips202.c     ****       s[i] ^= load64(m+8*i);
 2964              		.loc 1 406 5 is_stmt 0 discriminator 3 view .LVU1057
 2965 00da EFD8     		bhi	.L24
 408:fips202.c     ****     m += r;
 2966              		.loc 1 408 5 is_stmt 1 view .LVU1058
 2967              	.LVL367:
 409:fips202.c     ****     mlen -= r;
 410:fips202.c     ****     KeccakF1600_StatePermute(s);
 2968              		.loc 1 410 5 is_stmt 0 view .LVU1059
 2969 00dc 3846     		mov	r0, r7
 408:fips202.c     ****     m += r;
 2970              		.loc 1 408 7 view .LVU1060
 2971 00de 4C44     		add	r4, r4, r9
 2972              	.LVL368:
 409:fips202.c     ****     mlen -= r;
 2973              		.loc 1 409 5 is_stmt 1 view .LVU1061
 409:fips202.c     ****     mlen -= r;
 2974              		.loc 1 409 10 is_stmt 0 view .LVU1062
 2975 00e0 A6EB0906 		sub	r6, r6, r9
 2976              	.LVL369:
 2977              		.loc 1 410 5 is_stmt 1 view .LVU1063
 2978 00e4 FFF7FEFF 		bl	KeccakF1600_StatePermute
 2979              	.LVL370:
 2980              	.L25:
 405:fips202.c     ****     for(i=0;i<r/8;i++)
 2981              		.loc 1 405 8 view .LVU1064
 2982 00e8 4E45     		cmp	r6, r9
 2983 00ea E3D2     		bcs	.L26
 405:fips202.c     ****     for(i=0;i<r/8;i++)
 2984              		.loc 1 405 8 is_stmt 0 view .LVU1065
 2985 00ec 25F00708 		bic	r8, r5, #7
 2986 00f0 26F00709 		bic	r9, r6, #7
 2987              	.LVL371:
 405:fips202.c     ****     for(i=0;i<r/8;i++)
 2988              		.loc 1 405 8 view .LVU1066
 2989 00f4 B844     		add	r8, r8, r7
 2990 00f6 04EB090A 		add	r10, r4, r9
 2991              	.L27:
 411:fips202.c     ****   }
 412:fips202.c     **** 
 413:fips202.c     ****   for(i=0;i<mlen/8;i++)
 2992              		.loc 1 413 11 is_stmt 1 discriminator 1 view .LVU1067
 2993              		.loc 1 413 3 is_stmt 0 discriminator 1 view .LVU1068
 2994 00fa A245     		cmp	r10, r4
 2995 00fc 1FD1     		bne	.L28
 414:fips202.c     ****     s[pos/8+i] ^= load64(m+8*i);
 415:fips202.c     ****   m += 8*i;
 2996              		.loc 1 415 3 is_stmt 1 view .LVU1069
 416:fips202.c     ****   mlen -= 8*i;
 2997              		.loc 1 416 3 view .LVU1070
 2998              	.LVL372:
 417:fips202.c     ****   pos += 8*i;
 2999              		.loc 1 417 3 view .LVU1071
 418:fips202.c     **** 
 419:fips202.c     ****   if(mlen) {
 3000              		.loc 1 419 5 is_stmt 0 view .LVU1072
 3001 00fe B6EB0902 		subs	r2, r6, r9
 3002              	.LVL373:
 417:fips202.c     ****   pos += 8*i;
 3003              		.loc 1 417 7 view .LVU1073
 3004 0102 05EB0904 		add	r4, r5, r9
 3005              	.LVL374:
 3006              		.loc 1 419 3 is_stmt 1 view .LVU1074
 3007              		.loc 1 419 5 is_stmt 0 view .LVU1075
 3008 0106 16D0     		beq	.L16
 420:fips202.c     ****     for(i=0;i<8;i++)
 421:fips202.c     ****       t[i] = 0;
 3009              		.loc 1 421 12 view .LVU1076
 3010 0108 0023     		movs	r3, #0
 422:fips202.c     ****     for(i=0;i<mlen;i++)
 423:fips202.c     ****       t[i] = m[i];
 3011              		.loc 1 423 12 view .LVU1077
 3012 010a 5146     		mov	r1, r10
 3013 010c 02A8     		add	r0, sp, #8
 424:fips202.c     ****     s[pos/8] ^= load64(t);
 3014              		.loc 1 424 14 view .LVU1078
 3015 010e 24F00704 		bic	r4, r4, #7
 3016              	.LVL375:
 421:fips202.c     ****     for(i=0;i<mlen;i++)
 3017              		.loc 1 421 12 view .LVU1079
 3018 0112 CDE90233 		strd	r3, r3, [sp, #8]
 423:fips202.c     ****     s[pos/8] ^= load64(t);
 3019              		.loc 1 423 12 view .LVU1080
 3020 0116 FFF7FEFF 		bl	memcpy
 3021              	.LVL376:
 3022              		.loc 1 424 5 is_stmt 1 view .LVU1081
 3023              		.loc 1 424 17 is_stmt 0 view .LVU1082
 3024 011a 02A8     		add	r0, sp, #8
 3025 011c FFF7FEFF 		bl	load64
 3026              	.LVL377:
 3027              		.loc 1 424 14 view .LVU1083
 3028 0120 07EB040C 		add	ip, r7, r4
 3029 0124 3A59     		ldr	r2, [r7, r4]
 3030 0126 DCF80430 		ldr	r3, [ip, #4]
 3031 012a 4240     		eors	r2, r2, r0
 3032 012c 5940     		eors	r1, r1, r3
 3033 012e 3A51     		str	r2, [r7, r4]
 3034 0130 CCF80410 		str	r1, [ip, #4]
 425:fips202.c     ****     pos += mlen;
 3035              		.loc 1 425 5 is_stmt 1 view .LVU1084
 3036              		.loc 1 425 9 is_stmt 0 view .LVU1085
 3037 0134 7419     		adds	r4, r6, r5
 3038              	.LVL378:
 426:fips202.c     ****   }
 427:fips202.c     **** 
 428:fips202.c     ****   return pos;
 3039              		.loc 1 428 3 is_stmt 1 view .LVU1086
 3040              	.L16:
 429:fips202.c     **** }
 3041              		.loc 1 429 1 is_stmt 0 view .LVU1087
 3042 0136 2046     		mov	r0, r4
 3043 0138 05B0     		add	sp, sp, #20
 3044              	.LCFI8:
 3045              		.cfi_remember_state
 3046              		.cfi_def_cfa_offset 36
 3047              		@ sp needed
 3048 013a BDE8F08F 		pop	{r4, r5, r6, r7, r8, r9, r10, fp, pc}
 3049              	.LVL379:
 3050              	.L28:
 3051              	.LCFI9:
 3052              		.cfi_restore_state
 414:fips202.c     ****   m += 8*i;
 3053              		.loc 1 414 5 is_stmt 1 discriminator 3 view .LVU1088
 414:fips202.c     ****   m += 8*i;
 3054              		.loc 1 414 19 is_stmt 0 discriminator 3 view .LVU1089
 3055 013e 2046     		mov	r0, r4
 3056 0140 FFF7FEFF 		bl	load64
 3057              	.LVL380:
 414:fips202.c     ****   m += 8*i;
 3058              		.loc 1 414 16 discriminator 3 view .LVU1090
 3059 0144 D8E90023 		ldrd	r2, r3, [r8]
 3060 0148 4240     		eors	r2, r2, r0
 3061 014a 48F8082B 		str	r2, [r8], #8
 3062 014e 4B40     		eors	r3, r3, r1
 3063 0150 48F8043C 		str	r3, [r8, #-4]
 413:fips202.c     ****     s[pos/8+i] ^= load64(m+8*i);
 3064              		.loc 1 413 20 is_stmt 1 discriminator 3 view .LVU1091
 3065 0154 0834     		adds	r4, r4, #8
 3066 0156 D0E7     		b	.L27
 3067              		.cfi_endproc
 3068              	.LFE4:
 3070              		.section	.text.keccak_finalize,"ax",%progbits
 3071              		.align	1
 3072              		.syntax unified
 3073              		.thumb
 3074              		.thumb_func
 3075              		.fpu softvfp
 3077              	keccak_finalize:
 3078              	.LVL381:
 3079              	.LFB5:
 430:fips202.c     **** 
 431:fips202.c     **** /*************************************************
 432:fips202.c     **** * Name:        keccak_finalize
 433:fips202.c     **** *
 434:fips202.c     **** * Description: Finalize absorb step.
 435:fips202.c     **** *
 436:fips202.c     **** * Arguments:   - uint64_t *s:      pointer to Keccak state
 437:fips202.c     **** *              - unsigned int r:   rate in bytes (e.g., 168 for SHAKE128)
 438:fips202.c     **** *              - unsigned int pos: position in current block to be absorbed
 439:fips202.c     **** *              - uint8_t p:        domain separation byte
 440:fips202.c     **** **************************************************/
 441:fips202.c     **** static void keccak_finalize(uint64_t s[25], unsigned int r, unsigned int pos, uint8_t p)
 442:fips202.c     **** {
 3080              		.loc 1 442 1 view -0
 3081              		.cfi_startproc
 3082              		@ args = 0, pretend = 0, frame = 0
 3083              		@ frame_needed = 0, uses_anonymous_args = 0
 443:fips202.c     ****   unsigned int i,j;
 3084              		.loc 1 443 3 view .LVU1093
 444:fips202.c     **** 
 445:fips202.c     ****   i = pos >> 3;
 3085              		.loc 1 445 3 view .LVU1094
 446:fips202.c     ****   j = pos & 7;
 3086              		.loc 1 446 3 view .LVU1095
 447:fips202.c     ****   s[i] ^= (uint64_t)p << 8*j;
 3087              		.loc 1 447 3 view .LVU1096
 442:fips202.c     ****   unsigned int i,j;
 3088              		.loc 1 442 1 is_stmt 0 view .LVU1097
 3089 0000 F0B5     		push	{r4, r5, r6, r7, lr}
 3090              	.LCFI10:
 3091              		.cfi_def_cfa_offset 20
 3092              		.cfi_offset 4, -20
 3093              		.cfi_offset 5, -16
 3094              		.cfi_offset 6, -12
 3095              		.cfi_offset 7, -8
 3096              		.cfi_offset 14, -4
 445:fips202.c     ****   j = pos & 7;
 3097              		.loc 1 445 5 view .LVU1098
 3098 0002 D708     		lsrs	r7, r2, #3
 3099              	.LVL382:
 3100              		.loc 1 447 8 view .LVU1099
 3101 0004 22F00705 		bic	r5, r2, #7
 446:fips202.c     ****   s[i] ^= (uint64_t)p << 8*j;
 3102              		.loc 1 446 5 view .LVU1100
 3103 0008 02F00702 		and	r2, r2, #7
 3104              	.LVL383:
 3105              		.loc 1 447 27 view .LVU1101
 3106 000c D200     		lsls	r2, r2, #3
 3107              	.LVL384:
 3108              		.loc 1 447 8 view .LVU1102
 3109 000e 0544     		add	r5, r5, r0
 3110              		.loc 1 447 23 view .LVU1103
 3111 0010 A2F12004 		sub	r4, r2, #32
 3112 0014 C2F12006 		rsb	r6, r2, #32
 3113 0018 23FA06F6 		lsr	r6, r3, r6
 3114 001c 03FA04F4 		lsl	r4, r3, r4
 3115 0020 03FA02F2 		lsl	r2, r3, r2
 3116              		.loc 1 447 8 view .LVU1104
 3117 0024 50F83730 		ldr	r3, [r0, r7, lsl #3]
 3118              	.LVL385:
 3119              		.loc 1 447 23 view .LVU1105
 3120 0028 3443     		orrs	r4, r4, r6
 3121              		.loc 1 447 8 view .LVU1106
 3122 002a 6E68     		ldr	r6, [r5, #4]
 3123 002c 5340     		eors	r3, r3, r2
 448:fips202.c     ****   s[r/8-1] ^= 1ULL << 63;
 3124              		.loc 1 448 12 view .LVU1107
 3125 002e 0839     		subs	r1, r1, #8
 3126              	.LVL386:
 447:fips202.c     ****   s[r/8-1] ^= 1ULL << 63;
 3127              		.loc 1 447 8 view .LVU1108
 3128 0030 40F83730 		str	r3, [r0, r7, lsl #3]
 3129 0034 7440     		eors	r4, r4, r6
 3130              		.loc 1 448 12 view .LVU1109
 3131 0036 0844     		add	r0, r0, r1
 3132              	.LVL387:
 447:fips202.c     ****   s[r/8-1] ^= 1ULL << 63;
 3133              		.loc 1 447 8 view .LVU1110
 3134 0038 6C60     		str	r4, [r5, #4]
 3135              		.loc 1 448 3 is_stmt 1 view .LVU1111
 3136              		.loc 1 448 12 is_stmt 0 view .LVU1112
 3137 003a 4368     		ldr	r3, [r0, #4]
 3138 003c 03F10043 		add	r3, r3, #-2147483648
 3139 0040 4360     		str	r3, [r0, #4]
 449:fips202.c     **** }
 3140              		.loc 1 449 1 view .LVU1113
 3141 0042 F0BD     		pop	{r4, r5, r6, r7, pc}
 3142              		.loc 1 449 1 view .LVU1114
 3143              		.cfi_endproc
 3144              	.LFE5:
 3146              		.section	.text.keccak_squeezeblocks,"ax",%progbits
 3147              		.align	1
 3148              		.syntax unified
 3149              		.thumb
 3150              		.thumb_func
 3151              		.fpu softvfp
 3153              	keccak_squeezeblocks:
 3154              	.LVL388:
 3155              	.LFB6:
 450:fips202.c     **** 
 451:fips202.c     **** /*************************************************
 452:fips202.c     **** * Name:        keccak_squeezeblocks
 453:fips202.c     **** *
 454:fips202.c     **** * Description: Squeeze step of Keccak. Squeezes full blocks of r bytes each.
 455:fips202.c     **** *              Modifies the state. Can be called multiple times to keep
 456:fips202.c     **** *              squeezing, i.e., is incremental. Assumes zero bytes of current
 457:fips202.c     **** *              block have already been squeezed.
 458:fips202.c     **** *
 459:fips202.c     **** * Arguments:   - uint8_t *out:   pointer to output blocks
 460:fips202.c     **** *              - size_t nblocks: number of blocks to be squeezed (written to out)
 461:fips202.c     **** *              - uint64_t *s:    pointer to input/output Keccak state
 462:fips202.c     **** *              - unsigned int r: rate in bytes (e.g., 168 for SHAKE128)
 463:fips202.c     **** **************************************************/
 464:fips202.c     **** static void keccak_squeezeblocks(uint8_t *out,
 465:fips202.c     ****                                  size_t nblocks,
 466:fips202.c     ****                                  uint64_t s[25],
 467:fips202.c     ****                                  unsigned int r)
 468:fips202.c     **** {
 3156              		.loc 1 468 1 is_stmt 1 view -0
 3157              		.cfi_startproc
 3158              		@ args = 0, pretend = 0, frame = 0
 3159              		@ frame_needed = 0, uses_anonymous_args = 0
 469:fips202.c     ****   unsigned int i;
 3160              		.loc 1 469 3 view .LVU1116
 470:fips202.c     **** 
 471:fips202.c     ****   while(nblocks > 0) {
 3161              		.loc 1 471 3 view .LVU1117
 468:fips202.c     ****   unsigned int i;
 3162              		.loc 1 468 1 is_stmt 0 view .LVU1118
 3163 0000 2DE9F047 		push	{r4, r5, r6, r7, r8, r9, r10, lr}
 3164              	.LCFI11:
 3165              		.cfi_def_cfa_offset 32
 3166              		.cfi_offset 4, -32
 3167              		.cfi_offset 5, -28
 3168              		.cfi_offset 6, -24
 3169              		.cfi_offset 7, -20
 3170              		.cfi_offset 8, -16
 3171              		.cfi_offset 9, -12
 3172              		.cfi_offset 10, -8
 3173              		.cfi_offset 14, -4
 468:fips202.c     ****   unsigned int i;
 3174              		.loc 1 468 1 view .LVU1119
 3175 0004 0546     		mov	r5, r0
 3176 0006 0C46     		mov	r4, r1
 3177 0008 1646     		mov	r6, r2
 3178 000a 1F46     		mov	r7, r3
 472:fips202.c     ****     KeccakF1600_StatePermute(s);
 473:fips202.c     ****     for(i=0;i<r/8;i++)
 3179              		.loc 1 473 16 view .LVU1120
 3180 000c 4FEAD30A 		lsr	r10, r3, #3
 3181              	.LVL389:
 3182              	.L43:
 471:fips202.c     ****     KeccakF1600_StatePermute(s);
 3183              		.loc 1 471 8 is_stmt 1 view .LVU1121
 3184 0010 0CB9     		cbnz	r4, .L45
 474:fips202.c     ****       store64(out + 8*i, s[i]);
 475:fips202.c     ****     out += r;
 476:fips202.c     ****     nblocks--;
 477:fips202.c     ****   }
 478:fips202.c     **** }
 3185              		.loc 1 478 1 is_stmt 0 view .LVU1122
 3186 0012 BDE8F087 		pop	{r4, r5, r6, r7, r8, r9, r10, pc}
 3187              	.LVL390:
 3188              	.L45:
 472:fips202.c     ****     for(i=0;i<r/8;i++)
 3189              		.loc 1 472 5 is_stmt 1 view .LVU1123
 3190 0016 3046     		mov	r0, r6
 3191 0018 FFF7FEFF 		bl	KeccakF1600_StatePermute
 3192              	.LVL391:
 473:fips202.c     ****       store64(out + 8*i, s[i]);
 3193              		.loc 1 473 5 view .LVU1124
 473:fips202.c     ****       store64(out + 8*i, s[i]);
 3194              		.loc 1 473 13 view .LVU1125
 3195 001c A6F10809 		sub	r9, r6, #8
 473:fips202.c     ****       store64(out + 8*i, s[i]);
 3196              		.loc 1 473 10 is_stmt 0 view .LVU1126
 3197 0020 4FF00008 		mov	r8, #0
 3198              	.LVL392:
 3199              	.L44:
 474:fips202.c     ****       store64(out + 8*i, s[i]);
 3200              		.loc 1 474 7 is_stmt 1 discriminator 3 view .LVU1127
 3201 0024 05EBC800 		add	r0, r5, r8, lsl #3
 3202 0028 F9E90223 		ldrd	r2, [r9, #8]!
 473:fips202.c     ****       store64(out + 8*i, s[i]);
 3203              		.loc 1 473 20 is_stmt 0 discriminator 3 view .LVU1128
 3204 002c 08F10108 		add	r8, r8, #1
 3205              	.LVL393:
 474:fips202.c     ****       store64(out + 8*i, s[i]);
 3206              		.loc 1 474 7 discriminator 3 view .LVU1129
 3207 0030 FFF7FEFF 		bl	store64
 3208              	.LVL394:
 473:fips202.c     ****       store64(out + 8*i, s[i]);
 3209              		.loc 1 473 19 is_stmt 1 discriminator 3 view .LVU1130
 473:fips202.c     ****       store64(out + 8*i, s[i]);
 3210              		.loc 1 473 13 discriminator 3 view .LVU1131
 473:fips202.c     ****       store64(out + 8*i, s[i]);
 3211              		.loc 1 473 5 is_stmt 0 discriminator 3 view .LVU1132
 3212 0034 C245     		cmp	r10, r8
 3213 0036 F5D8     		bhi	.L44
 475:fips202.c     ****     nblocks--;
 3214              		.loc 1 475 5 is_stmt 1 view .LVU1133
 475:fips202.c     ****     nblocks--;
 3215              		.loc 1 475 9 is_stmt 0 view .LVU1134
 3216 0038 3D44     		add	r5, r5, r7
 3217              	.LVL395:
 476:fips202.c     ****   }
 3218              		.loc 1 476 5 is_stmt 1 view .LVU1135
 476:fips202.c     ****   }
 3219              		.loc 1 476 12 is_stmt 0 view .LVU1136
 3220 003a 013C     		subs	r4, r4, #1
 3221              	.LVL396:
 476:fips202.c     ****   }
 3222              		.loc 1 476 12 view .LVU1137
 3223 003c E8E7     		b	.L43
 3224              		.cfi_endproc
 3225              	.LFE6:
 3227              		.section	.text.keccak_squeeze,"ax",%progbits
 3228              		.align	1
 3229              		.syntax unified
 3230              		.thumb
 3231              		.thumb_func
 3232              		.fpu softvfp
 3234              	keccak_squeeze:
 3235              	.LVL397:
 3236              	.LFB7:
 479:fips202.c     **** 
 480:fips202.c     **** /*************************************************
 481:fips202.c     **** * Name:        keccak_squeeze
 482:fips202.c     **** *
 483:fips202.c     **** * Description: Squeeze step of Keccak. Squeezes arbitratrily many bytes.
 484:fips202.c     **** *              Modifies the state. Can be called multiple times to keep
 485:fips202.c     **** *              squeezing, i.e., is incremental.
 486:fips202.c     **** *
 487:fips202.c     **** * Arguments:   - uint8_t *out:     pointer to output
 488:fips202.c     **** *              - size_t outlen:    number of bytes to be squeezed (written to out)
 489:fips202.c     **** *              - uint64_t *s:      pointer to input/output Keccak state
 490:fips202.c     **** *              - unsigned int r:   rate in bytes (e.g., 168 for SHAKE128)
 491:fips202.c     **** *              - unsigned int pos: number of bytes in current block already squeezed
 492:fips202.c     **** *
 493:fips202.c     **** * Returns new position pos in current block
 494:fips202.c     **** **************************************************/
 495:fips202.c     **** static unsigned int keccak_squeeze(uint8_t *out,
 496:fips202.c     ****                                    size_t outlen,
 497:fips202.c     ****                                    uint64_t s[25],
 498:fips202.c     ****                                    unsigned int r,
 499:fips202.c     ****                                    unsigned int pos)
 500:fips202.c     **** {
 3237              		.loc 1 500 1 is_stmt 1 view -0
 3238              		.cfi_startproc
 3239              		@ args = 4, pretend = 0, frame = 16
 3240              		@ frame_needed = 0, uses_anonymous_args = 0
 501:fips202.c     ****   unsigned int i;
 3241              		.loc 1 501 3 view .LVU1139
 502:fips202.c     ****   uint8_t t[8];
 3242              		.loc 1 502 3 view .LVU1140
 503:fips202.c     **** 
 504:fips202.c     ****   if(pos & 7) {
 3243              		.loc 1 504 3 view .LVU1141
 500:fips202.c     ****   unsigned int i;
 3244              		.loc 1 500 1 is_stmt 0 view .LVU1142
 3245 0000 2DE9F04F 		push	{r4, r5, r6, r7, r8, r9, r10, fp, lr}
 3246              	.LCFI12:
 3247              		.cfi_def_cfa_offset 36
 3248              		.cfi_offset 4, -36
 3249              		.cfi_offset 5, -32
 3250              		.cfi_offset 6, -28
 3251              		.cfi_offset 7, -24
 3252              		.cfi_offset 8, -20
 3253              		.cfi_offset 9, -16
 3254              		.cfi_offset 10, -12
 3255              		.cfi_offset 11, -8
 3256              		.cfi_offset 14, -4
 3257 0004 85B0     		sub	sp, sp, #20
 3258              	.LCFI13:
 3259              		.cfi_def_cfa_offset 56
 500:fips202.c     ****   unsigned int i;
 3260              		.loc 1 500 1 view .LVU1143
 3261 0006 0446     		mov	r4, r0
 3262 0008 0E9D     		ldr	r5, [sp, #56]
 3263              		.loc 1 504 5 view .LVU1144
 3264 000a 15F00709 		ands	r9, r5, #7
 500:fips202.c     ****   unsigned int i;
 3265              		.loc 1 500 1 view .LVU1145
 3266 000e 0E46     		mov	r6, r1
 3267 0010 1746     		mov	r7, r2
 3268 0012 9846     		mov	r8, r3
 3269              		.loc 1 504 5 view .LVU1146
 3270 0014 15D0     		beq	.L48
 505:fips202.c     ****     store64(t,s[pos/8]);
 3271              		.loc 1 505 5 is_stmt 1 view .LVU1147
 3272              		.loc 1 505 16 is_stmt 0 view .LVU1148
 3273 0016 25F00703 		bic	r3, r5, #7
 3274              	.LVL398:
 3275              		.loc 1 505 5 view .LVU1149
 3276 001a 1344     		add	r3, r3, r2
 3277 001c D3E90023 		ldrd	r2, [r3]
 3278              	.LVL399:
 3279              		.loc 1 505 5 view .LVU1150
 3280 0020 02A8     		add	r0, sp, #8
 3281              	.LVL400:
 3282              		.loc 1 505 5 view .LVU1151
 3283 0022 FFF7FEFF 		bl	store64
 3284              	.LVL401:
 506:fips202.c     ****     i = pos & 7;
 3285              		.loc 1 506 5 is_stmt 1 view .LVU1152
 507:fips202.c     ****     while(i < 8 && outlen > 0) {
 3286              		.loc 1 507 5 view .LVU1153
 3287              		.loc 1 507 10 view .LVU1154
 3288              	.L49:
 3289              		.loc 1 507 17 is_stmt 0 discriminator 1 view .LVU1155
 3290 0026 66B1     		cbz	r6, .L48
 508:fips202.c     ****       *out++ = t[i++];
 3291              		.loc 1 508 7 is_stmt 1 view .LVU1156
 3292              	.LVL402:
 3293              		.loc 1 508 14 is_stmt 0 view .LVU1157
 3294 0028 02AB     		add	r3, sp, #8
 509:fips202.c     ****       outlen--;
 3295              		.loc 1 509 13 view .LVU1158
 3296 002a 013E     		subs	r6, r6, #1
 3297              	.LVL403:
 508:fips202.c     ****       *out++ = t[i++];
 3298              		.loc 1 508 14 view .LVU1159
 3299 002c 13F80930 		ldrb	r3, [r3, r9]	@ zero_extendqisi2
 3300 0030 04F8013B 		strb	r3, [r4], #1
 3301              	.LVL404:
 3302              		.loc 1 509 7 is_stmt 1 view .LVU1160
 510:fips202.c     ****       pos++;
 3303              		.loc 1 510 7 view .LVU1161
 507:fips202.c     ****       *out++ = t[i++];
 3304              		.loc 1 507 10 is_stmt 0 view .LVU1162
 3305 0034 09F10109 		add	r9, r9, #1
 3306              	.LVL405:
 507:fips202.c     ****       *out++ = t[i++];
 3307              		.loc 1 507 10 view .LVU1163
 3308 0038 B9F1080F 		cmp	r9, #8
 3309              		.loc 1 510 10 view .LVU1164
 3310 003c 05F10105 		add	r5, r5, #1
 3311              	.LVL406:
 507:fips202.c     ****       *out++ = t[i++];
 3312              		.loc 1 507 10 is_stmt 1 view .LVU1165
 3313 0040 F1D1     		bne	.L49
 3314              	.LVL407:
 3315              	.L48:
 511:fips202.c     ****     }
 512:fips202.c     ****   }
 513:fips202.c     **** 
 514:fips202.c     ****   if(pos && outlen >= r-pos) {
 3316              		.loc 1 514 3 view .LVU1166
 3317              		.loc 1 514 5 is_stmt 0 view .LVU1167
 3318 0042 8DB1     		cbz	r5, .L51
 3319              		.loc 1 514 24 discriminator 1 view .LVU1168
 3320 0044 A8EB050B 		sub	fp, r8, r5
 3321              		.loc 1 514 10 discriminator 1 view .LVU1169
 3322 0048 B345     		cmp	fp, r6
 3323 004a 0DD8     		bhi	.L51
 3324 004c 25F0070A 		bic	r10, r5, #7
 3325 0050 2BF00701 		bic	r1, fp, #7
 3326 0054 BA44     		add	r10, r10, r7
 3327 0056 A146     		mov	r9, r4
 3328 0058 2144     		add	r1, r1, r4
 3329              	.L52:
 515:fips202.c     ****     for(i=0;i<(r-pos)/8;i++)
 3330              		.loc 1 515 13 is_stmt 1 discriminator 1 view .LVU1170
 3331              		.loc 1 515 5 is_stmt 0 discriminator 1 view .LVU1171
 3332 005a 4945     		cmp	r1, r9
 3333 005c 07D1     		bne	.L53
 516:fips202.c     ****       store64(out+8*i,s[pos/8+i]);
 517:fips202.c     ****     out += r-pos;
 3334              		.loc 1 517 5 is_stmt 1 view .LVU1172
 3335              	.LVL408:
 3336              		.loc 1 517 5 is_stmt 0 view .LVU1173
 3337 005e 2E44     		add	r6, r6, r5
 3338              	.LVL409:
 3339              		.loc 1 517 9 view .LVU1174
 3340 0060 5C44     		add	r4, r4, fp
 3341              	.LVL410:
 518:fips202.c     ****     outlen -= r-pos;
 3342              		.loc 1 518 5 is_stmt 1 view .LVU1175
 3343              		.loc 1 518 12 is_stmt 0 view .LVU1176
 3344 0062 A6EB0806 		sub	r6, r6, r8
 3345              	.LVL411:
 519:fips202.c     ****     pos = 0;
 3346              		.loc 1 519 5 is_stmt 1 view .LVU1177
 3347              		.loc 1 519 9 is_stmt 0 view .LVU1178
 3348 0066 0025     		movs	r5, #0
 3349              	.LVL412:
 3350              	.L51:
 520:fips202.c     ****   }
 521:fips202.c     **** 
 522:fips202.c     ****   while(outlen >= r) {
 523:fips202.c     ****     KeccakF1600_StatePermute(s);
 524:fips202.c     ****     for(i=0;i<r/8;i++)
 3351              		.loc 1 524 16 view .LVU1179
 3352 0068 4FEAD80B 		lsr	fp, r8, #3
 3353 006c 1DE0     		b	.L55
 3354              	.LVL413:
 3355              	.L53:
 516:fips202.c     ****     out += r-pos;
 3356              		.loc 1 516 7 discriminator 3 view .LVU1180
 3357 006e 4846     		mov	r0, r9
 3358 0070 FAE80223 		ldrd	r2, [r10], #8
 3359 0074 0191     		str	r1, [sp, #4]
 516:fips202.c     ****     out += r-pos;
 3360              		.loc 1 516 7 is_stmt 1 discriminator 3 view .LVU1181
 3361 0076 09F10809 		add	r9, r9, #8
 3362 007a FFF7FEFF 		bl	store64
 3363              	.LVL414:
 515:fips202.c     ****       store64(out+8*i,s[pos/8+i]);
 3364              		.loc 1 515 25 discriminator 3 view .LVU1182
 3365 007e 0199     		ldr	r1, [sp, #4]
 3366 0080 EBE7     		b	.L52
 3367              	.LVL415:
 3368              	.L56:
 523:fips202.c     ****     for(i=0;i<r/8;i++)
 3369              		.loc 1 523 5 view .LVU1183
 3370 0082 3846     		mov	r0, r7
 3371 0084 FFF7FEFF 		bl	KeccakF1600_StatePermute
 3372              	.LVL416:
 3373              		.loc 1 524 5 view .LVU1184
 3374              		.loc 1 524 13 view .LVU1185
 3375 0088 A7F1080A 		sub	r10, r7, #8
 3376              		.loc 1 524 10 is_stmt 0 view .LVU1186
 3377 008c 4FF00009 		mov	r9, #0
 3378              	.LVL417:
 3379              	.L54:
 525:fips202.c     ****       store64(out+8*i,s[i]);
 3380              		.loc 1 525 7 is_stmt 1 discriminator 3 view .LVU1187
 3381 0090 04EBC900 		add	r0, r4, r9, lsl #3
 3382 0094 FAE90223 		ldrd	r2, [r10, #8]!
 524:fips202.c     ****       store64(out+8*i,s[i]);
 3383              		.loc 1 524 20 is_stmt 0 discriminator 3 view .LVU1188
 3384 0098 09F10109 		add	r9, r9, #1
 3385              	.LVL418:
 3386              		.loc 1 525 7 discriminator 3 view .LVU1189
 3387 009c FFF7FEFF 		bl	store64
 3388              	.LVL419:
 524:fips202.c     ****       store64(out+8*i,s[i]);
 3389              		.loc 1 524 19 is_stmt 1 discriminator 3 view .LVU1190
 524:fips202.c     ****       store64(out+8*i,s[i]);
 3390              		.loc 1 524 13 discriminator 3 view .LVU1191
 524:fips202.c     ****       store64(out+8*i,s[i]);
 3391              		.loc 1 524 5 is_stmt 0 discriminator 3 view .LVU1192
 3392 00a0 CB45     		cmp	fp, r9
 3393 00a2 F5D8     		bhi	.L54
 526:fips202.c     ****     out += r;
 3394              		.loc 1 526 5 is_stmt 1 view .LVU1193
 3395              	.LVL420:
 3396              		.loc 1 526 9 is_stmt 0 view .LVU1194
 3397 00a4 4444     		add	r4, r4, r8
 3398              	.LVL421:
 527:fips202.c     ****     outlen -= r;
 3399              		.loc 1 527 5 is_stmt 1 view .LVU1195
 3400              		.loc 1 527 12 is_stmt 0 view .LVU1196
 3401 00a6 A6EB0806 		sub	r6, r6, r8
 3402              	.LVL422:
 3403              	.L55:
 522:fips202.c     ****     KeccakF1600_StatePermute(s);
 3404              		.loc 1 522 8 is_stmt 1 view .LVU1197
 3405 00aa 4645     		cmp	r6, r8
 3406 00ac E9D2     		bcs	.L56
 528:fips202.c     ****   }
 529:fips202.c     **** 
 530:fips202.c     ****   if(!outlen)
 3407              		.loc 1 530 3 view .LVU1198
 3408              		.loc 1 530 5 is_stmt 0 view .LVU1199
 3409 00ae EEB1     		cbz	r6, .L57
 531:fips202.c     ****     return pos;
 532:fips202.c     ****   else if(!pos)
 3410              		.loc 1 532 8 is_stmt 1 view .LVU1200
 3411              		.loc 1 532 10 is_stmt 0 view .LVU1201
 3412 00b0 15B9     		cbnz	r5, .L58
 533:fips202.c     ****     KeccakF1600_StatePermute(s);
 3413              		.loc 1 533 5 is_stmt 1 view .LVU1202
 3414 00b2 3846     		mov	r0, r7
 3415 00b4 FFF7FEFF 		bl	KeccakF1600_StatePermute
 3416              	.LVL423:
 3417              	.L58:
 3418              		.loc 1 533 5 is_stmt 0 view .LVU1203
 3419 00b8 25F00709 		bic	r9, r5, #7
 3420 00bc 26F00708 		bic	r8, r6, #7
 3421              	.LVL424:
 3422              		.loc 1 533 5 view .LVU1204
 3423 00c0 B944     		add	r9, r9, r7
 3424 00c2 04EB080A 		add	r10, r4, r8
 3425              	.LVL425:
 3426              	.L59:
 534:fips202.c     **** 
 535:fips202.c     ****   for(i=0;i<outlen/8;i++)
 3427              		.loc 1 535 11 is_stmt 1 discriminator 1 view .LVU1205
 3428              		.loc 1 535 3 is_stmt 0 discriminator 1 view .LVU1206
 3429 00c6 5445     		cmp	r4, r10
 3430 00c8 14D1     		bne	.L60
 536:fips202.c     ****     store64(out+8*i,s[pos/8+i]);
 537:fips202.c     ****   out += 8*i;
 3431              		.loc 1 537 3 is_stmt 1 view .LVU1207
 538:fips202.c     ****   outlen -= 8*i;
 3432              		.loc 1 538 3 view .LVU1208
 3433              		.loc 1 538 10 is_stmt 0 view .LVU1209
 3434 00ca A6EB0809 		sub	r9, r6, r8
 3435              	.LVL426:
 539:fips202.c     ****   pos += 8*i;
 3436              		.loc 1 539 3 is_stmt 1 view .LVU1210
 540:fips202.c     **** 
 541:fips202.c     ****   store64(t,s[pos/8]);
 3437              		.loc 1 541 3 view .LVU1211
 539:fips202.c     ****   pos += 8*i;
 3438              		.loc 1 539 7 is_stmt 0 view .LVU1212
 3439 00ce A844     		add	r8, r8, r5
 3440              	.LVL427:
 3441              		.loc 1 541 14 view .LVU1213
 3442 00d0 28F00708 		bic	r8, r8, #7
 3443              	.LVL428:
 3444              		.loc 1 541 3 view .LVU1214
 3445 00d4 4744     		add	r7, r7, r8
 3446              	.LVL429:
 3447              		.loc 1 541 3 view .LVU1215
 3448 00d6 D7E90023 		ldrd	r2, [r7]
 3449 00da 02A8     		add	r0, sp, #8
 3450 00dc FFF7FEFF 		bl	store64
 3451              	.LVL430:
 542:fips202.c     ****   for(i=0;i<outlen;i++)
 3452              		.loc 1 542 3 is_stmt 1 view .LVU1216
 543:fips202.c     ****     out[i] = t[i];
 3453              		.loc 1 543 12 is_stmt 0 view .LVU1217
 3454 00e0 4A46     		mov	r2, r9
 3455 00e2 02A9     		add	r1, sp, #8
 3456 00e4 2046     		mov	r0, r4
 3457 00e6 FFF7FEFF 		bl	memcpy
 3458              	.LVL431:
 544:fips202.c     ****   pos += outlen;
 3459              		.loc 1 544 3 is_stmt 1 view .LVU1218
 3460              		.loc 1 544 7 is_stmt 0 view .LVU1219
 3461 00ea 3544     		add	r5, r5, r6
 3462              	.LVL432:
 545:fips202.c     ****   return pos;
 3463              		.loc 1 545 3 is_stmt 1 view .LVU1220
 3464              	.L57:
 546:fips202.c     **** }
 3465              		.loc 1 546 1 is_stmt 0 view .LVU1221
 3466 00ec 2846     		mov	r0, r5
 3467 00ee 05B0     		add	sp, sp, #20
 3468              	.LCFI14:
 3469              		.cfi_remember_state
 3470              		.cfi_def_cfa_offset 36
 3471              		@ sp needed
 3472 00f0 BDE8F08F 		pop	{r4, r5, r6, r7, r8, r9, r10, fp, pc}
 3473              	.LVL433:
 3474              	.L60:
 3475              	.LCFI15:
 3476              		.cfi_restore_state
 536:fips202.c     ****   out += 8*i;
 3477              		.loc 1 536 5 is_stmt 1 discriminator 3 view .LVU1222
 3478 00f4 2046     		mov	r0, r4
 3479 00f6 F9E80223 		ldrd	r2, [r9], #8
 3480 00fa FFF7FEFF 		bl	store64
 3481              	.LVL434:
 535:fips202.c     ****     store64(out+8*i,s[pos/8+i]);
 3482              		.loc 1 535 22 discriminator 3 view .LVU1223
 3483 00fe 0834     		adds	r4, r4, #8
 3484 0100 E1E7     		b	.L59
 3485              		.cfi_endproc
 3486              	.LFE7:
 3488              		.section	.text.pqcrystals_fips202_ref_shake128_init,"ax",%progbits
 3489              		.align	1
 3490              		.global	pqcrystals_fips202_ref_shake128_init
 3491              		.syntax unified
 3492              		.thumb
 3493              		.thumb_func
 3494              		.fpu softvfp
 3496              	pqcrystals_fips202_ref_shake128_init:
 3497              	.LVL435:
 3498              	.LFB8:
 547:fips202.c     **** 
 548:fips202.c     **** /*************************************************
 549:fips202.c     **** * Name:        shake128_init
 550:fips202.c     **** *
 551:fips202.c     **** * Description: Initilizes Keccak state for use as SHAKE128 XOF
 552:fips202.c     **** *
 553:fips202.c     **** * Arguments:   - keccak_state *state: pointer to (uninitialized)
 554:fips202.c     **** *                                     Keccak state
 555:fips202.c     **** **************************************************/
 556:fips202.c     **** void shake128_init(keccak_state *state)
 557:fips202.c     **** {
 3499              		.loc 1 557 1 view -0
 3500              		.cfi_startproc
 3501              		@ args = 0, pretend = 0, frame = 0
 3502              		@ frame_needed = 0, uses_anonymous_args = 0
 3503              		@ link register save eliminated.
 558:fips202.c     ****   keccak_init(state);
 3504              		.loc 1 558 3 view .LVU1225
 3505 0000 FFF7FEBF 		b	keccak_init
 3506              	.LVL436:
 3507              		.loc 1 558 3 is_stmt 0 view .LVU1226
 3508              		.cfi_endproc
 3509              	.LFE8:
 3511              		.section	.text.pqcrystals_fips202_ref_shake128_absorb,"ax",%progbits
 3512              		.align	1
 3513              		.global	pqcrystals_fips202_ref_shake128_absorb
 3514              		.syntax unified
 3515              		.thumb
 3516              		.thumb_func
 3517              		.fpu softvfp
 3519              	pqcrystals_fips202_ref_shake128_absorb:
 3520              	.LVL437:
 3521              	.LFB9:
 559:fips202.c     **** }
 560:fips202.c     **** 
 561:fips202.c     **** /*************************************************
 562:fips202.c     **** * Name:        shake128_absorb
 563:fips202.c     **** *
 564:fips202.c     **** * Description: Absorb step of the SHAKE128 XOF; incremental.
 565:fips202.c     **** *
 566:fips202.c     **** * Arguments:   - keccak_state *state: pointer to (initialized) output
 567:fips202.c     **** *                                     Keccak state
 568:fips202.c     **** *              - const uint8_t *in:   pointer to input to be absorbed into s
 569:fips202.c     **** *              - size_t inlen:        length of input in bytes
 570:fips202.c     **** **************************************************/
 571:fips202.c     **** void shake128_absorb(keccak_state *state, const uint8_t *in, size_t inlen)
 572:fips202.c     **** {
 3522              		.loc 1 572 1 is_stmt 1 view -0
 3523              		.cfi_startproc
 3524              		@ args = 0, pretend = 0, frame = 0
 3525              		@ frame_needed = 0, uses_anonymous_args = 0
 573:fips202.c     ****   state->pos = keccak_absorb(state->s, SHAKE128_RATE, state->pos, in, inlen);
 3526              		.loc 1 573 3 view .LVU1228
 572:fips202.c     ****   state->pos = keccak_absorb(state->s, SHAKE128_RATE, state->pos, in, inlen);
 3527              		.loc 1 572 1 is_stmt 0 view .LVU1229
 3528 0000 13B5     		push	{r0, r1, r4, lr}
 3529              	.LCFI16:
 3530              		.cfi_def_cfa_offset 16
 3531              		.cfi_offset 4, -8
 3532              		.cfi_offset 14, -4
 3533              		.loc 1 573 16 view .LVU1230
 3534 0002 0092     		str	r2, [sp]
 572:fips202.c     ****   state->pos = keccak_absorb(state->s, SHAKE128_RATE, state->pos, in, inlen);
 3535              		.loc 1 572 1 view .LVU1231
 3536 0004 0B46     		mov	r3, r1
 3537              		.loc 1 573 16 view .LVU1232
 3538 0006 D0F8C820 		ldr	r2, [r0, #200]
 3539              	.LVL438:
 3540              		.loc 1 573 16 view .LVU1233
 3541 000a A821     		movs	r1, #168
 3542              	.LVL439:
 572:fips202.c     ****   state->pos = keccak_absorb(state->s, SHAKE128_RATE, state->pos, in, inlen);
 3543              		.loc 1 572 1 view .LVU1234
 3544 000c 0446     		mov	r4, r0
 3545              		.loc 1 573 16 view .LVU1235
 3546 000e FFF7FEFF 		bl	keccak_absorb
 3547              	.LVL440:
 3548              		.loc 1 573 14 view .LVU1236
 3549 0012 C4F8C800 		str	r0, [r4, #200]
 574:fips202.c     **** }
 3550              		.loc 1 574 1 view .LVU1237
 3551 0016 02B0     		add	sp, sp, #8
 3552              	.LCFI17:
 3553              		.cfi_def_cfa_offset 8
 3554              		@ sp needed
 3555 0018 10BD     		pop	{r4, pc}
 3556              		.loc 1 574 1 view .LVU1238
 3557              		.cfi_endproc
 3558              	.LFE9:
 3560              		.section	.text.pqcrystals_fips202_ref_shake128_finalize,"ax",%progbits
 3561              		.align	1
 3562              		.global	pqcrystals_fips202_ref_shake128_finalize
 3563              		.syntax unified
 3564              		.thumb
 3565              		.thumb_func
 3566              		.fpu softvfp
 3568              	pqcrystals_fips202_ref_shake128_finalize:
 3569              	.LVL441:
 3570              	.LFB10:
 575:fips202.c     **** 
 576:fips202.c     **** /*************************************************
 577:fips202.c     **** * Name:        shake128_finalize
 578:fips202.c     **** *
 579:fips202.c     **** * Description: Finalize absorb step of the SHAKE128 XOF.
 580:fips202.c     **** *
 581:fips202.c     **** * Arguments:   - keccak_state *state: pointer to Keccak state
 582:fips202.c     **** **************************************************/
 583:fips202.c     **** void shake128_finalize(keccak_state *state)
 584:fips202.c     **** {
 3571              		.loc 1 584 1 is_stmt 1 view -0
 3572              		.cfi_startproc
 3573              		@ args = 0, pretend = 0, frame = 0
 3574              		@ frame_needed = 0, uses_anonymous_args = 0
 585:fips202.c     ****   keccak_finalize(state->s, SHAKE128_RATE, state->pos, 0x1F);
 3575              		.loc 1 585 3 view .LVU1240
 584:fips202.c     ****   keccak_finalize(state->s, SHAKE128_RATE, state->pos, 0x1F);
 3576              		.loc 1 584 1 is_stmt 0 view .LVU1241
 3577 0000 10B5     		push	{r4, lr}
 3578              	.LCFI18:
 3579              		.cfi_def_cfa_offset 8
 3580              		.cfi_offset 4, -8
 3581              		.cfi_offset 14, -4
 3582              		.loc 1 585 3 view .LVU1242
 3583 0002 1F23     		movs	r3, #31
 584:fips202.c     ****   keccak_finalize(state->s, SHAKE128_RATE, state->pos, 0x1F);
 3584              		.loc 1 584 1 view .LVU1243
 3585 0004 0446     		mov	r4, r0
 3586              		.loc 1 585 3 view .LVU1244
 3587 0006 D0F8C820 		ldr	r2, [r0, #200]
 3588 000a A821     		movs	r1, #168
 3589 000c FFF7FEFF 		bl	keccak_finalize
 3590              	.LVL442:
 586:fips202.c     ****   state->pos = 0;
 3591              		.loc 1 586 3 is_stmt 1 view .LVU1245
 3592              		.loc 1 586 14 is_stmt 0 view .LVU1246
 3593 0010 0023     		movs	r3, #0
 3594 0012 C4F8C830 		str	r3, [r4, #200]
 587:fips202.c     **** }
 3595              		.loc 1 587 1 view .LVU1247
 3596 0016 10BD     		pop	{r4, pc}
 3597              		.loc 1 587 1 view .LVU1248
 3598              		.cfi_endproc
 3599              	.LFE10:
 3601              		.section	.text.pqcrystals_fips202_ref_shake128_squeezeblocks,"ax",%progbits
 3602              		.align	1
 3603              		.global	pqcrystals_fips202_ref_shake128_squeezeblocks
 3604              		.syntax unified
 3605              		.thumb
 3606              		.thumb_func
 3607              		.fpu softvfp
 3609              	pqcrystals_fips202_ref_shake128_squeezeblocks:
 3610              	.LVL443:
 3611              	.LFB11:
 588:fips202.c     **** 
 589:fips202.c     **** /*************************************************
 590:fips202.c     **** * Name:        shake128_squeezeblocks
 591:fips202.c     **** *
 592:fips202.c     **** * Description: Squeeze step of SHAKE128 XOF. Squeezes full blocks of
 593:fips202.c     **** *              SHAKE128_RATE bytes each. Can be called multiple times
 594:fips202.c     **** *              to keep squeezing. Assumes zero bytes of current block
 595:fips202.c     **** *              have already been squeezed (state->pos = 0).
 596:fips202.c     **** *
 597:fips202.c     **** * Arguments:   - uint8_t *out:    pointer to output blocks
 598:fips202.c     **** *              - size_t nblocks:  number of blocks to be squeezed
 599:fips202.c     **** *                                 (written to output)
 600:fips202.c     **** *              - keccak_state *s: pointer to input/output Keccak state
 601:fips202.c     **** **************************************************/
 602:fips202.c     **** void shake128_squeezeblocks(uint8_t *out, size_t nblocks, keccak_state *state)
 603:fips202.c     **** {
 3612              		.loc 1 603 1 is_stmt 1 view -0
 3613              		.cfi_startproc
 3614              		@ args = 0, pretend = 0, frame = 0
 3615              		@ frame_needed = 0, uses_anonymous_args = 0
 3616              		@ link register save eliminated.
 604:fips202.c     ****   keccak_squeezeblocks(out, nblocks, state->s, SHAKE128_RATE);
 3617              		.loc 1 604 3 view .LVU1250
 3618 0000 A823     		movs	r3, #168
 3619 0002 FFF7FEBF 		b	keccak_squeezeblocks
 3620              	.LVL444:
 3621              		.loc 1 604 3 is_stmt 0 view .LVU1251
 3622              		.cfi_endproc
 3623              	.LFE11:
 3625              		.section	.text.pqcrystals_fips202_ref_shake128_squeeze,"ax",%progbits
 3626              		.align	1
 3627              		.global	pqcrystals_fips202_ref_shake128_squeeze
 3628              		.syntax unified
 3629              		.thumb
 3630              		.thumb_func
 3631              		.fpu softvfp
 3633              	pqcrystals_fips202_ref_shake128_squeeze:
 3634              	.LVL445:
 3635              	.LFB12:
 605:fips202.c     **** }
 606:fips202.c     **** 
 607:fips202.c     **** /*************************************************
 608:fips202.c     **** * Name:        shake128_squeeze
 609:fips202.c     **** *
 610:fips202.c     **** * Description: Squeeze step of SHAKE128 XOF. Squeezes arbitraily many
 611:fips202.c     **** *              bytes. Can be called multiple times to keep squeezing.
 612:fips202.c     **** *
 613:fips202.c     **** * Arguments:   - uint8_t *out:    pointer to output blocks
 614:fips202.c     **** *              - size_t outlen :  number of bytes to be squeezed
 615:fips202.c     **** *                                 (written to output)
 616:fips202.c     **** *              - keccak_state *s: pointer to input/output Keccak state
 617:fips202.c     **** **************************************************/
 618:fips202.c     **** void shake128_squeeze(uint8_t *out, size_t outlen, keccak_state *state)
 619:fips202.c     **** {
 3636              		.loc 1 619 1 is_stmt 1 view -0
 3637              		.cfi_startproc
 3638              		@ args = 0, pretend = 0, frame = 0
 3639              		@ frame_needed = 0, uses_anonymous_args = 0
 620:fips202.c     ****   state->pos = keccak_squeeze(out, outlen, state->s, SHAKE128_RATE, state->pos);
 3640              		.loc 1 620 3 view .LVU1253
 619:fips202.c     ****   state->pos = keccak_squeeze(out, outlen, state->s, SHAKE128_RATE, state->pos);
 3641              		.loc 1 619 1 is_stmt 0 view .LVU1254
 3642 0000 13B5     		push	{r0, r1, r4, lr}
 3643              	.LCFI19:
 3644              		.cfi_def_cfa_offset 16
 3645              		.cfi_offset 4, -8
 3646              		.cfi_offset 14, -4
 3647              		.loc 1 620 16 view .LVU1255
 3648 0002 D2F8C830 		ldr	r3, [r2, #200]
 3649 0006 0093     		str	r3, [sp]
 3650 0008 A823     		movs	r3, #168
 619:fips202.c     ****   state->pos = keccak_squeeze(out, outlen, state->s, SHAKE128_RATE, state->pos);
 3651              		.loc 1 619 1 view .LVU1256
 3652 000a 1446     		mov	r4, r2
 3653              		.loc 1 620 16 view .LVU1257
 3654 000c FFF7FEFF 		bl	keccak_squeeze
 3655              	.LVL446:
 3656              		.loc 1 620 14 view .LVU1258
 3657 0010 C4F8C800 		str	r0, [r4, #200]
 621:fips202.c     **** }
 3658              		.loc 1 621 1 view .LVU1259
 3659 0014 02B0     		add	sp, sp, #8
 3660              	.LCFI20:
 3661              		.cfi_def_cfa_offset 8
 3662              		@ sp needed
 3663 0016 10BD     		pop	{r4, pc}
 3664              		.loc 1 621 1 view .LVU1260
 3665              		.cfi_endproc
 3666              	.LFE12:
 3668              		.section	.text.pqcrystals_fips202_ref_shake256_init,"ax",%progbits
 3669              		.align	1
 3670              		.global	pqcrystals_fips202_ref_shake256_init
 3671              		.syntax unified
 3672              		.thumb
 3673              		.thumb_func
 3674              		.fpu softvfp
 3676              	pqcrystals_fips202_ref_shake256_init:
 3677              	.LFB23:
 3678              		.cfi_startproc
 3679              		@ args = 0, pretend = 0, frame = 0
 3680              		@ frame_needed = 0, uses_anonymous_args = 0
 3681              		@ link register save eliminated.
 3682 0000 FFF7FEBF 		b	keccak_init
 3683              		.cfi_endproc
 3684              	.LFE23:
 3686              		.section	.text.pqcrystals_fips202_ref_shake256_absorb,"ax",%progbits
 3687              		.align	1
 3688              		.global	pqcrystals_fips202_ref_shake256_absorb
 3689              		.syntax unified
 3690              		.thumb
 3691              		.thumb_func
 3692              		.fpu softvfp
 3694              	pqcrystals_fips202_ref_shake256_absorb:
 3695              	.LVL447:
 3696              	.LFB14:
 622:fips202.c     **** 
 623:fips202.c     **** /*************************************************
 624:fips202.c     **** * Name:        shake256_init
 625:fips202.c     **** *
 626:fips202.c     **** * Description: Initilizes Keccak state for use as SHAKE256 XOF
 627:fips202.c     **** *
 628:fips202.c     **** * Arguments:   - keccak_state *state: pointer to (uninitialized)
 629:fips202.c     **** *                                     Keccak state
 630:fips202.c     **** **************************************************/
 631:fips202.c     **** void shake256_init(keccak_state *state)
 632:fips202.c     **** {
 633:fips202.c     ****   keccak_init(state);
 634:fips202.c     **** }
 635:fips202.c     **** 
 636:fips202.c     **** /*************************************************
 637:fips202.c     **** * Name:        shake256_absorb
 638:fips202.c     **** *
 639:fips202.c     **** * Description: Absorb step of the SHAKE256 XOF; incremental.
 640:fips202.c     **** *
 641:fips202.c     **** * Arguments:   - keccak_state *state: pointer to (initialized) output
 642:fips202.c     **** *                                     Keccak state
 643:fips202.c     **** *              - const uint8_t *in:   pointer to input to be absorbed into s
 644:fips202.c     **** *              - size_t inlen:        length of input in bytes
 645:fips202.c     **** **************************************************/
 646:fips202.c     **** void shake256_absorb(keccak_state *state, const uint8_t *in, size_t inlen)
 647:fips202.c     **** {
 3697              		.loc 1 647 1 is_stmt 1 view -0
 3698              		.cfi_startproc
 3699              		@ args = 0, pretend = 0, frame = 0
 3700              		@ frame_needed = 0, uses_anonymous_args = 0
 648:fips202.c     ****   state->pos = keccak_absorb(state->s, SHAKE256_RATE, state->pos, in, inlen);
 3701              		.loc 1 648 3 view .LVU1262
 647:fips202.c     ****   state->pos = keccak_absorb(state->s, SHAKE256_RATE, state->pos, in, inlen);
 3702              		.loc 1 647 1 is_stmt 0 view .LVU1263
 3703 0000 13B5     		push	{r0, r1, r4, lr}
 3704              	.LCFI21:
 3705              		.cfi_def_cfa_offset 16
 3706              		.cfi_offset 4, -8
 3707              		.cfi_offset 14, -4
 3708              		.loc 1 648 16 view .LVU1264
 3709 0002 0092     		str	r2, [sp]
 647:fips202.c     ****   state->pos = keccak_absorb(state->s, SHAKE256_RATE, state->pos, in, inlen);
 3710              		.loc 1 647 1 view .LVU1265
 3711 0004 0B46     		mov	r3, r1
 3712              		.loc 1 648 16 view .LVU1266
 3713 0006 D0F8C820 		ldr	r2, [r0, #200]
 3714              	.LVL448:
 3715              		.loc 1 648 16 view .LVU1267
 3716 000a 8821     		movs	r1, #136
 3717              	.LVL449:
 647:fips202.c     ****   state->pos = keccak_absorb(state->s, SHAKE256_RATE, state->pos, in, inlen);
 3718              		.loc 1 647 1 view .LVU1268
 3719 000c 0446     		mov	r4, r0
 3720              		.loc 1 648 16 view .LVU1269
 3721 000e FFF7FEFF 		bl	keccak_absorb
 3722              	.LVL450:
 3723              		.loc 1 648 14 view .LVU1270
 3724 0012 C4F8C800 		str	r0, [r4, #200]
 649:fips202.c     **** }
 3725              		.loc 1 649 1 view .LVU1271
 3726 0016 02B0     		add	sp, sp, #8
 3727              	.LCFI22:
 3728              		.cfi_def_cfa_offset 8
 3729              		@ sp needed
 3730 0018 10BD     		pop	{r4, pc}
 3731              		.loc 1 649 1 view .LVU1272
 3732              		.cfi_endproc
 3733              	.LFE14:
 3735              		.section	.text.pqcrystals_fips202_ref_shake256_finalize,"ax",%progbits
 3736              		.align	1
 3737              		.global	pqcrystals_fips202_ref_shake256_finalize
 3738              		.syntax unified
 3739              		.thumb
 3740              		.thumb_func
 3741              		.fpu softvfp
 3743              	pqcrystals_fips202_ref_shake256_finalize:
 3744              	.LVL451:
 3745              	.LFB15:
 650:fips202.c     **** 
 651:fips202.c     **** /*************************************************
 652:fips202.c     **** * Name:        shake256_finalize
 653:fips202.c     **** *
 654:fips202.c     **** * Description: Finalize absorb step of the SHAKE256 XOF.
 655:fips202.c     **** *
 656:fips202.c     **** * Arguments:   - keccak_state *state: pointer to Keccak state
 657:fips202.c     **** **************************************************/
 658:fips202.c     **** void shake256_finalize(keccak_state *state)
 659:fips202.c     **** {
 3746              		.loc 1 659 1 is_stmt 1 view -0
 3747              		.cfi_startproc
 3748              		@ args = 0, pretend = 0, frame = 0
 3749              		@ frame_needed = 0, uses_anonymous_args = 0
 660:fips202.c     ****   keccak_finalize(state->s, SHAKE256_RATE, state->pos, 0x1F);
 3750              		.loc 1 660 3 view .LVU1274
 659:fips202.c     ****   keccak_finalize(state->s, SHAKE256_RATE, state->pos, 0x1F);
 3751              		.loc 1 659 1 is_stmt 0 view .LVU1275
 3752 0000 10B5     		push	{r4, lr}
 3753              	.LCFI23:
 3754              		.cfi_def_cfa_offset 8
 3755              		.cfi_offset 4, -8
 3756              		.cfi_offset 14, -4
 3757              		.loc 1 660 3 view .LVU1276
 3758 0002 1F23     		movs	r3, #31
 659:fips202.c     ****   keccak_finalize(state->s, SHAKE256_RATE, state->pos, 0x1F);
 3759              		.loc 1 659 1 view .LVU1277
 3760 0004 0446     		mov	r4, r0
 3761              		.loc 1 660 3 view .LVU1278
 3762 0006 D0F8C820 		ldr	r2, [r0, #200]
 3763 000a 8821     		movs	r1, #136
 3764 000c FFF7FEFF 		bl	keccak_finalize
 3765              	.LVL452:
 661:fips202.c     ****   state->pos = 0;
 3766              		.loc 1 661 3 is_stmt 1 view .LVU1279
 3767              		.loc 1 661 14 is_stmt 0 view .LVU1280
 3768 0010 0023     		movs	r3, #0
 3769 0012 C4F8C830 		str	r3, [r4, #200]
 662:fips202.c     **** }
 3770              		.loc 1 662 1 view .LVU1281
 3771 0016 10BD     		pop	{r4, pc}
 3772              		.loc 1 662 1 view .LVU1282
 3773              		.cfi_endproc
 3774              	.LFE15:
 3776              		.section	.text.pqcrystals_fips202_ref_shake256_squeezeblocks,"ax",%progbits
 3777              		.align	1
 3778              		.global	pqcrystals_fips202_ref_shake256_squeezeblocks
 3779              		.syntax unified
 3780              		.thumb
 3781              		.thumb_func
 3782              		.fpu softvfp
 3784              	pqcrystals_fips202_ref_shake256_squeezeblocks:
 3785              	.LVL453:
 3786              	.LFB16:
 663:fips202.c     **** 
 664:fips202.c     **** /*************************************************
 665:fips202.c     **** * Name:        shake256_squeezeblocks
 666:fips202.c     **** *
 667:fips202.c     **** * Description: Squeeze step of SHAKE256 XOF. Squeezes full blocks of
 668:fips202.c     **** *              SHAKE256_RATE bytes each. Can be called multiple times
 669:fips202.c     **** *              to keep squeezing. Assumes zero bytes of current block
 670:fips202.c     **** *              have already been squeezed (state->pos = 0).
 671:fips202.c     **** *
 672:fips202.c     **** * Arguments:   - uint8_t *out:    pointer to output blocks
 673:fips202.c     **** *              - size_t nblocks:  number of blocks to be squeezed
 674:fips202.c     **** *                                 (written to output)
 675:fips202.c     **** *              - keccak_state *s: pointer to input/output Keccak state
 676:fips202.c     **** **************************************************/
 677:fips202.c     **** void shake256_squeezeblocks(uint8_t *out, size_t nblocks, keccak_state *state)
 678:fips202.c     **** {
 3787              		.loc 1 678 1 is_stmt 1 view -0
 3788              		.cfi_startproc
 3789              		@ args = 0, pretend = 0, frame = 0
 3790              		@ frame_needed = 0, uses_anonymous_args = 0
 3791              		@ link register save eliminated.
 679:fips202.c     ****   keccak_squeezeblocks(out, nblocks, state->s, SHAKE256_RATE);
 3792              		.loc 1 679 3 view .LVU1284
 3793 0000 8823     		movs	r3, #136
 3794 0002 FFF7FEBF 		b	keccak_squeezeblocks
 3795              	.LVL454:
 3796              		.loc 1 679 3 is_stmt 0 view .LVU1285
 3797              		.cfi_endproc
 3798              	.LFE16:
 3800              		.section	.text.pqcrystals_fips202_ref_shake256_squeeze,"ax",%progbits
 3801              		.align	1
 3802              		.global	pqcrystals_fips202_ref_shake256_squeeze
 3803              		.syntax unified
 3804              		.thumb
 3805              		.thumb_func
 3806              		.fpu softvfp
 3808              	pqcrystals_fips202_ref_shake256_squeeze:
 3809              	.LVL455:
 3810              	.LFB17:
 680:fips202.c     **** }
 681:fips202.c     **** 
 682:fips202.c     **** /*************************************************
 683:fips202.c     **** * Name:        shake256_squeeze
 684:fips202.c     **** *
 685:fips202.c     **** * Description: Squeeze step of SHAKE256 XOF. Squeezes arbitraily many
 686:fips202.c     **** *              bytes. Can be called multiple times to keep squeezing.
 687:fips202.c     **** *
 688:fips202.c     **** * Arguments:   - uint8_t *out:    pointer to output blocks
 689:fips202.c     **** *              - size_t outlen :  number of bytes to be squeezed
 690:fips202.c     **** *                                 (written to output)
 691:fips202.c     **** *              - keccak_state *s: pointer to input/output Keccak state
 692:fips202.c     **** **************************************************/
 693:fips202.c     **** void shake256_squeeze(uint8_t *out, size_t outlen, keccak_state *state)
 694:fips202.c     **** {
 3811              		.loc 1 694 1 is_stmt 1 view -0
 3812              		.cfi_startproc
 3813              		@ args = 0, pretend = 0, frame = 0
 3814              		@ frame_needed = 0, uses_anonymous_args = 0
 695:fips202.c     ****   state->pos = keccak_squeeze(out, outlen, state->s, SHAKE256_RATE, state->pos);
 3815              		.loc 1 695 3 view .LVU1287
 694:fips202.c     ****   state->pos = keccak_squeeze(out, outlen, state->s, SHAKE256_RATE, state->pos);
 3816              		.loc 1 694 1 is_stmt 0 view .LVU1288
 3817 0000 13B5     		push	{r0, r1, r4, lr}
 3818              	.LCFI24:
 3819              		.cfi_def_cfa_offset 16
 3820              		.cfi_offset 4, -8
 3821              		.cfi_offset 14, -4
 3822              		.loc 1 695 16 view .LVU1289
 3823 0002 D2F8C830 		ldr	r3, [r2, #200]
 3824 0006 0093     		str	r3, [sp]
 3825 0008 8823     		movs	r3, #136
 694:fips202.c     ****   state->pos = keccak_squeeze(out, outlen, state->s, SHAKE256_RATE, state->pos);
 3826              		.loc 1 694 1 view .LVU1290
 3827 000a 1446     		mov	r4, r2
 3828              		.loc 1 695 16 view .LVU1291
 3829 000c FFF7FEFF 		bl	keccak_squeeze
 3830              	.LVL456:
 3831              		.loc 1 695 14 view .LVU1292
 3832 0010 C4F8C800 		str	r0, [r4, #200]
 696:fips202.c     **** }
 3833              		.loc 1 696 1 view .LVU1293
 3834 0014 02B0     		add	sp, sp, #8
 3835              	.LCFI25:
 3836              		.cfi_def_cfa_offset 8
 3837              		@ sp needed
 3838 0016 10BD     		pop	{r4, pc}
 3839              		.loc 1 696 1 view .LVU1294
 3840              		.cfi_endproc
 3841              	.LFE17:
 3843              		.section	.text.pqcrystals_fips202_ref_shake128,"ax",%progbits
 3844              		.align	1
 3845              		.global	pqcrystals_fips202_ref_shake128
 3846              		.syntax unified
 3847              		.thumb
 3848              		.thumb_func
 3849              		.fpu softvfp
 3851              	pqcrystals_fips202_ref_shake128:
 3852              	.LVL457:
 3853              	.LFB18:
 697:fips202.c     **** 
 698:fips202.c     **** /*************************************************
 699:fips202.c     **** * Name:        shake128
 700:fips202.c     **** *
 701:fips202.c     **** * Description: SHAKE128 XOF with non-incremental API
 702:fips202.c     **** *
 703:fips202.c     **** * Arguments:   - uint8_t *out:      pointer to output
 704:fips202.c     **** *              - size_t outlen:     requested output length in bytes
 705:fips202.c     **** *              - const uint8_t *in: pointer to input
 706:fips202.c     **** *              - size_t inlen:      length of input in bytes
 707:fips202.c     **** **************************************************/
 708:fips202.c     **** void shake128(uint8_t *out, size_t outlen, const uint8_t *in, size_t inlen)
 709:fips202.c     **** {
 3854              		.loc 1 709 1 is_stmt 1 view -0
 3855              		.cfi_startproc
 3856              		@ args = 0, pretend = 0, frame = 208
 3857              		@ frame_needed = 0, uses_anonymous_args = 0
 710:fips202.c     ****   keccak_state state;
 3858              		.loc 1 710 3 view .LVU1296
 711:fips202.c     **** 
 712:fips202.c     ****   shake128_init(&state);
 3859              		.loc 1 712 3 view .LVU1297
 709:fips202.c     ****   keccak_state state;
 3860              		.loc 1 709 1 is_stmt 0 view .LVU1298
 3861 0000 F0B5     		push	{r4, r5, r6, r7, lr}
 3862              	.LCFI26:
 3863              		.cfi_def_cfa_offset 20
 3864              		.cfi_offset 4, -20
 3865              		.cfi_offset 5, -16
 3866              		.cfi_offset 6, -12
 3867              		.cfi_offset 7, -8
 3868              		.cfi_offset 14, -4
 3869 0002 B5B0     		sub	sp, sp, #212
 3870              	.LCFI27:
 3871              		.cfi_def_cfa_offset 232
 3872              	.LVL458:
 3873              	.LBB6:
 3874              	.LBI6:
 556:fips202.c     **** {
 3875              		.loc 1 556 6 is_stmt 1 view .LVU1299
 3876              	.LBB7:
 558:fips202.c     **** }
 3877              		.loc 1 558 3 view .LVU1300
 3878              	.LBE7:
 3879              	.LBE6:
 709:fips202.c     ****   keccak_state state;
 3880              		.loc 1 709 1 is_stmt 0 view .LVU1301
 3881 0004 1F46     		mov	r7, r3
 3882 0006 1646     		mov	r6, r2
 3883 0008 0446     		mov	r4, r0
 3884              	.LBB10:
 3885              	.LBB8:
 558:fips202.c     **** }
 3886              		.loc 1 558 3 view .LVU1302
 3887 000a 6846     		mov	r0, sp
 3888              	.LVL459:
 558:fips202.c     **** }
 3889              		.loc 1 558 3 view .LVU1303
 3890              	.LBE8:
 3891              	.LBE10:
 709:fips202.c     ****   keccak_state state;
 3892              		.loc 1 709 1 view .LVU1304
 3893 000c 0D46     		mov	r5, r1
 3894              	.LBB11:
 3895              	.LBB9:
 558:fips202.c     **** }
 3896              		.loc 1 558 3 view .LVU1305
 3897 000e FFF7FEFF 		bl	keccak_init
 3898              	.LVL460:
 558:fips202.c     **** }
 3899              		.loc 1 558 3 view .LVU1306
 3900              	.LBE9:
 3901              	.LBE11:
 713:fips202.c     ****   shake128_absorb(&state, in, inlen);
 3902              		.loc 1 713 3 is_stmt 1 view .LVU1307
 3903 0012 3A46     		mov	r2, r7
 3904 0014 3146     		mov	r1, r6
 3905 0016 6846     		mov	r0, sp
 3906 0018 FFF7FEFF 		bl	pqcrystals_fips202_ref_shake128_absorb
 3907              	.LVL461:
 714:fips202.c     ****   shake128_finalize(&state);
 3908              		.loc 1 714 3 view .LVU1308
 3909 001c 6846     		mov	r0, sp
 3910 001e FFF7FEFF 		bl	pqcrystals_fips202_ref_shake128_finalize
 3911              	.LVL462:
 715:fips202.c     ****   shake128_squeeze(out, outlen, &state);
 3912              		.loc 1 715 3 view .LVU1309
 3913 0022 6A46     		mov	r2, sp
 3914 0024 2946     		mov	r1, r5
 3915 0026 2046     		mov	r0, r4
 3916 0028 FFF7FEFF 		bl	pqcrystals_fips202_ref_shake128_squeeze
 3917              	.LVL463:
 716:fips202.c     **** }
 3918              		.loc 1 716 1 is_stmt 0 view .LVU1310
 3919 002c 35B0     		add	sp, sp, #212
 3920              	.LCFI28:
 3921              		.cfi_def_cfa_offset 20
 3922              		@ sp needed
 3923 002e F0BD     		pop	{r4, r5, r6, r7, pc}
 3924              		.loc 1 716 1 view .LVU1311
 3925              		.cfi_endproc
 3926              	.LFE18:
 3928              		.section	.text.pqcrystals_fips202_ref_shake256,"ax",%progbits
 3929              		.align	1
 3930              		.global	pqcrystals_fips202_ref_shake256
 3931              		.syntax unified
 3932              		.thumb
 3933              		.thumb_func
 3934              		.fpu softvfp
 3936              	pqcrystals_fips202_ref_shake256:
 3937              	.LVL464:
 3938              	.LFB19:
 717:fips202.c     **** 
 718:fips202.c     **** /*************************************************
 719:fips202.c     **** * Name:        shake256
 720:fips202.c     **** *
 721:fips202.c     **** * Description: SHAKE256 XOF with non-incremental API
 722:fips202.c     **** *
 723:fips202.c     **** * Arguments:   - uint8_t *out:      pointer to output
 724:fips202.c     **** *              - size_t outlen:     requested output length in bytes
 725:fips202.c     **** *              - const uint8_t *in: pointer to input
 726:fips202.c     **** *              - size_t inlen:      length of input in bytes
 727:fips202.c     **** **************************************************/
 728:fips202.c     **** void shake256(uint8_t *out, size_t outlen, const uint8_t *in, size_t inlen)
 729:fips202.c     **** {
 3939              		.loc 1 729 1 is_stmt 1 view -0
 3940              		.cfi_startproc
 3941              		@ args = 0, pretend = 0, frame = 208
 3942              		@ frame_needed = 0, uses_anonymous_args = 0
 730:fips202.c     ****   keccak_state state;
 3943              		.loc 1 730 3 view .LVU1313
 731:fips202.c     **** 
 732:fips202.c     ****   shake256_init(&state);
 3944              		.loc 1 732 3 view .LVU1314
 729:fips202.c     ****   keccak_state state;
 3945              		.loc 1 729 1 is_stmt 0 view .LVU1315
 3946 0000 F0B5     		push	{r4, r5, r6, r7, lr}
 3947              	.LCFI29:
 3948              		.cfi_def_cfa_offset 20
 3949              		.cfi_offset 4, -20
 3950              		.cfi_offset 5, -16
 3951              		.cfi_offset 6, -12
 3952              		.cfi_offset 7, -8
 3953              		.cfi_offset 14, -4
 3954 0002 B5B0     		sub	sp, sp, #212
 3955              	.LCFI30:
 3956              		.cfi_def_cfa_offset 232
 3957              	.LVL465:
 3958              	.LBB12:
 3959              	.LBI12:
 631:fips202.c     **** {
 3960              		.loc 1 631 6 is_stmt 1 view .LVU1316
 3961              	.LBB13:
 633:fips202.c     **** }
 3962              		.loc 1 633 3 view .LVU1317
 3963              	.LBE13:
 3964              	.LBE12:
 729:fips202.c     ****   keccak_state state;
 3965              		.loc 1 729 1 is_stmt 0 view .LVU1318
 3966 0004 1F46     		mov	r7, r3
 3967 0006 1646     		mov	r6, r2
 3968 0008 0446     		mov	r4, r0
 3969              	.LBB16:
 3970              	.LBB14:
 633:fips202.c     **** }
 3971              		.loc 1 633 3 view .LVU1319
 3972 000a 6846     		mov	r0, sp
 3973              	.LVL466:
 633:fips202.c     **** }
 3974              		.loc 1 633 3 view .LVU1320
 3975              	.LBE14:
 3976              	.LBE16:
 729:fips202.c     ****   keccak_state state;
 3977              		.loc 1 729 1 view .LVU1321
 3978 000c 0D46     		mov	r5, r1
 3979              	.LBB17:
 3980              	.LBB15:
 633:fips202.c     **** }
 3981              		.loc 1 633 3 view .LVU1322
 3982 000e FFF7FEFF 		bl	keccak_init
 3983              	.LVL467:
 633:fips202.c     **** }
 3984              		.loc 1 633 3 view .LVU1323
 3985              	.LBE15:
 3986              	.LBE17:
 733:fips202.c     ****   shake256_absorb(&state, in, inlen);
 3987              		.loc 1 733 3 is_stmt 1 view .LVU1324
 3988 0012 3A46     		mov	r2, r7
 3989 0014 3146     		mov	r1, r6
 3990 0016 6846     		mov	r0, sp
 3991 0018 FFF7FEFF 		bl	pqcrystals_fips202_ref_shake256_absorb
 3992              	.LVL468:
 734:fips202.c     ****   shake256_finalize(&state);
 3993              		.loc 1 734 3 view .LVU1325
 3994 001c 6846     		mov	r0, sp
 3995 001e FFF7FEFF 		bl	pqcrystals_fips202_ref_shake256_finalize
 3996              	.LVL469:
 735:fips202.c     ****   shake256_squeeze(out, outlen, &state);
 3997              		.loc 1 735 3 view .LVU1326
 3998 0022 6A46     		mov	r2, sp
 3999 0024 2946     		mov	r1, r5
 4000 0026 2046     		mov	r0, r4
 4001 0028 FFF7FEFF 		bl	pqcrystals_fips202_ref_shake256_squeeze
 4002              	.LVL470:
 736:fips202.c     **** }
 4003              		.loc 1 736 1 is_stmt 0 view .LVU1327
 4004 002c 35B0     		add	sp, sp, #212
 4005              	.LCFI31:
 4006              		.cfi_def_cfa_offset 20
 4007              		@ sp needed
 4008 002e F0BD     		pop	{r4, r5, r6, r7, pc}
 4009              		.loc 1 736 1 view .LVU1328
 4010              		.cfi_endproc
 4011              	.LFE19:
 4013              		.section	.text.pqcrystals_fips202_ref_sha3_256,"ax",%progbits
 4014              		.align	1
 4015              		.global	pqcrystals_fips202_ref_sha3_256
 4016              		.syntax unified
 4017              		.thumb
 4018              		.thumb_func
 4019              		.fpu softvfp
 4021              	pqcrystals_fips202_ref_sha3_256:
 4022              	.LVL471:
 4023              	.LFB20:
 737:fips202.c     **** 
 738:fips202.c     **** /*************************************************
 739:fips202.c     **** * Name:        sha3_256
 740:fips202.c     **** *
 741:fips202.c     **** * Description: SHA3-256 with non-incremental API
 742:fips202.c     **** *
 743:fips202.c     **** * Arguments:   - uint8_t *h:        pointer to output (32 bytes)
 744:fips202.c     **** *              - const uint8_t *in: pointer to input
 745:fips202.c     **** *              - size_t inlen:      length of input in bytes
 746:fips202.c     **** **************************************************/
 747:fips202.c     **** void sha3_256(uint8_t h[32], const uint8_t *in, size_t inlen)
 748:fips202.c     **** {
 4024              		.loc 1 748 1 is_stmt 1 view -0
 4025              		.cfi_startproc
 4026              		@ args = 0, pretend = 0, frame = 200
 4027              		@ frame_needed = 0, uses_anonymous_args = 0
 749:fips202.c     ****   uint64_t s[25] = {0};
 4028              		.loc 1 749 3 view .LVU1330
 748:fips202.c     ****   uint64_t s[25] = {0};
 4029              		.loc 1 748 1 is_stmt 0 view .LVU1331
 4030 0000 70B5     		push	{r4, r5, r6, lr}
 4031              	.LCFI32:
 4032              		.cfi_def_cfa_offset 16
 4033              		.cfi_offset 4, -16
 4034              		.cfi_offset 5, -12
 4035              		.cfi_offset 6, -8
 4036              		.cfi_offset 14, -4
 4037 0002 B4B0     		sub	sp, sp, #208
 4038              	.LCFI33:
 4039              		.cfi_def_cfa_offset 224
 748:fips202.c     ****   uint64_t s[25] = {0};
 4040              		.loc 1 748 1 view .LVU1332
 4041 0004 0446     		mov	r4, r0
 4042 0006 0D46     		mov	r5, r1
 4043 0008 1646     		mov	r6, r2
 4044              		.loc 1 749 12 view .LVU1333
 4045 000a 0021     		movs	r1, #0
 4046              	.LVL472:
 4047              		.loc 1 749 12 view .LVU1334
 4048 000c C822     		movs	r2, #200
 4049              	.LVL473:
 4050              		.loc 1 749 12 view .LVU1335
 4051 000e 02A8     		add	r0, sp, #8
 4052              	.LVL474:
 4053              		.loc 1 749 12 view .LVU1336
 4054 0010 FFF7FEFF 		bl	memset
 4055              	.LVL475:
 750:fips202.c     ****   unsigned int pos;
 4056              		.loc 1 750 3 is_stmt 1 view .LVU1337
 751:fips202.c     **** 
 752:fips202.c     ****   pos = keccak_absorb(s, SHA3_256_RATE, 0, in, inlen);
 4057              		.loc 1 752 3 view .LVU1338
 4058              		.loc 1 752 9 is_stmt 0 view .LVU1339
 4059 0014 2B46     		mov	r3, r5
 4060 0016 0096     		str	r6, [sp]
 4061 0018 0022     		movs	r2, #0
 4062 001a 8821     		movs	r1, #136
 4063 001c 02A8     		add	r0, sp, #8
 4064 001e FFF7FEFF 		bl	keccak_absorb
 4065              	.LVL476:
 753:fips202.c     ****   keccak_finalize(s, SHA3_256_RATE, pos, 0x06);
