
PQCgenKAT_sign-CW308_STM32F4.elf:     file format elf32-littlearm

Sections:
Idx Name          Size      VMA       LMA       File off  Algn
  0 .isr_vector   00000188  08000000  08000000  00010000  2**0
                  CONTENTS, ALLOC, LOAD, READONLY, DATA
  1 .text         0000ab48  080001c0  080001c0  000101c0  2**6
                  CONTENTS, ALLOC, LOAD, READONLY, CODE
  2 .rodata       00000a2c  0800ad08  0800ad08  0001ad08  2**3
                  CONTENTS, ALLOC, LOAD, READONLY, DATA
  3 .ARM.extab    00000000  0800b734  0800b734  000209b0  2**0
                  CONTENTS
  4 .ARM          00000008  0800b734  0800b734  0001b734  2**2
                  CONTENTS, ALLOC, LOAD, READONLY, DATA
  5 .preinit_array 00000000  0800b73c  0800b73c  000209b0  2**0
                  CONTENTS, ALLOC, LOAD, DATA
  6 .init_array   00000008  0800b73c  0800b73c  0001b73c  2**2
                  CONTENTS, ALLOC, LOAD, DATA
  7 .fini_array   00000004  0800b744  0800b744  0001b744  2**2
                  CONTENTS, ALLOC, LOAD, DATA
  8 .data         000009b0  10000000  0800b748  00020000  2**3
                  CONTENTS, ALLOC, LOAD, DATA
  9 .bss          000010a4  100009b0  0800c0f8  000209b0  2**2
                  ALLOC
 10 ._user_heap_stack 00000404  10001a54  0800c0f8  00021a54  2**0
                  ALLOC
 11 .ARM.attributes 0000002e  00000000  00000000  000209b0  2**0
                  CONTENTS, READONLY
 12 .debug_info   0000d1de  00000000  00000000  000209de  2**0
                  CONTENTS, READONLY, DEBUGGING, OCTETS
 13 .debug_abbrev 00001fcb  00000000  00000000  0002dbbc  2**0
                  CONTENTS, READONLY, DEBUGGING, OCTETS
 14 .debug_loc    0000aa43  00000000  00000000  0002fb87  2**0
                  CONTENTS, READONLY, DEBUGGING, OCTETS
 15 .debug_aranges 000007a8  00000000  00000000  0003a5ca  2**0
                  CONTENTS, READONLY, DEBUGGING, OCTETS
 16 .debug_ranges 000009b8  00000000  00000000  0003ad72  2**0
                  CONTENTS, READONLY, DEBUGGING, OCTETS
 17 .debug_line   00008b37  00000000  00000000  0003b72a  2**0
                  CONTENTS, READONLY, DEBUGGING, OCTETS
 18 .debug_str    000029f3  00000000  00000000  00044261  2**0
                  CONTENTS, READONLY, DEBUGGING, OCTETS
 19 .comment      0000004d  00000000  00000000  00046c54  2**0
                  CONTENTS, READONLY
 20 .debug_frame  00002e6c  00000000  00000000  00046ca4  2**2
                  CONTENTS, READONLY, DEBUGGING, OCTETS
 21 .stab         00000204  00000000  00000000  00049b10  2**2
                  CONTENTS, READONLY, DEBUGGING
 22 .stabstr      00000204  00000000  00000000  00049d14  2**0
                  CONTENTS, READONLY, DEBUGGING

Disassembly of section .text:

080001c0 <__do_global_dtors_aux>:
 80001c0:	b510      	push	{r4, lr}
 80001c2:	4c05      	ldr	r4, [pc, #20]	; (80001d8 <__do_global_dtors_aux+0x18>)
 80001c4:	7823      	ldrb	r3, [r4, #0]
 80001c6:	b933      	cbnz	r3, 80001d6 <__do_global_dtors_aux+0x16>
 80001c8:	4b04      	ldr	r3, [pc, #16]	; (80001dc <__do_global_dtors_aux+0x1c>)
 80001ca:	b113      	cbz	r3, 80001d2 <__do_global_dtors_aux+0x12>
 80001cc:	4804      	ldr	r0, [pc, #16]	; (80001e0 <__do_global_dtors_aux+0x20>)
 80001ce:	f3af 8000 	nop.w
 80001d2:	2301      	movs	r3, #1
 80001d4:	7023      	strb	r3, [r4, #0]
 80001d6:	bd10      	pop	{r4, pc}
 80001d8:	100009b0 	.word	0x100009b0
 80001dc:	00000000 	.word	0x00000000
 80001e0:	0800acf0 	.word	0x0800acf0

080001e4 <frame_dummy>:
 80001e4:	b508      	push	{r3, lr}
 80001e6:	4b03      	ldr	r3, [pc, #12]	; (80001f4 <frame_dummy+0x10>)
 80001e8:	b11b      	cbz	r3, 80001f2 <frame_dummy+0xe>
 80001ea:	4903      	ldr	r1, [pc, #12]	; (80001f8 <frame_dummy+0x14>)
 80001ec:	4803      	ldr	r0, [pc, #12]	; (80001fc <frame_dummy+0x18>)
 80001ee:	f3af 8000 	nop.w
 80001f2:	bd08      	pop	{r3, pc}
 80001f4:	00000000 	.word	0x00000000
 80001f8:	100009b4 	.word	0x100009b4
 80001fc:	0800acf0 	.word	0x0800acf0

08000200 <memcpy>:
 8000200:	4684      	mov	ip, r0
 8000202:	ea41 0300 	orr.w	r3, r1, r0
 8000206:	f013 0303 	ands.w	r3, r3, #3
 800020a:	d16d      	bne.n	80002e8 <memcpy+0xe8>
 800020c:	3a40      	subs	r2, #64	; 0x40
 800020e:	d341      	bcc.n	8000294 <memcpy+0x94>
 8000210:	f851 3b04 	ldr.w	r3, [r1], #4
 8000214:	f840 3b04 	str.w	r3, [r0], #4
 8000218:	f851 3b04 	ldr.w	r3, [r1], #4
 800021c:	f840 3b04 	str.w	r3, [r0], #4
 8000220:	f851 3b04 	ldr.w	r3, [r1], #4
 8000224:	f840 3b04 	str.w	r3, [r0], #4
 8000228:	f851 3b04 	ldr.w	r3, [r1], #4
 800022c:	f840 3b04 	str.w	r3, [r0], #4
 8000230:	f851 3b04 	ldr.w	r3, [r1], #4
 8000234:	f840 3b04 	str.w	r3, [r0], #4
 8000238:	f851 3b04 	ldr.w	r3, [r1], #4
 800023c:	f840 3b04 	str.w	r3, [r0], #4
 8000240:	f851 3b04 	ldr.w	r3, [r1], #4
 8000244:	f840 3b04 	str.w	r3, [r0], #4
 8000248:	f851 3b04 	ldr.w	r3, [r1], #4
 800024c:	f840 3b04 	str.w	r3, [r0], #4
 8000250:	f851 3b04 	ldr.w	r3, [r1], #4
 8000254:	f840 3b04 	str.w	r3, [r0], #4
 8000258:	f851 3b04 	ldr.w	r3, [r1], #4
 800025c:	f840 3b04 	str.w	r3, [r0], #4
 8000260:	f851 3b04 	ldr.w	r3, [r1], #4
 8000264:	f840 3b04 	str.w	r3, [r0], #4
 8000268:	f851 3b04 	ldr.w	r3, [r1], #4
 800026c:	f840 3b04 	str.w	r3, [r0], #4
 8000270:	f851 3b04 	ldr.w	r3, [r1], #4
 8000274:	f840 3b04 	str.w	r3, [r0], #4
 8000278:	f851 3b04 	ldr.w	r3, [r1], #4
 800027c:	f840 3b04 	str.w	r3, [r0], #4
 8000280:	f851 3b04 	ldr.w	r3, [r1], #4
 8000284:	f840 3b04 	str.w	r3, [r0], #4
 8000288:	f851 3b04 	ldr.w	r3, [r1], #4
 800028c:	f840 3b04 	str.w	r3, [r0], #4
 8000290:	3a40      	subs	r2, #64	; 0x40
 8000292:	d2bd      	bcs.n	8000210 <memcpy+0x10>
 8000294:	3230      	adds	r2, #48	; 0x30
 8000296:	d311      	bcc.n	80002bc <memcpy+0xbc>
 8000298:	f851 3b04 	ldr.w	r3, [r1], #4
 800029c:	f840 3b04 	str.w	r3, [r0], #4
 80002a0:	f851 3b04 	ldr.w	r3, [r1], #4
 80002a4:	f840 3b04 	str.w	r3, [r0], #4
 80002a8:	f851 3b04 	ldr.w	r3, [r1], #4
 80002ac:	f840 3b04 	str.w	r3, [r0], #4
 80002b0:	f851 3b04 	ldr.w	r3, [r1], #4
 80002b4:	f840 3b04 	str.w	r3, [r0], #4
 80002b8:	3a10      	subs	r2, #16
 80002ba:	d2ed      	bcs.n	8000298 <memcpy+0x98>
 80002bc:	320c      	adds	r2, #12
 80002be:	d305      	bcc.n	80002cc <memcpy+0xcc>
 80002c0:	f851 3b04 	ldr.w	r3, [r1], #4
 80002c4:	f840 3b04 	str.w	r3, [r0], #4
 80002c8:	3a04      	subs	r2, #4
 80002ca:	d2f9      	bcs.n	80002c0 <memcpy+0xc0>
 80002cc:	3204      	adds	r2, #4
 80002ce:	d008      	beq.n	80002e2 <memcpy+0xe2>
 80002d0:	07d2      	lsls	r2, r2, #31
 80002d2:	bf1c      	itt	ne
 80002d4:	f811 3b01 	ldrbne.w	r3, [r1], #1
 80002d8:	f800 3b01 	strbne.w	r3, [r0], #1
 80002dc:	d301      	bcc.n	80002e2 <memcpy+0xe2>
 80002de:	880b      	ldrh	r3, [r1, #0]
 80002e0:	8003      	strh	r3, [r0, #0]
 80002e2:	4660      	mov	r0, ip
 80002e4:	4770      	bx	lr
 80002e6:	bf00      	nop
 80002e8:	2a08      	cmp	r2, #8
 80002ea:	d313      	bcc.n	8000314 <memcpy+0x114>
 80002ec:	078b      	lsls	r3, r1, #30
 80002ee:	d08d      	beq.n	800020c <memcpy+0xc>
 80002f0:	f010 0303 	ands.w	r3, r0, #3
 80002f4:	d08a      	beq.n	800020c <memcpy+0xc>
 80002f6:	f1c3 0304 	rsb	r3, r3, #4
 80002fa:	1ad2      	subs	r2, r2, r3
 80002fc:	07db      	lsls	r3, r3, #31
 80002fe:	bf1c      	itt	ne
 8000300:	f811 3b01 	ldrbne.w	r3, [r1], #1
 8000304:	f800 3b01 	strbne.w	r3, [r0], #1
 8000308:	d380      	bcc.n	800020c <memcpy+0xc>
 800030a:	f831 3b02 	ldrh.w	r3, [r1], #2
 800030e:	f820 3b02 	strh.w	r3, [r0], #2
 8000312:	e77b      	b.n	800020c <memcpy+0xc>
 8000314:	3a04      	subs	r2, #4
 8000316:	d3d9      	bcc.n	80002cc <memcpy+0xcc>
 8000318:	3a01      	subs	r2, #1
 800031a:	f811 3b01 	ldrb.w	r3, [r1], #1
 800031e:	f800 3b01 	strb.w	r3, [r0], #1
 8000322:	d2f9      	bcs.n	8000318 <memcpy+0x118>
 8000324:	780b      	ldrb	r3, [r1, #0]
 8000326:	7003      	strb	r3, [r0, #0]
 8000328:	784b      	ldrb	r3, [r1, #1]
 800032a:	7043      	strb	r3, [r0, #1]
 800032c:	788b      	ldrb	r3, [r1, #2]
 800032e:	7083      	strb	r3, [r0, #2]
 8000330:	4660      	mov	r0, ip
 8000332:	4770      	bx	lr
 8000334:	0000      	movs	r0, r0
 8000336:	0000      	movs	r0, r0
 8000338:	0000      	movs	r0, r0
 800033a:	0000      	movs	r0, r0
 800033c:	0000      	movs	r0, r0
 800033e:	0000      	movs	r0, r0

08000340 <strlen>:
 8000340:	f890 f000 	pld	[r0]
 8000344:	e96d 4502 	strd	r4, r5, [sp, #-8]!
 8000348:	f020 0107 	bic.w	r1, r0, #7
 800034c:	f06f 0c00 	mvn.w	ip, #0
 8000350:	f010 0407 	ands.w	r4, r0, #7
 8000354:	f891 f020 	pld	[r1, #32]
 8000358:	f040 8049 	bne.w	80003ee <strlen+0xae>
 800035c:	f04f 0400 	mov.w	r4, #0
 8000360:	f06f 0007 	mvn.w	r0, #7
 8000364:	e9d1 2300 	ldrd	r2, r3, [r1]
 8000368:	f891 f040 	pld	[r1, #64]	; 0x40
 800036c:	f100 0008 	add.w	r0, r0, #8
 8000370:	fa82 f24c 	uadd8	r2, r2, ip
 8000374:	faa4 f28c 	sel	r2, r4, ip
 8000378:	fa83 f34c 	uadd8	r3, r3, ip
 800037c:	faa2 f38c 	sel	r3, r2, ip
 8000380:	bb4b      	cbnz	r3, 80003d6 <strlen+0x96>
 8000382:	e9d1 2302 	ldrd	r2, r3, [r1, #8]
 8000386:	fa82 f24c 	uadd8	r2, r2, ip
 800038a:	f100 0008 	add.w	r0, r0, #8
 800038e:	faa4 f28c 	sel	r2, r4, ip
 8000392:	fa83 f34c 	uadd8	r3, r3, ip
 8000396:	faa2 f38c 	sel	r3, r2, ip
 800039a:	b9e3      	cbnz	r3, 80003d6 <strlen+0x96>
 800039c:	e9d1 2304 	ldrd	r2, r3, [r1, #16]
 80003a0:	fa82 f24c 	uadd8	r2, r2, ip
 80003a4:	f100 0008 	add.w	r0, r0, #8
 80003a8:	faa4 f28c 	sel	r2, r4, ip
 80003ac:	fa83 f34c 	uadd8	r3, r3, ip
 80003b0:	faa2 f38c 	sel	r3, r2, ip
 80003b4:	b97b      	cbnz	r3, 80003d6 <strlen+0x96>
 80003b6:	e9d1 2306 	ldrd	r2, r3, [r1, #24]
 80003ba:	f101 0120 	add.w	r1, r1, #32
 80003be:	fa82 f24c 	uadd8	r2, r2, ip
 80003c2:	f100 0008 	add.w	r0, r0, #8
 80003c6:	faa4 f28c 	sel	r2, r4, ip
 80003ca:	fa83 f34c 	uadd8	r3, r3, ip
 80003ce:	faa2 f38c 	sel	r3, r2, ip
 80003d2:	2b00      	cmp	r3, #0
 80003d4:	d0c6      	beq.n	8000364 <strlen+0x24>
 80003d6:	2a00      	cmp	r2, #0
 80003d8:	bf04      	itt	eq
 80003da:	3004      	addeq	r0, #4
 80003dc:	461a      	moveq	r2, r3
 80003de:	ba12      	rev	r2, r2
 80003e0:	fab2 f282 	clz	r2, r2
 80003e4:	e8fd 4502 	ldrd	r4, r5, [sp], #8
 80003e8:	eb00 00d2 	add.w	r0, r0, r2, lsr #3
 80003ec:	4770      	bx	lr
 80003ee:	e9d1 2300 	ldrd	r2, r3, [r1]
 80003f2:	f004 0503 	and.w	r5, r4, #3
 80003f6:	f1c4 0000 	rsb	r0, r4, #0
 80003fa:	ea4f 05c5 	mov.w	r5, r5, lsl #3
 80003fe:	f014 0f04 	tst.w	r4, #4
 8000402:	f891 f040 	pld	[r1, #64]	; 0x40
 8000406:	fa0c f505 	lsl.w	r5, ip, r5
 800040a:	ea62 0205 	orn	r2, r2, r5
 800040e:	bf1c      	itt	ne
 8000410:	ea63 0305 	ornne	r3, r3, r5
 8000414:	4662      	movne	r2, ip
 8000416:	f04f 0400 	mov.w	r4, #0
 800041a:	e7a9      	b.n	8000370 <strlen+0x30>
 800041c:	0000      	movs	r0, r0
 800041e:	0000      	movs	r0, r0

08000420 <memchr>:
 8000420:	f001 01ff 	and.w	r1, r1, #255	; 0xff
 8000424:	2a10      	cmp	r2, #16
 8000426:	db2b      	blt.n	8000480 <memchr+0x60>
 8000428:	f010 0f07 	tst.w	r0, #7
 800042c:	d008      	beq.n	8000440 <memchr+0x20>
 800042e:	f810 3b01 	ldrb.w	r3, [r0], #1
 8000432:	3a01      	subs	r2, #1
 8000434:	428b      	cmp	r3, r1
 8000436:	d02d      	beq.n	8000494 <memchr+0x74>
 8000438:	f010 0f07 	tst.w	r0, #7
 800043c:	b342      	cbz	r2, 8000490 <memchr+0x70>
 800043e:	d1f6      	bne.n	800042e <memchr+0xe>
 8000440:	b4f0      	push	{r4, r5, r6, r7}
 8000442:	ea41 2101 	orr.w	r1, r1, r1, lsl #8
 8000446:	ea41 4101 	orr.w	r1, r1, r1, lsl #16
 800044a:	f022 0407 	bic.w	r4, r2, #7
 800044e:	f07f 0700 	mvns.w	r7, #0
 8000452:	2300      	movs	r3, #0
 8000454:	e8f0 5602 	ldrd	r5, r6, [r0], #8
 8000458:	3c08      	subs	r4, #8
 800045a:	ea85 0501 	eor.w	r5, r5, r1
 800045e:	ea86 0601 	eor.w	r6, r6, r1
 8000462:	fa85 f547 	uadd8	r5, r5, r7
 8000466:	faa3 f587 	sel	r5, r3, r7
 800046a:	fa86 f647 	uadd8	r6, r6, r7
 800046e:	faa5 f687 	sel	r6, r5, r7
 8000472:	b98e      	cbnz	r6, 8000498 <memchr+0x78>
 8000474:	d1ee      	bne.n	8000454 <memchr+0x34>
 8000476:	bcf0      	pop	{r4, r5, r6, r7}
 8000478:	f001 01ff 	and.w	r1, r1, #255	; 0xff
 800047c:	f002 0207 	and.w	r2, r2, #7
 8000480:	b132      	cbz	r2, 8000490 <memchr+0x70>
 8000482:	f810 3b01 	ldrb.w	r3, [r0], #1
 8000486:	3a01      	subs	r2, #1
 8000488:	ea83 0301 	eor.w	r3, r3, r1
 800048c:	b113      	cbz	r3, 8000494 <memchr+0x74>
 800048e:	d1f8      	bne.n	8000482 <memchr+0x62>
 8000490:	2000      	movs	r0, #0
 8000492:	4770      	bx	lr
 8000494:	3801      	subs	r0, #1
 8000496:	4770      	bx	lr
 8000498:	2d00      	cmp	r5, #0
 800049a:	bf06      	itte	eq
 800049c:	4635      	moveq	r5, r6
 800049e:	3803      	subeq	r0, #3
 80004a0:	3807      	subne	r0, #7
 80004a2:	f015 0f01 	tst.w	r5, #1
 80004a6:	d107      	bne.n	80004b8 <memchr+0x98>
 80004a8:	3001      	adds	r0, #1
 80004aa:	f415 7f80 	tst.w	r5, #256	; 0x100
 80004ae:	bf02      	ittt	eq
 80004b0:	3001      	addeq	r0, #1
 80004b2:	f415 3fc0 	tsteq.w	r5, #98304	; 0x18000
 80004b6:	3001      	addeq	r0, #1
 80004b8:	bcf0      	pop	{r4, r5, r6, r7}
 80004ba:	3801      	subs	r0, #1
 80004bc:	4770      	bx	lr
 80004be:	bf00      	nop

080004c0 <__aeabi_drsub>:
 80004c0:	f081 4100 	eor.w	r1, r1, #2147483648	; 0x80000000
 80004c4:	e002      	b.n	80004cc <__adddf3>
 80004c6:	bf00      	nop

080004c8 <__aeabi_dsub>:
 80004c8:	f083 4300 	eor.w	r3, r3, #2147483648	; 0x80000000

080004cc <__adddf3>:
 80004cc:	b530      	push	{r4, r5, lr}
 80004ce:	ea4f 0441 	mov.w	r4, r1, lsl #1
 80004d2:	ea4f 0543 	mov.w	r5, r3, lsl #1
 80004d6:	ea94 0f05 	teq	r4, r5
 80004da:	bf08      	it	eq
 80004dc:	ea90 0f02 	teqeq	r0, r2
 80004e0:	bf1f      	itttt	ne
 80004e2:	ea54 0c00 	orrsne.w	ip, r4, r0
 80004e6:	ea55 0c02 	orrsne.w	ip, r5, r2
 80004ea:	ea7f 5c64 	mvnsne.w	ip, r4, asr #21
 80004ee:	ea7f 5c65 	mvnsne.w	ip, r5, asr #21
 80004f2:	f000 80e2 	beq.w	80006ba <__adddf3+0x1ee>
 80004f6:	ea4f 5454 	mov.w	r4, r4, lsr #21
 80004fa:	ebd4 5555 	rsbs	r5, r4, r5, lsr #21
 80004fe:	bfb8      	it	lt
 8000500:	426d      	neglt	r5, r5
 8000502:	dd0c      	ble.n	800051e <__adddf3+0x52>
 8000504:	442c      	add	r4, r5
 8000506:	ea80 0202 	eor.w	r2, r0, r2
 800050a:	ea81 0303 	eor.w	r3, r1, r3
 800050e:	ea82 0000 	eor.w	r0, r2, r0
 8000512:	ea83 0101 	eor.w	r1, r3, r1
 8000516:	ea80 0202 	eor.w	r2, r0, r2
 800051a:	ea81 0303 	eor.w	r3, r1, r3
 800051e:	2d36      	cmp	r5, #54	; 0x36
 8000520:	bf88      	it	hi
 8000522:	bd30      	pophi	{r4, r5, pc}
 8000524:	f011 4f00 	tst.w	r1, #2147483648	; 0x80000000
 8000528:	ea4f 3101 	mov.w	r1, r1, lsl #12
 800052c:	f44f 1c80 	mov.w	ip, #1048576	; 0x100000
 8000530:	ea4c 3111 	orr.w	r1, ip, r1, lsr #12
 8000534:	d002      	beq.n	800053c <__adddf3+0x70>
 8000536:	4240      	negs	r0, r0
 8000538:	eb61 0141 	sbc.w	r1, r1, r1, lsl #1
 800053c:	f013 4f00 	tst.w	r3, #2147483648	; 0x80000000
 8000540:	ea4f 3303 	mov.w	r3, r3, lsl #12
 8000544:	ea4c 3313 	orr.w	r3, ip, r3, lsr #12
 8000548:	d002      	beq.n	8000550 <__adddf3+0x84>
 800054a:	4252      	negs	r2, r2
 800054c:	eb63 0343 	sbc.w	r3, r3, r3, lsl #1
 8000550:	ea94 0f05 	teq	r4, r5
 8000554:	f000 80a7 	beq.w	80006a6 <__adddf3+0x1da>
 8000558:	f1a4 0401 	sub.w	r4, r4, #1
 800055c:	f1d5 0e20 	rsbs	lr, r5, #32
 8000560:	db0d      	blt.n	800057e <__adddf3+0xb2>
 8000562:	fa02 fc0e 	lsl.w	ip, r2, lr
 8000566:	fa22 f205 	lsr.w	r2, r2, r5
 800056a:	1880      	adds	r0, r0, r2
 800056c:	f141 0100 	adc.w	r1, r1, #0
 8000570:	fa03 f20e 	lsl.w	r2, r3, lr
 8000574:	1880      	adds	r0, r0, r2
 8000576:	fa43 f305 	asr.w	r3, r3, r5
 800057a:	4159      	adcs	r1, r3
 800057c:	e00e      	b.n	800059c <__adddf3+0xd0>
 800057e:	f1a5 0520 	sub.w	r5, r5, #32
 8000582:	f10e 0e20 	add.w	lr, lr, #32
 8000586:	2a01      	cmp	r2, #1
 8000588:	fa03 fc0e 	lsl.w	ip, r3, lr
 800058c:	bf28      	it	cs
 800058e:	f04c 0c02 	orrcs.w	ip, ip, #2
 8000592:	fa43 f305 	asr.w	r3, r3, r5
 8000596:	18c0      	adds	r0, r0, r3
 8000598:	eb51 71e3 	adcs.w	r1, r1, r3, asr #31
 800059c:	f001 4500 	and.w	r5, r1, #2147483648	; 0x80000000
 80005a0:	d507      	bpl.n	80005b2 <__adddf3+0xe6>
 80005a2:	f04f 0e00 	mov.w	lr, #0
 80005a6:	f1dc 0c00 	rsbs	ip, ip, #0
 80005aa:	eb7e 0000 	sbcs.w	r0, lr, r0
 80005ae:	eb6e 0101 	sbc.w	r1, lr, r1
 80005b2:	f5b1 1f80 	cmp.w	r1, #1048576	; 0x100000
 80005b6:	d31b      	bcc.n	80005f0 <__adddf3+0x124>
 80005b8:	f5b1 1f00 	cmp.w	r1, #2097152	; 0x200000
 80005bc:	d30c      	bcc.n	80005d8 <__adddf3+0x10c>
 80005be:	0849      	lsrs	r1, r1, #1
 80005c0:	ea5f 0030 	movs.w	r0, r0, rrx
 80005c4:	ea4f 0c3c 	mov.w	ip, ip, rrx
 80005c8:	f104 0401 	add.w	r4, r4, #1
 80005cc:	ea4f 5244 	mov.w	r2, r4, lsl #21
 80005d0:	f512 0f80 	cmn.w	r2, #4194304	; 0x400000
 80005d4:	f080 809a 	bcs.w	800070c <__adddf3+0x240>
 80005d8:	f1bc 4f00 	cmp.w	ip, #2147483648	; 0x80000000
 80005dc:	bf08      	it	eq
 80005de:	ea5f 0c50 	movseq.w	ip, r0, lsr #1
 80005e2:	f150 0000 	adcs.w	r0, r0, #0
 80005e6:	eb41 5104 	adc.w	r1, r1, r4, lsl #20
 80005ea:	ea41 0105 	orr.w	r1, r1, r5
 80005ee:	bd30      	pop	{r4, r5, pc}
 80005f0:	ea5f 0c4c 	movs.w	ip, ip, lsl #1
 80005f4:	4140      	adcs	r0, r0
 80005f6:	eb41 0101 	adc.w	r1, r1, r1
 80005fa:	3c01      	subs	r4, #1
 80005fc:	bf28      	it	cs
 80005fe:	f5b1 1f80 	cmpcs.w	r1, #1048576	; 0x100000
 8000602:	d2e9      	bcs.n	80005d8 <__adddf3+0x10c>
 8000604:	f091 0f00 	teq	r1, #0
 8000608:	bf04      	itt	eq
 800060a:	4601      	moveq	r1, r0
 800060c:	2000      	moveq	r0, #0
 800060e:	fab1 f381 	clz	r3, r1
 8000612:	bf08      	it	eq
 8000614:	3320      	addeq	r3, #32
 8000616:	f1a3 030b 	sub.w	r3, r3, #11
 800061a:	f1b3 0220 	subs.w	r2, r3, #32
 800061e:	da0c      	bge.n	800063a <__adddf3+0x16e>
 8000620:	320c      	adds	r2, #12
 8000622:	dd08      	ble.n	8000636 <__adddf3+0x16a>
 8000624:	f102 0c14 	add.w	ip, r2, #20
 8000628:	f1c2 020c 	rsb	r2, r2, #12
 800062c:	fa01 f00c 	lsl.w	r0, r1, ip
 8000630:	fa21 f102 	lsr.w	r1, r1, r2
 8000634:	e00c      	b.n	8000650 <__adddf3+0x184>
 8000636:	f102 0214 	add.w	r2, r2, #20
 800063a:	bfd8      	it	le
 800063c:	f1c2 0c20 	rsble	ip, r2, #32
 8000640:	fa01 f102 	lsl.w	r1, r1, r2
 8000644:	fa20 fc0c 	lsr.w	ip, r0, ip
 8000648:	bfdc      	itt	le
 800064a:	ea41 010c 	orrle.w	r1, r1, ip
 800064e:	4090      	lslle	r0, r2
 8000650:	1ae4      	subs	r4, r4, r3
 8000652:	bfa2      	ittt	ge
 8000654:	eb01 5104 	addge.w	r1, r1, r4, lsl #20
 8000658:	4329      	orrge	r1, r5
 800065a:	bd30      	popge	{r4, r5, pc}
 800065c:	ea6f 0404 	mvn.w	r4, r4
 8000660:	3c1f      	subs	r4, #31
 8000662:	da1c      	bge.n	800069e <__adddf3+0x1d2>
 8000664:	340c      	adds	r4, #12
 8000666:	dc0e      	bgt.n	8000686 <__adddf3+0x1ba>
 8000668:	f104 0414 	add.w	r4, r4, #20
 800066c:	f1c4 0220 	rsb	r2, r4, #32
 8000670:	fa20 f004 	lsr.w	r0, r0, r4
 8000674:	fa01 f302 	lsl.w	r3, r1, r2
 8000678:	ea40 0003 	orr.w	r0, r0, r3
 800067c:	fa21 f304 	lsr.w	r3, r1, r4
 8000680:	ea45 0103 	orr.w	r1, r5, r3
 8000684:	bd30      	pop	{r4, r5, pc}
 8000686:	f1c4 040c 	rsb	r4, r4, #12
 800068a:	f1c4 0220 	rsb	r2, r4, #32
 800068e:	fa20 f002 	lsr.w	r0, r0, r2
 8000692:	fa01 f304 	lsl.w	r3, r1, r4
 8000696:	ea40 0003 	orr.w	r0, r0, r3
 800069a:	4629      	mov	r1, r5
 800069c:	bd30      	pop	{r4, r5, pc}
 800069e:	fa21 f004 	lsr.w	r0, r1, r4
 80006a2:	4629      	mov	r1, r5
 80006a4:	bd30      	pop	{r4, r5, pc}
 80006a6:	f094 0f00 	teq	r4, #0
 80006aa:	f483 1380 	eor.w	r3, r3, #1048576	; 0x100000
 80006ae:	bf06      	itte	eq
 80006b0:	f481 1180 	eoreq.w	r1, r1, #1048576	; 0x100000
 80006b4:	3401      	addeq	r4, #1
 80006b6:	3d01      	subne	r5, #1
 80006b8:	e74e      	b.n	8000558 <__adddf3+0x8c>
 80006ba:	ea7f 5c64 	mvns.w	ip, r4, asr #21
 80006be:	bf18      	it	ne
 80006c0:	ea7f 5c65 	mvnsne.w	ip, r5, asr #21
 80006c4:	d029      	beq.n	800071a <__adddf3+0x24e>
 80006c6:	ea94 0f05 	teq	r4, r5
 80006ca:	bf08      	it	eq
 80006cc:	ea90 0f02 	teqeq	r0, r2
 80006d0:	d005      	beq.n	80006de <__adddf3+0x212>
 80006d2:	ea54 0c00 	orrs.w	ip, r4, r0
 80006d6:	bf04      	itt	eq
 80006d8:	4619      	moveq	r1, r3
 80006da:	4610      	moveq	r0, r2
 80006dc:	bd30      	pop	{r4, r5, pc}
 80006de:	ea91 0f03 	teq	r1, r3
 80006e2:	bf1e      	ittt	ne
 80006e4:	2100      	movne	r1, #0
 80006e6:	2000      	movne	r0, #0
 80006e8:	bd30      	popne	{r4, r5, pc}
 80006ea:	ea5f 5c54 	movs.w	ip, r4, lsr #21
 80006ee:	d105      	bne.n	80006fc <__adddf3+0x230>
 80006f0:	0040      	lsls	r0, r0, #1
 80006f2:	4149      	adcs	r1, r1
 80006f4:	bf28      	it	cs
 80006f6:	f041 4100 	orrcs.w	r1, r1, #2147483648	; 0x80000000
 80006fa:	bd30      	pop	{r4, r5, pc}
 80006fc:	f514 0480 	adds.w	r4, r4, #4194304	; 0x400000
 8000700:	bf3c      	itt	cc
 8000702:	f501 1180 	addcc.w	r1, r1, #1048576	; 0x100000
 8000706:	bd30      	popcc	{r4, r5, pc}
 8000708:	f001 4500 	and.w	r5, r1, #2147483648	; 0x80000000
 800070c:	f045 41fe 	orr.w	r1, r5, #2130706432	; 0x7f000000
 8000710:	f441 0170 	orr.w	r1, r1, #15728640	; 0xf00000
 8000714:	f04f 0000 	mov.w	r0, #0
 8000718:	bd30      	pop	{r4, r5, pc}
 800071a:	ea7f 5c64 	mvns.w	ip, r4, asr #21
 800071e:	bf1a      	itte	ne
 8000720:	4619      	movne	r1, r3
 8000722:	4610      	movne	r0, r2
 8000724:	ea7f 5c65 	mvnseq.w	ip, r5, asr #21
 8000728:	bf1c      	itt	ne
 800072a:	460b      	movne	r3, r1
 800072c:	4602      	movne	r2, r0
 800072e:	ea50 3401 	orrs.w	r4, r0, r1, lsl #12
 8000732:	bf06      	itte	eq
 8000734:	ea52 3503 	orrseq.w	r5, r2, r3, lsl #12
 8000738:	ea91 0f03 	teqeq	r1, r3
 800073c:	f441 2100 	orrne.w	r1, r1, #524288	; 0x80000
 8000740:	bd30      	pop	{r4, r5, pc}
 8000742:	bf00      	nop

08000744 <__aeabi_ui2d>:
 8000744:	f090 0f00 	teq	r0, #0
 8000748:	bf04      	itt	eq
 800074a:	2100      	moveq	r1, #0
 800074c:	4770      	bxeq	lr
 800074e:	b530      	push	{r4, r5, lr}
 8000750:	f44f 6480 	mov.w	r4, #1024	; 0x400
 8000754:	f104 0432 	add.w	r4, r4, #50	; 0x32
 8000758:	f04f 0500 	mov.w	r5, #0
 800075c:	f04f 0100 	mov.w	r1, #0
 8000760:	e750      	b.n	8000604 <__adddf3+0x138>
 8000762:	bf00      	nop

08000764 <__aeabi_i2d>:
 8000764:	f090 0f00 	teq	r0, #0
 8000768:	bf04      	itt	eq
 800076a:	2100      	moveq	r1, #0
 800076c:	4770      	bxeq	lr
 800076e:	b530      	push	{r4, r5, lr}
 8000770:	f44f 6480 	mov.w	r4, #1024	; 0x400
 8000774:	f104 0432 	add.w	r4, r4, #50	; 0x32
 8000778:	f010 4500 	ands.w	r5, r0, #2147483648	; 0x80000000
 800077c:	bf48      	it	mi
 800077e:	4240      	negmi	r0, r0
 8000780:	f04f 0100 	mov.w	r1, #0
 8000784:	e73e      	b.n	8000604 <__adddf3+0x138>
 8000786:	bf00      	nop

08000788 <__aeabi_f2d>:
 8000788:	0042      	lsls	r2, r0, #1
 800078a:	ea4f 01e2 	mov.w	r1, r2, asr #3
 800078e:	ea4f 0131 	mov.w	r1, r1, rrx
 8000792:	ea4f 7002 	mov.w	r0, r2, lsl #28
 8000796:	bf1f      	itttt	ne
 8000798:	f012 437f 	andsne.w	r3, r2, #4278190080	; 0xff000000
 800079c:	f093 4f7f 	teqne	r3, #4278190080	; 0xff000000
 80007a0:	f081 5160 	eorne.w	r1, r1, #939524096	; 0x38000000
 80007a4:	4770      	bxne	lr
 80007a6:	f032 427f 	bics.w	r2, r2, #4278190080	; 0xff000000
 80007aa:	bf08      	it	eq
 80007ac:	4770      	bxeq	lr
 80007ae:	f093 4f7f 	teq	r3, #4278190080	; 0xff000000
 80007b2:	bf04      	itt	eq
 80007b4:	f441 2100 	orreq.w	r1, r1, #524288	; 0x80000
 80007b8:	4770      	bxeq	lr
 80007ba:	b530      	push	{r4, r5, lr}
 80007bc:	f44f 7460 	mov.w	r4, #896	; 0x380
 80007c0:	f001 4500 	and.w	r5, r1, #2147483648	; 0x80000000
 80007c4:	f021 4100 	bic.w	r1, r1, #2147483648	; 0x80000000
 80007c8:	e71c      	b.n	8000604 <__adddf3+0x138>
 80007ca:	bf00      	nop

080007cc <__aeabi_ul2d>:
 80007cc:	ea50 0201 	orrs.w	r2, r0, r1
 80007d0:	bf08      	it	eq
 80007d2:	4770      	bxeq	lr
 80007d4:	b530      	push	{r4, r5, lr}
 80007d6:	f04f 0500 	mov.w	r5, #0
 80007da:	e00a      	b.n	80007f2 <__aeabi_l2d+0x16>

080007dc <__aeabi_l2d>:
 80007dc:	ea50 0201 	orrs.w	r2, r0, r1
 80007e0:	bf08      	it	eq
 80007e2:	4770      	bxeq	lr
 80007e4:	b530      	push	{r4, r5, lr}
 80007e6:	f011 4500 	ands.w	r5, r1, #2147483648	; 0x80000000
 80007ea:	d502      	bpl.n	80007f2 <__aeabi_l2d+0x16>
 80007ec:	4240      	negs	r0, r0
 80007ee:	eb61 0141 	sbc.w	r1, r1, r1, lsl #1
 80007f2:	f44f 6480 	mov.w	r4, #1024	; 0x400
 80007f6:	f104 0432 	add.w	r4, r4, #50	; 0x32
 80007fa:	ea5f 5c91 	movs.w	ip, r1, lsr #22
 80007fe:	f43f aed8 	beq.w	80005b2 <__adddf3+0xe6>
 8000802:	f04f 0203 	mov.w	r2, #3
 8000806:	ea5f 0cdc 	movs.w	ip, ip, lsr #3
 800080a:	bf18      	it	ne
 800080c:	3203      	addne	r2, #3
 800080e:	ea5f 0cdc 	movs.w	ip, ip, lsr #3
 8000812:	bf18      	it	ne
 8000814:	3203      	addne	r2, #3
 8000816:	eb02 02dc 	add.w	r2, r2, ip, lsr #3
 800081a:	f1c2 0320 	rsb	r3, r2, #32
 800081e:	fa00 fc03 	lsl.w	ip, r0, r3
 8000822:	fa20 f002 	lsr.w	r0, r0, r2
 8000826:	fa01 fe03 	lsl.w	lr, r1, r3
 800082a:	ea40 000e 	orr.w	r0, r0, lr
 800082e:	fa21 f102 	lsr.w	r1, r1, r2
 8000832:	4414      	add	r4, r2
 8000834:	e6bd      	b.n	80005b2 <__adddf3+0xe6>
 8000836:	bf00      	nop

08000838 <__aeabi_dmul>:
 8000838:	b570      	push	{r4, r5, r6, lr}
 800083a:	f04f 0cff 	mov.w	ip, #255	; 0xff
 800083e:	f44c 6ce0 	orr.w	ip, ip, #1792	; 0x700
 8000842:	ea1c 5411 	ands.w	r4, ip, r1, lsr #20
 8000846:	bf1d      	ittte	ne
 8000848:	ea1c 5513 	andsne.w	r5, ip, r3, lsr #20
 800084c:	ea94 0f0c 	teqne	r4, ip
 8000850:	ea95 0f0c 	teqne	r5, ip
 8000854:	f000 f8de 	bleq	8000a14 <__aeabi_dmul+0x1dc>
 8000858:	442c      	add	r4, r5
 800085a:	ea81 0603 	eor.w	r6, r1, r3
 800085e:	ea21 514c 	bic.w	r1, r1, ip, lsl #21
 8000862:	ea23 534c 	bic.w	r3, r3, ip, lsl #21
 8000866:	ea50 3501 	orrs.w	r5, r0, r1, lsl #12
 800086a:	bf18      	it	ne
 800086c:	ea52 3503 	orrsne.w	r5, r2, r3, lsl #12
 8000870:	f441 1180 	orr.w	r1, r1, #1048576	; 0x100000
 8000874:	f443 1380 	orr.w	r3, r3, #1048576	; 0x100000
 8000878:	d038      	beq.n	80008ec <__aeabi_dmul+0xb4>
 800087a:	fba0 ce02 	umull	ip, lr, r0, r2
 800087e:	f04f 0500 	mov.w	r5, #0
 8000882:	fbe1 e502 	umlal	lr, r5, r1, r2
 8000886:	f006 4200 	and.w	r2, r6, #2147483648	; 0x80000000
 800088a:	fbe0 e503 	umlal	lr, r5, r0, r3
 800088e:	f04f 0600 	mov.w	r6, #0
 8000892:	fbe1 5603 	umlal	r5, r6, r1, r3
 8000896:	f09c 0f00 	teq	ip, #0
 800089a:	bf18      	it	ne
 800089c:	f04e 0e01 	orrne.w	lr, lr, #1
 80008a0:	f1a4 04ff 	sub.w	r4, r4, #255	; 0xff
 80008a4:	f5b6 7f00 	cmp.w	r6, #512	; 0x200
 80008a8:	f564 7440 	sbc.w	r4, r4, #768	; 0x300
 80008ac:	d204      	bcs.n	80008b8 <__aeabi_dmul+0x80>
 80008ae:	ea5f 0e4e 	movs.w	lr, lr, lsl #1
 80008b2:	416d      	adcs	r5, r5
 80008b4:	eb46 0606 	adc.w	r6, r6, r6
 80008b8:	ea42 21c6 	orr.w	r1, r2, r6, lsl #11
 80008bc:	ea41 5155 	orr.w	r1, r1, r5, lsr #21
 80008c0:	ea4f 20c5 	mov.w	r0, r5, lsl #11
 80008c4:	ea40 505e 	orr.w	r0, r0, lr, lsr #21
 80008c8:	ea4f 2ece 	mov.w	lr, lr, lsl #11
 80008cc:	f1b4 0cfd 	subs.w	ip, r4, #253	; 0xfd
 80008d0:	bf88      	it	hi
 80008d2:	f5bc 6fe0 	cmphi.w	ip, #1792	; 0x700
 80008d6:	d81e      	bhi.n	8000916 <__aeabi_dmul+0xde>
 80008d8:	f1be 4f00 	cmp.w	lr, #2147483648	; 0x80000000
 80008dc:	bf08      	it	eq
 80008de:	ea5f 0e50 	movseq.w	lr, r0, lsr #1
 80008e2:	f150 0000 	adcs.w	r0, r0, #0
 80008e6:	eb41 5104 	adc.w	r1, r1, r4, lsl #20
 80008ea:	bd70      	pop	{r4, r5, r6, pc}
 80008ec:	f006 4600 	and.w	r6, r6, #2147483648	; 0x80000000
 80008f0:	ea46 0101 	orr.w	r1, r6, r1
 80008f4:	ea40 0002 	orr.w	r0, r0, r2
 80008f8:	ea81 0103 	eor.w	r1, r1, r3
 80008fc:	ebb4 045c 	subs.w	r4, r4, ip, lsr #1
 8000900:	bfc2      	ittt	gt
 8000902:	ebd4 050c 	rsbsgt	r5, r4, ip
 8000906:	ea41 5104 	orrgt.w	r1, r1, r4, lsl #20
 800090a:	bd70      	popgt	{r4, r5, r6, pc}
 800090c:	f441 1180 	orr.w	r1, r1, #1048576	; 0x100000
 8000910:	f04f 0e00 	mov.w	lr, #0
 8000914:	3c01      	subs	r4, #1
 8000916:	f300 80ab 	bgt.w	8000a70 <__aeabi_dmul+0x238>
 800091a:	f114 0f36 	cmn.w	r4, #54	; 0x36
 800091e:	bfde      	ittt	le
 8000920:	2000      	movle	r0, #0
 8000922:	f001 4100 	andle.w	r1, r1, #2147483648	; 0x80000000
 8000926:	bd70      	pople	{r4, r5, r6, pc}
 8000928:	f1c4 0400 	rsb	r4, r4, #0
 800092c:	3c20      	subs	r4, #32
 800092e:	da35      	bge.n	800099c <__aeabi_dmul+0x164>
 8000930:	340c      	adds	r4, #12
 8000932:	dc1b      	bgt.n	800096c <__aeabi_dmul+0x134>
 8000934:	f104 0414 	add.w	r4, r4, #20
 8000938:	f1c4 0520 	rsb	r5, r4, #32
 800093c:	fa00 f305 	lsl.w	r3, r0, r5
 8000940:	fa20 f004 	lsr.w	r0, r0, r4
 8000944:	fa01 f205 	lsl.w	r2, r1, r5
 8000948:	ea40 0002 	orr.w	r0, r0, r2
 800094c:	f001 4200 	and.w	r2, r1, #2147483648	; 0x80000000
 8000950:	f021 4100 	bic.w	r1, r1, #2147483648	; 0x80000000
 8000954:	eb10 70d3 	adds.w	r0, r0, r3, lsr #31
 8000958:	fa21 f604 	lsr.w	r6, r1, r4
 800095c:	eb42 0106 	adc.w	r1, r2, r6
 8000960:	ea5e 0e43 	orrs.w	lr, lr, r3, lsl #1
 8000964:	bf08      	it	eq
 8000966:	ea20 70d3 	biceq.w	r0, r0, r3, lsr #31
 800096a:	bd70      	pop	{r4, r5, r6, pc}
 800096c:	f1c4 040c 	rsb	r4, r4, #12
 8000970:	f1c4 0520 	rsb	r5, r4, #32
 8000974:	fa00 f304 	lsl.w	r3, r0, r4
 8000978:	fa20 f005 	lsr.w	r0, r0, r5
 800097c:	fa01 f204 	lsl.w	r2, r1, r4
 8000980:	ea40 0002 	orr.w	r0, r0, r2
 8000984:	f001 4100 	and.w	r1, r1, #2147483648	; 0x80000000
 8000988:	eb10 70d3 	adds.w	r0, r0, r3, lsr #31
 800098c:	f141 0100 	adc.w	r1, r1, #0
 8000990:	ea5e 0e43 	orrs.w	lr, lr, r3, lsl #1
 8000994:	bf08      	it	eq
 8000996:	ea20 70d3 	biceq.w	r0, r0, r3, lsr #31
 800099a:	bd70      	pop	{r4, r5, r6, pc}
 800099c:	f1c4 0520 	rsb	r5, r4, #32
 80009a0:	fa00 f205 	lsl.w	r2, r0, r5
 80009a4:	ea4e 0e02 	orr.w	lr, lr, r2
 80009a8:	fa20 f304 	lsr.w	r3, r0, r4
 80009ac:	fa01 f205 	lsl.w	r2, r1, r5
 80009b0:	ea43 0302 	orr.w	r3, r3, r2
 80009b4:	fa21 f004 	lsr.w	r0, r1, r4
 80009b8:	f001 4100 	and.w	r1, r1, #2147483648	; 0x80000000
 80009bc:	fa21 f204 	lsr.w	r2, r1, r4
 80009c0:	ea20 0002 	bic.w	r0, r0, r2
 80009c4:	eb00 70d3 	add.w	r0, r0, r3, lsr #31
 80009c8:	ea5e 0e43 	orrs.w	lr, lr, r3, lsl #1
 80009cc:	bf08      	it	eq
 80009ce:	ea20 70d3 	biceq.w	r0, r0, r3, lsr #31
 80009d2:	bd70      	pop	{r4, r5, r6, pc}
 80009d4:	f094 0f00 	teq	r4, #0
 80009d8:	d10f      	bne.n	80009fa <__aeabi_dmul+0x1c2>
 80009da:	f001 4600 	and.w	r6, r1, #2147483648	; 0x80000000
 80009de:	0040      	lsls	r0, r0, #1
 80009e0:	eb41 0101 	adc.w	r1, r1, r1
 80009e4:	f411 1f80 	tst.w	r1, #1048576	; 0x100000
 80009e8:	bf08      	it	eq
 80009ea:	3c01      	subeq	r4, #1
 80009ec:	d0f7      	beq.n	80009de <__aeabi_dmul+0x1a6>
 80009ee:	ea41 0106 	orr.w	r1, r1, r6
 80009f2:	f095 0f00 	teq	r5, #0
 80009f6:	bf18      	it	ne
 80009f8:	4770      	bxne	lr
 80009fa:	f003 4600 	and.w	r6, r3, #2147483648	; 0x80000000
 80009fe:	0052      	lsls	r2, r2, #1
 8000a00:	eb43 0303 	adc.w	r3, r3, r3
 8000a04:	f413 1f80 	tst.w	r3, #1048576	; 0x100000
 8000a08:	bf08      	it	eq
 8000a0a:	3d01      	subeq	r5, #1
 8000a0c:	d0f7      	beq.n	80009fe <__aeabi_dmul+0x1c6>
 8000a0e:	ea43 0306 	orr.w	r3, r3, r6
 8000a12:	4770      	bx	lr
 8000a14:	ea94 0f0c 	teq	r4, ip
 8000a18:	ea0c 5513 	and.w	r5, ip, r3, lsr #20
 8000a1c:	bf18      	it	ne
 8000a1e:	ea95 0f0c 	teqne	r5, ip
 8000a22:	d00c      	beq.n	8000a3e <__aeabi_dmul+0x206>
 8000a24:	ea50 0641 	orrs.w	r6, r0, r1, lsl #1
 8000a28:	bf18      	it	ne
 8000a2a:	ea52 0643 	orrsne.w	r6, r2, r3, lsl #1
 8000a2e:	d1d1      	bne.n	80009d4 <__aeabi_dmul+0x19c>
 8000a30:	ea81 0103 	eor.w	r1, r1, r3
 8000a34:	f001 4100 	and.w	r1, r1, #2147483648	; 0x80000000
 8000a38:	f04f 0000 	mov.w	r0, #0
 8000a3c:	bd70      	pop	{r4, r5, r6, pc}
 8000a3e:	ea50 0641 	orrs.w	r6, r0, r1, lsl #1
 8000a42:	bf06      	itte	eq
 8000a44:	4610      	moveq	r0, r2
 8000a46:	4619      	moveq	r1, r3
 8000a48:	ea52 0643 	orrsne.w	r6, r2, r3, lsl #1
 8000a4c:	d019      	beq.n	8000a82 <__aeabi_dmul+0x24a>
 8000a4e:	ea94 0f0c 	teq	r4, ip
 8000a52:	d102      	bne.n	8000a5a <__aeabi_dmul+0x222>
 8000a54:	ea50 3601 	orrs.w	r6, r0, r1, lsl #12
 8000a58:	d113      	bne.n	8000a82 <__aeabi_dmul+0x24a>
 8000a5a:	ea95 0f0c 	teq	r5, ip
 8000a5e:	d105      	bne.n	8000a6c <__aeabi_dmul+0x234>
 8000a60:	ea52 3603 	orrs.w	r6, r2, r3, lsl #12
 8000a64:	bf1c      	itt	ne
 8000a66:	4610      	movne	r0, r2
 8000a68:	4619      	movne	r1, r3
 8000a6a:	d10a      	bne.n	8000a82 <__aeabi_dmul+0x24a>
 8000a6c:	ea81 0103 	eor.w	r1, r1, r3
 8000a70:	f001 4100 	and.w	r1, r1, #2147483648	; 0x80000000
 8000a74:	f041 41fe 	orr.w	r1, r1, #2130706432	; 0x7f000000
 8000a78:	f441 0170 	orr.w	r1, r1, #15728640	; 0xf00000
 8000a7c:	f04f 0000 	mov.w	r0, #0
 8000a80:	bd70      	pop	{r4, r5, r6, pc}
 8000a82:	f041 41fe 	orr.w	r1, r1, #2130706432	; 0x7f000000
 8000a86:	f441 0178 	orr.w	r1, r1, #16252928	; 0xf80000
 8000a8a:	bd70      	pop	{r4, r5, r6, pc}

08000a8c <__aeabi_ddiv>:
 8000a8c:	b570      	push	{r4, r5, r6, lr}
 8000a8e:	f04f 0cff 	mov.w	ip, #255	; 0xff
 8000a92:	f44c 6ce0 	orr.w	ip, ip, #1792	; 0x700
 8000a96:	ea1c 5411 	ands.w	r4, ip, r1, lsr #20
 8000a9a:	bf1d      	ittte	ne
 8000a9c:	ea1c 5513 	andsne.w	r5, ip, r3, lsr #20
 8000aa0:	ea94 0f0c 	teqne	r4, ip
 8000aa4:	ea95 0f0c 	teqne	r5, ip
 8000aa8:	f000 f8a7 	bleq	8000bfa <__aeabi_ddiv+0x16e>
 8000aac:	eba4 0405 	sub.w	r4, r4, r5
 8000ab0:	ea81 0e03 	eor.w	lr, r1, r3
 8000ab4:	ea52 3503 	orrs.w	r5, r2, r3, lsl #12
 8000ab8:	ea4f 3101 	mov.w	r1, r1, lsl #12
 8000abc:	f000 8088 	beq.w	8000bd0 <__aeabi_ddiv+0x144>
 8000ac0:	ea4f 3303 	mov.w	r3, r3, lsl #12
 8000ac4:	f04f 5580 	mov.w	r5, #268435456	; 0x10000000
 8000ac8:	ea45 1313 	orr.w	r3, r5, r3, lsr #4
 8000acc:	ea43 6312 	orr.w	r3, r3, r2, lsr #24
 8000ad0:	ea4f 2202 	mov.w	r2, r2, lsl #8
 8000ad4:	ea45 1511 	orr.w	r5, r5, r1, lsr #4
 8000ad8:	ea45 6510 	orr.w	r5, r5, r0, lsr #24
 8000adc:	ea4f 2600 	mov.w	r6, r0, lsl #8
 8000ae0:	f00e 4100 	and.w	r1, lr, #2147483648	; 0x80000000
 8000ae4:	429d      	cmp	r5, r3
 8000ae6:	bf08      	it	eq
 8000ae8:	4296      	cmpeq	r6, r2
 8000aea:	f144 04fd 	adc.w	r4, r4, #253	; 0xfd
 8000aee:	f504 7440 	add.w	r4, r4, #768	; 0x300
 8000af2:	d202      	bcs.n	8000afa <__aeabi_ddiv+0x6e>
 8000af4:	085b      	lsrs	r3, r3, #1
 8000af6:	ea4f 0232 	mov.w	r2, r2, rrx
 8000afa:	1ab6      	subs	r6, r6, r2
 8000afc:	eb65 0503 	sbc.w	r5, r5, r3
 8000b00:	085b      	lsrs	r3, r3, #1
 8000b02:	ea4f 0232 	mov.w	r2, r2, rrx
 8000b06:	f44f 1080 	mov.w	r0, #1048576	; 0x100000
 8000b0a:	f44f 2c00 	mov.w	ip, #524288	; 0x80000
 8000b0e:	ebb6 0e02 	subs.w	lr, r6, r2
 8000b12:	eb75 0e03 	sbcs.w	lr, r5, r3
 8000b16:	bf22      	ittt	cs
 8000b18:	1ab6      	subcs	r6, r6, r2
 8000b1a:	4675      	movcs	r5, lr
 8000b1c:	ea40 000c 	orrcs.w	r0, r0, ip
 8000b20:	085b      	lsrs	r3, r3, #1
 8000b22:	ea4f 0232 	mov.w	r2, r2, rrx
 8000b26:	ebb6 0e02 	subs.w	lr, r6, r2
 8000b2a:	eb75 0e03 	sbcs.w	lr, r5, r3
 8000b2e:	bf22      	ittt	cs
 8000b30:	1ab6      	subcs	r6, r6, r2
 8000b32:	4675      	movcs	r5, lr
 8000b34:	ea40 005c 	orrcs.w	r0, r0, ip, lsr #1
 8000b38:	085b      	lsrs	r3, r3, #1
 8000b3a:	ea4f 0232 	mov.w	r2, r2, rrx
 8000b3e:	ebb6 0e02 	subs.w	lr, r6, r2
 8000b42:	eb75 0e03 	sbcs.w	lr, r5, r3
 8000b46:	bf22      	ittt	cs
 8000b48:	1ab6      	subcs	r6, r6, r2
 8000b4a:	4675      	movcs	r5, lr
 8000b4c:	ea40 009c 	orrcs.w	r0, r0, ip, lsr #2
 8000b50:	085b      	lsrs	r3, r3, #1
 8000b52:	ea4f 0232 	mov.w	r2, r2, rrx
 8000b56:	ebb6 0e02 	subs.w	lr, r6, r2
 8000b5a:	eb75 0e03 	sbcs.w	lr, r5, r3
 8000b5e:	bf22      	ittt	cs
 8000b60:	1ab6      	subcs	r6, r6, r2
 8000b62:	4675      	movcs	r5, lr
 8000b64:	ea40 00dc 	orrcs.w	r0, r0, ip, lsr #3
 8000b68:	ea55 0e06 	orrs.w	lr, r5, r6
 8000b6c:	d018      	beq.n	8000ba0 <__aeabi_ddiv+0x114>
 8000b6e:	ea4f 1505 	mov.w	r5, r5, lsl #4
 8000b72:	ea45 7516 	orr.w	r5, r5, r6, lsr #28
 8000b76:	ea4f 1606 	mov.w	r6, r6, lsl #4
 8000b7a:	ea4f 03c3 	mov.w	r3, r3, lsl #3
 8000b7e:	ea43 7352 	orr.w	r3, r3, r2, lsr #29
 8000b82:	ea4f 02c2 	mov.w	r2, r2, lsl #3
 8000b86:	ea5f 1c1c 	movs.w	ip, ip, lsr #4
 8000b8a:	d1c0      	bne.n	8000b0e <__aeabi_ddiv+0x82>
 8000b8c:	f411 1f80 	tst.w	r1, #1048576	; 0x100000
 8000b90:	d10b      	bne.n	8000baa <__aeabi_ddiv+0x11e>
 8000b92:	ea41 0100 	orr.w	r1, r1, r0
 8000b96:	f04f 0000 	mov.w	r0, #0
 8000b9a:	f04f 4c00 	mov.w	ip, #2147483648	; 0x80000000
 8000b9e:	e7b6      	b.n	8000b0e <__aeabi_ddiv+0x82>
 8000ba0:	f411 1f80 	tst.w	r1, #1048576	; 0x100000
 8000ba4:	bf04      	itt	eq
 8000ba6:	4301      	orreq	r1, r0
 8000ba8:	2000      	moveq	r0, #0
 8000baa:	f1b4 0cfd 	subs.w	ip, r4, #253	; 0xfd
 8000bae:	bf88      	it	hi
 8000bb0:	f5bc 6fe0 	cmphi.w	ip, #1792	; 0x700
 8000bb4:	f63f aeaf 	bhi.w	8000916 <__aeabi_dmul+0xde>
 8000bb8:	ebb5 0c03 	subs.w	ip, r5, r3
 8000bbc:	bf04      	itt	eq
 8000bbe:	ebb6 0c02 	subseq.w	ip, r6, r2
 8000bc2:	ea5f 0c50 	movseq.w	ip, r0, lsr #1
 8000bc6:	f150 0000 	adcs.w	r0, r0, #0
 8000bca:	eb41 5104 	adc.w	r1, r1, r4, lsl #20
 8000bce:	bd70      	pop	{r4, r5, r6, pc}
 8000bd0:	f00e 4e00 	and.w	lr, lr, #2147483648	; 0x80000000
 8000bd4:	ea4e 3111 	orr.w	r1, lr, r1, lsr #12
 8000bd8:	eb14 045c 	adds.w	r4, r4, ip, lsr #1
 8000bdc:	bfc2      	ittt	gt
 8000bde:	ebd4 050c 	rsbsgt	r5, r4, ip
 8000be2:	ea41 5104 	orrgt.w	r1, r1, r4, lsl #20
 8000be6:	bd70      	popgt	{r4, r5, r6, pc}
 8000be8:	f441 1180 	orr.w	r1, r1, #1048576	; 0x100000
 8000bec:	f04f 0e00 	mov.w	lr, #0
 8000bf0:	3c01      	subs	r4, #1
 8000bf2:	e690      	b.n	8000916 <__aeabi_dmul+0xde>
 8000bf4:	ea45 0e06 	orr.w	lr, r5, r6
 8000bf8:	e68d      	b.n	8000916 <__aeabi_dmul+0xde>
 8000bfa:	ea0c 5513 	and.w	r5, ip, r3, lsr #20
 8000bfe:	ea94 0f0c 	teq	r4, ip
 8000c02:	bf08      	it	eq
 8000c04:	ea95 0f0c 	teqeq	r5, ip
 8000c08:	f43f af3b 	beq.w	8000a82 <__aeabi_dmul+0x24a>
 8000c0c:	ea94 0f0c 	teq	r4, ip
 8000c10:	d10a      	bne.n	8000c28 <__aeabi_ddiv+0x19c>
 8000c12:	ea50 3401 	orrs.w	r4, r0, r1, lsl #12
 8000c16:	f47f af34 	bne.w	8000a82 <__aeabi_dmul+0x24a>
 8000c1a:	ea95 0f0c 	teq	r5, ip
 8000c1e:	f47f af25 	bne.w	8000a6c <__aeabi_dmul+0x234>
 8000c22:	4610      	mov	r0, r2
 8000c24:	4619      	mov	r1, r3
 8000c26:	e72c      	b.n	8000a82 <__aeabi_dmul+0x24a>
 8000c28:	ea95 0f0c 	teq	r5, ip
 8000c2c:	d106      	bne.n	8000c3c <__aeabi_ddiv+0x1b0>
 8000c2e:	ea52 3503 	orrs.w	r5, r2, r3, lsl #12
 8000c32:	f43f aefd 	beq.w	8000a30 <__aeabi_dmul+0x1f8>
 8000c36:	4610      	mov	r0, r2
 8000c38:	4619      	mov	r1, r3
 8000c3a:	e722      	b.n	8000a82 <__aeabi_dmul+0x24a>
 8000c3c:	ea50 0641 	orrs.w	r6, r0, r1, lsl #1
 8000c40:	bf18      	it	ne
 8000c42:	ea52 0643 	orrsne.w	r6, r2, r3, lsl #1
 8000c46:	f47f aec5 	bne.w	80009d4 <__aeabi_dmul+0x19c>
 8000c4a:	ea50 0441 	orrs.w	r4, r0, r1, lsl #1
 8000c4e:	f47f af0d 	bne.w	8000a6c <__aeabi_dmul+0x234>
 8000c52:	ea52 0543 	orrs.w	r5, r2, r3, lsl #1
 8000c56:	f47f aeeb 	bne.w	8000a30 <__aeabi_dmul+0x1f8>
 8000c5a:	e712      	b.n	8000a82 <__aeabi_dmul+0x24a>

08000c5c <__gedf2>:
 8000c5c:	f04f 3cff 	mov.w	ip, #4294967295
 8000c60:	e006      	b.n	8000c70 <__cmpdf2+0x4>
 8000c62:	bf00      	nop

08000c64 <__ledf2>:
 8000c64:	f04f 0c01 	mov.w	ip, #1
 8000c68:	e002      	b.n	8000c70 <__cmpdf2+0x4>
 8000c6a:	bf00      	nop

08000c6c <__cmpdf2>:
 8000c6c:	f04f 0c01 	mov.w	ip, #1
 8000c70:	f84d cd04 	str.w	ip, [sp, #-4]!
 8000c74:	ea4f 0c41 	mov.w	ip, r1, lsl #1
 8000c78:	ea7f 5c6c 	mvns.w	ip, ip, asr #21
 8000c7c:	ea4f 0c43 	mov.w	ip, r3, lsl #1
 8000c80:	bf18      	it	ne
 8000c82:	ea7f 5c6c 	mvnsne.w	ip, ip, asr #21
 8000c86:	d01b      	beq.n	8000cc0 <__cmpdf2+0x54>
 8000c88:	b001      	add	sp, #4
 8000c8a:	ea50 0c41 	orrs.w	ip, r0, r1, lsl #1
 8000c8e:	bf0c      	ite	eq
 8000c90:	ea52 0c43 	orrseq.w	ip, r2, r3, lsl #1
 8000c94:	ea91 0f03 	teqne	r1, r3
 8000c98:	bf02      	ittt	eq
 8000c9a:	ea90 0f02 	teqeq	r0, r2
 8000c9e:	2000      	moveq	r0, #0
 8000ca0:	4770      	bxeq	lr
 8000ca2:	f110 0f00 	cmn.w	r0, #0
 8000ca6:	ea91 0f03 	teq	r1, r3
 8000caa:	bf58      	it	pl
 8000cac:	4299      	cmppl	r1, r3
 8000cae:	bf08      	it	eq
 8000cb0:	4290      	cmpeq	r0, r2
 8000cb2:	bf2c      	ite	cs
 8000cb4:	17d8      	asrcs	r0, r3, #31
 8000cb6:	ea6f 70e3 	mvncc.w	r0, r3, asr #31
 8000cba:	f040 0001 	orr.w	r0, r0, #1
 8000cbe:	4770      	bx	lr
 8000cc0:	ea4f 0c41 	mov.w	ip, r1, lsl #1
 8000cc4:	ea7f 5c6c 	mvns.w	ip, ip, asr #21
 8000cc8:	d102      	bne.n	8000cd0 <__cmpdf2+0x64>
 8000cca:	ea50 3c01 	orrs.w	ip, r0, r1, lsl #12
 8000cce:	d107      	bne.n	8000ce0 <__cmpdf2+0x74>
 8000cd0:	ea4f 0c43 	mov.w	ip, r3, lsl #1
 8000cd4:	ea7f 5c6c 	mvns.w	ip, ip, asr #21
 8000cd8:	d1d6      	bne.n	8000c88 <__cmpdf2+0x1c>
 8000cda:	ea52 3c03 	orrs.w	ip, r2, r3, lsl #12
 8000cde:	d0d3      	beq.n	8000c88 <__cmpdf2+0x1c>
 8000ce0:	f85d 0b04 	ldr.w	r0, [sp], #4
 8000ce4:	4770      	bx	lr
 8000ce6:	bf00      	nop

08000ce8 <__aeabi_cdrcmple>:
 8000ce8:	4684      	mov	ip, r0
 8000cea:	4610      	mov	r0, r2
 8000cec:	4662      	mov	r2, ip
 8000cee:	468c      	mov	ip, r1
 8000cf0:	4619      	mov	r1, r3
 8000cf2:	4663      	mov	r3, ip
 8000cf4:	e000      	b.n	8000cf8 <__aeabi_cdcmpeq>
 8000cf6:	bf00      	nop

08000cf8 <__aeabi_cdcmpeq>:
 8000cf8:	b501      	push	{r0, lr}
 8000cfa:	f7ff ffb7 	bl	8000c6c <__cmpdf2>
 8000cfe:	2800      	cmp	r0, #0
 8000d00:	bf48      	it	mi
 8000d02:	f110 0f00 	cmnmi.w	r0, #0
 8000d06:	bd01      	pop	{r0, pc}

08000d08 <__aeabi_dcmpeq>:
 8000d08:	f84d ed08 	str.w	lr, [sp, #-8]!
 8000d0c:	f7ff fff4 	bl	8000cf8 <__aeabi_cdcmpeq>
 8000d10:	bf0c      	ite	eq
 8000d12:	2001      	moveq	r0, #1
 8000d14:	2000      	movne	r0, #0
 8000d16:	f85d fb08 	ldr.w	pc, [sp], #8
 8000d1a:	bf00      	nop

08000d1c <__aeabi_dcmplt>:
 8000d1c:	f84d ed08 	str.w	lr, [sp, #-8]!
 8000d20:	f7ff ffea 	bl	8000cf8 <__aeabi_cdcmpeq>
 8000d24:	bf34      	ite	cc
 8000d26:	2001      	movcc	r0, #1
 8000d28:	2000      	movcs	r0, #0
 8000d2a:	f85d fb08 	ldr.w	pc, [sp], #8
 8000d2e:	bf00      	nop

08000d30 <__aeabi_dcmple>:
 8000d30:	f84d ed08 	str.w	lr, [sp, #-8]!
 8000d34:	f7ff ffe0 	bl	8000cf8 <__aeabi_cdcmpeq>
 8000d38:	bf94      	ite	ls
 8000d3a:	2001      	movls	r0, #1
 8000d3c:	2000      	movhi	r0, #0
 8000d3e:	f85d fb08 	ldr.w	pc, [sp], #8
 8000d42:	bf00      	nop

08000d44 <__aeabi_dcmpge>:
 8000d44:	f84d ed08 	str.w	lr, [sp, #-8]!
 8000d48:	f7ff ffce 	bl	8000ce8 <__aeabi_cdrcmple>
 8000d4c:	bf94      	ite	ls
 8000d4e:	2001      	movls	r0, #1
 8000d50:	2000      	movhi	r0, #0
 8000d52:	f85d fb08 	ldr.w	pc, [sp], #8
 8000d56:	bf00      	nop

08000d58 <__aeabi_dcmpgt>:
 8000d58:	f84d ed08 	str.w	lr, [sp, #-8]!
 8000d5c:	f7ff ffc4 	bl	8000ce8 <__aeabi_cdrcmple>
 8000d60:	bf34      	ite	cc
 8000d62:	2001      	movcc	r0, #1
 8000d64:	2000      	movcs	r0, #0
 8000d66:	f85d fb08 	ldr.w	pc, [sp], #8
 8000d6a:	bf00      	nop

08000d6c <__aeabi_dcmpun>:
 8000d6c:	ea4f 0c41 	mov.w	ip, r1, lsl #1
 8000d70:	ea7f 5c6c 	mvns.w	ip, ip, asr #21
 8000d74:	d102      	bne.n	8000d7c <__aeabi_dcmpun+0x10>
 8000d76:	ea50 3c01 	orrs.w	ip, r0, r1, lsl #12
 8000d7a:	d10a      	bne.n	8000d92 <__aeabi_dcmpun+0x26>
 8000d7c:	ea4f 0c43 	mov.w	ip, r3, lsl #1
 8000d80:	ea7f 5c6c 	mvns.w	ip, ip, asr #21
 8000d84:	d102      	bne.n	8000d8c <__aeabi_dcmpun+0x20>
 8000d86:	ea52 3c03 	orrs.w	ip, r2, r3, lsl #12
 8000d8a:	d102      	bne.n	8000d92 <__aeabi_dcmpun+0x26>
 8000d8c:	f04f 0000 	mov.w	r0, #0
 8000d90:	4770      	bx	lr
 8000d92:	f04f 0001 	mov.w	r0, #1
 8000d96:	4770      	bx	lr

08000d98 <__aeabi_d2iz>:
 8000d98:	ea4f 0241 	mov.w	r2, r1, lsl #1
 8000d9c:	f512 1200 	adds.w	r2, r2, #2097152	; 0x200000
 8000da0:	d215      	bcs.n	8000dce <__aeabi_d2iz+0x36>
 8000da2:	d511      	bpl.n	8000dc8 <__aeabi_d2iz+0x30>
 8000da4:	f46f 7378 	mvn.w	r3, #992	; 0x3e0
 8000da8:	ebb3 5262 	subs.w	r2, r3, r2, asr #21
 8000dac:	d912      	bls.n	8000dd4 <__aeabi_d2iz+0x3c>
 8000dae:	ea4f 23c1 	mov.w	r3, r1, lsl #11
 8000db2:	f043 4300 	orr.w	r3, r3, #2147483648	; 0x80000000
 8000db6:	ea43 5350 	orr.w	r3, r3, r0, lsr #21
 8000dba:	f011 4f00 	tst.w	r1, #2147483648	; 0x80000000
 8000dbe:	fa23 f002 	lsr.w	r0, r3, r2
 8000dc2:	bf18      	it	ne
 8000dc4:	4240      	negne	r0, r0
 8000dc6:	4770      	bx	lr
 8000dc8:	f04f 0000 	mov.w	r0, #0
 8000dcc:	4770      	bx	lr
 8000dce:	ea50 3001 	orrs.w	r0, r0, r1, lsl #12
 8000dd2:	d105      	bne.n	8000de0 <__aeabi_d2iz+0x48>
 8000dd4:	f011 4000 	ands.w	r0, r1, #2147483648	; 0x80000000
 8000dd8:	bf08      	it	eq
 8000dda:	f06f 4000 	mvneq.w	r0, #2147483648	; 0x80000000
 8000dde:	4770      	bx	lr
 8000de0:	f04f 0000 	mov.w	r0, #0
 8000de4:	4770      	bx	lr
 8000de6:	bf00      	nop

08000de8 <__aeabi_uldivmod>:
 8000de8:	b953      	cbnz	r3, 8000e00 <__aeabi_uldivmod+0x18>
 8000dea:	b94a      	cbnz	r2, 8000e00 <__aeabi_uldivmod+0x18>
 8000dec:	2900      	cmp	r1, #0
 8000dee:	bf08      	it	eq
 8000df0:	2800      	cmpeq	r0, #0
 8000df2:	bf1c      	itt	ne
 8000df4:	f04f 31ff 	movne.w	r1, #4294967295
 8000df8:	f04f 30ff 	movne.w	r0, #4294967295
 8000dfc:	f000 b974 	b.w	80010e8 <__aeabi_idiv0>
 8000e00:	f1ad 0c08 	sub.w	ip, sp, #8
 8000e04:	e96d ce04 	strd	ip, lr, [sp, #-16]!
 8000e08:	f000 f806 	bl	8000e18 <__udivmoddi4>
 8000e0c:	f8dd e004 	ldr.w	lr, [sp, #4]
 8000e10:	e9dd 2302 	ldrd	r2, r3, [sp, #8]
 8000e14:	b004      	add	sp, #16
 8000e16:	4770      	bx	lr

08000e18 <__udivmoddi4>:
 8000e18:	e92d 47f0 	stmdb	sp!, {r4, r5, r6, r7, r8, r9, sl, lr}
 8000e1c:	9e08      	ldr	r6, [sp, #32]
 8000e1e:	460d      	mov	r5, r1
 8000e20:	4604      	mov	r4, r0
 8000e22:	4688      	mov	r8, r1
 8000e24:	2b00      	cmp	r3, #0
 8000e26:	d14d      	bne.n	8000ec4 <__udivmoddi4+0xac>
 8000e28:	428a      	cmp	r2, r1
 8000e2a:	4694      	mov	ip, r2
 8000e2c:	d968      	bls.n	8000f00 <__udivmoddi4+0xe8>
 8000e2e:	fab2 f282 	clz	r2, r2
 8000e32:	b152      	cbz	r2, 8000e4a <__udivmoddi4+0x32>
 8000e34:	fa01 f302 	lsl.w	r3, r1, r2
 8000e38:	f1c2 0120 	rsb	r1, r2, #32
 8000e3c:	fa20 f101 	lsr.w	r1, r0, r1
 8000e40:	fa0c fc02 	lsl.w	ip, ip, r2
 8000e44:	ea41 0803 	orr.w	r8, r1, r3
 8000e48:	4094      	lsls	r4, r2
 8000e4a:	ea4f 451c 	mov.w	r5, ip, lsr #16
 8000e4e:	0c21      	lsrs	r1, r4, #16
 8000e50:	fbb8 fef5 	udiv	lr, r8, r5
 8000e54:	fa1f f78c 	uxth.w	r7, ip
 8000e58:	fb05 831e 	mls	r3, r5, lr, r8
 8000e5c:	ea41 4303 	orr.w	r3, r1, r3, lsl #16
 8000e60:	fb0e f107 	mul.w	r1, lr, r7
 8000e64:	4299      	cmp	r1, r3
 8000e66:	d90b      	bls.n	8000e80 <__udivmoddi4+0x68>
 8000e68:	eb1c 0303 	adds.w	r3, ip, r3
 8000e6c:	f10e 30ff 	add.w	r0, lr, #4294967295
 8000e70:	f080 811e 	bcs.w	80010b0 <__udivmoddi4+0x298>
 8000e74:	4299      	cmp	r1, r3
 8000e76:	f240 811b 	bls.w	80010b0 <__udivmoddi4+0x298>
 8000e7a:	f1ae 0e02 	sub.w	lr, lr, #2
 8000e7e:	4463      	add	r3, ip
 8000e80:	1a5b      	subs	r3, r3, r1
 8000e82:	b2a4      	uxth	r4, r4
 8000e84:	fbb3 f0f5 	udiv	r0, r3, r5
 8000e88:	fb05 3310 	mls	r3, r5, r0, r3
 8000e8c:	ea44 4403 	orr.w	r4, r4, r3, lsl #16
 8000e90:	fb00 f707 	mul.w	r7, r0, r7
 8000e94:	42a7      	cmp	r7, r4
 8000e96:	d90a      	bls.n	8000eae <__udivmoddi4+0x96>
 8000e98:	eb1c 0404 	adds.w	r4, ip, r4
 8000e9c:	f100 33ff 	add.w	r3, r0, #4294967295
 8000ea0:	f080 8108 	bcs.w	80010b4 <__udivmoddi4+0x29c>
 8000ea4:	42a7      	cmp	r7, r4
 8000ea6:	f240 8105 	bls.w	80010b4 <__udivmoddi4+0x29c>
 8000eaa:	4464      	add	r4, ip
 8000eac:	3802      	subs	r0, #2
 8000eae:	1be4      	subs	r4, r4, r7
 8000eb0:	ea40 400e 	orr.w	r0, r0, lr, lsl #16
 8000eb4:	2100      	movs	r1, #0
 8000eb6:	b11e      	cbz	r6, 8000ec0 <__udivmoddi4+0xa8>
 8000eb8:	40d4      	lsrs	r4, r2
 8000eba:	2300      	movs	r3, #0
 8000ebc:	e9c6 4300 	strd	r4, r3, [r6]
 8000ec0:	e8bd 87f0 	ldmia.w	sp!, {r4, r5, r6, r7, r8, r9, sl, pc}
 8000ec4:	428b      	cmp	r3, r1
 8000ec6:	d908      	bls.n	8000eda <__udivmoddi4+0xc2>
 8000ec8:	2e00      	cmp	r6, #0
 8000eca:	f000 80ee 	beq.w	80010aa <__udivmoddi4+0x292>
 8000ece:	2100      	movs	r1, #0
 8000ed0:	e9c6 0500 	strd	r0, r5, [r6]
 8000ed4:	4608      	mov	r0, r1
 8000ed6:	e8bd 87f0 	ldmia.w	sp!, {r4, r5, r6, r7, r8, r9, sl, pc}
 8000eda:	fab3 f183 	clz	r1, r3
 8000ede:	2900      	cmp	r1, #0
 8000ee0:	d14a      	bne.n	8000f78 <__udivmoddi4+0x160>
 8000ee2:	42ab      	cmp	r3, r5
 8000ee4:	d302      	bcc.n	8000eec <__udivmoddi4+0xd4>
 8000ee6:	4282      	cmp	r2, r0
 8000ee8:	f200 80f9 	bhi.w	80010de <__udivmoddi4+0x2c6>
 8000eec:	1a84      	subs	r4, r0, r2
 8000eee:	eb65 0303 	sbc.w	r3, r5, r3
 8000ef2:	2001      	movs	r0, #1
 8000ef4:	4698      	mov	r8, r3
 8000ef6:	2e00      	cmp	r6, #0
 8000ef8:	d0e2      	beq.n	8000ec0 <__udivmoddi4+0xa8>
 8000efa:	e9c6 4800 	strd	r4, r8, [r6]
 8000efe:	e7df      	b.n	8000ec0 <__udivmoddi4+0xa8>
 8000f00:	b902      	cbnz	r2, 8000f04 <__udivmoddi4+0xec>
 8000f02:	deff      	udf	#255	; 0xff
 8000f04:	fab2 f282 	clz	r2, r2
 8000f08:	2a00      	cmp	r2, #0
 8000f0a:	f040 8091 	bne.w	8001030 <__udivmoddi4+0x218>
 8000f0e:	eba1 050c 	sub.w	r5, r1, ip
 8000f12:	ea4f 471c 	mov.w	r7, ip, lsr #16
 8000f16:	fa1f fe8c 	uxth.w	lr, ip
 8000f1a:	2101      	movs	r1, #1
 8000f1c:	fbb5 f3f7 	udiv	r3, r5, r7
 8000f20:	fb07 5013 	mls	r0, r7, r3, r5
 8000f24:	0c25      	lsrs	r5, r4, #16
 8000f26:	ea45 4500 	orr.w	r5, r5, r0, lsl #16
 8000f2a:	fb0e f003 	mul.w	r0, lr, r3
 8000f2e:	42a8      	cmp	r0, r5
 8000f30:	d908      	bls.n	8000f44 <__udivmoddi4+0x12c>
 8000f32:	eb1c 0505 	adds.w	r5, ip, r5
 8000f36:	f103 38ff 	add.w	r8, r3, #4294967295
 8000f3a:	d202      	bcs.n	8000f42 <__udivmoddi4+0x12a>
 8000f3c:	42a8      	cmp	r0, r5
 8000f3e:	f200 80cb 	bhi.w	80010d8 <__udivmoddi4+0x2c0>
 8000f42:	4643      	mov	r3, r8
 8000f44:	1a2d      	subs	r5, r5, r0
 8000f46:	b2a4      	uxth	r4, r4
 8000f48:	fbb5 f0f7 	udiv	r0, r5, r7
 8000f4c:	fb07 5510 	mls	r5, r7, r0, r5
 8000f50:	ea44 4405 	orr.w	r4, r4, r5, lsl #16
 8000f54:	fb0e fe00 	mul.w	lr, lr, r0
 8000f58:	45a6      	cmp	lr, r4
 8000f5a:	d908      	bls.n	8000f6e <__udivmoddi4+0x156>
 8000f5c:	eb1c 0404 	adds.w	r4, ip, r4
 8000f60:	f100 35ff 	add.w	r5, r0, #4294967295
 8000f64:	d202      	bcs.n	8000f6c <__udivmoddi4+0x154>
 8000f66:	45a6      	cmp	lr, r4
 8000f68:	f200 80bb 	bhi.w	80010e2 <__udivmoddi4+0x2ca>
 8000f6c:	4628      	mov	r0, r5
 8000f6e:	eba4 040e 	sub.w	r4, r4, lr
 8000f72:	ea40 4003 	orr.w	r0, r0, r3, lsl #16
 8000f76:	e79e      	b.n	8000eb6 <__udivmoddi4+0x9e>
 8000f78:	f1c1 0720 	rsb	r7, r1, #32
 8000f7c:	408b      	lsls	r3, r1
 8000f7e:	fa22 fc07 	lsr.w	ip, r2, r7
 8000f82:	ea4c 0c03 	orr.w	ip, ip, r3
 8000f86:	fa20 f407 	lsr.w	r4, r0, r7
 8000f8a:	fa05 f301 	lsl.w	r3, r5, r1
 8000f8e:	431c      	orrs	r4, r3
 8000f90:	40fd      	lsrs	r5, r7
 8000f92:	ea4f 491c 	mov.w	r9, ip, lsr #16
 8000f96:	fa00 f301 	lsl.w	r3, r0, r1
 8000f9a:	fbb5 f8f9 	udiv	r8, r5, r9
 8000f9e:	0c20      	lsrs	r0, r4, #16
 8000fa0:	fa1f fe8c 	uxth.w	lr, ip
 8000fa4:	fb09 5518 	mls	r5, r9, r8, r5
 8000fa8:	ea40 4505 	orr.w	r5, r0, r5, lsl #16
 8000fac:	fb08 f00e 	mul.w	r0, r8, lr
 8000fb0:	42a8      	cmp	r0, r5
 8000fb2:	fa02 f201 	lsl.w	r2, r2, r1
 8000fb6:	d90b      	bls.n	8000fd0 <__udivmoddi4+0x1b8>
 8000fb8:	eb1c 0505 	adds.w	r5, ip, r5
 8000fbc:	f108 3aff 	add.w	sl, r8, #4294967295
 8000fc0:	f080 8088 	bcs.w	80010d4 <__udivmoddi4+0x2bc>
 8000fc4:	42a8      	cmp	r0, r5
 8000fc6:	f240 8085 	bls.w	80010d4 <__udivmoddi4+0x2bc>
 8000fca:	f1a8 0802 	sub.w	r8, r8, #2
 8000fce:	4465      	add	r5, ip
 8000fd0:	1a2d      	subs	r5, r5, r0
 8000fd2:	b2a4      	uxth	r4, r4
 8000fd4:	fbb5 f0f9 	udiv	r0, r5, r9
 8000fd8:	fb09 5510 	mls	r5, r9, r0, r5
 8000fdc:	ea44 4505 	orr.w	r5, r4, r5, lsl #16
 8000fe0:	fb00 fe0e 	mul.w	lr, r0, lr
 8000fe4:	45ae      	cmp	lr, r5
 8000fe6:	d908      	bls.n	8000ffa <__udivmoddi4+0x1e2>
 8000fe8:	eb1c 0505 	adds.w	r5, ip, r5
 8000fec:	f100 34ff 	add.w	r4, r0, #4294967295
 8000ff0:	d26c      	bcs.n	80010cc <__udivmoddi4+0x2b4>
 8000ff2:	45ae      	cmp	lr, r5
 8000ff4:	d96a      	bls.n	80010cc <__udivmoddi4+0x2b4>
 8000ff6:	3802      	subs	r0, #2
 8000ff8:	4465      	add	r5, ip
 8000ffa:	ea40 4008 	orr.w	r0, r0, r8, lsl #16
 8000ffe:	fba0 9402 	umull	r9, r4, r0, r2
 8001002:	eba5 050e 	sub.w	r5, r5, lr
 8001006:	42a5      	cmp	r5, r4
 8001008:	46c8      	mov	r8, r9
 800100a:	46a6      	mov	lr, r4
 800100c:	d356      	bcc.n	80010bc <__udivmoddi4+0x2a4>
 800100e:	d053      	beq.n	80010b8 <__udivmoddi4+0x2a0>
 8001010:	b15e      	cbz	r6, 800102a <__udivmoddi4+0x212>
 8001012:	ebb3 0208 	subs.w	r2, r3, r8
 8001016:	eb65 050e 	sbc.w	r5, r5, lr
 800101a:	fa05 f707 	lsl.w	r7, r5, r7
 800101e:	fa22 f301 	lsr.w	r3, r2, r1
 8001022:	40cd      	lsrs	r5, r1
 8001024:	431f      	orrs	r7, r3
 8001026:	e9c6 7500 	strd	r7, r5, [r6]
 800102a:	2100      	movs	r1, #0
 800102c:	e8bd 87f0 	ldmia.w	sp!, {r4, r5, r6, r7, r8, r9, sl, pc}
 8001030:	f1c2 0320 	rsb	r3, r2, #32
 8001034:	fa20 f103 	lsr.w	r1, r0, r3
 8001038:	fa0c fc02 	lsl.w	ip, ip, r2
 800103c:	fa25 f303 	lsr.w	r3, r5, r3
 8001040:	4095      	lsls	r5, r2
 8001042:	430d      	orrs	r5, r1
 8001044:	ea4f 471c 	mov.w	r7, ip, lsr #16
 8001048:	fa1f fe8c 	uxth.w	lr, ip
 800104c:	fbb3 f1f7 	udiv	r1, r3, r7
 8001050:	fb07 3011 	mls	r0, r7, r1, r3
 8001054:	0c2b      	lsrs	r3, r5, #16
 8001056:	ea43 4300 	orr.w	r3, r3, r0, lsl #16
 800105a:	fb01 f00e 	mul.w	r0, r1, lr
 800105e:	4298      	cmp	r0, r3
 8001060:	fa04 f402 	lsl.w	r4, r4, r2
 8001064:	d908      	bls.n	8001078 <__udivmoddi4+0x260>
 8001066:	eb1c 0303 	adds.w	r3, ip, r3
 800106a:	f101 38ff 	add.w	r8, r1, #4294967295
 800106e:	d22f      	bcs.n	80010d0 <__udivmoddi4+0x2b8>
 8001070:	4298      	cmp	r0, r3
 8001072:	d92d      	bls.n	80010d0 <__udivmoddi4+0x2b8>
 8001074:	3902      	subs	r1, #2
 8001076:	4463      	add	r3, ip
 8001078:	1a1b      	subs	r3, r3, r0
 800107a:	b2ad      	uxth	r5, r5
 800107c:	fbb3 f0f7 	udiv	r0, r3, r7
 8001080:	fb07 3310 	mls	r3, r7, r0, r3
 8001084:	ea45 4503 	orr.w	r5, r5, r3, lsl #16
 8001088:	fb00 f30e 	mul.w	r3, r0, lr
 800108c:	42ab      	cmp	r3, r5
 800108e:	d908      	bls.n	80010a2 <__udivmoddi4+0x28a>
 8001090:	eb1c 0505 	adds.w	r5, ip, r5
 8001094:	f100 38ff 	add.w	r8, r0, #4294967295
 8001098:	d216      	bcs.n	80010c8 <__udivmoddi4+0x2b0>
 800109a:	42ab      	cmp	r3, r5
 800109c:	d914      	bls.n	80010c8 <__udivmoddi4+0x2b0>
 800109e:	3802      	subs	r0, #2
 80010a0:	4465      	add	r5, ip
 80010a2:	1aed      	subs	r5, r5, r3
 80010a4:	ea40 4101 	orr.w	r1, r0, r1, lsl #16
 80010a8:	e738      	b.n	8000f1c <__udivmoddi4+0x104>
 80010aa:	4631      	mov	r1, r6
 80010ac:	4630      	mov	r0, r6
 80010ae:	e707      	b.n	8000ec0 <__udivmoddi4+0xa8>
 80010b0:	4686      	mov	lr, r0
 80010b2:	e6e5      	b.n	8000e80 <__udivmoddi4+0x68>
 80010b4:	4618      	mov	r0, r3
 80010b6:	e6fa      	b.n	8000eae <__udivmoddi4+0x96>
 80010b8:	454b      	cmp	r3, r9
 80010ba:	d2a9      	bcs.n	8001010 <__udivmoddi4+0x1f8>
 80010bc:	ebb9 0802 	subs.w	r8, r9, r2
 80010c0:	eb64 0e0c 	sbc.w	lr, r4, ip
 80010c4:	3801      	subs	r0, #1
 80010c6:	e7a3      	b.n	8001010 <__udivmoddi4+0x1f8>
 80010c8:	4640      	mov	r0, r8
 80010ca:	e7ea      	b.n	80010a2 <__udivmoddi4+0x28a>
 80010cc:	4620      	mov	r0, r4
 80010ce:	e794      	b.n	8000ffa <__udivmoddi4+0x1e2>
 80010d0:	4641      	mov	r1, r8
 80010d2:	e7d1      	b.n	8001078 <__udivmoddi4+0x260>
 80010d4:	46d0      	mov	r8, sl
 80010d6:	e77b      	b.n	8000fd0 <__udivmoddi4+0x1b8>
 80010d8:	3b02      	subs	r3, #2
 80010da:	4465      	add	r5, ip
 80010dc:	e732      	b.n	8000f44 <__udivmoddi4+0x12c>
 80010de:	4608      	mov	r0, r1
 80010e0:	e709      	b.n	8000ef6 <__udivmoddi4+0xde>
 80010e2:	4464      	add	r4, ip
 80010e4:	3802      	subs	r0, #2
 80010e6:	e742      	b.n	8000f6e <__udivmoddi4+0x156>

080010e8 <__aeabi_idiv0>:
 80010e8:	4770      	bx	lr
 80010ea:	bf00      	nop

080010ec <smbuf_chunk_1>:
    simpleserial_put('r', 180, p);
   return 0x00;
}

uint8_t smbuf_chunk_1(uint8_t *p, uint8_t len)
{
 80010ec:	b508      	push	{r3, lr}
     simpleserial_put('r', 183, buf_sm1);
 80010ee:	4a03      	ldr	r2, [pc, #12]	; (80010fc <smbuf_chunk_1+0x10>)
 80010f0:	21b7      	movs	r1, #183	; 0xb7
 80010f2:	2072      	movs	r0, #114	; 0x72
 80010f4:	f002 ff3e 	bl	8003f74 <simpleserial_put>
     return 0x00;
}
 80010f8:	2000      	movs	r0, #0
 80010fa:	bd08      	pop	{r3, pc}
 80010fc:	100009cc 	.word	0x100009cc

08001100 <smbuf_chunk_2>:


uint8_t smbuf_chunk_2(uint8_t *p, uint8_t len)
{
 8001100:	b508      	push	{r3, lr}
     simpleserial_put('r', 183, buf_sm1+183);
 8001102:	4a03      	ldr	r2, [pc, #12]	; (8001110 <smbuf_chunk_2+0x10>)
 8001104:	21b7      	movs	r1, #183	; 0xb7
 8001106:	2072      	movs	r0, #114	; 0x72
 8001108:	f002 ff34 	bl	8003f74 <simpleserial_put>
     return 0x00;
}
 800110c:	2000      	movs	r0, #0
 800110e:	bd08      	pop	{r3, pc}
 8001110:	10000a83 	.word	0x10000a83

08001114 <smbuf_chunk_3>:

uint8_t smbuf_chunk_3(uint8_t *p, uint8_t len)
{
 8001114:	b508      	push	{r3, lr}
     simpleserial_put('r', 183, buf_sm1+2*183);
 8001116:	4a03      	ldr	r2, [pc, #12]	; (8001124 <smbuf_chunk_3+0x10>)
 8001118:	21b7      	movs	r1, #183	; 0xb7
 800111a:	2072      	movs	r0, #114	; 0x72
 800111c:	f002 ff2a 	bl	8003f74 <simpleserial_put>
     return 0x00;
}
 8001120:	2000      	movs	r0, #0
 8001122:	bd08      	pop	{r3, pc}
 8001124:	10000b3a 	.word	0x10000b3a

08001128 <smbuf_chunk_4>:

uint8_t smbuf_chunk_4(uint8_t *p, uint8_t len)
{
 8001128:	b508      	push	{r3, lr}
     simpleserial_put('r', 183, buf_sm1+3*183);
 800112a:	4a03      	ldr	r2, [pc, #12]	; (8001138 <smbuf_chunk_4+0x10>)
 800112c:	21b7      	movs	r1, #183	; 0xb7
 800112e:	2072      	movs	r0, #114	; 0x72
 8001130:	f002 ff20 	bl	8003f74 <simpleserial_put>
     return 0x00;
}
 8001134:	2000      	movs	r0, #0
 8001136:	bd08      	pop	{r3, pc}
 8001138:	10000bf1 	.word	0x10000bf1

0800113c <smbuf_chunk_5>:

uint8_t smbuf_chunk_5(uint8_t *p, uint8_t len)
{
 800113c:	b508      	push	{r3, lr}
     simpleserial_put('r', 183, buf_sm1+4*183);
 800113e:	4a03      	ldr	r2, [pc, #12]	; (800114c <smbuf_chunk_5+0x10>)
 8001140:	21b7      	movs	r1, #183	; 0xb7
 8001142:	2072      	movs	r0, #114	; 0x72
 8001144:	f002 ff16 	bl	8003f74 <simpleserial_put>
     return 0x00;
}
 8001148:	2000      	movs	r0, #0
 800114a:	bd08      	pop	{r3, pc}
 800114c:	10000ca8 	.word	0x10000ca8

08001150 <smbuf_chunk_6>:

uint8_t smbuf_chunk_6(uint8_t *p, uint8_t len)
{
 8001150:	b508      	push	{r3, lr}
     simpleserial_put('r', 183, buf_sm1+5*183);
 8001152:	4a03      	ldr	r2, [pc, #12]	; (8001160 <smbuf_chunk_6+0x10>)
 8001154:	21b7      	movs	r1, #183	; 0xb7
 8001156:	2072      	movs	r0, #114	; 0x72
 8001158:	f002 ff0c 	bl	8003f74 <simpleserial_put>
     return 0x00;
}
 800115c:	2000      	movs	r0, #0
 800115e:	bd08      	pop	{r3, pc}
 8001160:	10000d5f 	.word	0x10000d5f

08001164 <smbuf_chunk_7>:

uint8_t smbuf_chunk_7(uint8_t *p, uint8_t len)
{
 8001164:	b508      	push	{r3, lr}
     simpleserial_put('r', 183, buf_sm1+6*183);
 8001166:	4a03      	ldr	r2, [pc, #12]	; (8001174 <smbuf_chunk_7+0x10>)
 8001168:	21b7      	movs	r1, #183	; 0xb7
 800116a:	2072      	movs	r0, #114	; 0x72
 800116c:	f002 ff02 	bl	8003f74 <simpleserial_put>
     return 0x00;
}
 8001170:	2000      	movs	r0, #0
 8001172:	bd08      	pop	{r3, pc}
 8001174:	10000e16 	.word	0x10000e16

08001178 <smbuf_chunk_8>:

uint8_t smbuf_chunk_8(uint8_t *p, uint8_t len)
{
 8001178:	b508      	push	{r3, lr}
     simpleserial_put('r', 183, buf_sm1+7*183);
 800117a:	4a03      	ldr	r2, [pc, #12]	; (8001188 <smbuf_chunk_8+0x10>)
 800117c:	21b7      	movs	r1, #183	; 0xb7
 800117e:	2072      	movs	r0, #114	; 0x72
 8001180:	f002 fef8 	bl	8003f74 <simpleserial_put>
     return 0x00;
}
 8001184:	2000      	movs	r0, #0
 8001186:	bd08      	pop	{r3, pc}
 8001188:	10000ecd 	.word	0x10000ecd

0800118c <smbuf_chunk_9>:

uint8_t smbuf_chunk_9(uint8_t *p, uint8_t len)
{
 800118c:	b508      	push	{r3, lr}
     simpleserial_put('r', 183, buf_sm1+8*183);
 800118e:	4a03      	ldr	r2, [pc, #12]	; (800119c <smbuf_chunk_9+0x10>)
 8001190:	21b7      	movs	r1, #183	; 0xb7
 8001192:	2072      	movs	r0, #114	; 0x72
 8001194:	f002 feee 	bl	8003f74 <simpleserial_put>
     return 0x00;
}
 8001198:	2000      	movs	r0, #0
 800119a:	bd08      	pop	{r3, pc}
 800119c:	10000f84 	.word	0x10000f84

080011a0 <smbuf_chunk_10>:

uint8_t smbuf_chunk_10(uint8_t *p, uint8_t len)
{
 80011a0:	b508      	push	{r3, lr}
     simpleserial_put('r', 183, buf_sm1+9*183);
 80011a2:	4a03      	ldr	r2, [pc, #12]	; (80011b0 <smbuf_chunk_10+0x10>)
 80011a4:	21b7      	movs	r1, #183	; 0xb7
 80011a6:	2072      	movs	r0, #114	; 0x72
 80011a8:	f002 fee4 	bl	8003f74 <simpleserial_put>
     return 0x00;
}
 80011ac:	2000      	movs	r0, #0
 80011ae:	bd08      	pop	{r3, pc}
 80011b0:	1000103b 	.word	0x1000103b

080011b4 <smbuf_chunk_11>:

uint8_t smbuf_chunk_11(uint8_t *p, uint8_t len)
{
 80011b4:	b508      	push	{r3, lr}
     simpleserial_put('r', 183, buf_sm1+10*183);
 80011b6:	4a03      	ldr	r2, [pc, #12]	; (80011c4 <smbuf_chunk_11+0x10>)
 80011b8:	21b7      	movs	r1, #183	; 0xb7
 80011ba:	2072      	movs	r0, #114	; 0x72
 80011bc:	f002 feda 	bl	8003f74 <simpleserial_put>
     return 0x00;
}
 80011c0:	2000      	movs	r0, #0
 80011c2:	bd08      	pop	{r3, pc}
 80011c4:	100010f2 	.word	0x100010f2

080011c8 <smbuf_chunk_12>:

uint8_t smbuf_chunk_12(uint8_t *p, uint8_t len)
{
 80011c8:	b508      	push	{r3, lr}
     simpleserial_put('r', 183, buf_sm1+11*183);
 80011ca:	4a03      	ldr	r2, [pc, #12]	; (80011d8 <smbuf_chunk_12+0x10>)
 80011cc:	21b7      	movs	r1, #183	; 0xb7
 80011ce:	2072      	movs	r0, #114	; 0x72
 80011d0:	f002 fed0 	bl	8003f74 <simpleserial_put>
     return 0x00;
}
 80011d4:	2000      	movs	r0, #0
 80011d6:	bd08      	pop	{r3, pc}
 80011d8:	100011a9 	.word	0x100011a9

080011dc <smbuf_chunk_13>:

uint8_t smbuf_chunk_13(uint8_t *p, uint8_t len)
{
 80011dc:	b508      	push	{r3, lr}
     simpleserial_put('r', 183, buf_sm1+12*183);
 80011de:	4a03      	ldr	r2, [pc, #12]	; (80011ec <smbuf_chunk_13+0x10>)
 80011e0:	21b7      	movs	r1, #183	; 0xb7
 80011e2:	2072      	movs	r0, #114	; 0x72
 80011e4:	f002 fec6 	bl	8003f74 <simpleserial_put>
     return 0x00;
}
 80011e8:	2000      	movs	r0, #0
 80011ea:	bd08      	pop	{r3, pc}
 80011ec:	10001260 	.word	0x10001260

080011f0 <smbuf_chunk_14>:

uint8_t smbuf_chunk_14(uint8_t *p, uint8_t len)
{
 80011f0:	b508      	push	{r3, lr}
     simpleserial_put('r', 183, buf_sm1+13*183);
 80011f2:	4a03      	ldr	r2, [pc, #12]	; (8001200 <smbuf_chunk_14+0x10>)
 80011f4:	21b7      	movs	r1, #183	; 0xb7
 80011f6:	2072      	movs	r0, #114	; 0x72
 80011f8:	f002 febc 	bl	8003f74 <simpleserial_put>
     return 0x00;
}
 80011fc:	2000      	movs	r0, #0
 80011fe:	bd08      	pop	{r3, pc}
 8001200:	10001317 	.word	0x10001317

08001204 <dilithium1>:
{
 8001204:	e92d 47f0 	stmdb	sp!, {r4, r5, r6, r7, r8, r9, sl, lr}
 8001208:	f6ad 7da8 	subw	sp, sp, #4008	; 0xfa8
 800120c:	461c      	mov	r4, r3
 800120e:	a904      	add	r1, sp, #16
    for	(i=0;i<16;i++){
 8001210:	2300      	movs	r3, #0
	if (i<10)
 8001212:	2b09      	cmp	r3, #9
        c[i] = '0' +i;
 8001214:	bf94      	ite	ls
 8001216:	f103 0230 	addls.w	r2, r3, #48	; 0x30
        c[i] = 'A' + i-10;
 800121a:	f103 0237 	addhi.w	r2, r3, #55	; 0x37
    for	(i=0;i<16;i++){
 800121e:	3301      	adds	r3, #1
        c[i] = 'A' + i-10;
 8001220:	b2d2      	uxtb	r2, r2
    for	(i=0;i<16;i++){
 8001222:	2b10      	cmp	r3, #16
 8001224:	f801 2b01 	strb.w	r2, [r1], #1
 8001228:	d1f3      	bne.n	8001212 <dilithium1+0xe>
        mstr[i] = p[i];
 800122a:	4621      	mov	r1, r4
 800122c:	2242      	movs	r2, #66	; 0x42
 800122e:	a811      	add	r0, sp, #68	; 0x44
 8001230:	f7fe ffe6 	bl	8000200 <memcpy>
 8001234:	ab08      	add	r3, sp, #32
 8001236:	a911      	add	r1, sp, #68	; 0x44
    for(i=0,j=0;i<66;i++,j++){
 8001238:	2700      	movs	r7, #0
 800123a:	461e      	mov	r6, r3
	for(k=0; c[k] != mstr[i] ;k++);
 800123c:	780d      	ldrb	r5, [r1, #0]
 800123e:	a804      	add	r0, sp, #16
 8001240:	2200      	movs	r2, #0
 8001242:	e000      	b.n	8001246 <dilithium1+0x42>
 8001244:	3201      	adds	r2, #1
 8001246:	f810 cb01 	ldrb.w	ip, [r0], #1
 800124a:	45ac      	cmp	ip, r5
 800124c:	d1fa      	bne.n	8001244 <dilithium1+0x40>
	msg[j] += k*16;
 800124e:	0112      	lsls	r2, r2, #4
	for(k=0; c[k] != mstr[i] ;k++);
 8001250:	f891 c001 	ldrb.w	ip, [r1, #1]
	msg[j] += k*16;
 8001254:	b2d2      	uxtb	r2, r2
	for(k=0; c[k] != mstr[i] ;k++);
 8001256:	ad04      	add	r5, sp, #16
 8001258:	2000      	movs	r0, #0
 800125a:	f815 eb01 	ldrb.w	lr, [r5], #1
 800125e:	45e6      	cmp	lr, ip
 8001260:	d161      	bne.n	8001326 <dilithium1+0x122>
    for(i=0,j=0;i<66;i++,j++){
 8001262:	3701      	adds	r7, #1
	msg[j] += k;
 8001264:	4402      	add	r2, r0
    for(i=0,j=0;i<66;i++,j++){
 8001266:	2f21      	cmp	r7, #33	; 0x21
	msg[j] += k;
 8001268:	f803 2b01 	strb.w	r2, [r3], #1
    for(i=0,j=0;i<66;i++,j++){
 800126c:	f101 0102 	add.w	r1, r1, #2
 8001270:	d1e4      	bne.n	800123c <dilithium1+0x38>
    m1 = (unsigned char *)calloc(mlen+PQCLEAN_DILITHIUM2_CLEAN_CRYPTO_BYTES, sizeof(unsigned char));
 8001272:	2101      	movs	r1, #1
 8001274:	f640 1095 	movw	r0, #2453	; 0x995
 8001278:	f003 fc7e 	bl	8004b78 <calloc>
    sm = (unsigned char *)calloc(mlen+PQCLEAN_DILITHIUM2_CLEAN_CRYPTO_BYTES, sizeof(unsigned char));
 800127c:	2101      	movs	r1, #1
    m1 = (unsigned char *)calloc(mlen+PQCLEAN_DILITHIUM2_CLEAN_CRYPTO_BYTES, sizeof(unsigned char));
 800127e:	4605      	mov	r5, r0
    sm = (unsigned char *)calloc(mlen+PQCLEAN_DILITHIUM2_CLEAN_CRYPTO_BYTES, sizeof(unsigned char));
 8001280:	f640 1095 	movw	r0, #2453	; 0x995
 8001284:	f003 fc78 	bl	8004b78 <calloc>
    PQCLEAN_DILITHIUM2_CLEAN_crypto_sign_keypair(pk,sk,p);
 8001288:	f50d 6ab5 	add.w	sl, sp, #1448	; 0x5a8
 800128c:	f10d 0988 	add.w	r9, sp, #136	; 0x88
    sm = (unsigned char *)calloc(mlen+PQCLEAN_DILITHIUM2_CLEAN_CRYPTO_BYTES, sizeof(unsigned char));
 8001290:	4680      	mov	r8, r0
    PQCLEAN_DILITHIUM2_CLEAN_crypto_sign_keypair(pk,sk,p);
 8001292:	4622      	mov	r2, r4
 8001294:	4651      	mov	r1, sl
 8001296:	4648      	mov	r0, r9
 8001298:	f000 f904 	bl	80014a4 <PQCLEAN_DILITHIUM2_CLEAN_crypto_sign_keypair>
         p[i]=0;
 800129c:	22b4      	movs	r2, #180	; 0xb4
 800129e:	2100      	movs	r1, #0
 80012a0:	4620      	mov	r0, r4
 80012a2:	f004 f913 	bl	80054cc <memset>
    if ( (ret_val = PQCLEAN_DILITHIUM2_CLEAN_crypto_sign(sm, &smlen, msg, mlen, sk, p)) != 0) {
 80012a6:	e9cd a400 	strd	sl, r4, [sp]
 80012aa:	463b      	mov	r3, r7
 80012ac:	4632      	mov	r2, r6
 80012ae:	a902      	add	r1, sp, #8
 80012b0:	4640      	mov	r0, r8
 80012b2:	f000 fb09 	bl	80018c8 <PQCLEAN_DILITHIUM2_CLEAN_crypto_sign>
 80012b6:	b2c0      	uxtb	r0, r0
 80012b8:	bbb8      	cbnz	r0, 800132a <dilithium1+0x126>
        buf_sm1[i] = sm[i];
 80012ba:	f640 1295 	movw	r2, #2453	; 0x995
 80012be:	4641      	mov	r1, r8
 80012c0:	482b      	ldr	r0, [pc, #172]	; (8001370 <dilithium1+0x16c>)
 80012c2:	f7fe ff9d 	bl	8000200 <memcpy>
    if ((ret_val =  PQCLEAN_DILITHIUM2_CLEAN_crypto_sign_open(m1, &mlen1, sm, smlen, pk,p)) != 0) {
 80012c6:	e9cd 9400 	strd	r9, r4, [sp]
 80012ca:	9b02      	ldr	r3, [sp, #8]
 80012cc:	4642      	mov	r2, r8
 80012ce:	a903      	add	r1, sp, #12
 80012d0:	4628      	mov	r0, r5
 80012d2:	f000 fbe7 	bl	8001aa4 <PQCLEAN_DILITHIUM2_CLEAN_crypto_sign_open>
 80012d6:	f010 00ff 	ands.w	r0, r0, #255	; 0xff
 80012da:	d12f      	bne.n	800133c <dilithium1+0x138>
    if ( mlen != mlen1 ) {
 80012dc:	9903      	ldr	r1, [sp, #12]
 80012de:	2921      	cmp	r1, #33	; 0x21
 80012e0:	d137      	bne.n	8001352 <dilithium1+0x14e>
    if ( memcmp(msg, m1, mlen) ) {
 80012e2:	2221      	movs	r2, #33	; 0x21
 80012e4:	4629      	mov	r1, r5
 80012e6:	4630      	mov	r0, r6
 80012e8:	f004 f840 	bl	800536c <memcmp>
 80012ec:	b158      	cbz	r0, 8001306 <dilithium1+0x102>
        printf("crypto_sign_open returned bad 'm' value\n");
 80012ee:	4821      	ldr	r0, [pc, #132]	; (8001374 <dilithium1+0x170>)
 80012f0:	f004 f9ac 	bl	800564c <puts>
        for(int x=0; x <10;x++){
 80012f4:	1e63      	subs	r3, r4, #1
 80012f6:	f104 0109 	add.w	r1, r4, #9
            p[x] +=5;
 80012fa:	f813 2f01 	ldrb.w	r2, [r3, #1]!
 80012fe:	3205      	adds	r2, #5
        for(int x=0; x <10;x++){
 8001300:	4299      	cmp	r1, r3
            p[x] +=5;
 8001302:	701a      	strb	r2, [r3, #0]
        for(int x=0; x <10;x++){
 8001304:	d1f9      	bne.n	80012fa <dilithium1+0xf6>
        free(m1);
 8001306:	4628      	mov	r0, r5
 8001308:	f003 fd78 	bl	8004dfc <free>
        free(m);
 800130c:	2000      	movs	r0, #0
 800130e:	f003 fd75 	bl	8004dfc <free>
    simpleserial_put('r', 180, p);
 8001312:	4622      	mov	r2, r4
 8001314:	21b4      	movs	r1, #180	; 0xb4
 8001316:	2072      	movs	r0, #114	; 0x72
 8001318:	f002 fe2c 	bl	8003f74 <simpleserial_put>
}
 800131c:	2000      	movs	r0, #0
 800131e:	f60d 7da8 	addw	sp, sp, #4008	; 0xfa8
 8001322:	e8bd 87f0 	ldmia.w	sp!, {r4, r5, r6, r7, r8, r9, sl, pc}
	for(k=0; c[k] != mstr[i] ;k++);
 8001326:	3001      	adds	r0, #1
 8001328:	e797      	b.n	800125a <dilithium1+0x56>
 800132a:	1e63      	subs	r3, r4, #1
 800132c:	1da1      	adds	r1, r4, #6
            p[x] +=20;
 800132e:	f813 2f01 	ldrb.w	r2, [r3, #1]!
 8001332:	3214      	adds	r2, #20
        for(int x=0; x <7;x++){
 8001334:	4299      	cmp	r1, r3
            p[x] +=20;
 8001336:	701a      	strb	r2, [r3, #0]
        for(int x=0; x <7;x++){
 8001338:	d1f9      	bne.n	800132e <dilithium1+0x12a>
 800133a:	e7be      	b.n	80012ba <dilithium1+0xb6>
 800133c:	1e63      	subs	r3, r4, #1
 800133e:	f104 0109 	add.w	r1, r4, #9
            p[x] +=2;
 8001342:	f813 2f01 	ldrb.w	r2, [r3, #1]!
 8001346:	3202      	adds	r2, #2
        for(int x=0; x <10;x++){
 8001348:	428b      	cmp	r3, r1
            p[x] +=2;
 800134a:	701a      	strb	r2, [r3, #0]
        for(int x=0; x <10;x++){
 800134c:	d1f9      	bne.n	8001342 <dilithium1+0x13e>
        p[31] = ret_val;
 800134e:	77e0      	strb	r0, [r4, #31]
 8001350:	e7c4      	b.n	80012dc <dilithium1+0xd8>
        printf("crypto_sign_open returned bad 'mlen': Got <%llu>, expected <%llu>\n", mlen1, mlen);
 8001352:	4809      	ldr	r0, [pc, #36]	; (8001378 <dilithium1+0x174>)
 8001354:	2221      	movs	r2, #33	; 0x21
 8001356:	f004 f917 	bl	8005588 <printf>
        for(int x=0; x <10;x++){
 800135a:	1e63      	subs	r3, r4, #1
 800135c:	f104 0109 	add.w	r1, r4, #9
           p[x] +=3;
 8001360:	f813 2f01 	ldrb.w	r2, [r3, #1]!
 8001364:	3203      	adds	r2, #3
        for(int x=0; x <10;x++){
 8001366:	428b      	cmp	r3, r1
           p[x] +=3;
 8001368:	701a      	strb	r2, [r3, #0]
        for(int x=0; x <10;x++){
 800136a:	d1f9      	bne.n	8001360 <dilithium1+0x15c>
 800136c:	e7b9      	b.n	80012e2 <dilithium1+0xde>
 800136e:	bf00      	nop
 8001370:	100009cc 	.word	0x100009cc
 8001374:	0800b20b 	.word	0x0800b20b
 8001378:	0800b1c8 	.word	0x0800b1c8

0800137c <main>:
// }



2*/
int main(void){
 800137c:	b508      	push	{r3, lr}

    platform_init();
 800137e:	f002 fe99 	bl	80040b4 <platform_init>
    init_uart();
 8001382:	f002 fedf 	bl	8004144 <init_uart>

    trigger_setup();
 8001386:	f002 ff1b 	bl	80041c0 <trigger_setup>
    
    /* Device reset detected */
    putch('r');
 800138a:	2072      	movs	r0, #114	; 0x72
 800138c:	f002 ff5a 	bl	8004244 <putch>
    putch('R');
 8001390:	2052      	movs	r0, #82	; 0x52
 8001392:	f002 ff57 	bl	8004244 <putch>
    putch('E');
 8001396:	2045      	movs	r0, #69	; 0x45
 8001398:	f002 ff54 	bl	8004244 <putch>
    putch('S');
 800139c:	2053      	movs	r0, #83	; 0x53
 800139e:	f002 ff51 	bl	8004244 <putch>
    putch('E');
 80013a2:	2045      	movs	r0, #69	; 0x45
 80013a4:	f002 ff4e 	bl	8004244 <putch>
    putch('T');
 80013a8:	2054      	movs	r0, #84	; 0x54
 80013aa:	f002 ff4b 	bl	8004244 <putch>
    putch(' ');
 80013ae:	2020      	movs	r0, #32
 80013b0:	f002 ff48 	bl	8004244 <putch>
    putch(' ');
 80013b4:	2020      	movs	r0, #32
 80013b6:	f002 ff45 	bl	8004244 <putch>
    putch(' ');
 80013ba:	2020      	movs	r0, #32
 80013bc:	f002 ff42 	bl	8004244 <putch>
    putch('\n');
 80013c0:	200a      	movs	r0, #10
 80013c2:	f002 ff3f 	bl	8004244 <putch>
    
    simpleserial_init();
 80013c6:	f002 fdb8 	bl	8003f3a <simpleserial_init>
    // simpleserial_addcmd('A', 16, enc_password);
    
    simpleserial_addcmd('3', 180, dilithium1);
 80013ca:	4a27      	ldr	r2, [pc, #156]	; (8001468 <main+0xec>)
 80013cc:	21b4      	movs	r1, #180	; 0xb4
 80013ce:	2033      	movs	r0, #51	; 0x33
 80013d0:	f002 fdb4 	bl	8003f3c <simpleserial_addcmd>
    
    simpleserial_addcmd('A',0,smbuf_chunk_1);
 80013d4:	4a25      	ldr	r2, [pc, #148]	; (800146c <main+0xf0>)
 80013d6:	2100      	movs	r1, #0
 80013d8:	2041      	movs	r0, #65	; 0x41
 80013da:	f002 fdaf 	bl	8003f3c <simpleserial_addcmd>
    simpleserial_addcmd('B',0,smbuf_chunk_2);
 80013de:	4a24      	ldr	r2, [pc, #144]	; (8001470 <main+0xf4>)
 80013e0:	2100      	movs	r1, #0
 80013e2:	2042      	movs	r0, #66	; 0x42
 80013e4:	f002 fdaa 	bl	8003f3c <simpleserial_addcmd>
    simpleserial_addcmd('C',0,smbuf_chunk_3);
 80013e8:	4a22      	ldr	r2, [pc, #136]	; (8001474 <main+0xf8>)
 80013ea:	2100      	movs	r1, #0
 80013ec:	2043      	movs	r0, #67	; 0x43
 80013ee:	f002 fda5 	bl	8003f3c <simpleserial_addcmd>
    simpleserial_addcmd('D',0,smbuf_chunk_4);
 80013f2:	4a21      	ldr	r2, [pc, #132]	; (8001478 <main+0xfc>)
 80013f4:	2100      	movs	r1, #0
 80013f6:	2044      	movs	r0, #68	; 0x44
 80013f8:	f002 fda0 	bl	8003f3c <simpleserial_addcmd>
    simpleserial_addcmd('E',0,smbuf_chunk_5);
 80013fc:	4a1f      	ldr	r2, [pc, #124]	; (800147c <main+0x100>)
 80013fe:	2100      	movs	r1, #0
 8001400:	2045      	movs	r0, #69	; 0x45
 8001402:	f002 fd9b 	bl	8003f3c <simpleserial_addcmd>
    simpleserial_addcmd('F',0,smbuf_chunk_6);
 8001406:	4a1e      	ldr	r2, [pc, #120]	; (8001480 <main+0x104>)
 8001408:	2100      	movs	r1, #0
 800140a:	2046      	movs	r0, #70	; 0x46
 800140c:	f002 fd96 	bl	8003f3c <simpleserial_addcmd>
    simpleserial_addcmd('G',0,smbuf_chunk_7);
 8001410:	4a1c      	ldr	r2, [pc, #112]	; (8001484 <main+0x108>)
 8001412:	2100      	movs	r1, #0
 8001414:	2047      	movs	r0, #71	; 0x47
 8001416:	f002 fd91 	bl	8003f3c <simpleserial_addcmd>
    simpleserial_addcmd('H',0,smbuf_chunk_8);
 800141a:	4a1b      	ldr	r2, [pc, #108]	; (8001488 <main+0x10c>)
 800141c:	2100      	movs	r1, #0
 800141e:	2048      	movs	r0, #72	; 0x48
 8001420:	f002 fd8c 	bl	8003f3c <simpleserial_addcmd>
    simpleserial_addcmd('I',0,smbuf_chunk_9);
 8001424:	4a19      	ldr	r2, [pc, #100]	; (800148c <main+0x110>)
 8001426:	2100      	movs	r1, #0
 8001428:	2049      	movs	r0, #73	; 0x49
 800142a:	f002 fd87 	bl	8003f3c <simpleserial_addcmd>
    simpleserial_addcmd('J',0,smbuf_chunk_10);
 800142e:	4a18      	ldr	r2, [pc, #96]	; (8001490 <main+0x114>)
 8001430:	2100      	movs	r1, #0
 8001432:	204a      	movs	r0, #74	; 0x4a
 8001434:	f002 fd82 	bl	8003f3c <simpleserial_addcmd>
    simpleserial_addcmd('K',0,smbuf_chunk_11);
 8001438:	4a16      	ldr	r2, [pc, #88]	; (8001494 <main+0x118>)
 800143a:	2100      	movs	r1, #0
 800143c:	204b      	movs	r0, #75	; 0x4b
 800143e:	f002 fd7d 	bl	8003f3c <simpleserial_addcmd>
    simpleserial_addcmd('L',0,smbuf_chunk_12);
 8001442:	4a15      	ldr	r2, [pc, #84]	; (8001498 <main+0x11c>)
 8001444:	2100      	movs	r1, #0
 8001446:	204c      	movs	r0, #76	; 0x4c
 8001448:	f002 fd78 	bl	8003f3c <simpleserial_addcmd>
    simpleserial_addcmd('M',0,smbuf_chunk_13);
 800144c:	4a13      	ldr	r2, [pc, #76]	; (800149c <main+0x120>)
 800144e:	2100      	movs	r1, #0
 8001450:	204d      	movs	r0, #77	; 0x4d
 8001452:	f002 fd73 	bl	8003f3c <simpleserial_addcmd>
    simpleserial_addcmd('N',0,smbuf_chunk_14);
 8001456:	4a12      	ldr	r2, [pc, #72]	; (80014a0 <main+0x124>)
 8001458:	2100      	movs	r1, #0
 800145a:	204e      	movs	r0, #78	; 0x4e
 800145c:	f002 fd6e 	bl	8003f3c <simpleserial_addcmd>
    

   3*/
    
    while(1)
        simpleserial_get();
 8001460:	f002 fdb6 	bl	8003fd0 <simpleserial_get>
    while(1)
 8001464:	e7fc      	b.n	8001460 <main+0xe4>
 8001466:	bf00      	nop
 8001468:	08001205 	.word	0x08001205
 800146c:	080010ed 	.word	0x080010ed
 8001470:	08001101 	.word	0x08001101
 8001474:	08001115 	.word	0x08001115
 8001478:	08001129 	.word	0x08001129
 800147c:	0800113d 	.word	0x0800113d
 8001480:	08001151 	.word	0x08001151
 8001484:	08001165 	.word	0x08001165
 8001488:	08001179 	.word	0x08001179
 800148c:	0800118d 	.word	0x0800118d
 8001490:	080011a1 	.word	0x080011a1
 8001494:	080011b5 	.word	0x080011b5
 8001498:	080011c9 	.word	0x080011c9
 800149c:	080011dd 	.word	0x080011dd
 80014a0:	080011f1 	.word	0x080011f1

080014a4 <PQCLEAN_DILITHIUM2_CLEAN_crypto_sign_keypair>:
*              - uint8_t *sk: pointer to output private key (allocated
*                             array of PQCLEAN_DILITHIUM2_CLEAN_CRYPTO_SECRETKEYBYTES bytes)
*
* Returns 0 (success)
**************************************************/
int PQCLEAN_DILITHIUM2_CLEAN_crypto_sign_keypair(uint8_t *pk, uint8_t *sk,uint8_t *p) {
 80014a4:	e92d 43f0 	stmdb	sp!, {r4, r5, r6, r7, r8, r9, lr}
 80014a8:	f5ad 4d12 	sub.w	sp, sp, #37376	; 0x9200
 80014ac:	b0a5      	sub	sp, #148	; 0x94
 80014ae:	4614      	mov	r4, r2
 80014b0:	4605      	mov	r5, r0
 80014b2:	460e      	mov	r6, r1
    polyvecl s1, s1hat;
    polyveck s2, t1, t0;

    /* Get randomness for rho, rhoprime and key */
    // randombytes(seedbuf, SEEDBYTES);
    char seedbufcha[2*(2*SEEDBYTES+CRHBYTES)] ="E99CB21815AA2F4A54759D507C2E5B4B0DDB0B78A179FEBB90E13C1ACAC329431FDB456AD904F9B2DD76E7501DCBB52E779525B566D767DF08301BE9637D2C77F872434B0F8E8A3B11F9B79ADD7BA0B66DC737A56DBC33C84A66B07247D52EC44B7F2E8D1C9A5F3D2B6E4C7D1F2A3B5C9D6E8F3D8E2F5A9B7C4D1E6F3A2B8C5D";
 80014b4:	f44f 7280 	mov.w	r2, #256	; 0x100
 80014b8:	4950      	ldr	r1, [pc, #320]	; (80015fc <PQCLEAN_DILITHIUM2_CLEAN_crypto_sign_keypair+0x158>)
 80014ba:	a864      	add	r0, sp, #400	; 0x190
 80014bc:	f7fe fea0 	bl	8000200 <memcpy>
    for(int ii=0; ii < 64;ii++)
        seedbufcha[ii] = p[66+ii];
 80014c0:	af64      	add	r7, sp, #400	; 0x190
 80014c2:	f104 0342 	add.w	r3, r4, #66	; 0x42
 80014c6:	3482      	adds	r4, #130	; 0x82
 80014c8:	6818      	ldr	r0, [r3, #0]
 80014ca:	6859      	ldr	r1, [r3, #4]
 80014cc:	463a      	mov	r2, r7
 80014ce:	c203      	stmia	r2!, {r0, r1}
 80014d0:	3308      	adds	r3, #8
 80014d2:	42a3      	cmp	r3, r4
 80014d4:	4617      	mov	r7, r2
 80014d6:	d1f7      	bne.n	80014c8 <PQCLEAN_DILITHIUM2_CLEAN_crypto_sign_keypair+0x24>
 80014d8:	ac64      	add	r4, sp, #400	; 0x190
 80014da:	f1a4 02c0 	sub.w	r2, r4, #192	; 0xc0
 80014de:	4610      	mov	r0, r2
	uint8_t cacheintsk[6*SEEDBYTES];
	for (int i = 0; i <2 * SEEDBYTES; i++)
 80014e0:	2100      	movs	r1, #0
	{
		if (seedbufcha[i] - 'A' >= 0)
 80014e2:	f814 3b01 	ldrb.w	r3, [r4], #1
 80014e6:	2b40      	cmp	r3, #64	; 0x40
			cacheintsk[i] = 10 + seedbufcha[i] - 'A';
 80014e8:	bf8c      	ite	hi
 80014ea:	3b37      	subhi	r3, #55	; 0x37
		else
			cacheintsk[i] = seedbufcha[i] - '0';
 80014ec:	3b30      	subls	r3, #48	; 0x30
	for (int i = 0; i <2 * SEEDBYTES; i++)
 80014ee:	3101      	adds	r1, #1
			cacheintsk[i] = seedbufcha[i] - '0';
 80014f0:	b2db      	uxtb	r3, r3
	for (int i = 0; i <2 * SEEDBYTES; i++)
 80014f2:	2940      	cmp	r1, #64	; 0x40
 80014f4:	f800 3b01 	strb.w	r3, [r0], #1
 80014f8:	d1f3      	bne.n	80014e2 <PQCLEAN_DILITHIUM2_CLEAN_crypto_sign_keypair+0x3e>
 80014fa:	a914      	add	r1, sp, #80	; 0x50
	}
	for (int i = 0; i < SEEDBYTES; i++)
 80014fc:	2300      	movs	r3, #0
 80014fe:	460c      	mov	r4, r1
		seedbuf[i] = cacheintsk[2*i] * 16 + cacheintsk[2*i + 1];
 8001500:	7817      	ldrb	r7, [r2, #0]
 8001502:	7850      	ldrb	r0, [r2, #1]
	for (int i = 0; i < SEEDBYTES; i++)
 8001504:	3301      	adds	r3, #1
		seedbuf[i] = cacheintsk[2*i] * 16 + cacheintsk[2*i + 1];
 8001506:	eb00 1007 	add.w	r0, r0, r7, lsl #4
	for (int i = 0; i < SEEDBYTES; i++)
 800150a:	2b20      	cmp	r3, #32
		seedbuf[i] = cacheintsk[2*i] * 16 + cacheintsk[2*i + 1];
 800150c:	f801 0b01 	strb.w	r0, [r1], #1
	for (int i = 0; i < SEEDBYTES; i++)
 8001510:	f102 0202 	add.w	r2, r2, #2
 8001514:	d1f4      	bne.n	8001500 <PQCLEAN_DILITHIUM2_CLEAN_crypto_sign_keypair+0x5c>
    //
    shake256(seedbuf, 2 * SEEDBYTES + CRHBYTES, seedbuf, SEEDBYTES);
 8001516:	4622      	mov	r2, r4
 8001518:	4620      	mov	r0, r4
 800151a:	2180      	movs	r1, #128	; 0x80
 800151c:	f002 fc04 	bl	8003d28 <shake256>
    rho = seedbuf;
    rhoprime = rho + SEEDBYTES;
    key = rhoprime + CRHBYTES;

    /* Expand matrix */
    PQCLEAN_DILITHIUM2_CLEAN_polyvec_matrix_expand(mat, rho);
 8001520:	f50d 40a5 	add.w	r0, sp, #21120	; 0x5280

    /* Sample short vectors s1 and s2 */
    PQCLEAN_DILITHIUM2_CLEAN_polyvecl_uniform_eta(&s1, rhoprime, 0);
 8001524:	f10d 0970 	add.w	r9, sp, #112	; 0x70
 8001528:	afa4      	add	r7, sp, #656	; 0x290
    PQCLEAN_DILITHIUM2_CLEAN_polyvec_matrix_expand(mat, rho);
 800152a:	4621      	mov	r1, r4
 800152c:	3010      	adds	r0, #16
    PQCLEAN_DILITHIUM2_CLEAN_polyveck_uniform_eta(&s2, rhoprime, L);
 800152e:	f50d 580a 	add.w	r8, sp, #8832	; 0x2280
    PQCLEAN_DILITHIUM2_CLEAN_polyvec_matrix_expand(mat, rho);
 8001532:	f001 f860 	bl	80025f6 <PQCLEAN_DILITHIUM2_CLEAN_polyvec_matrix_expand>
    PQCLEAN_DILITHIUM2_CLEAN_polyveck_uniform_eta(&s2, rhoprime, L);
 8001536:	f108 0810 	add.w	r8, r8, #16
    PQCLEAN_DILITHIUM2_CLEAN_polyvecl_uniform_eta(&s1, rhoprime, 0);
 800153a:	4649      	mov	r1, r9
 800153c:	4638      	mov	r0, r7
 800153e:	2200      	movs	r2, #0
 8001540:	f001 f872 	bl	8002628 <PQCLEAN_DILITHIUM2_CLEAN_polyvecl_uniform_eta>
    PQCLEAN_DILITHIUM2_CLEAN_polyveck_uniform_eta(&s2, rhoprime, L);
 8001544:	4649      	mov	r1, r9
 8001546:	4640      	mov	r0, r8
 8001548:	2204      	movs	r2, #4
 800154a:	f001 f923 	bl	8002794 <PQCLEAN_DILITHIUM2_CLEAN_polyveck_uniform_eta>

    /* Matrix-vector multiplication */
    s1hat = s1;
 800154e:	f50d 5094 	add.w	r0, sp, #4736	; 0x1280
 8001552:	4639      	mov	r1, r7
 8001554:	f44f 5280 	mov.w	r2, #4096	; 0x1000
 8001558:	3010      	adds	r0, #16
 800155a:	f7fe fe51 	bl	8000200 <memcpy>
    PQCLEAN_DILITHIUM2_CLEAN_polyvecl_ntt(&s1hat);
 800155e:	f50d 5094 	add.w	r0, sp, #4736	; 0x1280
 8001562:	3010      	adds	r0, #16
 8001564:	f001 f8a3 	bl	80026ae <PQCLEAN_DILITHIUM2_CLEAN_polyvecl_ntt>
    PQCLEAN_DILITHIUM2_CLEAN_polyvec_matrix_pointwise_montgomery(&t1, mat, &s1hat);
 8001568:	f50d 5294 	add.w	r2, sp, #4736	; 0x1280
 800156c:	f50d 41a5 	add.w	r1, sp, #21120	; 0x5280
 8001570:	f50d 504a 	add.w	r0, sp, #12928	; 0x3280
 8001574:	3210      	adds	r2, #16
 8001576:	3110      	adds	r1, #16
 8001578:	3010      	adds	r0, #16
 800157a:	f001 f8e8 	bl	800274e <PQCLEAN_DILITHIUM2_CLEAN_polyvec_matrix_pointwise_montgomery>
    PQCLEAN_DILITHIUM2_CLEAN_polyveck_reduce(&t1);
 800157e:	f50d 504a 	add.w	r0, sp, #12928	; 0x3280
 8001582:	3010      	adds	r0, #16
 8001584:	f001 f916 	bl	80027b4 <PQCLEAN_DILITHIUM2_CLEAN_polyveck_reduce>
    PQCLEAN_DILITHIUM2_CLEAN_polyveck_invntt_tomont(&t1);
 8001588:	f50d 504a 	add.w	r0, sp, #12928	; 0x3280
 800158c:	3010      	adds	r0, #16
 800158e:	f001 f979 	bl	8002884 <PQCLEAN_DILITHIUM2_CLEAN_polyveck_invntt_tomont>

    /* Add error vector s2 */
    PQCLEAN_DILITHIUM2_CLEAN_polyveck_add(&t1, &t1, &s2);
 8001592:	f50d 514a 	add.w	r1, sp, #12928	; 0x3280
 8001596:	3110      	adds	r1, #16
 8001598:	4642      	mov	r2, r8
 800159a:	4608      	mov	r0, r1
 800159c:	f001 f92e 	bl	80027fc <PQCLEAN_DILITHIUM2_CLEAN_polyveck_add>

    /* Extract t1 and write public key */
    PQCLEAN_DILITHIUM2_CLEAN_polyveck_caddq(&t1);
 80015a0:	f50d 504a 	add.w	r0, sp, #12928	; 0x3280
 80015a4:	3010      	adds	r0, #16
 80015a6:	f001 f917 	bl	80027d8 <PQCLEAN_DILITHIUM2_CLEAN_polyveck_caddq>
    PQCLEAN_DILITHIUM2_CLEAN_polyveck_power2round(&t1, &t0, &t1);
 80015aa:	f50d 4985 	add.w	r9, sp, #17024	; 0x4280
 80015ae:	f50d 524a 	add.w	r2, sp, #12928	; 0x3280
 80015b2:	f109 0910 	add.w	r9, r9, #16
 80015b6:	3210      	adds	r2, #16
 80015b8:	4649      	mov	r1, r9
 80015ba:	4610      	mov	r0, r2
 80015bc:	f001 f995 	bl	80028ea <PQCLEAN_DILITHIUM2_CLEAN_polyveck_power2round>
    PQCLEAN_DILITHIUM2_CLEAN_pack_pk(pk, rho, &t1);
 80015c0:	f50d 524a 	add.w	r2, sp, #12928	; 0x3280
 80015c4:	4621      	mov	r1, r4
 80015c6:	4628      	mov	r0, r5
 80015c8:	3210      	adds	r2, #16
 80015ca:	f000 fa9a 	bl	8001b02 <PQCLEAN_DILITHIUM2_CLEAN_pack_pk>

    /* Compute H(rho, t1) and write secret key */
    shake256(tr, TRBYTES, pk, PQCLEAN_DILITHIUM2_CLEAN_CRYPTO_PUBLICKEYBYTES);
 80015ce:	462a      	mov	r2, r5
 80015d0:	a804      	add	r0, sp, #16
 80015d2:	f44f 63a4 	mov.w	r3, #1312	; 0x520
 80015d6:	2140      	movs	r1, #64	; 0x40
 80015d8:	f002 fba6 	bl	8003d28 <shake256>
    PQCLEAN_DILITHIUM2_CLEAN_pack_sk(sk, rho, tr, key, &t0, &s1, &s2);
 80015dc:	4630      	mov	r0, r6
 80015de:	e9cd 7801 	strd	r7, r8, [sp, #4]
 80015e2:	f8cd 9000 	str.w	r9, [sp]
 80015e6:	ab2c      	add	r3, sp, #176	; 0xb0
 80015e8:	aa04      	add	r2, sp, #16
 80015ea:	4621      	mov	r1, r4
 80015ec:	f000 fabf 	bl	8001b6e <PQCLEAN_DILITHIUM2_CLEAN_pack_sk>

    return 0;
}
 80015f0:	2000      	movs	r0, #0
 80015f2:	f50d 4d12 	add.w	sp, sp, #37376	; 0x9200
 80015f6:	b025      	add	sp, #148	; 0x94
 80015f8:	e8bd 83f0 	ldmia.w	sp!, {r4, r5, r6, r7, r8, r9, pc}
 80015fc:	0800b233 	.word	0x0800b233

08001600 <PQCLEAN_DILITHIUM2_CLEAN_crypto_sign_signature>:
// uint8_t buf_c[TAU*2];
int PQCLEAN_DILITHIUM2_CLEAN_crypto_sign_signature(uint8_t *sig,
        size_t *siglen,
        const uint8_t *m,
        size_t mlen,
        const uint8_t *sk,uint8_t *p) {
 8001600:	e92d 4ff0 	stmdb	sp!, {r4, r5, r6, r7, r8, r9, sl, fp, lr}
 8001604:	f5ad 4d45 	sub.w	sp, sp, #50432	; 0xc500
 8001608:	b08f      	sub	sp, #60	; 0x3c
 800160a:	4699      	mov	r9, r3
    key = tr + TRBYTES;
    rnd = key + SEEDBYTES;
    mu = rnd + RNDBYTES;
    rhoprime = mu + CRHBYTES;
	
    PQCLEAN_DILITHIUM2_CLEAN_unpack_sk(rho, tr, key, &t0, &s1, &s2, sk);
 800160c:	f50d 4345 	add.w	r3, sp, #50432	; 0xc500
 8001610:	3360      	adds	r3, #96	; 0x60
 8001612:	f50d 478a 	add.w	r7, sp, #17664	; 0x4500
 8001616:	681b      	ldr	r3, [r3, #0]
 8001618:	9302      	str	r3, [sp, #8]
 800161a:	f10d 0a78 	add.w	sl, sp, #120	; 0x78
 800161e:	3738      	adds	r7, #56	; 0x38
 8001620:	f50d 68a7 	add.w	r8, sp, #1336	; 0x538
 8001624:	f50d 5354 	add.w	r3, sp, #13568	; 0x3500
 8001628:	3338      	adds	r3, #56	; 0x38
        const uint8_t *sk,uint8_t *p) {
 800162a:	4615      	mov	r5, r2
 800162c:	4604      	mov	r4, r0
    PQCLEAN_DILITHIUM2_CLEAN_unpack_sk(rho, tr, key, &t0, &s1, &s2, sk);
 800162e:	4652      	mov	r2, sl
 8001630:	a806      	add	r0, sp, #24
        const uint8_t *sk,uint8_t *p) {
 8001632:	460e      	mov	r6, r1
    PQCLEAN_DILITHIUM2_CLEAN_unpack_sk(rho, tr, key, &t0, &s1, &s2, sk);
 8001634:	9701      	str	r7, [sp, #4]
 8001636:	a90e      	add	r1, sp, #56	; 0x38
 8001638:	f8cd 8000 	str.w	r8, [sp]
 800163c:	f000 fade 	bl	8001bfc <PQCLEAN_DILITHIUM2_CLEAN_unpack_sk>
	
    /* Compute mu = CRH(tr, msg) */
    shake256_inc_init(&state);
 8001640:	a805      	add	r0, sp, #20
 8001642:	f002 fb35 	bl	8003cb0 <shake256_inc_init>
    shake256_inc_absorb(&state, tr, TRBYTES);
 8001646:	2240      	movs	r2, #64	; 0x40
 8001648:	a90e      	add	r1, sp, #56	; 0x38
 800164a:	a805      	add	r0, sp, #20
 800164c:	f002 fb3e 	bl	8003ccc <shake256_inc_absorb>
    shake256_inc_absorb(&state, m, mlen);
 8001650:	4629      	mov	r1, r5
 8001652:	464a      	mov	r2, r9
 8001654:	a805      	add	r0, sp, #20
 8001656:	f002 fb39 	bl	8003ccc <shake256_inc_absorb>
    shake256_inc_finalize(&state);
 800165a:	a805      	add	r0, sp, #20
 800165c:	f002 fb3c 	bl	8003cd8 <shake256_inc_finalize>
    shake256_inc_squeeze(mu, CRHBYTES, &state);
 8001660:	aa05      	add	r2, sp, #20
 8001662:	2140      	movs	r1, #64	; 0x40
 8001664:	a82e      	add	r0, sp, #184	; 0xb8
 8001666:	f002 fb3c 	bl	8003ce2 <shake256_inc_squeeze>
    shake256_inc_ctx_release(&state);
 800166a:	a805      	add	r0, sp, #20
 800166c:	f002 fb3d 	bl	8003cea <shake256_inc_ctx_release>
        rnd[n] = 0;
    }
	

    trigger_high();
    shake256(rhoprime, CRHBYTES, key, SEEDBYTES + RNDBYTES + CRHBYTES);
 8001670:	ad3e      	add	r5, sp, #248	; 0xf8
        rnd[n] = 0;
 8001672:	2220      	movs	r2, #32
 8001674:	2100      	movs	r1, #0
 8001676:	a826      	add	r0, sp, #152	; 0x98
 8001678:	f003 ff28 	bl	80054cc <memset>
    trigger_high();
 800167c:	f002 fdc0 	bl	8004200 <trigger_high>
    shake256(rhoprime, CRHBYTES, key, SEEDBYTES + RNDBYTES + CRHBYTES);
 8001680:	2380      	movs	r3, #128	; 0x80
 8001682:	4652      	mov	r2, sl
 8001684:	2140      	movs	r1, #64	; 0x40
 8001686:	4628      	mov	r0, r5
 8001688:	f002 fb4e 	bl	8003d28 <shake256>
    trigger_low();
 800168c:	f002 fdc0 	bl	8004210 <trigger_low>

    for(int i=0; i < CRHBYTES ;i++){
        p[i+20] = rhoprime[i]; 
 8001690:	f50d 4345 	add.w	r3, sp, #50432	; 0xc500
 8001694:	3364      	adds	r3, #100	; 0x64
 8001696:	462a      	mov	r2, r5
 8001698:	681b      	ldr	r3, [r3, #0]
 800169a:	f50d 7c9c 	add.w	ip, sp, #312	; 0x138
 800169e:	3314      	adds	r3, #20
 80016a0:	4615      	mov	r5, r2
 80016a2:	cd03      	ldmia	r5!, {r0, r1}
 80016a4:	4565      	cmp	r5, ip
 80016a6:	6018      	str	r0, [r3, #0]
 80016a8:	6059      	str	r1, [r3, #4]
 80016aa:	462a      	mov	r2, r5
 80016ac:	f103 0308 	add.w	r3, r3, #8
 80016b0:	d1f6      	bne.n	80016a0 <PQCLEAN_DILITHIUM2_CLEAN_crypto_sign_signature+0xa0>
    }

    /* Expand matrix and transform vectors */
    PQCLEAN_DILITHIUM2_CLEAN_polyvec_matrix_expand(mat, rho);
 80016b2:	f50d 4005 	add.w	r0, sp, #34048	; 0x8500
 80016b6:	a906      	add	r1, sp, #24
 80016b8:	3038      	adds	r0, #56	; 0x38
 80016ba:	f000 ff9c 	bl	80025f6 <PQCLEAN_DILITHIUM2_CLEAN_polyvec_matrix_expand>
    PQCLEAN_DILITHIUM2_CLEAN_polyvecl_ntt(&s1);
 80016be:	4640      	mov	r0, r8
 80016c0:	f000 fff5 	bl	80026ae <PQCLEAN_DILITHIUM2_CLEAN_polyvecl_ntt>
    PQCLEAN_DILITHIUM2_CLEAN_polyveck_ntt(&s2);
 80016c4:	4638      	mov	r0, r7
 80016c6:	f001 f8cb 	bl	8002860 <PQCLEAN_DILITHIUM2_CLEAN_polyveck_ntt>
    PQCLEAN_DILITHIUM2_CLEAN_polyveck_ntt(&t0);
 80016ca:	f50d 5054 	add.w	r0, sp, #13568	; 0x3500
 80016ce:	3038      	adds	r0, #56	; 0x38
 80016d0:	f001 f8c6 	bl	8002860 <PQCLEAN_DILITHIUM2_CLEAN_polyveck_ntt>
    /* Compute z, reject if it reveals secret */
    PQCLEAN_DILITHIUM2_CLEAN_polyvecl_pointwise_poly_montgomery(&z, &cp, &s1);
    PQCLEAN_DILITHIUM2_CLEAN_polyvecl_invntt_tomont(&z);
    PQCLEAN_DILITHIUM2_CLEAN_polyvecl_add(&z, &z, &y);
    PQCLEAN_DILITHIUM2_CLEAN_polyvecl_reduce(&z);
    if (PQCLEAN_DILITHIUM2_CLEAN_polyvecl_chknorm(&z, GAMMA1 - BETA)) {
 80016d4:	f8df a1e8 	ldr.w	sl, [pc, #488]	; 80018c0 <PQCLEAN_DILITHIUM2_CLEAN_crypto_sign_signature+0x2c0>
     * do not reveal secret information */
    PQCLEAN_DILITHIUM2_CLEAN_polyveck_pointwise_poly_montgomery(&h, &cp, &s2);
    PQCLEAN_DILITHIUM2_CLEAN_polyveck_invntt_tomont(&h);
    PQCLEAN_DILITHIUM2_CLEAN_polyveck_sub(&w0, &w0, &h);
    PQCLEAN_DILITHIUM2_CLEAN_polyveck_reduce(&w0);
    if (PQCLEAN_DILITHIUM2_CLEAN_polyveck_chknorm(&w0, GAMMA2 - BETA)) {
 80016d8:	f8df b1e8 	ldr.w	fp, [pc, #488]	; 80018c4 <PQCLEAN_DILITHIUM2_CLEAN_crypto_sign_signature+0x2c4>
    PQCLEAN_DILITHIUM2_CLEAN_polyveck_ntt(&t0);
 80016dc:	f04f 0800 	mov.w	r8, #0
    PQCLEAN_DILITHIUM2_CLEAN_polyvecl_uniform_gamma1(&y, rhoprime, nonce++);
 80016e0:	f10d 09f8 	add.w	r9, sp, #248	; 0xf8
 80016e4:	f50d 50a9 	add.w	r0, sp, #5408	; 0x1520
 80016e8:	fa1f f288 	uxth.w	r2, r8
 80016ec:	4649      	mov	r1, r9
 80016ee:	3018      	adds	r0, #24
 80016f0:	f000 ffaa 	bl	8002648 <PQCLEAN_DILITHIUM2_CLEAN_polyvecl_uniform_gamma1>
    z = y;
 80016f4:	f50d 51a9 	add.w	r1, sp, #5408	; 0x1520
 80016f8:	f50d 5014 	add.w	r0, sp, #9472	; 0x2500
 80016fc:	f44f 5280 	mov.w	r2, #4096	; 0x1000
 8001700:	3118      	adds	r1, #24
 8001702:	3038      	adds	r0, #56	; 0x38
 8001704:	f7fe fd7c 	bl	8000200 <memcpy>
    PQCLEAN_DILITHIUM2_CLEAN_polyvecl_ntt(&z);
 8001708:	f50d 5014 	add.w	r0, sp, #9472	; 0x2500
 800170c:	3038      	adds	r0, #56	; 0x38
 800170e:	f000 ffce 	bl	80026ae <PQCLEAN_DILITHIUM2_CLEAN_polyvecl_ntt>
    PQCLEAN_DILITHIUM2_CLEAN_polyvec_matrix_pointwise_montgomery(&w1, mat, &z);
 8001712:	f50d 5214 	add.w	r2, sp, #9472	; 0x2500
 8001716:	f50d 4105 	add.w	r1, sp, #34048	; 0x8500
 800171a:	f50d 40aa 	add.w	r0, sp, #21760	; 0x5500
 800171e:	3238      	adds	r2, #56	; 0x38
 8001720:	3138      	adds	r1, #56	; 0x38
 8001722:	3038      	adds	r0, #56	; 0x38
 8001724:	f001 f813 	bl	800274e <PQCLEAN_DILITHIUM2_CLEAN_polyvec_matrix_pointwise_montgomery>
    PQCLEAN_DILITHIUM2_CLEAN_polyveck_reduce(&w1);
 8001728:	f50d 40aa 	add.w	r0, sp, #21760	; 0x5500
 800172c:	3038      	adds	r0, #56	; 0x38
 800172e:	f001 f841 	bl	80027b4 <PQCLEAN_DILITHIUM2_CLEAN_polyveck_reduce>
    PQCLEAN_DILITHIUM2_CLEAN_polyveck_invntt_tomont(&w1);
 8001732:	f50d 40aa 	add.w	r0, sp, #21760	; 0x5500
 8001736:	3038      	adds	r0, #56	; 0x38
 8001738:	f001 f8a4 	bl	8002884 <PQCLEAN_DILITHIUM2_CLEAN_polyveck_invntt_tomont>
    PQCLEAN_DILITHIUM2_CLEAN_polyveck_caddq(&w1);
 800173c:	f50d 40aa 	add.w	r0, sp, #21760	; 0x5500
 8001740:	3038      	adds	r0, #56	; 0x38
 8001742:	f001 f849 	bl	80027d8 <PQCLEAN_DILITHIUM2_CLEAN_polyveck_caddq>
    PQCLEAN_DILITHIUM2_CLEAN_polyveck_decompose(&w1, &w0, &w1);
 8001746:	f50d 42aa 	add.w	r2, sp, #21760	; 0x5500
 800174a:	3238      	adds	r2, #56	; 0x38
 800174c:	f50d 41ca 	add.w	r1, sp, #25856	; 0x6500
 8001750:	4610      	mov	r0, r2
 8001752:	3138      	adds	r1, #56	; 0x38
 8001754:	f001 f8d9 	bl	800290a <PQCLEAN_DILITHIUM2_CLEAN_polyveck_decompose>
    PQCLEAN_DILITHIUM2_CLEAN_polyveck_pack_w1(sig, &w1);
 8001758:	f50d 41aa 	add.w	r1, sp, #21760	; 0x5500
 800175c:	3138      	adds	r1, #56	; 0x38
 800175e:	4620      	mov	r0, r4
 8001760:	f001 f909 	bl	8002976 <PQCLEAN_DILITHIUM2_CLEAN_polyveck_pack_w1>
    shake256_inc_init(&state);
 8001764:	a805      	add	r0, sp, #20
 8001766:	f002 faa3 	bl	8003cb0 <shake256_inc_init>
    shake256_inc_absorb(&state, mu, CRHBYTES);
 800176a:	2240      	movs	r2, #64	; 0x40
 800176c:	a92e      	add	r1, sp, #184	; 0xb8
 800176e:	a805      	add	r0, sp, #20
 8001770:	f002 faac 	bl	8003ccc <shake256_inc_absorb>
    shake256_inc_absorb(&state, sig, K * POLYW1_PACKEDBYTES);
 8001774:	f44f 7240 	mov.w	r2, #768	; 0x300
 8001778:	4621      	mov	r1, r4
 800177a:	a805      	add	r0, sp, #20
 800177c:	f002 faa6 	bl	8003ccc <shake256_inc_absorb>
    shake256_inc_finalize(&state);
 8001780:	a805      	add	r0, sp, #20
 8001782:	f002 faa9 	bl	8003cd8 <shake256_inc_finalize>
    shake256_inc_squeeze(sig, CTILDEBYTES, &state);
 8001786:	aa05      	add	r2, sp, #20
 8001788:	2120      	movs	r1, #32
 800178a:	4620      	mov	r0, r4
 800178c:	f002 faa9 	bl	8003ce2 <shake256_inc_squeeze>
    shake256_inc_ctx_release(&state);
 8001790:	a805      	add	r0, sp, #20
 8001792:	f002 faaa 	bl	8003cea <shake256_inc_ctx_release>
    PQCLEAN_DILITHIUM2_CLEAN_poly_challenge(&cp, sig); /* uses only the first SEEDBYTES bytes of sig */
 8001796:	4621      	mov	r1, r4
 8001798:	a84e      	add	r0, sp, #312	; 0x138
 800179a:	f000 fc84 	bl	80020a6 <PQCLEAN_DILITHIUM2_CLEAN_poly_challenge>
    PQCLEAN_DILITHIUM2_CLEAN_poly_ntt(&cp);
 800179e:	a84e      	add	r0, sp, #312	; 0x138
 80017a0:	f000 fba1 	bl	8001ee6 <PQCLEAN_DILITHIUM2_CLEAN_poly_ntt>
    PQCLEAN_DILITHIUM2_CLEAN_polyvecl_pointwise_poly_montgomery(&z, &cp, &s1);
 80017a4:	f50d 5014 	add.w	r0, sp, #9472	; 0x2500
 80017a8:	f50d 62a7 	add.w	r2, sp, #1336	; 0x538
 80017ac:	a94e      	add	r1, sp, #312	; 0x138
 80017ae:	3038      	adds	r0, #56	; 0x38
 80017b0:	f000 ffa1 	bl	80026f6 <PQCLEAN_DILITHIUM2_CLEAN_polyvecl_pointwise_poly_montgomery>
    PQCLEAN_DILITHIUM2_CLEAN_polyvecl_invntt_tomont(&z);
 80017b4:	f50d 5014 	add.w	r0, sp, #9472	; 0x2500
 80017b8:	3038      	adds	r0, #56	; 0x38
 80017ba:	f000 ff8a 	bl	80026d2 <PQCLEAN_DILITHIUM2_CLEAN_polyvecl_invntt_tomont>
    PQCLEAN_DILITHIUM2_CLEAN_polyvecl_add(&z, &z, &y);
 80017be:	f50d 5114 	add.w	r1, sp, #9472	; 0x2500
 80017c2:	3138      	adds	r1, #56	; 0x38
 80017c4:	f50d 52a9 	add.w	r2, sp, #5408	; 0x1520
 80017c8:	4608      	mov	r0, r1
 80017ca:	3218      	adds	r2, #24
 80017cc:	f000 ff5f 	bl	800268e <PQCLEAN_DILITHIUM2_CLEAN_polyvecl_add>
    PQCLEAN_DILITHIUM2_CLEAN_polyvecl_reduce(&z);
 80017d0:	f50d 5014 	add.w	r0, sp, #9472	; 0x2500
 80017d4:	3038      	adds	r0, #56	; 0x38
 80017d6:	f000 ff48 	bl	800266a <PQCLEAN_DILITHIUM2_CLEAN_polyvecl_reduce>
    if (PQCLEAN_DILITHIUM2_CLEAN_polyvecl_chknorm(&z, GAMMA1 - BETA)) {
 80017da:	f50d 5014 	add.w	r0, sp, #9472	; 0x2500
 80017de:	4651      	mov	r1, sl
 80017e0:	3038      	adds	r0, #56	; 0x38
 80017e2:	f000 ffc6 	bl	8002772 <PQCLEAN_DILITHIUM2_CLEAN_polyvecl_chknorm>
 80017e6:	2800      	cmp	r0, #0
 80017e8:	d166      	bne.n	80018b8 <PQCLEAN_DILITHIUM2_CLEAN_crypto_sign_signature+0x2b8>
    PQCLEAN_DILITHIUM2_CLEAN_polyveck_pointwise_poly_montgomery(&h, &cp, &s2);
 80017ea:	f50d 40ea 	add.w	r0, sp, #29952	; 0x7500
 80017ee:	463a      	mov	r2, r7
 80017f0:	a94e      	add	r1, sp, #312	; 0x138
 80017f2:	3038      	adds	r0, #56	; 0x38
 80017f4:	f001 f858 	bl	80028a8 <PQCLEAN_DILITHIUM2_CLEAN_polyveck_pointwise_poly_montgomery>
    PQCLEAN_DILITHIUM2_CLEAN_polyveck_invntt_tomont(&h);
 80017f8:	f50d 40ea 	add.w	r0, sp, #29952	; 0x7500
 80017fc:	3038      	adds	r0, #56	; 0x38
 80017fe:	f001 f841 	bl	8002884 <PQCLEAN_DILITHIUM2_CLEAN_polyveck_invntt_tomont>
    PQCLEAN_DILITHIUM2_CLEAN_polyveck_sub(&w0, &w0, &h);
 8001802:	f50d 41ca 	add.w	r1, sp, #25856	; 0x6500
 8001806:	3138      	adds	r1, #56	; 0x38
 8001808:	f50d 42ea 	add.w	r2, sp, #29952	; 0x7500
 800180c:	4608      	mov	r0, r1
 800180e:	3238      	adds	r2, #56	; 0x38
 8001810:	f001 f804 	bl	800281c <PQCLEAN_DILITHIUM2_CLEAN_polyveck_sub>
    PQCLEAN_DILITHIUM2_CLEAN_polyveck_reduce(&w0);
 8001814:	f50d 40ca 	add.w	r0, sp, #25856	; 0x6500
 8001818:	3038      	adds	r0, #56	; 0x38
 800181a:	f000 ffcb 	bl	80027b4 <PQCLEAN_DILITHIUM2_CLEAN_polyveck_reduce>
    if (PQCLEAN_DILITHIUM2_CLEAN_polyveck_chknorm(&w0, GAMMA2 - BETA)) {
 800181e:	f50d 40ca 	add.w	r0, sp, #25856	; 0x6500
 8001822:	4659      	mov	r1, fp
 8001824:	3038      	adds	r0, #56	; 0x38
 8001826:	f001 f84f 	bl	80028c8 <PQCLEAN_DILITHIUM2_CLEAN_polyveck_chknorm>
 800182a:	2800      	cmp	r0, #0
 800182c:	d144      	bne.n	80018b8 <PQCLEAN_DILITHIUM2_CLEAN_crypto_sign_signature+0x2b8>
        goto rej;
    }

    /* Compute hints for w1 */
    PQCLEAN_DILITHIUM2_CLEAN_polyveck_pointwise_poly_montgomery(&h, &cp, &t0);
 800182e:	f50d 5254 	add.w	r2, sp, #13568	; 0x3500
 8001832:	f50d 40ea 	add.w	r0, sp, #29952	; 0x7500
 8001836:	3238      	adds	r2, #56	; 0x38
 8001838:	a94e      	add	r1, sp, #312	; 0x138
 800183a:	3038      	adds	r0, #56	; 0x38
 800183c:	f001 f834 	bl	80028a8 <PQCLEAN_DILITHIUM2_CLEAN_polyveck_pointwise_poly_montgomery>
    PQCLEAN_DILITHIUM2_CLEAN_polyveck_invntt_tomont(&h);
 8001840:	f50d 40ea 	add.w	r0, sp, #29952	; 0x7500
 8001844:	3038      	adds	r0, #56	; 0x38
 8001846:	f001 f81d 	bl	8002884 <PQCLEAN_DILITHIUM2_CLEAN_polyveck_invntt_tomont>
    PQCLEAN_DILITHIUM2_CLEAN_polyveck_reduce(&h);
 800184a:	f50d 40ea 	add.w	r0, sp, #29952	; 0x7500
 800184e:	3038      	adds	r0, #56	; 0x38
 8001850:	f000 ffb0 	bl	80027b4 <PQCLEAN_DILITHIUM2_CLEAN_polyveck_reduce>
    if (PQCLEAN_DILITHIUM2_CLEAN_polyveck_chknorm(&h, GAMMA2)) {
 8001854:	f50d 40ea 	add.w	r0, sp, #29952	; 0x7500
 8001858:	f44f 31ba 	mov.w	r1, #95232	; 0x17400
 800185c:	3038      	adds	r0, #56	; 0x38
 800185e:	f001 f833 	bl	80028c8 <PQCLEAN_DILITHIUM2_CLEAN_polyveck_chknorm>
 8001862:	4605      	mov	r5, r0
 8001864:	bb40      	cbnz	r0, 80018b8 <PQCLEAN_DILITHIUM2_CLEAN_crypto_sign_signature+0x2b8>
        goto rej;
    }

    PQCLEAN_DILITHIUM2_CLEAN_polyveck_add(&w0, &w0, &h);
 8001866:	f50d 41ca 	add.w	r1, sp, #25856	; 0x6500
 800186a:	3138      	adds	r1, #56	; 0x38
 800186c:	f50d 42ea 	add.w	r2, sp, #29952	; 0x7500
 8001870:	4608      	mov	r0, r1
 8001872:	3238      	adds	r2, #56	; 0x38
 8001874:	f000 ffc2 	bl	80027fc <PQCLEAN_DILITHIUM2_CLEAN_polyveck_add>
    n = PQCLEAN_DILITHIUM2_CLEAN_polyveck_make_hint(&h, &w0, &w1);
 8001878:	f50d 42aa 	add.w	r2, sp, #21760	; 0x5500
 800187c:	f50d 41ca 	add.w	r1, sp, #25856	; 0x6500
 8001880:	f50d 40ea 	add.w	r0, sp, #29952	; 0x7500
 8001884:	3238      	adds	r2, #56	; 0x38
 8001886:	3138      	adds	r1, #56	; 0x38
 8001888:	3038      	adds	r0, #56	; 0x38
 800188a:	f001 f84e 	bl	800292a <PQCLEAN_DILITHIUM2_CLEAN_polyveck_make_hint>
    if (n > OMEGA) {
 800188e:	2850      	cmp	r0, #80	; 0x50
 8001890:	d812      	bhi.n	80018b8 <PQCLEAN_DILITHIUM2_CLEAN_crypto_sign_signature+0x2b8>
        goto rej;
    }

    /* Write signature */
    PQCLEAN_DILITHIUM2_CLEAN_pack_sig(sig, sig, &z, &h);
 8001892:	f50d 43ea 	add.w	r3, sp, #29952	; 0x7500
 8001896:	f50d 5214 	add.w	r2, sp, #9472	; 0x2500
 800189a:	4620      	mov	r0, r4
 800189c:	3338      	adds	r3, #56	; 0x38
 800189e:	3238      	adds	r2, #56	; 0x38
 80018a0:	4621      	mov	r1, r4
 80018a2:	f000 f9f3 	bl	8001c8c <PQCLEAN_DILITHIUM2_CLEAN_pack_sig>
    *siglen = PQCLEAN_DILITHIUM2_CLEAN_CRYPTO_BYTES;
 80018a6:	f640 1374 	movw	r3, #2420	; 0x974
    return 0;
}
 80018aa:	4628      	mov	r0, r5
    *siglen = PQCLEAN_DILITHIUM2_CLEAN_CRYPTO_BYTES;
 80018ac:	6033      	str	r3, [r6, #0]
}
 80018ae:	f50d 4d45 	add.w	sp, sp, #50432	; 0xc500
 80018b2:	b00f      	add	sp, #60	; 0x3c
 80018b4:	e8bd 8ff0 	ldmia.w	sp!, {r4, r5, r6, r7, r8, r9, sl, fp, pc}
 80018b8:	f108 0801 	add.w	r8, r8, #1
 80018bc:	e712      	b.n	80016e4 <PQCLEAN_DILITHIUM2_CLEAN_crypto_sign_signature+0xe4>
 80018be:	bf00      	nop
 80018c0:	0001ffb2 	.word	0x0001ffb2
 80018c4:	000173b2 	.word	0x000173b2

080018c8 <PQCLEAN_DILITHIUM2_CLEAN_crypto_sign>:
**************************************************/
int PQCLEAN_DILITHIUM2_CLEAN_crypto_sign(uint8_t *sm,
        size_t *smlen,
        const uint8_t *m,
        size_t mlen,
        const uint8_t *sk,uint8_t *p) {
 80018c8:	b573      	push	{r0, r1, r4, r5, r6, lr}
 80018ca:	460d      	mov	r5, r1
 80018cc:	461c      	mov	r4, r3
 80018ce:	18d1      	adds	r1, r2, r3
 80018d0:	f603 1374 	addw	r3, r3, #2420	; 0x974
 80018d4:	4403      	add	r3, r0
    size_t i;

    for (i = 0; i < mlen; ++i) {
 80018d6:	4291      	cmp	r1, r2
 80018d8:	d10f      	bne.n	80018fa <PQCLEAN_DILITHIUM2_CLEAN_crypto_sign+0x32>
        sm[PQCLEAN_DILITHIUM2_CLEAN_CRYPTO_BYTES + mlen - 1 - i] = m[mlen - 1 - i];
    }
    PQCLEAN_DILITHIUM2_CLEAN_crypto_sign_signature(sm, smlen, sm + PQCLEAN_DILITHIUM2_CLEAN_CRYPTO_BYTES, mlen, sk,p);
 80018da:	9b07      	ldr	r3, [sp, #28]
 80018dc:	9301      	str	r3, [sp, #4]
 80018de:	9b06      	ldr	r3, [sp, #24]
 80018e0:	9300      	str	r3, [sp, #0]
 80018e2:	f600 1274 	addw	r2, r0, #2420	; 0x974
 80018e6:	4623      	mov	r3, r4
 80018e8:	4629      	mov	r1, r5
 80018ea:	f7ff fe89 	bl	8001600 <PQCLEAN_DILITHIUM2_CLEAN_crypto_sign_signature>
    *smlen += mlen;
 80018ee:	682b      	ldr	r3, [r5, #0]
    return 0;
}
 80018f0:	2000      	movs	r0, #0
    *smlen += mlen;
 80018f2:	4423      	add	r3, r4
 80018f4:	602b      	str	r3, [r5, #0]
}
 80018f6:	b002      	add	sp, #8
 80018f8:	bd70      	pop	{r4, r5, r6, pc}
        sm[PQCLEAN_DILITHIUM2_CLEAN_CRYPTO_BYTES + mlen - 1 - i] = m[mlen - 1 - i];
 80018fa:	f811 6d01 	ldrb.w	r6, [r1, #-1]!
 80018fe:	f803 6d01 	strb.w	r6, [r3, #-1]!
    for (i = 0; i < mlen; ++i) {
 8001902:	e7e8      	b.n	80018d6 <PQCLEAN_DILITHIUM2_CLEAN_crypto_sign+0xe>

08001904 <PQCLEAN_DILITHIUM2_CLEAN_crypto_sign_verify>:
**************************************************/
int PQCLEAN_DILITHIUM2_CLEAN_crypto_sign_verify(const uint8_t *sig,
        size_t siglen,
        const uint8_t *m,
        size_t mlen,
        const uint8_t *pk,uint8_t *p) {
 8001904:	b5f0      	push	{r4, r5, r6, r7, lr}
 8001906:	f5ad 4d07 	sub.w	sp, sp, #34560	; 0x8700
 800190a:	b0ad      	sub	sp, #180	; 0xb4
 800190c:	461e      	mov	r6, r3
 800190e:	f50d 4307 	add.w	r3, sp, #34560	; 0x8700
 8001912:	33c8      	adds	r3, #200	; 0xc8
 8001914:	681f      	ldr	r7, [r3, #0]
    poly cp;
    polyvecl mat[K], z;
    polyveck t1, w1, h;
    shake256incctx state;

    if (siglen != PQCLEAN_DILITHIUM2_CLEAN_CRYPTO_BYTES) {
 8001916:	f640 1374 	movw	r3, #2420	; 0x974
 800191a:	4299      	cmp	r1, r3
        const uint8_t *pk,uint8_t *p) {
 800191c:	4604      	mov	r4, r0
 800191e:	4615      	mov	r5, r2
    if (siglen != PQCLEAN_DILITHIUM2_CLEAN_CRYPTO_BYTES) {
 8001920:	f040 80ba 	bne.w	8001a98 <PQCLEAN_DILITHIUM2_CLEAN_crypto_sign_verify+0x194>
        return -1;
    }

    PQCLEAN_DILITHIUM2_CLEAN_unpack_pk(rho, &t1, pk);
 8001924:	f50d 51bd 	add.w	r1, sp, #6048	; 0x17a0
 8001928:	463a      	mov	r2, r7
 800192a:	3110      	adds	r1, #16
 800192c:	a804      	add	r0, sp, #16
 800192e:	f000 f903 	bl	8001b38 <PQCLEAN_DILITHIUM2_CLEAN_unpack_pk>
    if (PQCLEAN_DILITHIUM2_CLEAN_unpack_sig(c, &z, &h, sig)) {
 8001932:	f50d 525e 	add.w	r2, sp, #14208	; 0x3780
 8001936:	4623      	mov	r3, r4
 8001938:	3230      	adds	r2, #48	; 0x30
 800193a:	f50d 61f6 	add.w	r1, sp, #1968	; 0x7b0
 800193e:	a80c      	add	r0, sp, #48	; 0x30
 8001940:	f000 f9df 	bl	8001d02 <PQCLEAN_DILITHIUM2_CLEAN_unpack_sig>
 8001944:	2800      	cmp	r0, #0
 8001946:	f040 80a7 	bne.w	8001a98 <PQCLEAN_DILITHIUM2_CLEAN_crypto_sign_verify+0x194>
        return -1;
    }
    if (PQCLEAN_DILITHIUM2_CLEAN_polyvecl_chknorm(&z, GAMMA1 - BETA)) {
 800194a:	4955      	ldr	r1, [pc, #340]	; (8001aa0 <PQCLEAN_DILITHIUM2_CLEAN_crypto_sign_verify+0x19c>)
 800194c:	f50d 60f6 	add.w	r0, sp, #1968	; 0x7b0
 8001950:	f000 ff0f 	bl	8002772 <PQCLEAN_DILITHIUM2_CLEAN_polyvecl_chknorm>
 8001954:	4604      	mov	r4, r0
 8001956:	2800      	cmp	r0, #0
 8001958:	f040 809e 	bne.w	8001a98 <PQCLEAN_DILITHIUM2_CLEAN_crypto_sign_verify+0x194>
        return -1;
    }

    /* Compute CRH(H(rho, t1), msg) */
    shake256(mu, CRHBYTES, pk, PQCLEAN_DILITHIUM2_CLEAN_CRYPTO_PUBLICKEYBYTES);
 800195c:	f44f 63a4 	mov.w	r3, #1312	; 0x520
 8001960:	463a      	mov	r2, r7
 8001962:	2140      	movs	r1, #64	; 0x40
 8001964:	a81c      	add	r0, sp, #112	; 0x70
 8001966:	f002 f9df 	bl	8003d28 <shake256>
    shake256_inc_init(&state);
 800196a:	a803      	add	r0, sp, #12
 800196c:	f002 f9a0 	bl	8003cb0 <shake256_inc_init>
    shake256_inc_absorb(&state, mu, CRHBYTES);
 8001970:	2240      	movs	r2, #64	; 0x40
 8001972:	a91c      	add	r1, sp, #112	; 0x70
 8001974:	a803      	add	r0, sp, #12
 8001976:	f002 f9a9 	bl	8003ccc <shake256_inc_absorb>
    shake256_inc_absorb(&state, m, mlen);
 800197a:	4632      	mov	r2, r6
 800197c:	4629      	mov	r1, r5
 800197e:	a803      	add	r0, sp, #12
 8001980:	f002 f9a4 	bl	8003ccc <shake256_inc_absorb>
    shake256_inc_finalize(&state);
 8001984:	a803      	add	r0, sp, #12
 8001986:	f002 f9a7 	bl	8003cd8 <shake256_inc_finalize>
    shake256_inc_squeeze(mu, CRHBYTES, &state);
 800198a:	aa03      	add	r2, sp, #12
 800198c:	2140      	movs	r1, #64	; 0x40
 800198e:	a81c      	add	r0, sp, #112	; 0x70
 8001990:	f002 f9a7 	bl	8003ce2 <shake256_inc_squeeze>
    shake256_inc_ctx_release(&state);
 8001994:	a803      	add	r0, sp, #12
 8001996:	f002 f9a8 	bl	8003cea <shake256_inc_ctx_release>

    /* Matrix-vector multiplication; compute Az - c2^dt1 */
    PQCLEAN_DILITHIUM2_CLEAN_poly_challenge(&cp, c); /* uses only the first SEEDBYTES bytes of c */
 800199a:	a90c      	add	r1, sp, #48	; 0x30
 800199c:	a8ec      	add	r0, sp, #944	; 0x3b0
 800199e:	f000 fb82 	bl	80020a6 <PQCLEAN_DILITHIUM2_CLEAN_poly_challenge>
    PQCLEAN_DILITHIUM2_CLEAN_polyvec_matrix_expand(mat, rho);
 80019a2:	f50d 408f 	add.w	r0, sp, #18304	; 0x4780
 80019a6:	a904      	add	r1, sp, #16
 80019a8:	3030      	adds	r0, #48	; 0x30
 80019aa:	f000 fe24 	bl	80025f6 <PQCLEAN_DILITHIUM2_CLEAN_polyvec_matrix_expand>

    PQCLEAN_DILITHIUM2_CLEAN_polyvecl_ntt(&z);
 80019ae:	f50d 60f6 	add.w	r0, sp, #1968	; 0x7b0
 80019b2:	f000 fe7c 	bl	80026ae <PQCLEAN_DILITHIUM2_CLEAN_polyvecl_ntt>
    PQCLEAN_DILITHIUM2_CLEAN_polyvec_matrix_pointwise_montgomery(&w1, mat, &z);
 80019b6:	f50d 418f 	add.w	r1, sp, #18304	; 0x4780
 80019ba:	f50d 501e 	add.w	r0, sp, #10112	; 0x2780
 80019be:	f50d 62f6 	add.w	r2, sp, #1968	; 0x7b0
 80019c2:	3130      	adds	r1, #48	; 0x30
 80019c4:	3030      	adds	r0, #48	; 0x30
 80019c6:	f000 fec2 	bl	800274e <PQCLEAN_DILITHIUM2_CLEAN_polyvec_matrix_pointwise_montgomery>

    PQCLEAN_DILITHIUM2_CLEAN_poly_ntt(&cp);
 80019ca:	a8ec      	add	r0, sp, #944	; 0x3b0
 80019cc:	f000 fa8b 	bl	8001ee6 <PQCLEAN_DILITHIUM2_CLEAN_poly_ntt>
    PQCLEAN_DILITHIUM2_CLEAN_polyveck_shiftl(&t1);
 80019d0:	f50d 50bd 	add.w	r0, sp, #6048	; 0x17a0
 80019d4:	3010      	adds	r0, #16
 80019d6:	f000 ff31 	bl	800283c <PQCLEAN_DILITHIUM2_CLEAN_polyveck_shiftl>
    PQCLEAN_DILITHIUM2_CLEAN_polyveck_ntt(&t1);
 80019da:	f50d 50bd 	add.w	r0, sp, #6048	; 0x17a0
 80019de:	3010      	adds	r0, #16
 80019e0:	f000 ff3e 	bl	8002860 <PQCLEAN_DILITHIUM2_CLEAN_polyveck_ntt>
    PQCLEAN_DILITHIUM2_CLEAN_polyveck_pointwise_poly_montgomery(&t1, &cp, &t1);
 80019e4:	f50d 52bd 	add.w	r2, sp, #6048	; 0x17a0
 80019e8:	3210      	adds	r2, #16
 80019ea:	4610      	mov	r0, r2
 80019ec:	a9ec      	add	r1, sp, #944	; 0x3b0
 80019ee:	f000 ff5b 	bl	80028a8 <PQCLEAN_DILITHIUM2_CLEAN_polyveck_pointwise_poly_montgomery>

    PQCLEAN_DILITHIUM2_CLEAN_polyveck_sub(&w1, &w1, &t1);
 80019f2:	f50d 511e 	add.w	r1, sp, #10112	; 0x2780
 80019f6:	3130      	adds	r1, #48	; 0x30
 80019f8:	f50d 52bd 	add.w	r2, sp, #6048	; 0x17a0
 80019fc:	4608      	mov	r0, r1
 80019fe:	3210      	adds	r2, #16
 8001a00:	f000 ff0c 	bl	800281c <PQCLEAN_DILITHIUM2_CLEAN_polyveck_sub>
    PQCLEAN_DILITHIUM2_CLEAN_polyveck_reduce(&w1);
 8001a04:	f50d 501e 	add.w	r0, sp, #10112	; 0x2780
 8001a08:	3030      	adds	r0, #48	; 0x30
 8001a0a:	f000 fed3 	bl	80027b4 <PQCLEAN_DILITHIUM2_CLEAN_polyveck_reduce>
    PQCLEAN_DILITHIUM2_CLEAN_polyveck_invntt_tomont(&w1);
 8001a0e:	f50d 501e 	add.w	r0, sp, #10112	; 0x2780
 8001a12:	3030      	adds	r0, #48	; 0x30
 8001a14:	f000 ff36 	bl	8002884 <PQCLEAN_DILITHIUM2_CLEAN_polyveck_invntt_tomont>

    /* Reconstruct w1 */
    PQCLEAN_DILITHIUM2_CLEAN_polyveck_caddq(&w1);
 8001a18:	f50d 501e 	add.w	r0, sp, #10112	; 0x2780
 8001a1c:	3030      	adds	r0, #48	; 0x30
 8001a1e:	f000 fedb 	bl	80027d8 <PQCLEAN_DILITHIUM2_CLEAN_polyveck_caddq>
    PQCLEAN_DILITHIUM2_CLEAN_polyveck_use_hint(&w1, &w1, &h);
 8001a22:	f50d 511e 	add.w	r1, sp, #10112	; 0x2780
 8001a26:	3130      	adds	r1, #48	; 0x30
 8001a28:	f50d 525e 	add.w	r2, sp, #14208	; 0x3780
 8001a2c:	3230      	adds	r2, #48	; 0x30
 8001a2e:	4608      	mov	r0, r1
 8001a30:	f000 ff91 	bl	8002956 <PQCLEAN_DILITHIUM2_CLEAN_polyveck_use_hint>
    PQCLEAN_DILITHIUM2_CLEAN_polyveck_pack_w1(buf, &w1);
 8001a34:	f50d 511e 	add.w	r1, sp, #10112	; 0x2780
 8001a38:	3130      	adds	r1, #48	; 0x30
 8001a3a:	a82c      	add	r0, sp, #176	; 0xb0
 8001a3c:	f000 ff9b 	bl	8002976 <PQCLEAN_DILITHIUM2_CLEAN_polyveck_pack_w1>

    /* Call random oracle and verify PQCLEAN_DILITHIUM2_CLEAN_challenge */
    shake256_inc_init(&state);
 8001a40:	a803      	add	r0, sp, #12
 8001a42:	f002 f935 	bl	8003cb0 <shake256_inc_init>
    shake256_inc_absorb(&state, mu, CRHBYTES);
 8001a46:	2240      	movs	r2, #64	; 0x40
 8001a48:	a91c      	add	r1, sp, #112	; 0x70
 8001a4a:	a803      	add	r0, sp, #12
 8001a4c:	f002 f93e 	bl	8003ccc <shake256_inc_absorb>
    shake256_inc_absorb(&state, buf, K * POLYW1_PACKEDBYTES);
 8001a50:	f44f 7240 	mov.w	r2, #768	; 0x300
 8001a54:	a92c      	add	r1, sp, #176	; 0xb0
 8001a56:	a803      	add	r0, sp, #12
 8001a58:	f002 f938 	bl	8003ccc <shake256_inc_absorb>
    shake256_inc_finalize(&state);
 8001a5c:	a803      	add	r0, sp, #12
 8001a5e:	f002 f93b 	bl	8003cd8 <shake256_inc_finalize>
    shake256_inc_squeeze(c2, CTILDEBYTES, &state);
 8001a62:	ab14      	add	r3, sp, #80	; 0x50
 8001a64:	4618      	mov	r0, r3
 8001a66:	aa03      	add	r2, sp, #12
 8001a68:	2120      	movs	r1, #32
 8001a6a:	9301      	str	r3, [sp, #4]
 8001a6c:	f002 f939 	bl	8003ce2 <shake256_inc_squeeze>
    shake256_inc_ctx_release(&state);
 8001a70:	a803      	add	r0, sp, #12
 8001a72:	f002 f93a 	bl	8003cea <shake256_inc_ctx_release>
    for (i = 0; i < CTILDEBYTES; ++i) {
 8001a76:	9a01      	ldr	r2, [sp, #4]
 8001a78:	ab0c      	add	r3, sp, #48	; 0x30
 8001a7a:	4621      	mov	r1, r4
        if (c[i] != c2[i]) {
 8001a7c:	f813 5b01 	ldrb.w	r5, [r3], #1
 8001a80:	f812 0b01 	ldrb.w	r0, [r2], #1
 8001a84:	4285      	cmp	r5, r0
 8001a86:	d107      	bne.n	8001a98 <PQCLEAN_DILITHIUM2_CLEAN_crypto_sign_verify+0x194>
    for (i = 0; i < CTILDEBYTES; ++i) {
 8001a88:	3101      	adds	r1, #1
 8001a8a:	2920      	cmp	r1, #32
 8001a8c:	d1f6      	bne.n	8001a7c <PQCLEAN_DILITHIUM2_CLEAN_crypto_sign_verify+0x178>
            return -1;
        }
    }
    return 0;
}
 8001a8e:	4620      	mov	r0, r4
 8001a90:	f50d 4d07 	add.w	sp, sp, #34560	; 0x8700
 8001a94:	b02d      	add	sp, #180	; 0xb4
 8001a96:	bdf0      	pop	{r4, r5, r6, r7, pc}
        return -1;
 8001a98:	f04f 34ff 	mov.w	r4, #4294967295
 8001a9c:	e7f7      	b.n	8001a8e <PQCLEAN_DILITHIUM2_CLEAN_crypto_sign_verify+0x18a>
 8001a9e:	bf00      	nop
 8001aa0:	0001ffb2 	.word	0x0001ffb2

08001aa4 <PQCLEAN_DILITHIUM2_CLEAN_crypto_sign_open>:
**************************************************/
int PQCLEAN_DILITHIUM2_CLEAN_crypto_sign_open(uint8_t *m,
        size_t *mlen,
        const uint8_t *sm,
        size_t smlen,
        const uint8_t *pk,uint8_t *p) {
 8001aa4:	b5f7      	push	{r0, r1, r2, r4, r5, r6, r7, lr}
 8001aa6:	461d      	mov	r5, r3
    size_t i;

    if (smlen < PQCLEAN_DILITHIUM2_CLEAN_CRYPTO_BYTES) {
 8001aa8:	f640 1373 	movw	r3, #2419	; 0x973
 8001aac:	429d      	cmp	r5, r3
        const uint8_t *pk,uint8_t *p) {
 8001aae:	4607      	mov	r7, r0
 8001ab0:	460e      	mov	r6, r1
 8001ab2:	4614      	mov	r4, r2
    if (smlen < PQCLEAN_DILITHIUM2_CLEAN_CRYPTO_BYTES) {
 8001ab4:	d91b      	bls.n	8001aee <PQCLEAN_DILITHIUM2_CLEAN_crypto_sign_open+0x4a>
        goto badsig;
    }

    *mlen = smlen - PQCLEAN_DILITHIUM2_CLEAN_CRYPTO_BYTES;
    if (PQCLEAN_DILITHIUM2_CLEAN_crypto_sign_verify(sm, PQCLEAN_DILITHIUM2_CLEAN_CRYPTO_BYTES, sm + PQCLEAN_DILITHIUM2_CLEAN_CRYPTO_BYTES, *mlen, pk,p)) {
 8001ab6:	9a09      	ldr	r2, [sp, #36]	; 0x24
    *mlen = smlen - PQCLEAN_DILITHIUM2_CLEAN_CRYPTO_BYTES;
 8001ab8:	f6a5 1374 	subw	r3, r5, #2420	; 0x974
 8001abc:	600b      	str	r3, [r1, #0]
    if (PQCLEAN_DILITHIUM2_CLEAN_crypto_sign_verify(sm, PQCLEAN_DILITHIUM2_CLEAN_CRYPTO_BYTES, sm + PQCLEAN_DILITHIUM2_CLEAN_CRYPTO_BYTES, *mlen, pk,p)) {
 8001abe:	9201      	str	r2, [sp, #4]
 8001ac0:	9a08      	ldr	r2, [sp, #32]
 8001ac2:	9200      	str	r2, [sp, #0]
 8001ac4:	f640 1174 	movw	r1, #2420	; 0x974
 8001ac8:	f604 1274 	addw	r2, r4, #2420	; 0x974
 8001acc:	4620      	mov	r0, r4
 8001ace:	f7ff ff19 	bl	8001904 <PQCLEAN_DILITHIUM2_CLEAN_crypto_sign_verify>
 8001ad2:	b960      	cbnz	r0, 8001aee <PQCLEAN_DILITHIUM2_CLEAN_crypto_sign_open+0x4a>
 8001ad4:	f604 1473 	addw	r4, r4, #2419	; 0x973
        goto badsig;
    } else {
        /* All good, copy msg, return 0 */
        for (i = 0; i < *mlen; ++i) {
 8001ad8:	4603      	mov	r3, r0
 8001ada:	6832      	ldr	r2, [r6, #0]
 8001adc:	429a      	cmp	r2, r3
 8001ade:	d801      	bhi.n	8001ae4 <PQCLEAN_DILITHIUM2_CLEAN_crypto_sign_open+0x40>
    for (i = 0; i < smlen; ++i) {
        m[i] = 0;
    }

    return -1;
}
 8001ae0:	b003      	add	sp, #12
 8001ae2:	bdf0      	pop	{r4, r5, r6, r7, pc}
            m[i] = sm[PQCLEAN_DILITHIUM2_CLEAN_CRYPTO_BYTES + i];
 8001ae4:	f814 2f01 	ldrb.w	r2, [r4, #1]!
 8001ae8:	54fa      	strb	r2, [r7, r3]
        for (i = 0; i < *mlen; ++i) {
 8001aea:	3301      	adds	r3, #1
 8001aec:	e7f5      	b.n	8001ada <PQCLEAN_DILITHIUM2_CLEAN_crypto_sign_open+0x36>
    *mlen = (size_t) -1;
 8001aee:	f04f 34ff 	mov.w	r4, #4294967295
 8001af2:	6034      	str	r4, [r6, #0]
        m[i] = 0;
 8001af4:	462a      	mov	r2, r5
 8001af6:	2100      	movs	r1, #0
 8001af8:	4638      	mov	r0, r7
 8001afa:	f003 fce7 	bl	80054cc <memset>
    return -1;
 8001afe:	4620      	mov	r0, r4
 8001b00:	e7ee      	b.n	8001ae0 <PQCLEAN_DILITHIUM2_CLEAN_crypto_sign_open+0x3c>

08001b02 <PQCLEAN_DILITHIUM2_CLEAN_pack_pk>:
*              - const uint8_t rho[]: byte array containing rho
*              - const polyveck *t1: pointer to vector t1
**************************************************/
void PQCLEAN_DILITHIUM2_CLEAN_pack_pk(uint8_t pk[PQCLEAN_DILITHIUM2_CLEAN_CRYPTO_PUBLICKEYBYTES],
                                      const uint8_t rho[SEEDBYTES],
                                      const polyveck *t1) {
 8001b02:	b570      	push	{r4, r5, r6, lr}
 8001b04:	4603      	mov	r3, r0
 8001b06:	4615      	mov	r5, r2
 8001b08:	3801      	subs	r0, #1
 8001b0a:	1e4a      	subs	r2, r1, #1
 8001b0c:	311f      	adds	r1, #31
    unsigned int i;

    for (i = 0; i < SEEDBYTES; ++i) {
        pk[i] = rho[i];
 8001b0e:	f812 4f01 	ldrb.w	r4, [r2, #1]!
 8001b12:	f800 4f01 	strb.w	r4, [r0, #1]!
    for (i = 0; i < SEEDBYTES; ++i) {
 8001b16:	428a      	cmp	r2, r1
 8001b18:	d1f9      	bne.n	8001b0e <PQCLEAN_DILITHIUM2_CLEAN_pack_pk+0xc>
 8001b1a:	f103 0620 	add.w	r6, r3, #32
 8001b1e:	f503 64a4 	add.w	r4, r3, #1312	; 0x520
    }
    pk += SEEDBYTES;

    for (i = 0; i < K; ++i) {
        PQCLEAN_DILITHIUM2_CLEAN_polyt1_pack(pk + i * POLYT1_PACKEDBYTES, &t1->vec[i]);
 8001b22:	4629      	mov	r1, r5
 8001b24:	4630      	mov	r0, r6
    for (i = 0; i < K; ++i) {
 8001b26:	f506 76a0 	add.w	r6, r6, #320	; 0x140
        PQCLEAN_DILITHIUM2_CLEAN_polyt1_pack(pk + i * POLYT1_PACKEDBYTES, &t1->vec[i]);
 8001b2a:	f000 fbaa 	bl	8002282 <PQCLEAN_DILITHIUM2_CLEAN_polyt1_pack>
    for (i = 0; i < K; ++i) {
 8001b2e:	42a6      	cmp	r6, r4
 8001b30:	f505 6580 	add.w	r5, r5, #1024	; 0x400
 8001b34:	d1f5      	bne.n	8001b22 <PQCLEAN_DILITHIUM2_CLEAN_pack_pk+0x20>
    }
}
 8001b36:	bd70      	pop	{r4, r5, r6, pc}

08001b38 <PQCLEAN_DILITHIUM2_CLEAN_unpack_pk>:
*              - const polyveck *t1: pointer to output vector t1
*              - uint8_t pk[]: byte array containing bit-packed pk
**************************************************/
void PQCLEAN_DILITHIUM2_CLEAN_unpack_pk(uint8_t rho[SEEDBYTES],
                                        polyveck *t1,
                                        const uint8_t pk[PQCLEAN_DILITHIUM2_CLEAN_CRYPTO_PUBLICKEYBYTES]) {
 8001b38:	b570      	push	{r4, r5, r6, lr}
 8001b3a:	1e53      	subs	r3, r2, #1
 8001b3c:	460d      	mov	r5, r1
 8001b3e:	3801      	subs	r0, #1
 8001b40:	f102 011f 	add.w	r1, r2, #31
    unsigned int i;

    for (i = 0; i < SEEDBYTES; ++i) {
        rho[i] = pk[i];
 8001b44:	f813 4f01 	ldrb.w	r4, [r3, #1]!
 8001b48:	f800 4f01 	strb.w	r4, [r0, #1]!
    for (i = 0; i < SEEDBYTES; ++i) {
 8001b4c:	428b      	cmp	r3, r1
 8001b4e:	d1f9      	bne.n	8001b44 <PQCLEAN_DILITHIUM2_CLEAN_unpack_pk+0xc>
 8001b50:	f102 0620 	add.w	r6, r2, #32
 8001b54:	f502 64a4 	add.w	r4, r2, #1312	; 0x520
    }
    pk += SEEDBYTES;

    for (i = 0; i < K; ++i) {
        PQCLEAN_DILITHIUM2_CLEAN_polyt1_unpack(&t1->vec[i], pk + i * POLYT1_PACKEDBYTES);
 8001b58:	4631      	mov	r1, r6
 8001b5a:	4628      	mov	r0, r5
    for (i = 0; i < K; ++i) {
 8001b5c:	f506 76a0 	add.w	r6, r6, #320	; 0x140
        PQCLEAN_DILITHIUM2_CLEAN_polyt1_unpack(&t1->vec[i], pk + i * POLYT1_PACKEDBYTES);
 8001b60:	f000 fbaf 	bl	80022c2 <PQCLEAN_DILITHIUM2_CLEAN_polyt1_unpack>
    for (i = 0; i < K; ++i) {
 8001b64:	42a6      	cmp	r6, r4
 8001b66:	f505 6580 	add.w	r5, r5, #1024	; 0x400
 8001b6a:	d1f5      	bne.n	8001b58 <PQCLEAN_DILITHIUM2_CLEAN_unpack_pk+0x20>
    }
}
 8001b6c:	bd70      	pop	{r4, r5, r6, pc}

08001b6e <PQCLEAN_DILITHIUM2_CLEAN_pack_sk>:
                                      const uint8_t rho[SEEDBYTES],
                                      const uint8_t tr[TRBYTES],
                                      const uint8_t key[SEEDBYTES],
                                      const polyveck *t0,
                                      const polyvecl *s1,
                                      const polyveck *s2) {
 8001b6e:	b5f8      	push	{r3, r4, r5, r6, r7, lr}
 8001b70:	4605      	mov	r5, r0
    unsigned int i;

    for (i = 0; i < SEEDBYTES; ++i) {
 8001b72:	1e6c      	subs	r4, r5, #1
 8001b74:	1e48      	subs	r0, r1, #1
 8001b76:	311f      	adds	r1, #31
        sk[i] = rho[i];
 8001b78:	f810 6f01 	ldrb.w	r6, [r0, #1]!
 8001b7c:	f804 6f01 	strb.w	r6, [r4, #1]!
    for (i = 0; i < SEEDBYTES; ++i) {
 8001b80:	4288      	cmp	r0, r1
 8001b82:	d1f9      	bne.n	8001b78 <PQCLEAN_DILITHIUM2_CLEAN_pack_sk+0xa>
 8001b84:	1e59      	subs	r1, r3, #1
 8001b86:	f105 001f 	add.w	r0, r5, #31
 8001b8a:	331f      	adds	r3, #31
    }
    sk += SEEDBYTES;

    for (i = 0; i < SEEDBYTES; ++i) {
        sk[i] = key[i];
 8001b8c:	f811 4f01 	ldrb.w	r4, [r1, #1]!
 8001b90:	f800 4f01 	strb.w	r4, [r0, #1]!
    for (i = 0; i < SEEDBYTES; ++i) {
 8001b94:	4299      	cmp	r1, r3
 8001b96:	d1f9      	bne.n	8001b8c <PQCLEAN_DILITHIUM2_CLEAN_pack_sk+0x1e>
    }
    sk += SEEDBYTES;

    for (i = 0; i < TRBYTES; ++i) {
 8001b98:	1e53      	subs	r3, r2, #1
 8001b9a:	f105 013f 	add.w	r1, r5, #63	; 0x3f
 8001b9e:	323f      	adds	r2, #63	; 0x3f
        sk[i] = tr[i];
 8001ba0:	f813 0f01 	ldrb.w	r0, [r3, #1]!
 8001ba4:	f801 0f01 	strb.w	r0, [r1, #1]!
    for (i = 0; i < TRBYTES; ++i) {
 8001ba8:	4293      	cmp	r3, r2
 8001baa:	d1f9      	bne.n	8001ba0 <PQCLEAN_DILITHIUM2_CLEAN_pack_sk+0x32>
    }
    sk += TRBYTES;

    for (i = 0; i < L; ++i) {
 8001bac:	9e07      	ldr	r6, [sp, #28]
 8001bae:	f105 0480 	add.w	r4, r5, #128	; 0x80
 8001bb2:	f505 7700 	add.w	r7, r5, #512	; 0x200
        PQCLEAN_DILITHIUM2_CLEAN_polyeta_pack(sk + i * POLYETA_PACKEDBYTES, &s1->vec[i]);
 8001bb6:	4631      	mov	r1, r6
 8001bb8:	4620      	mov	r0, r4
    for (i = 0; i < L; ++i) {
 8001bba:	3460      	adds	r4, #96	; 0x60
        PQCLEAN_DILITHIUM2_CLEAN_polyeta_pack(sk + i * POLYETA_PACKEDBYTES, &s1->vec[i]);
 8001bbc:	f000 fad0 	bl	8002160 <PQCLEAN_DILITHIUM2_CLEAN_polyeta_pack>
    for (i = 0; i < L; ++i) {
 8001bc0:	42bc      	cmp	r4, r7
 8001bc2:	f506 6680 	add.w	r6, r6, #1024	; 0x400
 8001bc6:	d1f6      	bne.n	8001bb6 <PQCLEAN_DILITHIUM2_CLEAN_pack_sk+0x48>
    }
    sk += L * POLYETA_PACKEDBYTES;

    for (i = 0; i < K; ++i) {
 8001bc8:	9e08      	ldr	r6, [sp, #32]
 8001bca:	f505 7760 	add.w	r7, r5, #896	; 0x380
        PQCLEAN_DILITHIUM2_CLEAN_polyeta_pack(sk + i * POLYETA_PACKEDBYTES, &s2->vec[i]);
 8001bce:	4631      	mov	r1, r6
 8001bd0:	4620      	mov	r0, r4
    for (i = 0; i < K; ++i) {
 8001bd2:	3460      	adds	r4, #96	; 0x60
        PQCLEAN_DILITHIUM2_CLEAN_polyeta_pack(sk + i * POLYETA_PACKEDBYTES, &s2->vec[i]);
 8001bd4:	f000 fac4 	bl	8002160 <PQCLEAN_DILITHIUM2_CLEAN_polyeta_pack>
    for (i = 0; i < K; ++i) {
 8001bd8:	42bc      	cmp	r4, r7
 8001bda:	f506 6680 	add.w	r6, r6, #1024	; 0x400
 8001bde:	d1f6      	bne.n	8001bce <PQCLEAN_DILITHIUM2_CLEAN_pack_sk+0x60>
    }
    sk += K * POLYETA_PACKEDBYTES;

    for (i = 0; i < K; ++i) {
 8001be0:	9e06      	ldr	r6, [sp, #24]
 8001be2:	f505 6520 	add.w	r5, r5, #2560	; 0xa00
        PQCLEAN_DILITHIUM2_CLEAN_polyt0_pack(sk + i * POLYT0_PACKEDBYTES, &t0->vec[i]);
 8001be6:	4631      	mov	r1, r6
 8001be8:	4620      	mov	r0, r4
    for (i = 0; i < K; ++i) {
 8001bea:	f504 74d0 	add.w	r4, r4, #416	; 0x1a0
        PQCLEAN_DILITHIUM2_CLEAN_polyt0_pack(sk + i * POLYT0_PACKEDBYTES, &t0->vec[i]);
 8001bee:	f000 fb8e 	bl	800230e <PQCLEAN_DILITHIUM2_CLEAN_polyt0_pack>
    for (i = 0; i < K; ++i) {
 8001bf2:	42ac      	cmp	r4, r5
 8001bf4:	f506 6680 	add.w	r6, r6, #1024	; 0x400
 8001bf8:	d1f5      	bne.n	8001be6 <PQCLEAN_DILITHIUM2_CLEAN_pack_sk+0x78>
    }
}
 8001bfa:	bdf8      	pop	{r3, r4, r5, r6, r7, pc}

08001bfc <PQCLEAN_DILITHIUM2_CLEAN_unpack_sk>:
                                        uint8_t tr[TRBYTES],
                                        uint8_t key[SEEDBYTES],
                                        polyveck *t0,
                                        polyvecl *s1,
                                        polyveck *s2,
                                        const uint8_t sk[PQCLEAN_DILITHIUM2_CLEAN_CRYPTO_SECRETKEYBYTES]) {
 8001bfc:	e92d 41f0 	stmdb	sp!, {r4, r5, r6, r7, r8, lr}
 8001c00:	9d08      	ldr	r5, [sp, #32]
 8001c02:	461e      	mov	r6, r3
 8001c04:	1e6c      	subs	r4, r5, #1
 8001c06:	3801      	subs	r0, #1
 8001c08:	f105 031f 	add.w	r3, r5, #31
    unsigned int i;

    for (i = 0; i < SEEDBYTES; ++i) {
        rho[i] = sk[i];
 8001c0c:	f814 7f01 	ldrb.w	r7, [r4, #1]!
 8001c10:	f800 7f01 	strb.w	r7, [r0, #1]!
    for (i = 0; i < SEEDBYTES; ++i) {
 8001c14:	429c      	cmp	r4, r3
 8001c16:	d1f9      	bne.n	8001c0c <PQCLEAN_DILITHIUM2_CLEAN_unpack_sk+0x10>
 8001c18:	3a01      	subs	r2, #1
 8001c1a:	f105 033f 	add.w	r3, r5, #63	; 0x3f
    }
    sk += SEEDBYTES;

    for (i = 0; i < SEEDBYTES; ++i) {
        key[i] = sk[i];
 8001c1e:	f814 0f01 	ldrb.w	r0, [r4, #1]!
 8001c22:	f802 0f01 	strb.w	r0, [r2, #1]!
    for (i = 0; i < SEEDBYTES; ++i) {
 8001c26:	429c      	cmp	r4, r3
 8001c28:	d1f9      	bne.n	8001c1e <PQCLEAN_DILITHIUM2_CLEAN_unpack_sk+0x22>
    }
    sk += SEEDBYTES;

    for (i = 0; i < TRBYTES; ++i) {
 8001c2a:	3901      	subs	r1, #1
 8001c2c:	f105 037f 	add.w	r3, r5, #127	; 0x7f
        tr[i] = sk[i];
 8001c30:	f814 2f01 	ldrb.w	r2, [r4, #1]!
 8001c34:	f801 2f01 	strb.w	r2, [r1, #1]!
    for (i = 0; i < TRBYTES; ++i) {
 8001c38:	429c      	cmp	r4, r3
 8001c3a:	d1f9      	bne.n	8001c30 <PQCLEAN_DILITHIUM2_CLEAN_unpack_sk+0x34>
    }
    sk += TRBYTES;

    for (i = 0; i < L; ++i) {
 8001c3c:	9f06      	ldr	r7, [sp, #24]
 8001c3e:	f105 0480 	add.w	r4, r5, #128	; 0x80
 8001c42:	f505 7800 	add.w	r8, r5, #512	; 0x200
        PQCLEAN_DILITHIUM2_CLEAN_polyeta_unpack(&s1->vec[i], sk + i * POLYETA_PACKEDBYTES);
 8001c46:	4621      	mov	r1, r4
 8001c48:	4638      	mov	r0, r7
    for (i = 0; i < L; ++i) {
 8001c4a:	3460      	adds	r4, #96	; 0x60
        PQCLEAN_DILITHIUM2_CLEAN_polyeta_unpack(&s1->vec[i], sk + i * POLYETA_PACKEDBYTES);
 8001c4c:	f000 faca 	bl	80021e4 <PQCLEAN_DILITHIUM2_CLEAN_polyeta_unpack>
    for (i = 0; i < L; ++i) {
 8001c50:	4544      	cmp	r4, r8
 8001c52:	f507 6780 	add.w	r7, r7, #1024	; 0x400
 8001c56:	d1f6      	bne.n	8001c46 <PQCLEAN_DILITHIUM2_CLEAN_unpack_sk+0x4a>
    }
    sk += L * POLYETA_PACKEDBYTES;

    for (i = 0; i < K; ++i) {
 8001c58:	9f07      	ldr	r7, [sp, #28]
 8001c5a:	f505 7860 	add.w	r8, r5, #896	; 0x380
        PQCLEAN_DILITHIUM2_CLEAN_polyeta_unpack(&s2->vec[i], sk + i * POLYETA_PACKEDBYTES);
 8001c5e:	4621      	mov	r1, r4
 8001c60:	4638      	mov	r0, r7
    for (i = 0; i < K; ++i) {
 8001c62:	3460      	adds	r4, #96	; 0x60
        PQCLEAN_DILITHIUM2_CLEAN_polyeta_unpack(&s2->vec[i], sk + i * POLYETA_PACKEDBYTES);
 8001c64:	f000 fabe 	bl	80021e4 <PQCLEAN_DILITHIUM2_CLEAN_polyeta_unpack>
    for (i = 0; i < K; ++i) {
 8001c68:	4544      	cmp	r4, r8
 8001c6a:	f507 6780 	add.w	r7, r7, #1024	; 0x400
 8001c6e:	d1f6      	bne.n	8001c5e <PQCLEAN_DILITHIUM2_CLEAN_unpack_sk+0x62>
    }
    sk += K * POLYETA_PACKEDBYTES;

    for (i = 0; i < K; ++i) {
 8001c70:	f505 6520 	add.w	r5, r5, #2560	; 0xa00
        PQCLEAN_DILITHIUM2_CLEAN_polyt0_unpack(&t0->vec[i], sk + i * POLYT0_PACKEDBYTES);
 8001c74:	4621      	mov	r1, r4
 8001c76:	4630      	mov	r0, r6
    for (i = 0; i < K; ++i) {
 8001c78:	f504 74d0 	add.w	r4, r4, #416	; 0x1a0
        PQCLEAN_DILITHIUM2_CLEAN_polyt0_unpack(&t0->vec[i], sk + i * POLYT0_PACKEDBYTES);
 8001c7c:	f000 fb95 	bl	80023aa <PQCLEAN_DILITHIUM2_CLEAN_polyt0_unpack>
    for (i = 0; i < K; ++i) {
 8001c80:	42ac      	cmp	r4, r5
 8001c82:	f506 6680 	add.w	r6, r6, #1024	; 0x400
 8001c86:	d1f5      	bne.n	8001c74 <PQCLEAN_DILITHIUM2_CLEAN_unpack_sk+0x78>
    }
}
 8001c88:	e8bd 81f0 	ldmia.w	sp!, {r4, r5, r6, r7, r8, pc}

08001c8c <PQCLEAN_DILITHIUM2_CLEAN_pack_sig>:
*              - const polyveck *h: pointer to hint vector h
**************************************************/
void PQCLEAN_DILITHIUM2_CLEAN_pack_sig(uint8_t sig[PQCLEAN_DILITHIUM2_CLEAN_CRYPTO_BYTES],
                                       const uint8_t c[CTILDEBYTES],
                                       const polyvecl *z,
                                       const polyveck *h) {
 8001c8c:	e92d 41f0 	stmdb	sp!, {r4, r5, r6, r7, r8, lr}
 8001c90:	4615      	mov	r5, r2
 8001c92:	461e      	mov	r6, r3
 8001c94:	4604      	mov	r4, r0
    unsigned int i, j, k;

    for (i = 0; i < CTILDEBYTES; ++i) {
 8001c96:	1e4b      	subs	r3, r1, #1
 8001c98:	1e42      	subs	r2, r0, #1
 8001c9a:	311f      	adds	r1, #31
        sig[i] = c[i];
 8001c9c:	f813 0f01 	ldrb.w	r0, [r3, #1]!
 8001ca0:	f802 0f01 	strb.w	r0, [r2, #1]!
    for (i = 0; i < CTILDEBYTES; ++i) {
 8001ca4:	428b      	cmp	r3, r1
 8001ca6:	d1f9      	bne.n	8001c9c <PQCLEAN_DILITHIUM2_CLEAN_pack_sig+0x10>
 8001ca8:	f104 0720 	add.w	r7, r4, #32
 8001cac:	f504 6812 	add.w	r8, r4, #2336	; 0x920
    }
    sig += CTILDEBYTES;

    for (i = 0; i < L; ++i) {
        PQCLEAN_DILITHIUM2_CLEAN_polyz_pack(sig + i * POLYZ_PACKEDBYTES, &z->vec[i]);
 8001cb0:	4629      	mov	r1, r5
 8001cb2:	4638      	mov	r0, r7
    for (i = 0; i < L; ++i) {
 8001cb4:	f507 7710 	add.w	r7, r7, #576	; 0x240
        PQCLEAN_DILITHIUM2_CLEAN_polyz_pack(sig + i * POLYZ_PACKEDBYTES, &z->vec[i]);
 8001cb8:	f000 fbf6 	bl	80024a8 <PQCLEAN_DILITHIUM2_CLEAN_polyz_pack>
    for (i = 0; i < L; ++i) {
 8001cbc:	4547      	cmp	r7, r8
 8001cbe:	f505 6580 	add.w	r5, r5, #1024	; 0x400
 8001cc2:	d1f5      	bne.n	8001cb0 <PQCLEAN_DILITHIUM2_CLEAN_pack_sig+0x24>
    }
    sig += L * POLYZ_PACKEDBYTES;

    /* Encode h */
    for (i = 0; i < OMEGA + K; ++i) {
        sig[i] = 0;
 8001cc4:	2100      	movs	r1, #0
 8001cc6:	2254      	movs	r2, #84	; 0x54
 8001cc8:	4640      	mov	r0, r8
 8001cca:	f003 fbff 	bl	80054cc <memset>
 8001cce:	f604 106f 	addw	r0, r4, #2415	; 0x96f
 8001cd2:	4633      	mov	r3, r6
 8001cd4:	f604 1473 	addw	r4, r4, #2419	; 0x973
    }

    k = 0;
 8001cd8:	2100      	movs	r1, #0
                                       const polyveck *h) {
 8001cda:	461d      	mov	r5, r3
    for (i = 0; i < K; ++i) {
        for (j = 0; j < N; ++j) {
 8001cdc:	2200      	movs	r2, #0
            if (h->vec[i].coeffs[j] != 0) {
 8001cde:	f855 6b04 	ldr.w	r6, [r5], #4
 8001ce2:	b116      	cbz	r6, 8001cea <PQCLEAN_DILITHIUM2_CLEAN_pack_sig+0x5e>
                sig[k++] = (uint8_t) j;
 8001ce4:	f808 2001 	strb.w	r2, [r8, r1]
 8001ce8:	3101      	adds	r1, #1
        for (j = 0; j < N; ++j) {
 8001cea:	3201      	adds	r2, #1
 8001cec:	f5b2 7f80 	cmp.w	r2, #256	; 0x100
 8001cf0:	d1f5      	bne.n	8001cde <PQCLEAN_DILITHIUM2_CLEAN_pack_sig+0x52>
            }
        }

        sig[OMEGA + i] = (uint8_t) k;
 8001cf2:	f800 1f01 	strb.w	r1, [r0, #1]!
    for (i = 0; i < K; ++i) {
 8001cf6:	42a0      	cmp	r0, r4
 8001cf8:	f503 6380 	add.w	r3, r3, #1024	; 0x400
 8001cfc:	d1ed      	bne.n	8001cda <PQCLEAN_DILITHIUM2_CLEAN_pack_sig+0x4e>
    }
}
 8001cfe:	e8bd 81f0 	ldmia.w	sp!, {r4, r5, r6, r7, r8, pc}

08001d02 <PQCLEAN_DILITHIUM2_CLEAN_unpack_sig>:
* Returns 1 in case of malformed signature; otherwise 0.
**************************************************/
int PQCLEAN_DILITHIUM2_CLEAN_unpack_sig(uint8_t c[CTILDEBYTES],
                                        polyvecl *z,
                                        polyveck *h,
                                        const uint8_t sig[PQCLEAN_DILITHIUM2_CLEAN_CRYPTO_BYTES]) {
 8001d02:	e92d 47f0 	stmdb	sp!, {r4, r5, r6, r7, r8, r9, sl, lr}
 8001d06:	461c      	mov	r4, r3
 8001d08:	4617      	mov	r7, r2
 8001d0a:	460d      	mov	r5, r1
 8001d0c:	3b01      	subs	r3, #1
 8001d0e:	3801      	subs	r0, #1
 8001d10:	f104 021f 	add.w	r2, r4, #31
    unsigned int i, j, k;

    for (i = 0; i < CTILDEBYTES; ++i) {
        c[i] = sig[i];
 8001d14:	f813 1f01 	ldrb.w	r1, [r3, #1]!
 8001d18:	f800 1f01 	strb.w	r1, [r0, #1]!
    for (i = 0; i < CTILDEBYTES; ++i) {
 8001d1c:	4293      	cmp	r3, r2
 8001d1e:	d1f9      	bne.n	8001d14 <PQCLEAN_DILITHIUM2_CLEAN_unpack_sig+0x12>
 8001d20:	f104 0620 	add.w	r6, r4, #32
 8001d24:	f504 6812 	add.w	r8, r4, #2336	; 0x920
    }
    sig += CTILDEBYTES;

    for (i = 0; i < L; ++i) {
        PQCLEAN_DILITHIUM2_CLEAN_polyz_unpack(&z->vec[i], sig + i * POLYZ_PACKEDBYTES);
 8001d28:	4631      	mov	r1, r6
 8001d2a:	4628      	mov	r0, r5
    for (i = 0; i < L; ++i) {
 8001d2c:	f506 7610 	add.w	r6, r6, #576	; 0x240
        PQCLEAN_DILITHIUM2_CLEAN_polyz_unpack(&z->vec[i], sig + i * POLYZ_PACKEDBYTES);
 8001d30:	f000 fbe6 	bl	8002500 <PQCLEAN_DILITHIUM2_CLEAN_polyz_unpack>
    for (i = 0; i < L; ++i) {
 8001d34:	4546      	cmp	r6, r8
 8001d36:	f505 6580 	add.w	r5, r5, #1024	; 0x400
 8001d3a:	d1f5      	bne.n	8001d28 <PQCLEAN_DILITHIUM2_CLEAN_unpack_sig+0x26>
    }
    sig += L * POLYZ_PACKEDBYTES;

    /* Decode h */
    k = 0;
 8001d3c:	2500      	movs	r5, #0
 8001d3e:	f604 196f 	addw	r9, r4, #2415	; 0x96f
    for (i = 0; i < K; ++i) {
 8001d42:	462e      	mov	r6, r5
        for (j = k; j < sig[OMEGA + i]; ++j) {
            /* Coefficients are ordered for strong unforgeability */
            if (j > k && sig[j] <= sig[j - 1]) {
                return 1;
            }
            h->vec[i].coeffs[sig[j]] = 1;
 8001d44:	f04f 0a01 	mov.w	sl, #1
            h->vec[i].coeffs[j] = 0;
 8001d48:	f44f 6280 	mov.w	r2, #1024	; 0x400
 8001d4c:	2100      	movs	r1, #0
 8001d4e:	eb07 2086 	add.w	r0, r7, r6, lsl #10
 8001d52:	f003 fbbb 	bl	80054cc <memset>
        if (sig[OMEGA + i] < k || sig[OMEGA + i] > OMEGA) {
 8001d56:	f819 3f01 	ldrb.w	r3, [r9, #1]!
 8001d5a:	42ab      	cmp	r3, r5
 8001d5c:	d202      	bcs.n	8001d64 <PQCLEAN_DILITHIUM2_CLEAN_unpack_sig+0x62>
            return 1;
 8001d5e:	2001      	movs	r0, #1
            return 1;
        }
    }

    return 0;
}
 8001d60:	e8bd 87f0 	ldmia.w	sp!, {r4, r5, r6, r7, r8, r9, sl, pc}
        if (sig[OMEGA + i] < k || sig[OMEGA + i] > OMEGA) {
 8001d64:	2b50      	cmp	r3, #80	; 0x50
 8001d66:	d8fa      	bhi.n	8001d5e <PQCLEAN_DILITHIUM2_CLEAN_unpack_sig+0x5c>
 8001d68:	f605 111f 	addw	r1, r5, #2335	; 0x91f
 8001d6c:	4421      	add	r1, r4
 8001d6e:	462a      	mov	r2, r5
            h->vec[i].coeffs[sig[j]] = 1;
 8001d70:	0230      	lsls	r0, r6, #8
        for (j = k; j < sig[OMEGA + i]; ++j) {
 8001d72:	f899 3000 	ldrb.w	r3, [r9]
 8001d76:	4293      	cmp	r3, r2
 8001d78:	d804      	bhi.n	8001d84 <PQCLEAN_DILITHIUM2_CLEAN_unpack_sig+0x82>
    for (i = 0; i < K; ++i) {
 8001d7a:	3601      	adds	r6, #1
 8001d7c:	2e04      	cmp	r6, #4
 8001d7e:	d014      	beq.n	8001daa <PQCLEAN_DILITHIUM2_CLEAN_unpack_sig+0xa8>
        for (j = k; j < sig[OMEGA + i]; ++j) {
 8001d80:	461d      	mov	r5, r3
 8001d82:	e7e1      	b.n	8001d48 <PQCLEAN_DILITHIUM2_CLEAN_unpack_sig+0x46>
            if (j > k && sig[j] <= sig[j - 1]) {
 8001d84:	42aa      	cmp	r2, r5
 8001d86:	d904      	bls.n	8001d92 <PQCLEAN_DILITHIUM2_CLEAN_unpack_sig+0x90>
 8001d88:	f891 c000 	ldrb.w	ip, [r1]
 8001d8c:	784b      	ldrb	r3, [r1, #1]
 8001d8e:	459c      	cmp	ip, r3
 8001d90:	d2e5      	bcs.n	8001d5e <PQCLEAN_DILITHIUM2_CLEAN_unpack_sig+0x5c>
            h->vec[i].coeffs[sig[j]] = 1;
 8001d92:	f811 3f01 	ldrb.w	r3, [r1, #1]!
 8001d96:	4403      	add	r3, r0
        for (j = k; j < sig[OMEGA + i]; ++j) {
 8001d98:	3201      	adds	r2, #1
            h->vec[i].coeffs[sig[j]] = 1;
 8001d9a:	f847 a023 	str.w	sl, [r7, r3, lsl #2]
        for (j = k; j < sig[OMEGA + i]; ++j) {
 8001d9e:	e7e8      	b.n	8001d72 <PQCLEAN_DILITHIUM2_CLEAN_unpack_sig+0x70>
        if (sig[j]) {
 8001da0:	f818 2003 	ldrb.w	r2, [r8, r3]
 8001da4:	2a00      	cmp	r2, #0
 8001da6:	d1da      	bne.n	8001d5e <PQCLEAN_DILITHIUM2_CLEAN_unpack_sig+0x5c>
    for (j = k; j < OMEGA; ++j) {
 8001da8:	3301      	adds	r3, #1
 8001daa:	2b4f      	cmp	r3, #79	; 0x4f
 8001dac:	d9f8      	bls.n	8001da0 <PQCLEAN_DILITHIUM2_CLEAN_unpack_sig+0x9e>
    return 0;
 8001dae:	2000      	movs	r0, #0
 8001db0:	e7d6      	b.n	8001d60 <PQCLEAN_DILITHIUM2_CLEAN_unpack_sig+0x5e>
 8001db2:	0000      	movs	r0, r0

08001db4 <rej_uniform>:
* random bytes were given.
**************************************************/
static unsigned int rej_uniform(int32_t *a,
                                unsigned int len,
                                const uint8_t *buf,
                                unsigned int buflen) {
 8001db4:	b5f0      	push	{r4, r5, r6, r7, lr}
        t  = buf[pos++];
        t |= (uint32_t)buf[pos++] << 8;
        t |= (uint32_t)buf[pos++] << 16;
        t &= 0x7FFFFF;

        if (t < Q) {
 8001db6:	4f0f      	ldr	r7, [pc, #60]	; (8001df4 <rej_uniform+0x40>)
                                unsigned int buflen) {
 8001db8:	4605      	mov	r5, r0
    while (ctr < len && pos + 3 <= buflen) {
 8001dba:	f1c2 0603 	rsb	r6, r2, #3
    ctr = pos = 0;
 8001dbe:	2000      	movs	r0, #0
    while (ctr < len && pos + 3 <= buflen) {
 8001dc0:	18b4      	adds	r4, r6, r2
 8001dc2:	42a3      	cmp	r3, r4
 8001dc4:	d314      	bcc.n	8001df0 <rej_uniform+0x3c>
        t |= (uint32_t)buf[pos++] << 16;
 8001dc6:	7894      	ldrb	r4, [r2, #2]
        t |= (uint32_t)buf[pos++] << 8;
 8001dc8:	f892 e001 	ldrb.w	lr, [r2, #1]
        t  = buf[pos++];
 8001dcc:	f892 c000 	ldrb.w	ip, [r2]
        t |= (uint32_t)buf[pos++] << 16;
 8001dd0:	0424      	lsls	r4, r4, #16
 8001dd2:	ea44 240e 	orr.w	r4, r4, lr, lsl #8
 8001dd6:	ea44 040c 	orr.w	r4, r4, ip
        t &= 0x7FFFFF;
 8001dda:	f3c4 0416 	ubfx	r4, r4, #0, #23
        if (t < Q) {
 8001dde:	42bc      	cmp	r4, r7
            a[ctr++] = t;
 8001de0:	bf9c      	itt	ls
 8001de2:	f845 4020 	strls.w	r4, [r5, r0, lsl #2]
 8001de6:	3001      	addls	r0, #1
    while (ctr < len && pos + 3 <= buflen) {
 8001de8:	4281      	cmp	r1, r0
 8001dea:	f102 0203 	add.w	r2, r2, #3
 8001dee:	d8e7      	bhi.n	8001dc0 <rej_uniform+0xc>
        }
    }

    DBENCH_STOP(*tsample);
    return ctr;
}
 8001df0:	bdf0      	pop	{r4, r5, r6, r7, pc}
 8001df2:	bf00      	nop
 8001df4:	007fe000 	.word	0x007fe000

08001df8 <rej_eta.constprop.0>:
*              - unsigned int buflen: length of array of random bytes
*
* Returns number of sampled coefficients. Can be smaller than len if not enough
* random bytes were given.
**************************************************/
static unsigned int rej_eta(int32_t *a,
 8001df8:	b5f0      	push	{r4, r5, r6, r7, lr}
        if (t0 < 15) {
            t0 = t0 - (205 * t0 >> 10) * 5;
            a[ctr++] = 2 - t0;
        }
        if (t1 < 15 && ctr < len) {
            t1 = t1 - (205 * t1 >> 10) * 5;
 8001dfa:	f04f 0ccd 	mov.w	ip, #205	; 0xcd
static unsigned int rej_eta(int32_t *a,
 8001dfe:	4606      	mov	r6, r0
    while (ctr < len && pos < buflen) {
 8001e00:	1e57      	subs	r7, r2, #1
 8001e02:	f102 0487 	add.w	r4, r2, #135	; 0x87
    ctr = pos = 0;
 8001e06:	2000      	movs	r0, #0
        t0 = buf[pos] & 0x0F;
 8001e08:	f817 3f01 	ldrb.w	r3, [r7, #1]!
 8001e0c:	f003 0e0f 	and.w	lr, r3, #15
        if (t0 < 15) {
 8001e10:	f1be 0f0f 	cmp.w	lr, #15
        t1 = buf[pos++] >> 4;
 8001e14:	ea4f 1313 	mov.w	r3, r3, lsr #4
        if (t0 < 15) {
 8001e18:	d023      	beq.n	8001e62 <rej_eta.constprop.0+0x6a>
            t0 = t0 - (205 * t0 >> 10) * 5;
 8001e1a:	fb1e f20c 	smulbb	r2, lr, ip
 8001e1e:	0a92      	lsrs	r2, r2, #10
 8001e20:	eb02 0282 	add.w	r2, r2, r2, lsl #2
            a[ctr++] = 2 - t0;
 8001e24:	f1ce 0e02 	rsb	lr, lr, #2
 8001e28:	4472      	add	r2, lr
        if (t1 < 15 && ctr < len) {
 8001e2a:	2b0f      	cmp	r3, #15
            a[ctr++] = 2 - t0;
 8001e2c:	f846 2020 	str.w	r2, [r6, r0, lsl #2]
 8001e30:	f100 0501 	add.w	r5, r0, #1
        if (t1 < 15 && ctr < len) {
 8001e34:	d011      	beq.n	8001e5a <rej_eta.constprop.0+0x62>
 8001e36:	428d      	cmp	r5, r1
 8001e38:	d211      	bcs.n	8001e5e <rej_eta.constprop.0+0x66>
            t1 = t1 - (205 * t1 >> 10) * 5;
 8001e3a:	fb13 f20c 	smulbb	r2, r3, ip
 8001e3e:	0a92      	lsrs	r2, r2, #10
 8001e40:	eb02 0282 	add.w	r2, r2, r2, lsl #2
            a[ctr++] = 2 - t1;
 8001e44:	f1c3 0302 	rsb	r3, r3, #2
 8001e48:	441a      	add	r2, r3
 8001e4a:	f846 2025 	str.w	r2, [r6, r5, lsl #2]
 8001e4e:	1c68      	adds	r0, r5, #1
    while (ctr < len && pos < buflen) {
 8001e50:	4281      	cmp	r1, r0
 8001e52:	d901      	bls.n	8001e58 <rej_eta.constprop.0+0x60>
 8001e54:	42a7      	cmp	r7, r4
 8001e56:	d1d7      	bne.n	8001e08 <rej_eta.constprop.0+0x10>
        }
    }

    DBENCH_STOP(*tsample);
    return ctr;
}
 8001e58:	bdf0      	pop	{r4, r5, r6, r7, pc}
            a[ctr++] = 2 - t0;
 8001e5a:	4628      	mov	r0, r5
 8001e5c:	e7f8      	b.n	8001e50 <rej_eta.constprop.0+0x58>
 8001e5e:	4628      	mov	r0, r5
    return ctr;
 8001e60:	e7fa      	b.n	8001e58 <rej_eta.constprop.0+0x60>
        if (t1 < 15 && ctr < len) {
 8001e62:	2b0f      	cmp	r3, #15
 8001e64:	d0f4      	beq.n	8001e50 <rej_eta.constprop.0+0x58>
 8001e66:	4605      	mov	r5, r0
 8001e68:	e7e7      	b.n	8001e3a <rej_eta.constprop.0+0x42>

08001e6a <PQCLEAN_DILITHIUM2_CLEAN_poly_reduce>:
void PQCLEAN_DILITHIUM2_CLEAN_poly_reduce(poly *a) {
 8001e6a:	b538      	push	{r3, r4, r5, lr}
 8001e6c:	1f05      	subs	r5, r0, #4
 8001e6e:	f500 747f 	add.w	r4, r0, #1020	; 0x3fc
        a->coeffs[i] = PQCLEAN_DILITHIUM2_CLEAN_reduce32(a->coeffs[i]);
 8001e72:	f855 0f04 	ldr.w	r0, [r5, #4]!
 8001e76:	f001 ff89 	bl	8003d8c <PQCLEAN_DILITHIUM2_CLEAN_reduce32>
    for (i = 0; i < N; ++i) {
 8001e7a:	42a5      	cmp	r5, r4
        a->coeffs[i] = PQCLEAN_DILITHIUM2_CLEAN_reduce32(a->coeffs[i]);
 8001e7c:	6028      	str	r0, [r5, #0]
    for (i = 0; i < N; ++i) {
 8001e7e:	d1f8      	bne.n	8001e72 <PQCLEAN_DILITHIUM2_CLEAN_poly_reduce+0x8>
}
 8001e80:	bd38      	pop	{r3, r4, r5, pc}

08001e82 <PQCLEAN_DILITHIUM2_CLEAN_poly_caddq>:
void PQCLEAN_DILITHIUM2_CLEAN_poly_caddq(poly *a) {
 8001e82:	b538      	push	{r3, r4, r5, lr}
 8001e84:	1f05      	subs	r5, r0, #4
 8001e86:	f500 747f 	add.w	r4, r0, #1020	; 0x3fc
        a->coeffs[i] = PQCLEAN_DILITHIUM2_CLEAN_caddq(a->coeffs[i]);
 8001e8a:	f855 0f04 	ldr.w	r0, [r5, #4]!
 8001e8e:	f001 ff87 	bl	8003da0 <PQCLEAN_DILITHIUM2_CLEAN_caddq>
    for (i = 0; i < N; ++i) {
 8001e92:	42a5      	cmp	r5, r4
        a->coeffs[i] = PQCLEAN_DILITHIUM2_CLEAN_caddq(a->coeffs[i]);
 8001e94:	6028      	str	r0, [r5, #0]
    for (i = 0; i < N; ++i) {
 8001e96:	d1f8      	bne.n	8001e8a <PQCLEAN_DILITHIUM2_CLEAN_poly_caddq+0x8>
}
 8001e98:	bd38      	pop	{r3, r4, r5, pc}

08001e9a <PQCLEAN_DILITHIUM2_CLEAN_poly_add>:
void PQCLEAN_DILITHIUM2_CLEAN_poly_add(poly *c, const poly *a, const poly *b)  {
 8001e9a:	b530      	push	{r4, r5, lr}
    for (i = 0; i < N; ++i) {
 8001e9c:	2300      	movs	r3, #0
        c->coeffs[i] = a->coeffs[i] + b->coeffs[i];
 8001e9e:	f851 4023 	ldr.w	r4, [r1, r3, lsl #2]
 8001ea2:	f852 5023 	ldr.w	r5, [r2, r3, lsl #2]
 8001ea6:	442c      	add	r4, r5
 8001ea8:	f840 4023 	str.w	r4, [r0, r3, lsl #2]
    for (i = 0; i < N; ++i) {
 8001eac:	3301      	adds	r3, #1
 8001eae:	f5b3 7f80 	cmp.w	r3, #256	; 0x100
 8001eb2:	d1f4      	bne.n	8001e9e <PQCLEAN_DILITHIUM2_CLEAN_poly_add+0x4>
}
 8001eb4:	bd30      	pop	{r4, r5, pc}

08001eb6 <PQCLEAN_DILITHIUM2_CLEAN_poly_sub>:
void PQCLEAN_DILITHIUM2_CLEAN_poly_sub(poly *c, const poly *a, const poly *b) {
 8001eb6:	b530      	push	{r4, r5, lr}
    for (i = 0; i < N; ++i) {
 8001eb8:	2300      	movs	r3, #0
        c->coeffs[i] = a->coeffs[i] - b->coeffs[i];
 8001eba:	f851 4023 	ldr.w	r4, [r1, r3, lsl #2]
 8001ebe:	f852 5023 	ldr.w	r5, [r2, r3, lsl #2]
 8001ec2:	1b64      	subs	r4, r4, r5
 8001ec4:	f840 4023 	str.w	r4, [r0, r3, lsl #2]
    for (i = 0; i < N; ++i) {
 8001ec8:	3301      	adds	r3, #1
 8001eca:	f5b3 7f80 	cmp.w	r3, #256	; 0x100
 8001ece:	d1f4      	bne.n	8001eba <PQCLEAN_DILITHIUM2_CLEAN_poly_sub+0x4>
}
 8001ed0:	bd30      	pop	{r4, r5, pc}

08001ed2 <PQCLEAN_DILITHIUM2_CLEAN_poly_shiftl>:
    for (i = 0; i < N; ++i) {
 8001ed2:	1f03      	subs	r3, r0, #4
 8001ed4:	f500 707f 	add.w	r0, r0, #1020	; 0x3fc
        a->coeffs[i] <<= D;
 8001ed8:	f853 2f04 	ldr.w	r2, [r3, #4]!
 8001edc:	0352      	lsls	r2, r2, #13
    for (i = 0; i < N; ++i) {
 8001ede:	4283      	cmp	r3, r0
        a->coeffs[i] <<= D;
 8001ee0:	601a      	str	r2, [r3, #0]
    for (i = 0; i < N; ++i) {
 8001ee2:	d1f9      	bne.n	8001ed8 <PQCLEAN_DILITHIUM2_CLEAN_poly_shiftl+0x6>
}
 8001ee4:	4770      	bx	lr

08001ee6 <PQCLEAN_DILITHIUM2_CLEAN_poly_ntt>:
    PQCLEAN_DILITHIUM2_CLEAN_ntt(a->coeffs);
 8001ee6:	f001 bf63 	b.w	8003db0 <PQCLEAN_DILITHIUM2_CLEAN_ntt>

08001eea <PQCLEAN_DILITHIUM2_CLEAN_poly_invntt_tomont>:
    PQCLEAN_DILITHIUM2_CLEAN_invntt_tomont(a->coeffs);
 8001eea:	f001 bf9b 	b.w	8003e24 <PQCLEAN_DILITHIUM2_CLEAN_invntt_tomont>

08001eee <PQCLEAN_DILITHIUM2_CLEAN_poly_pointwise_montgomery>:
void PQCLEAN_DILITHIUM2_CLEAN_poly_pointwise_montgomery(poly *c, const poly *a, const poly *b) {
 8001eee:	b5f8      	push	{r3, r4, r5, r6, r7, lr}
 8001ef0:	4605      	mov	r5, r0
 8001ef2:	460f      	mov	r7, r1
 8001ef4:	4616      	mov	r6, r2
    for (i = 0; i < N; ++i) {
 8001ef6:	2400      	movs	r4, #0
        c->coeffs[i] = PQCLEAN_DILITHIUM2_CLEAN_montgomery_reduce((int64_t)a->coeffs[i] * b->coeffs[i]);
 8001ef8:	f857 1024 	ldr.w	r1, [r7, r4, lsl #2]
 8001efc:	f856 0024 	ldr.w	r0, [r6, r4, lsl #2]
 8001f00:	fb81 0100 	smull	r0, r1, r1, r0
 8001f04:	f001 ff34 	bl	8003d70 <PQCLEAN_DILITHIUM2_CLEAN_montgomery_reduce>
 8001f08:	f845 0024 	str.w	r0, [r5, r4, lsl #2]
    for (i = 0; i < N; ++i) {
 8001f0c:	3401      	adds	r4, #1
 8001f0e:	f5b4 7f80 	cmp.w	r4, #256	; 0x100
 8001f12:	d1f1      	bne.n	8001ef8 <PQCLEAN_DILITHIUM2_CLEAN_poly_pointwise_montgomery+0xa>
}
 8001f14:	bdf8      	pop	{r3, r4, r5, r6, r7, pc}

08001f16 <PQCLEAN_DILITHIUM2_CLEAN_poly_power2round>:
void PQCLEAN_DILITHIUM2_CLEAN_poly_power2round(poly *a1, poly *a0, const poly *a) {
 8001f16:	b5f8      	push	{r3, r4, r5, r6, r7, lr}
 8001f18:	4605      	mov	r5, r0
 8001f1a:	460e      	mov	r6, r1
 8001f1c:	4617      	mov	r7, r2
 8001f1e:	2400      	movs	r4, #0
        a1->coeffs[i] = PQCLEAN_DILITHIUM2_CLEAN_power2round(&a0->coeffs[i], a->coeffs[i]);
 8001f20:	5939      	ldr	r1, [r7, r4]
 8001f22:	1930      	adds	r0, r6, r4
 8001f24:	f000 fd36 	bl	8002994 <PQCLEAN_DILITHIUM2_CLEAN_power2round>
 8001f28:	5128      	str	r0, [r5, r4]
    for (i = 0; i < N; ++i) {
 8001f2a:	3404      	adds	r4, #4
 8001f2c:	f5b4 6f80 	cmp.w	r4, #1024	; 0x400
 8001f30:	d1f6      	bne.n	8001f20 <PQCLEAN_DILITHIUM2_CLEAN_poly_power2round+0xa>
}
 8001f32:	bdf8      	pop	{r3, r4, r5, r6, r7, pc}

08001f34 <PQCLEAN_DILITHIUM2_CLEAN_poly_decompose>:
void PQCLEAN_DILITHIUM2_CLEAN_poly_decompose(poly *a1, poly *a0, const poly *a) {
 8001f34:	b5f8      	push	{r3, r4, r5, r6, r7, lr}
 8001f36:	4605      	mov	r5, r0
 8001f38:	460e      	mov	r6, r1
 8001f3a:	4617      	mov	r7, r2
 8001f3c:	2400      	movs	r4, #0
        a1->coeffs[i] = PQCLEAN_DILITHIUM2_CLEAN_decompose(&a0->coeffs[i], a->coeffs[i]);
 8001f3e:	5939      	ldr	r1, [r7, r4]
 8001f40:	1930      	adds	r0, r6, r4
 8001f42:	f000 fd31 	bl	80029a8 <PQCLEAN_DILITHIUM2_CLEAN_decompose>
 8001f46:	5128      	str	r0, [r5, r4]
    for (i = 0; i < N; ++i) {
 8001f48:	3404      	adds	r4, #4
 8001f4a:	f5b4 6f80 	cmp.w	r4, #1024	; 0x400
 8001f4e:	d1f6      	bne.n	8001f3e <PQCLEAN_DILITHIUM2_CLEAN_poly_decompose+0xa>
}
 8001f50:	bdf8      	pop	{r3, r4, r5, r6, r7, pc}

08001f52 <PQCLEAN_DILITHIUM2_CLEAN_poly_make_hint>:
unsigned int PQCLEAN_DILITHIUM2_CLEAN_poly_make_hint(poly *h, const poly *a0, const poly *a1) {
 8001f52:	e92d 41f0 	stmdb	sp!, {r4, r5, r6, r7, r8, lr}
    unsigned int i, s = 0;
 8001f56:	2500      	movs	r5, #0
unsigned int PQCLEAN_DILITHIUM2_CLEAN_poly_make_hint(poly *h, const poly *a0, const poly *a1) {
 8001f58:	4606      	mov	r6, r0
 8001f5a:	460f      	mov	r7, r1
 8001f5c:	4690      	mov	r8, r2
    for (i = 0; i < N; ++i) {
 8001f5e:	462c      	mov	r4, r5
        h->coeffs[i] = PQCLEAN_DILITHIUM2_CLEAN_make_hint(a0->coeffs[i], a1->coeffs[i]);
 8001f60:	f858 1024 	ldr.w	r1, [r8, r4, lsl #2]
 8001f64:	f857 0024 	ldr.w	r0, [r7, r4, lsl #2]
 8001f68:	f000 fd40 	bl	80029ec <PQCLEAN_DILITHIUM2_CLEAN_make_hint>
 8001f6c:	f846 0024 	str.w	r0, [r6, r4, lsl #2]
    for (i = 0; i < N; ++i) {
 8001f70:	3401      	adds	r4, #1
 8001f72:	f5b4 7f80 	cmp.w	r4, #256	; 0x100
        s += h->coeffs[i];
 8001f76:	4405      	add	r5, r0
    for (i = 0; i < N; ++i) {
 8001f78:	d1f2      	bne.n	8001f60 <PQCLEAN_DILITHIUM2_CLEAN_poly_make_hint+0xe>
}
 8001f7a:	4628      	mov	r0, r5
 8001f7c:	e8bd 81f0 	ldmia.w	sp!, {r4, r5, r6, r7, r8, pc}

08001f80 <PQCLEAN_DILITHIUM2_CLEAN_poly_use_hint>:
void PQCLEAN_DILITHIUM2_CLEAN_poly_use_hint(poly *b, const poly *a, const poly *h) {
 8001f80:	b5f8      	push	{r3, r4, r5, r6, r7, lr}
 8001f82:	4605      	mov	r5, r0
 8001f84:	460e      	mov	r6, r1
 8001f86:	4617      	mov	r7, r2
    for (i = 0; i < N; ++i) {
 8001f88:	2400      	movs	r4, #0
        b->coeffs[i] = PQCLEAN_DILITHIUM2_CLEAN_use_hint(a->coeffs[i], h->coeffs[i]);
 8001f8a:	f857 1024 	ldr.w	r1, [r7, r4, lsl #2]
 8001f8e:	f856 0024 	ldr.w	r0, [r6, r4, lsl #2]
 8001f92:	f000 fd3b 	bl	8002a0c <PQCLEAN_DILITHIUM2_CLEAN_use_hint>
 8001f96:	f845 0024 	str.w	r0, [r5, r4, lsl #2]
    for (i = 0; i < N; ++i) {
 8001f9a:	3401      	adds	r4, #1
 8001f9c:	f5b4 7f80 	cmp.w	r4, #256	; 0x100
 8001fa0:	d1f3      	bne.n	8001f8a <PQCLEAN_DILITHIUM2_CLEAN_poly_use_hint+0xa>
}
 8001fa2:	bdf8      	pop	{r3, r4, r5, r6, r7, pc}

08001fa4 <PQCLEAN_DILITHIUM2_CLEAN_poly_chknorm>:
    if (B > (Q - 1) / 8) {
 8001fa4:	4b0a      	ldr	r3, [pc, #40]	; (8001fd0 <PQCLEAN_DILITHIUM2_CLEAN_poly_chknorm+0x2c>)
 8001fa6:	4299      	cmp	r1, r3
int PQCLEAN_DILITHIUM2_CLEAN_poly_chknorm(const poly *a, int32_t B) {
 8001fa8:	b510      	push	{r4, lr}
    if (B > (Q - 1) / 8) {
 8001faa:	dc0e      	bgt.n	8001fca <PQCLEAN_DILITHIUM2_CLEAN_poly_chknorm+0x26>
 8001fac:	1f02      	subs	r2, r0, #4
 8001fae:	f500 707f 	add.w	r0, r0, #1020	; 0x3fc
        t = a->coeffs[i] >> 31;
 8001fb2:	f852 3f04 	ldr.w	r3, [r2, #4]!
 8001fb6:	17dc      	asrs	r4, r3, #31
        t = a->coeffs[i] - (t & 2 * a->coeffs[i]);
 8001fb8:	ea04 0443 	and.w	r4, r4, r3, lsl #1
 8001fbc:	1b1b      	subs	r3, r3, r4
        if (t >= B) {
 8001fbe:	4299      	cmp	r1, r3
 8001fc0:	dd03      	ble.n	8001fca <PQCLEAN_DILITHIUM2_CLEAN_poly_chknorm+0x26>
    for (i = 0; i < N; ++i) {
 8001fc2:	4282      	cmp	r2, r0
 8001fc4:	d1f5      	bne.n	8001fb2 <PQCLEAN_DILITHIUM2_CLEAN_poly_chknorm+0xe>
    return 0;
 8001fc6:	2000      	movs	r0, #0
}
 8001fc8:	bd10      	pop	{r4, pc}
        return 1;
 8001fca:	2001      	movs	r0, #1
 8001fcc:	e7fc      	b.n	8001fc8 <PQCLEAN_DILITHIUM2_CLEAN_poly_chknorm+0x24>
 8001fce:	bf00      	nop
 8001fd0:	000ffc00 	.word	0x000ffc00

08001fd4 <PQCLEAN_DILITHIUM2_CLEAN_poly_uniform>:
        uint16_t nonce) {
 8001fd4:	b5f0      	push	{r4, r5, r6, r7, lr}
 8001fd6:	f5ad 7d55 	sub.w	sp, sp, #852	; 0x354
 8001fda:	4606      	mov	r6, r0
    stream128_init(&state, seed, nonce);
 8001fdc:	4668      	mov	r0, sp
 8001fde:	f000 fd2b 	bl	8002a38 <PQCLEAN_DILITHIUM2_CLEAN_dilithium_shake128_stream_init>
    stream128_squeezeblocks(buf, POLY_UNIFORM_NBLOCKS, &state);
 8001fe2:	466a      	mov	r2, sp
 8001fe4:	f44f 7152 	mov.w	r1, #840	; 0x348
 8001fe8:	a801      	add	r0, sp, #4
 8001fea:	f001 fe5a 	bl	8003ca2 <shake128_inc_squeeze>
    ctr = rej_uniform(a->coeffs, N, buf, buflen);
 8001fee:	f44f 7352 	mov.w	r3, #840	; 0x348
 8001ff2:	aa01      	add	r2, sp, #4
 8001ff4:	f44f 7180 	mov.w	r1, #256	; 0x100
 8001ff8:	4630      	mov	r0, r6
 8001ffa:	f7ff fedb 	bl	8001db4 <rej_uniform>
        off = buflen % 3;
 8001ffe:	2703      	movs	r7, #3
    ctr = rej_uniform(a->coeffs, N, buf, buflen);
 8002000:	4604      	mov	r4, r0
    while (ctr < N) {
 8002002:	2cff      	cmp	r4, #255	; 0xff
 8002004:	d905      	bls.n	8002012 <PQCLEAN_DILITHIUM2_CLEAN_poly_uniform+0x3e>
    stream128_release(&state);
 8002006:	4668      	mov	r0, sp
 8002008:	f001 fe4f 	bl	8003caa <shake128_inc_ctx_release>
}
 800200c:	f50d 7d55 	add.w	sp, sp, #852	; 0x354
 8002010:	bdf0      	pop	{r4, r5, r6, r7, pc}
        off = buflen % 3;
 8002012:	fbb3 f2f7 	udiv	r2, r3, r7
 8002016:	eb02 0242 	add.w	r2, r2, r2, lsl #1
 800201a:	1a98      	subs	r0, r3, r2
        for (i = 0; i < off; ++i) {
 800201c:	a901      	add	r1, sp, #4
 800201e:	2500      	movs	r5, #0
            buf[i] = buf[buflen - off + i];
 8002020:	1ad2      	subs	r2, r2, r3
        for (i = 0; i < off; ++i) {
 8002022:	4285      	cmp	r5, r0
 8002024:	d110      	bne.n	8002048 <PQCLEAN_DILITHIUM2_CLEAN_poly_uniform+0x74>
        stream128_squeezeblocks(buf + off, 1, &state);
 8002026:	ab01      	add	r3, sp, #4
 8002028:	1958      	adds	r0, r3, r5
 800202a:	466a      	mov	r2, sp
 800202c:	21a8      	movs	r1, #168	; 0xa8
 800202e:	f001 fe38 	bl	8003ca2 <shake128_inc_squeeze>
        ctr += rej_uniform(a->coeffs + ctr, N - ctr, buf, buflen);
 8002032:	f5c4 7180 	rsb	r1, r4, #256	; 0x100
 8002036:	eb06 0084 	add.w	r0, r6, r4, lsl #2
        buflen = STREAM128_BLOCKBYTES + off;
 800203a:	f105 03a8 	add.w	r3, r5, #168	; 0xa8
        ctr += rej_uniform(a->coeffs + ctr, N - ctr, buf, buflen);
 800203e:	aa01      	add	r2, sp, #4
 8002040:	f7ff feb8 	bl	8001db4 <rej_uniform>
 8002044:	4404      	add	r4, r0
 8002046:	e7dc      	b.n	8002002 <PQCLEAN_DILITHIUM2_CLEAN_poly_uniform+0x2e>
            buf[i] = buf[buflen - off + i];
 8002048:	eb03 0c01 	add.w	ip, r3, r1
        for (i = 0; i < off; ++i) {
 800204c:	3501      	adds	r5, #1
            buf[i] = buf[buflen - off + i];
 800204e:	f81c c002 	ldrb.w	ip, [ip, r2]
 8002052:	f801 cb01 	strb.w	ip, [r1], #1
        for (i = 0; i < off; ++i) {
 8002056:	e7e4      	b.n	8002022 <PQCLEAN_DILITHIUM2_CLEAN_poly_uniform+0x4e>

08002058 <PQCLEAN_DILITHIUM2_CLEAN_poly_uniform_eta>:
*              - uint16_t nonce: 2-byte nonce
**************************************************/
#define POLY_UNIFORM_ETA_NBLOCKS ((136 + STREAM256_BLOCKBYTES - 1)/STREAM256_BLOCKBYTES)
void PQCLEAN_DILITHIUM2_CLEAN_poly_uniform_eta(poly *a,
        const uint8_t seed[CRHBYTES],
        uint16_t nonce) {
 8002058:	b530      	push	{r4, r5, lr}
 800205a:	b0a5      	sub	sp, #148	; 0x94
 800205c:	4605      	mov	r5, r0
    unsigned int ctr;
    unsigned int buflen = POLY_UNIFORM_ETA_NBLOCKS * STREAM256_BLOCKBYTES;
    uint8_t buf[POLY_UNIFORM_ETA_NBLOCKS * STREAM256_BLOCKBYTES];
    stream256_state state;

    stream256_init(&state, seed, nonce);
 800205e:	a801      	add	r0, sp, #4
 8002060:	f000 fd03 	bl	8002a6a <PQCLEAN_DILITHIUM2_CLEAN_dilithium_shake256_stream_init>
    stream256_squeezeblocks(buf, POLY_UNIFORM_ETA_NBLOCKS, &state);
 8002064:	aa01      	add	r2, sp, #4
 8002066:	2188      	movs	r1, #136	; 0x88
 8002068:	a802      	add	r0, sp, #8
 800206a:	f001 fe3a 	bl	8003ce2 <shake256_inc_squeeze>

    ctr = rej_eta(a->coeffs, N, buf, buflen);
 800206e:	aa02      	add	r2, sp, #8
 8002070:	f44f 7180 	mov.w	r1, #256	; 0x100
 8002074:	4628      	mov	r0, r5
 8002076:	f7ff febf 	bl	8001df8 <rej_eta.constprop.0>
 800207a:	4604      	mov	r4, r0

    while (ctr < N) {
 800207c:	2cff      	cmp	r4, #255	; 0xff
 800207e:	d904      	bls.n	800208a <PQCLEAN_DILITHIUM2_CLEAN_poly_uniform_eta+0x32>
        stream256_squeezeblocks(buf, 1, &state);
        ctr += rej_eta(a->coeffs + ctr, N - ctr, buf, STREAM256_BLOCKBYTES);
    }
    stream256_release(&state);
 8002080:	a801      	add	r0, sp, #4
 8002082:	f001 fe32 	bl	8003cea <shake256_inc_ctx_release>
}
 8002086:	b025      	add	sp, #148	; 0x94
 8002088:	bd30      	pop	{r4, r5, pc}
        stream256_squeezeblocks(buf, 1, &state);
 800208a:	aa01      	add	r2, sp, #4
 800208c:	2188      	movs	r1, #136	; 0x88
 800208e:	a802      	add	r0, sp, #8
 8002090:	f001 fe27 	bl	8003ce2 <shake256_inc_squeeze>
        ctr += rej_eta(a->coeffs + ctr, N - ctr, buf, STREAM256_BLOCKBYTES);
 8002094:	f5c4 7180 	rsb	r1, r4, #256	; 0x100
 8002098:	eb05 0084 	add.w	r0, r5, r4, lsl #2
 800209c:	aa02      	add	r2, sp, #8
 800209e:	f7ff feab 	bl	8001df8 <rej_eta.constprop.0>
 80020a2:	4404      	add	r4, r0
 80020a4:	e7ea      	b.n	800207c <PQCLEAN_DILITHIUM2_CLEAN_poly_uniform_eta+0x24>

080020a6 <PQCLEAN_DILITHIUM2_CLEAN_poly_challenge>:
*              SHAKE256(seed).
*
* Arguments:   - poly *c: pointer to output polynomial
*              - const uint8_t mu[]: byte array containing seed of length SEEDBYTES
**************************************************/
void PQCLEAN_DILITHIUM2_CLEAN_poly_challenge(poly *c, const uint8_t seed[SEEDBYTES]) {
 80020a6:	b5f0      	push	{r4, r5, r6, r7, lr}
 80020a8:	b0a5      	sub	sp, #148	; 0x94
 80020aa:	460c      	mov	r4, r1
 80020ac:	4605      	mov	r5, r0
    unsigned int i, b, pos;
    uint64_t signs;
    uint8_t buf[SHAKE256_RATE];
    shake256incctx state;

    shake256_inc_init(&state);
 80020ae:	a801      	add	r0, sp, #4
 80020b0:	f001 fdfe 	bl	8003cb0 <shake256_inc_init>
    shake256_inc_absorb(&state, seed, SEEDBYTES);
 80020b4:	4621      	mov	r1, r4
 80020b6:	2220      	movs	r2, #32
 80020b8:	a801      	add	r0, sp, #4
 80020ba:	f001 fe07 	bl	8003ccc <shake256_inc_absorb>
    shake256_inc_finalize(&state);
 80020be:	a801      	add	r0, sp, #4
 80020c0:	f001 fe0a 	bl	8003cd8 <shake256_inc_finalize>
    shake256_inc_squeeze(buf, sizeof buf, &state);
 80020c4:	aa01      	add	r2, sp, #4
 80020c6:	2188      	movs	r1, #136	; 0x88
 80020c8:	a802      	add	r0, sp, #8
 80020ca:	f001 fe0a 	bl	8003ce2 <shake256_inc_squeeze>
 80020ce:	2300      	movs	r3, #0
 80020d0:	ae02      	add	r6, sp, #8

    signs = 0;
 80020d2:	461c      	mov	r4, r3
 80020d4:	461f      	mov	r7, r3
    for (i = 0; i < 8; ++i) {
        signs |= (uint64_t)buf[i] << 8 * i;
 80020d6:	f816 1b01 	ldrb.w	r1, [r6], #1
 80020da:	f1a3 0220 	sub.w	r2, r3, #32
 80020de:	f1c3 0020 	rsb	r0, r3, #32
 80020e2:	fa01 f202 	lsl.w	r2, r1, r2
 80020e6:	fa21 f000 	lsr.w	r0, r1, r0
 80020ea:	4099      	lsls	r1, r3
    for (i = 0; i < 8; ++i) {
 80020ec:	3308      	adds	r3, #8
        signs |= (uint64_t)buf[i] << 8 * i;
 80020ee:	4302      	orrs	r2, r0
    for (i = 0; i < 8; ++i) {
 80020f0:	2b40      	cmp	r3, #64	; 0x40
        signs |= (uint64_t)buf[i] << 8 * i;
 80020f2:	ea44 0401 	orr.w	r4, r4, r1
 80020f6:	ea47 0702 	orr.w	r7, r7, r2
    for (i = 0; i < 8; ++i) {
 80020fa:	d1ec      	bne.n	80020d6 <PQCLEAN_DILITHIUM2_CLEAN_poly_challenge+0x30>
    }
    pos = 8;

    for (i = 0; i < N; ++i) {
        c->coeffs[i] = 0;
 80020fc:	2100      	movs	r1, #0
 80020fe:	f44f 6280 	mov.w	r2, #1024	; 0x400
 8002102:	4628      	mov	r0, r5
 8002104:	f003 f9e2 	bl	80054cc <memset>
    }
    for (i = N - TAU; i < N; ++i) {
 8002108:	26d9      	movs	r6, #217	; 0xd9
    pos = 8;
 800210a:	2108      	movs	r1, #8
        do {
            if (pos >= SHAKE256_RATE) {
 800210c:	2987      	cmp	r1, #135	; 0x87
 800210e:	d925      	bls.n	800215c <PQCLEAN_DILITHIUM2_CLEAN_poly_challenge+0xb6>
                shake256_inc_squeeze(buf, sizeof buf, &state);
 8002110:	aa01      	add	r2, sp, #4
 8002112:	2188      	movs	r1, #136	; 0x88
 8002114:	a802      	add	r0, sp, #8
 8002116:	f001 fde4 	bl	8003ce2 <shake256_inc_squeeze>
                pos = 0;
 800211a:	2300      	movs	r3, #0
            }

            b = buf[pos++];
 800211c:	aa24      	add	r2, sp, #144	; 0x90
 800211e:	1c59      	adds	r1, r3, #1
 8002120:	4413      	add	r3, r2
 8002122:	f813 2c88 	ldrb.w	r2, [r3, #-136]
        } while (b > i);
 8002126:	42b2      	cmp	r2, r6
 8002128:	d8f0      	bhi.n	800210c <PQCLEAN_DILITHIUM2_CLEAN_poly_challenge+0x66>

        c->coeffs[i] = c->coeffs[b];
 800212a:	f855 3022 	ldr.w	r3, [r5, r2, lsl #2]
 800212e:	f845 3026 	str.w	r3, [r5, r6, lsl #2]
        c->coeffs[b] = 1 - 2 * (signs & 1);
 8002132:	f004 0301 	and.w	r3, r4, #1
 8002136:	005b      	lsls	r3, r3, #1
    for (i = N - TAU; i < N; ++i) {
 8002138:	3601      	adds	r6, #1
        c->coeffs[b] = 1 - 2 * (signs & 1);
 800213a:	f1c3 0301 	rsb	r3, r3, #1
        signs >>= 1;
 800213e:	0864      	lsrs	r4, r4, #1
    for (i = N - TAU; i < N; ++i) {
 8002140:	f5b6 7f80 	cmp.w	r6, #256	; 0x100
        signs >>= 1;
 8002144:	ea44 74c7 	orr.w	r4, r4, r7, lsl #31
        c->coeffs[b] = 1 - 2 * (signs & 1);
 8002148:	f845 3022 	str.w	r3, [r5, r2, lsl #2]
        signs >>= 1;
 800214c:	ea4f 0757 	mov.w	r7, r7, lsr #1
    for (i = N - TAU; i < N; ++i) {
 8002150:	d1dc      	bne.n	800210c <PQCLEAN_DILITHIUM2_CLEAN_poly_challenge+0x66>
    }
    shake256_inc_ctx_release(&state);
 8002152:	a801      	add	r0, sp, #4
 8002154:	f001 fdc9 	bl	8003cea <shake256_inc_ctx_release>
}
 8002158:	b025      	add	sp, #148	; 0x94
 800215a:	bdf0      	pop	{r4, r5, r6, r7, pc}
 800215c:	460b      	mov	r3, r1
 800215e:	e7dd      	b.n	800211c <PQCLEAN_DILITHIUM2_CLEAN_poly_challenge+0x76>

08002160 <PQCLEAN_DILITHIUM2_CLEAN_polyeta_pack>:
*
* Arguments:   - uint8_t *r: pointer to output byte array with at least
*                            POLYETA_PACKEDBYTES bytes
*              - const poly *a: pointer to input polynomial
**************************************************/
void PQCLEAN_DILITHIUM2_CLEAN_polyeta_pack(uint8_t *r, const poly *a) {
 8002160:	e92d 41f0 	stmdb	sp!, {r4, r5, r6, r7, r8, lr}
 8002164:	f501 6580 	add.w	r5, r1, #1024	; 0x400
    DBENCH_START();

    for (i = 0; i < N / 8; ++i) {
        t[0] = (uint8_t) (ETA - a->coeffs[8 * i + 0]);
        t[1] = (uint8_t) (ETA - a->coeffs[8 * i + 1]);
        t[2] = (uint8_t) (ETA - a->coeffs[8 * i + 2]);
 8002168:	688b      	ldr	r3, [r1, #8]
        t[3] = (uint8_t) (ETA - a->coeffs[8 * i + 3]);
        t[4] = (uint8_t) (ETA - a->coeffs[8 * i + 4]);
        t[5] = (uint8_t) (ETA - a->coeffs[8 * i + 5]);
 800216a:	694c      	ldr	r4, [r1, #20]
        t[1] = (uint8_t) (ETA - a->coeffs[8 * i + 1]);
 800216c:	684f      	ldr	r7, [r1, #4]
        t[6] = (uint8_t) (ETA - a->coeffs[8 * i + 6]);
        t[7] = (uint8_t) (ETA - a->coeffs[8 * i + 7]);
 800216e:	69ca      	ldr	r2, [r1, #28]
        t[6] = (uint8_t) (ETA - a->coeffs[8 * i + 6]);
 8002170:	698e      	ldr	r6, [r1, #24]
        t[2] = (uint8_t) (ETA - a->coeffs[8 * i + 2]);
 8002172:	f1c3 0302 	rsb	r3, r3, #2
 8002176:	fa5f fc83 	uxtb.w	ip, r3
        t[3] = (uint8_t) (ETA - a->coeffs[8 * i + 3]);
 800217a:	68cb      	ldr	r3, [r1, #12]
 800217c:	f1c3 0302 	rsb	r3, r3, #2
 8002180:	fa5f fe83 	uxtb.w	lr, r3
        t[4] = (uint8_t) (ETA - a->coeffs[8 * i + 4]);
 8002184:	690b      	ldr	r3, [r1, #16]
 8002186:	f1c3 0302 	rsb	r3, r3, #2
 800218a:	b2db      	uxtb	r3, r3

        r[3 * i + 0]  = (t[0] >> 0) | (t[1] << 3) | (t[2] << 6);
        r[3 * i + 1]  = (t[2] >> 2) | (t[3] << 1) | (t[4] << 4) | (t[5] << 7);
 800218c:	011b      	lsls	r3, r3, #4
        t[1] = (uint8_t) (ETA - a->coeffs[8 * i + 1]);
 800218e:	f1c7 0702 	rsb	r7, r7, #2
        t[5] = (uint8_t) (ETA - a->coeffs[8 * i + 5]);
 8002192:	f1c4 0402 	rsb	r4, r4, #2
        r[3 * i + 1]  = (t[2] >> 2) | (t[3] << 1) | (t[4] << 4) | (t[5] << 7);
 8002196:	ea43 034e 	orr.w	r3, r3, lr, lsl #1
        r[3 * i + 0]  = (t[0] >> 0) | (t[1] << 3) | (t[2] << 6);
 800219a:	fa5f f887 	uxtb.w	r8, r7
        t[5] = (uint8_t) (ETA - a->coeffs[8 * i + 5]);
 800219e:	b2e4      	uxtb	r4, r4
        t[7] = (uint8_t) (ETA - a->coeffs[8 * i + 7]);
 80021a0:	f1c2 0202 	rsb	r2, r2, #2
        r[3 * i + 0]  = (t[0] >> 0) | (t[1] << 3) | (t[2] << 6);
 80021a4:	ea4f 178c 	mov.w	r7, ip, lsl #6
        r[3 * i + 1]  = (t[2] >> 2) | (t[3] << 1) | (t[4] << 4) | (t[5] << 7);
 80021a8:	ea43 039c 	orr.w	r3, r3, ip, lsr #2
        r[3 * i + 0]  = (t[0] >> 0) | (t[1] << 3) | (t[2] << 6);
 80021ac:	ea47 07c8 	orr.w	r7, r7, r8, lsl #3
        r[3 * i + 1]  = (t[2] >> 2) | (t[3] << 1) | (t[4] << 4) | (t[5] << 7);
 80021b0:	ea43 13c4 	orr.w	r3, r3, r4, lsl #7
        t[0] = (uint8_t) (ETA - a->coeffs[8 * i + 0]);
 80021b4:	f851 8b20 	ldr.w	r8, [r1], #32
        r[3 * i + 1]  = (t[2] >> 2) | (t[3] << 1) | (t[4] << 4) | (t[5] << 7);
 80021b8:	7043      	strb	r3, [r0, #1]
        t[6] = (uint8_t) (ETA - a->coeffs[8 * i + 6]);
 80021ba:	f1c6 0602 	rsb	r6, r6, #2
        t[7] = (uint8_t) (ETA - a->coeffs[8 * i + 7]);
 80021be:	b2d2      	uxtb	r2, r2
        t[6] = (uint8_t) (ETA - a->coeffs[8 * i + 6]);
 80021c0:	b2f6      	uxtb	r6, r6
        r[3 * i + 2]  = (t[5] >> 1) | (t[6] << 2) | (t[7] << 5);
 80021c2:	0153      	lsls	r3, r2, #5
        t[0] = (uint8_t) (ETA - a->coeffs[8 * i + 0]);
 80021c4:	f1c8 0802 	rsb	r8, r8, #2
        r[3 * i + 2]  = (t[5] >> 1) | (t[6] << 2) | (t[7] << 5);
 80021c8:	ea43 0386 	orr.w	r3, r3, r6, lsl #2
        r[3 * i + 0]  = (t[0] >> 0) | (t[1] << 3) | (t[2] << 6);
 80021cc:	ea47 0708 	orr.w	r7, r7, r8
        r[3 * i + 2]  = (t[5] >> 1) | (t[6] << 2) | (t[7] << 5);
 80021d0:	ea43 0354 	orr.w	r3, r3, r4, lsr #1
    for (i = 0; i < N / 8; ++i) {
 80021d4:	428d      	cmp	r5, r1
        r[3 * i + 0]  = (t[0] >> 0) | (t[1] << 3) | (t[2] << 6);
 80021d6:	7007      	strb	r7, [r0, #0]
        r[3 * i + 2]  = (t[5] >> 1) | (t[6] << 2) | (t[7] << 5);
 80021d8:	7083      	strb	r3, [r0, #2]
    for (i = 0; i < N / 8; ++i) {
 80021da:	f100 0003 	add.w	r0, r0, #3
 80021de:	d1c3      	bne.n	8002168 <PQCLEAN_DILITHIUM2_CLEAN_polyeta_pack+0x8>
    }

    DBENCH_STOP(*tpack);
}
 80021e0:	e8bd 81f0 	ldmia.w	sp!, {r4, r5, r6, r7, r8, pc}

080021e4 <PQCLEAN_DILITHIUM2_CLEAN_polyeta_unpack>:
* Description: Unpack polynomial with coefficients in [-ETA,ETA].
*
* Arguments:   - poly *r: pointer to output polynomial
*              - const uint8_t *a: byte array with bit-packed polynomial
**************************************************/
void PQCLEAN_DILITHIUM2_CLEAN_polyeta_unpack(poly *r, const uint8_t *a) {
 80021e4:	e92d 41f0 	stmdb	sp!, {r4, r5, r6, r7, r8, lr}
 80021e8:	f500 6580 	add.w	r5, r0, #1024	; 0x400
    unsigned int i;
    DBENCH_START();

    for (i = 0; i < N / 8; ++i) {
        r->coeffs[8 * i + 0] =  (a[3 * i + 0] >> 0) & 7;
 80021ec:	780f      	ldrb	r7, [r1, #0]
 80021ee:	f007 0707 	and.w	r7, r7, #7
 80021f2:	6007      	str	r7, [r0, #0]
        r->coeffs[8 * i + 1] =  (a[3 * i + 0] >> 3) & 7;
 80021f4:	780e      	ldrb	r6, [r1, #0]
 80021f6:	f3c6 06c2 	ubfx	r6, r6, #3, #3
 80021fa:	6046      	str	r6, [r0, #4]
        r->coeffs[8 * i + 2] = ((a[3 * i + 0] >> 6) | (a[3 * i + 1] << 2)) & 7;
 80021fc:	784b      	ldrb	r3, [r1, #1]
 80021fe:	780a      	ldrb	r2, [r1, #0]
 8002200:	009b      	lsls	r3, r3, #2
 8002202:	ea43 1392 	orr.w	r3, r3, r2, lsr #6
 8002206:	f003 0207 	and.w	r2, r3, #7
 800220a:	6082      	str	r2, [r0, #8]
        r->coeffs[8 * i + 3] =  (a[3 * i + 1] >> 1) & 7;
 800220c:	f891 e001 	ldrb.w	lr, [r1, #1]
 8002210:	f3ce 0e42 	ubfx	lr, lr, #1, #3
 8002214:	f8c0 e00c 	str.w	lr, [r0, #12]
        r->coeffs[8 * i + 4] =  (a[3 * i + 1] >> 4) & 7;
 8002218:	f891 c001 	ldrb.w	ip, [r1, #1]
 800221c:	f3cc 1c02 	ubfx	ip, ip, #4, #3
 8002220:	f8c0 c010 	str.w	ip, [r0, #16]
        r->coeffs[8 * i + 5] = ((a[3 * i + 1] >> 7) | (a[3 * i + 2] << 1)) & 7;
 8002224:	788b      	ldrb	r3, [r1, #2]
 8002226:	784c      	ldrb	r4, [r1, #1]
 8002228:	005b      	lsls	r3, r3, #1
 800222a:	ea43 13d4 	orr.w	r3, r3, r4, lsr #7
 800222e:	f003 0307 	and.w	r3, r3, #7
 8002232:	6143      	str	r3, [r0, #20]
        r->coeffs[8 * i + 6] =  (a[3 * i + 2] >> 2) & 7;
 8002234:	788c      	ldrb	r4, [r1, #2]
 8002236:	f3c4 0482 	ubfx	r4, r4, #2, #3
 800223a:	6184      	str	r4, [r0, #24]
        r->coeffs[8 * i + 7] =  (a[3 * i + 2] >> 5) & 7;
 800223c:	f891 8002 	ldrb.w	r8, [r1, #2]

        r->coeffs[8 * i + 0] = ETA - r->coeffs[8 * i + 0];
        r->coeffs[8 * i + 1] = ETA - r->coeffs[8 * i + 1];
        r->coeffs[8 * i + 2] = ETA - r->coeffs[8 * i + 2];
 8002240:	f1c2 0202 	rsb	r2, r2, #2
 8002244:	6082      	str	r2, [r0, #8]
        r->coeffs[8 * i + 3] = ETA - r->coeffs[8 * i + 3];
        r->coeffs[8 * i + 4] = ETA - r->coeffs[8 * i + 4];
        r->coeffs[8 * i + 5] = ETA - r->coeffs[8 * i + 5];
 8002246:	f1c3 0302 	rsb	r3, r3, #2
        r->coeffs[8 * i + 3] = ETA - r->coeffs[8 * i + 3];
 800224a:	f1ce 0202 	rsb	r2, lr, #2
        r->coeffs[8 * i + 7] =  (a[3 * i + 2] >> 5) & 7;
 800224e:	ea4f 1858 	mov.w	r8, r8, lsr #5
        r->coeffs[8 * i + 3] = ETA - r->coeffs[8 * i + 3];
 8002252:	60c2      	str	r2, [r0, #12]
        r->coeffs[8 * i + 5] = ETA - r->coeffs[8 * i + 5];
 8002254:	6143      	str	r3, [r0, #20]
        r->coeffs[8 * i + 0] = ETA - r->coeffs[8 * i + 0];
 8002256:	f1c7 0702 	rsb	r7, r7, #2
        r->coeffs[8 * i + 1] = ETA - r->coeffs[8 * i + 1];
 800225a:	f1c6 0602 	rsb	r6, r6, #2
        r->coeffs[8 * i + 4] = ETA - r->coeffs[8 * i + 4];
 800225e:	f1cc 0202 	rsb	r2, ip, #2
        r->coeffs[8 * i + 6] = ETA - r->coeffs[8 * i + 6];
 8002262:	f1c4 0402 	rsb	r4, r4, #2
        r->coeffs[8 * i + 7] = ETA - r->coeffs[8 * i + 7];
 8002266:	f1c8 0302 	rsb	r3, r8, #2
        r->coeffs[8 * i + 0] = ETA - r->coeffs[8 * i + 0];
 800226a:	6007      	str	r7, [r0, #0]
        r->coeffs[8 * i + 1] = ETA - r->coeffs[8 * i + 1];
 800226c:	6046      	str	r6, [r0, #4]
        r->coeffs[8 * i + 4] = ETA - r->coeffs[8 * i + 4];
 800226e:	6102      	str	r2, [r0, #16]
        r->coeffs[8 * i + 6] = ETA - r->coeffs[8 * i + 6];
 8002270:	6184      	str	r4, [r0, #24]
        r->coeffs[8 * i + 7] = ETA - r->coeffs[8 * i + 7];
 8002272:	61c3      	str	r3, [r0, #28]
    for (i = 0; i < N / 8; ++i) {
 8002274:	3020      	adds	r0, #32
 8002276:	42a8      	cmp	r0, r5
 8002278:	f101 0103 	add.w	r1, r1, #3
 800227c:	d1b6      	bne.n	80021ec <PQCLEAN_DILITHIUM2_CLEAN_polyeta_unpack+0x8>
    }

    DBENCH_STOP(*tpack);
}
 800227e:	e8bd 81f0 	ldmia.w	sp!, {r4, r5, r6, r7, r8, pc}

08002282 <PQCLEAN_DILITHIUM2_CLEAN_polyt1_pack>:
*
* Arguments:   - uint8_t *r: pointer to output byte array with at least
*                            POLYT1_PACKEDBYTES bytes
*              - const poly *a: pointer to input polynomial
**************************************************/
void PQCLEAN_DILITHIUM2_CLEAN_polyt1_pack(uint8_t *r, const poly *a) {
 8002282:	b510      	push	{r4, lr}
 8002284:	f501 6280 	add.w	r2, r1, #1024	; 0x400
    unsigned int i;
    DBENCH_START();

    for (i = 0; i < N / 4; ++i) {
        r[5 * i + 0] = (uint8_t) (a->coeffs[4 * i + 0] >> 0);
 8002288:	680b      	ldr	r3, [r1, #0]
 800228a:	7003      	strb	r3, [r0, #0]
        r[5 * i + 1] = (uint8_t) ((a->coeffs[4 * i + 0] >> 8) | (a->coeffs[4 * i + 1] << 2));
 800228c:	e9d1 4300 	ldrd	r4, r3, [r1]
 8002290:	009b      	lsls	r3, r3, #2
 8002292:	ea43 2324 	orr.w	r3, r3, r4, asr #8
 8002296:	7043      	strb	r3, [r0, #1]
        r[5 * i + 2] = (uint8_t) ((a->coeffs[4 * i + 1] >> 6) | (a->coeffs[4 * i + 2] << 4));
 8002298:	e9d1 4301 	ldrd	r4, r3, [r1, #4]
 800229c:	011b      	lsls	r3, r3, #4
 800229e:	ea43 13a4 	orr.w	r3, r3, r4, asr #6
 80022a2:	7083      	strb	r3, [r0, #2]
        r[5 * i + 3] = (uint8_t) ((a->coeffs[4 * i + 2] >> 4) | (a->coeffs[4 * i + 3] << 6));
 80022a4:	e9d1 4302 	ldrd	r4, r3, [r1, #8]
 80022a8:	019b      	lsls	r3, r3, #6
 80022aa:	ea43 1324 	orr.w	r3, r3, r4, asr #4
 80022ae:	70c3      	strb	r3, [r0, #3]
        r[5 * i + 4] = (uint8_t) (a->coeffs[4 * i + 3] >> 2);
 80022b0:	68cb      	ldr	r3, [r1, #12]
    for (i = 0; i < N / 4; ++i) {
 80022b2:	3110      	adds	r1, #16
        r[5 * i + 4] = (uint8_t) (a->coeffs[4 * i + 3] >> 2);
 80022b4:	109b      	asrs	r3, r3, #2
    for (i = 0; i < N / 4; ++i) {
 80022b6:	4291      	cmp	r1, r2
        r[5 * i + 4] = (uint8_t) (a->coeffs[4 * i + 3] >> 2);
 80022b8:	7103      	strb	r3, [r0, #4]
    for (i = 0; i < N / 4; ++i) {
 80022ba:	f100 0005 	add.w	r0, r0, #5
 80022be:	d1e3      	bne.n	8002288 <PQCLEAN_DILITHIUM2_CLEAN_polyt1_pack+0x6>
    }

    DBENCH_STOP(*tpack);
}
 80022c0:	bd10      	pop	{r4, pc}

080022c2 <PQCLEAN_DILITHIUM2_CLEAN_polyt1_unpack>:
*              Output coefficients are standard representatives.
*
* Arguments:   - poly *r: pointer to output polynomial
*              - const uint8_t *a: byte array with bit-packed polynomial
**************************************************/
void PQCLEAN_DILITHIUM2_CLEAN_polyt1_unpack(poly *r, const uint8_t *a) {
 80022c2:	b510      	push	{r4, lr}
 80022c4:	f501 72a0 	add.w	r2, r1, #320	; 0x140
    unsigned int i;
    DBENCH_START();

    for (i = 0; i < N / 4; ++i) {
        r->coeffs[4 * i + 0] = ((a[5 * i + 0] >> 0) | ((uint32_t)a[5 * i + 1] << 8)) & 0x3FF;
 80022c8:	784c      	ldrb	r4, [r1, #1]
 80022ca:	780b      	ldrb	r3, [r1, #0]
 80022cc:	ea43 2304 	orr.w	r3, r3, r4, lsl #8
 80022d0:	f3c3 0309 	ubfx	r3, r3, #0, #10
 80022d4:	6003      	str	r3, [r0, #0]
        r->coeffs[4 * i + 1] = ((a[5 * i + 1] >> 2) | ((uint32_t)a[5 * i + 2] << 6)) & 0x3FF;
 80022d6:	788b      	ldrb	r3, [r1, #2]
 80022d8:	784c      	ldrb	r4, [r1, #1]
 80022da:	019b      	lsls	r3, r3, #6
 80022dc:	ea43 0394 	orr.w	r3, r3, r4, lsr #2
 80022e0:	f3c3 0309 	ubfx	r3, r3, #0, #10
 80022e4:	6043      	str	r3, [r0, #4]
        r->coeffs[4 * i + 2] = ((a[5 * i + 2] >> 4) | ((uint32_t)a[5 * i + 3] << 4)) & 0x3FF;
 80022e6:	78cb      	ldrb	r3, [r1, #3]
 80022e8:	788c      	ldrb	r4, [r1, #2]
 80022ea:	011b      	lsls	r3, r3, #4
 80022ec:	ea43 1314 	orr.w	r3, r3, r4, lsr #4
 80022f0:	f3c3 0309 	ubfx	r3, r3, #0, #10
 80022f4:	6083      	str	r3, [r0, #8]
        r->coeffs[4 * i + 3] = ((a[5 * i + 3] >> 6) | ((uint32_t)a[5 * i + 4] << 2)) & 0x3FF;
 80022f6:	790b      	ldrb	r3, [r1, #4]
 80022f8:	78cc      	ldrb	r4, [r1, #3]
 80022fa:	009b      	lsls	r3, r3, #2
    for (i = 0; i < N / 4; ++i) {
 80022fc:	3105      	adds	r1, #5
        r->coeffs[4 * i + 3] = ((a[5 * i + 3] >> 6) | ((uint32_t)a[5 * i + 4] << 2)) & 0x3FF;
 80022fe:	ea43 1394 	orr.w	r3, r3, r4, lsr #6
    for (i = 0; i < N / 4; ++i) {
 8002302:	428a      	cmp	r2, r1
        r->coeffs[4 * i + 3] = ((a[5 * i + 3] >> 6) | ((uint32_t)a[5 * i + 4] << 2)) & 0x3FF;
 8002304:	60c3      	str	r3, [r0, #12]
    for (i = 0; i < N / 4; ++i) {
 8002306:	f100 0010 	add.w	r0, r0, #16
 800230a:	d1dd      	bne.n	80022c8 <PQCLEAN_DILITHIUM2_CLEAN_polyt1_unpack+0x6>
    }

    DBENCH_STOP(*tpack);
}
 800230c:	bd10      	pop	{r4, pc}

0800230e <PQCLEAN_DILITHIUM2_CLEAN_polyt0_pack>:
*
* Arguments:   - uint8_t *r: pointer to output byte array with at least
*                            POLYT0_PACKEDBYTES bytes
*              - const poly *a: pointer to input polynomial
**************************************************/
void PQCLEAN_DILITHIUM2_CLEAN_polyt0_pack(uint8_t *r, const poly *a) {
 800230e:	e92d 43f0 	stmdb	sp!, {r4, r5, r6, r7, r8, r9, lr}
 8002312:	f500 7cd0 	add.w	ip, r0, #416	; 0x1a0
        t[0] = (1 << (D - 1)) - a->coeffs[8 * i + 0];
        t[1] = (1 << (D - 1)) - a->coeffs[8 * i + 1];
        t[2] = (1 << (D - 1)) - a->coeffs[8 * i + 2];
        t[3] = (1 << (D - 1)) - a->coeffs[8 * i + 3];
        t[4] = (1 << (D - 1)) - a->coeffs[8 * i + 4];
        t[5] = (1 << (D - 1)) - a->coeffs[8 * i + 5];
 8002316:	694d      	ldr	r5, [r1, #20]
        t[1] = (1 << (D - 1)) - a->coeffs[8 * i + 1];
 8002318:	684c      	ldr	r4, [r1, #4]
        t[0] = (1 << (D - 1)) - a->coeffs[8 * i + 0];
 800231a:	680f      	ldr	r7, [r1, #0]
        t[2] = (1 << (D - 1)) - a->coeffs[8 * i + 2];
 800231c:	688e      	ldr	r6, [r1, #8]
        t[3] = (1 << (D - 1)) - a->coeffs[8 * i + 3];
 800231e:	68ca      	ldr	r2, [r1, #12]
        t[4] = (1 << (D - 1)) - a->coeffs[8 * i + 4];
 8002320:	690b      	ldr	r3, [r1, #16]
        t[1] = (1 << (D - 1)) - a->coeffs[8 * i + 1];
 8002322:	f5c4 5480 	rsb	r4, r4, #4096	; 0x1000
        t[5] = (1 << (D - 1)) - a->coeffs[8 * i + 5];
 8002326:	f5c5 5880 	rsb	r8, r5, #4096	; 0x1000
        t[6] = (1 << (D - 1)) - a->coeffs[8 * i + 6];
 800232a:	698d      	ldr	r5, [r1, #24]
        t[0] = (1 << (D - 1)) - a->coeffs[8 * i + 0];
 800232c:	f5c7 5780 	rsb	r7, r7, #4096	; 0x1000
        t[7] = (1 << (D - 1)) - a->coeffs[8 * i + 7];

        r[13 * i + 0]  =  (uint8_t) t[0];
        r[13 * i + 1]  =  (uint8_t) (t[0] >>  8);
        r[13 * i + 1] |=  (uint8_t) (t[1] <<  5);
 8002330:	ea4f 1944 	mov.w	r9, r4, lsl #5
        t[6] = (1 << (D - 1)) - a->coeffs[8 * i + 6];
 8002334:	f5c5 5e80 	rsb	lr, r5, #4096	; 0x1000
        t[7] = (1 << (D - 1)) - a->coeffs[8 * i + 7];
 8002338:	69cd      	ldr	r5, [r1, #28]
        r[13 * i + 0]  =  (uint8_t) t[0];
 800233a:	7007      	strb	r7, [r0, #0]
        r[13 * i + 1] |=  (uint8_t) (t[1] <<  5);
 800233c:	ea49 2717 	orr.w	r7, r9, r7, lsr #8
 8002340:	7047      	strb	r7, [r0, #1]
        t[2] = (1 << (D - 1)) - a->coeffs[8 * i + 2];
 8002342:	f5c6 5680 	rsb	r6, r6, #4096	; 0x1000
        r[13 * i + 2]  =  (uint8_t) (t[1] >>  3);
 8002346:	08e7      	lsrs	r7, r4, #3
 8002348:	7087      	strb	r7, [r0, #2]
        r[13 * i + 3]  =  (uint8_t) (t[1] >> 11);
        r[13 * i + 3] |=  (uint8_t) (t[2] <<  2);
 800234a:	00b7      	lsls	r7, r6, #2
        t[3] = (1 << (D - 1)) - a->coeffs[8 * i + 3];
 800234c:	f5c2 5280 	rsb	r2, r2, #4096	; 0x1000
        r[13 * i + 3] |=  (uint8_t) (t[2] <<  2);
 8002350:	ea47 24d4 	orr.w	r4, r7, r4, lsr #11
 8002354:	70c4      	strb	r4, [r0, #3]
        r[13 * i + 4]  =  (uint8_t) (t[2] >>  6);
        r[13 * i + 4] |=  (uint8_t) (t[3] <<  7);
 8002356:	01d4      	lsls	r4, r2, #7
        t[4] = (1 << (D - 1)) - a->coeffs[8 * i + 4];
 8002358:	f5c3 5380 	rsb	r3, r3, #4096	; 0x1000
        r[13 * i + 4] |=  (uint8_t) (t[3] <<  7);
 800235c:	ea44 1696 	orr.w	r6, r4, r6, lsr #6
        r[13 * i + 5]  =  (uint8_t) (t[3] >>  1);
 8002360:	0854      	lsrs	r4, r2, #1
 8002362:	7144      	strb	r4, [r0, #5]
        r[13 * i + 6]  =  (uint8_t) (t[3] >>  9);
        r[13 * i + 6] |=  (uint8_t) (t[4] <<  4);
 8002364:	011c      	lsls	r4, r3, #4
 8002366:	ea44 2252 	orr.w	r2, r4, r2, lsr #9
 800236a:	7182      	strb	r2, [r0, #6]
        r[13 * i + 7]  =  (uint8_t) (t[4] >>  4);
 800236c:	091a      	lsrs	r2, r3, #4
 800236e:	71c2      	strb	r2, [r0, #7]
        r[13 * i + 8]  =  (uint8_t) (t[4] >> 12);
        r[13 * i + 8] |=  (uint8_t) (t[5] <<  1);
 8002370:	ea4f 0248 	mov.w	r2, r8, lsl #1
 8002374:	ea42 3313 	orr.w	r3, r2, r3, lsr #12
 8002378:	7203      	strb	r3, [r0, #8]
        r[13 * i + 9]  =  (uint8_t) (t[5] >>  7);
        r[13 * i + 9] |=  (uint8_t) (t[6] <<  6);
 800237a:	ea4f 138e 	mov.w	r3, lr, lsl #6
 800237e:	ea43 13d8 	orr.w	r3, r3, r8, lsr #7
 8002382:	7243      	strb	r3, [r0, #9]
        t[7] = (1 << (D - 1)) - a->coeffs[8 * i + 7];
 8002384:	f5c5 5580 	rsb	r5, r5, #4096	; 0x1000
        r[13 * i + 10]  =  (uint8_t) (t[6] >>  2);
 8002388:	ea4f 039e 	mov.w	r3, lr, lsr #2
 800238c:	7283      	strb	r3, [r0, #10]
        r[13 * i + 11]  =  (uint8_t) (t[6] >> 10);
        r[13 * i + 11] |=  (uint8_t) (t[7] <<  3);
 800238e:	00eb      	lsls	r3, r5, #3
 8002390:	ea43 239e 	orr.w	r3, r3, lr, lsr #10
        r[13 * i + 12]  =  (uint8_t) (t[7] >>  5);
 8002394:	096d      	lsrs	r5, r5, #5
        r[13 * i + 4] |=  (uint8_t) (t[3] <<  7);
 8002396:	7106      	strb	r6, [r0, #4]
        r[13 * i + 11] |=  (uint8_t) (t[7] <<  3);
 8002398:	72c3      	strb	r3, [r0, #11]
        r[13 * i + 12]  =  (uint8_t) (t[7] >>  5);
 800239a:	7305      	strb	r5, [r0, #12]
    for (i = 0; i < N / 8; ++i) {
 800239c:	300d      	adds	r0, #13
 800239e:	4584      	cmp	ip, r0
 80023a0:	f101 0120 	add.w	r1, r1, #32
 80023a4:	d1b7      	bne.n	8002316 <PQCLEAN_DILITHIUM2_CLEAN_polyt0_pack+0x8>
    }

    DBENCH_STOP(*tpack);
}
 80023a6:	e8bd 83f0 	ldmia.w	sp!, {r4, r5, r6, r7, r8, r9, pc}

080023aa <PQCLEAN_DILITHIUM2_CLEAN_polyt0_unpack>:
* Description: Unpack polynomial t0 with coefficients in ]-2^{D-1}, 2^{D-1}].
*
* Arguments:   - poly *r: pointer to output polynomial
*              - const uint8_t *a: byte array with bit-packed polynomial
**************************************************/
void PQCLEAN_DILITHIUM2_CLEAN_polyt0_unpack(poly *r, const uint8_t *a) {
 80023aa:	e92d 43f0 	stmdb	sp!, {r4, r5, r6, r7, r8, r9, lr}
 80023ae:	f500 6c80 	add.w	ip, r0, #1024	; 0x400
    unsigned int i;
    DBENCH_START();

    for (i = 0; i < N / 8; ++i) {
        r->coeffs[8 * i + 0]  = a[13 * i + 0];
 80023b2:	780f      	ldrb	r7, [r1, #0]
 80023b4:	6007      	str	r7, [r0, #0]
        r->coeffs[8 * i + 0] |= (uint32_t)a[13 * i + 1] << 8;
 80023b6:	784b      	ldrb	r3, [r1, #1]
 80023b8:	ea47 2703 	orr.w	r7, r7, r3, lsl #8
        r->coeffs[8 * i + 0] &= 0x1FFF;
 80023bc:	f3c7 070c 	ubfx	r7, r7, #0, #13
 80023c0:	6007      	str	r7, [r0, #0]

        r->coeffs[8 * i + 1]  = a[13 * i + 1] >> 5;
 80023c2:	784d      	ldrb	r5, [r1, #1]
 80023c4:	096d      	lsrs	r5, r5, #5
 80023c6:	6045      	str	r5, [r0, #4]
        r->coeffs[8 * i + 1] |= (uint32_t)a[13 * i + 2] << 3;
 80023c8:	788b      	ldrb	r3, [r1, #2]
 80023ca:	ea45 05c3 	orr.w	r5, r5, r3, lsl #3
 80023ce:	6045      	str	r5, [r0, #4]
        r->coeffs[8 * i + 1] |= (uint32_t)a[13 * i + 3] << 11;
 80023d0:	78cb      	ldrb	r3, [r1, #3]
 80023d2:	ea45 25c3 	orr.w	r5, r5, r3, lsl #11
        r->coeffs[8 * i + 1] &= 0x1FFF;
 80023d6:	f3c5 050c 	ubfx	r5, r5, #0, #13
 80023da:	6045      	str	r5, [r0, #4]

        r->coeffs[8 * i + 2]  = a[13 * i + 3] >> 2;
 80023dc:	78ce      	ldrb	r6, [r1, #3]
 80023de:	08b6      	lsrs	r6, r6, #2
 80023e0:	6086      	str	r6, [r0, #8]
        r->coeffs[8 * i + 2] |= (uint32_t)a[13 * i + 4] << 6;
 80023e2:	790b      	ldrb	r3, [r1, #4]
 80023e4:	ea46 1683 	orr.w	r6, r6, r3, lsl #6
        r->coeffs[8 * i + 2] &= 0x1FFF;
 80023e8:	f3c6 060c 	ubfx	r6, r6, #0, #13
 80023ec:	6086      	str	r6, [r0, #8]

        r->coeffs[8 * i + 3]  = a[13 * i + 4] >> 7;
 80023ee:	790c      	ldrb	r4, [r1, #4]
 80023f0:	09e4      	lsrs	r4, r4, #7
 80023f2:	60c4      	str	r4, [r0, #12]
        r->coeffs[8 * i + 3] |= (uint32_t)a[13 * i + 5] << 1;
 80023f4:	794b      	ldrb	r3, [r1, #5]
 80023f6:	ea44 0443 	orr.w	r4, r4, r3, lsl #1
 80023fa:	60c4      	str	r4, [r0, #12]
        r->coeffs[8 * i + 3] |= (uint32_t)a[13 * i + 6] << 9;
 80023fc:	798b      	ldrb	r3, [r1, #6]
 80023fe:	ea44 2443 	orr.w	r4, r4, r3, lsl #9
        r->coeffs[8 * i + 3] &= 0x1FFF;
 8002402:	f3c4 040c 	ubfx	r4, r4, #0, #13
 8002406:	60c4      	str	r4, [r0, #12]

        r->coeffs[8 * i + 4]  = a[13 * i + 6] >> 4;
 8002408:	798a      	ldrb	r2, [r1, #6]
 800240a:	0912      	lsrs	r2, r2, #4
 800240c:	6102      	str	r2, [r0, #16]
        r->coeffs[8 * i + 4] |= (uint32_t)a[13 * i + 7] << 4;
 800240e:	79cb      	ldrb	r3, [r1, #7]
 8002410:	ea42 1203 	orr.w	r2, r2, r3, lsl #4
 8002414:	6102      	str	r2, [r0, #16]
        r->coeffs[8 * i + 4] |= (uint32_t)a[13 * i + 8] << 12;
 8002416:	7a0b      	ldrb	r3, [r1, #8]
 8002418:	ea42 3203 	orr.w	r2, r2, r3, lsl #12
        r->coeffs[8 * i + 4] &= 0x1FFF;
 800241c:	f3c2 020c 	ubfx	r2, r2, #0, #13
 8002420:	6102      	str	r2, [r0, #16]

        r->coeffs[8 * i + 5]  = a[13 * i + 8] >> 1;
 8002422:	7a0b      	ldrb	r3, [r1, #8]
 8002424:	085b      	lsrs	r3, r3, #1
 8002426:	6143      	str	r3, [r0, #20]
        r->coeffs[8 * i + 5] |= (uint32_t)a[13 * i + 9] << 7;
 8002428:	f891 e009 	ldrb.w	lr, [r1, #9]
 800242c:	ea43 13ce 	orr.w	r3, r3, lr, lsl #7
        r->coeffs[8 * i + 5] &= 0x1FFF;
 8002430:	f3c3 0e0c 	ubfx	lr, r3, #0, #13
 8002434:	f8c0 e014 	str.w	lr, [r0, #20]

        r->coeffs[8 * i + 6]  = a[13 * i + 9] >> 6;
 8002438:	7a4b      	ldrb	r3, [r1, #9]
 800243a:	099b      	lsrs	r3, r3, #6
 800243c:	6183      	str	r3, [r0, #24]
        r->coeffs[8 * i + 6] |= (uint32_t)a[13 * i + 10] << 2;
 800243e:	f891 800a 	ldrb.w	r8, [r1, #10]
 8002442:	ea43 0388 	orr.w	r3, r3, r8, lsl #2
 8002446:	6183      	str	r3, [r0, #24]
        r->coeffs[8 * i + 6] |= (uint32_t)a[13 * i + 11] << 10;
 8002448:	f891 800b 	ldrb.w	r8, [r1, #11]
 800244c:	ea43 2388 	orr.w	r3, r3, r8, lsl #10
        r->coeffs[8 * i + 6] &= 0x1FFF;
 8002450:	f3c3 030c 	ubfx	r3, r3, #0, #13
 8002454:	6183      	str	r3, [r0, #24]

        r->coeffs[8 * i + 7]  = a[13 * i + 11] >> 3;
 8002456:	f891 800b 	ldrb.w	r8, [r1, #11]
 800245a:	ea4f 08d8 	mov.w	r8, r8, lsr #3
 800245e:	f8c0 801c 	str.w	r8, [r0, #28]
        r->coeffs[8 * i + 7] |= (uint32_t)a[13 * i + 12] << 5;
 8002462:	f891 900c 	ldrb.w	r9, [r1, #12]

        r->coeffs[8 * i + 0] = (1 << (D - 1)) - r->coeffs[8 * i + 0];
        r->coeffs[8 * i + 1] = (1 << (D - 1)) - r->coeffs[8 * i + 1];
        r->coeffs[8 * i + 2] = (1 << (D - 1)) - r->coeffs[8 * i + 2];
        r->coeffs[8 * i + 3] = (1 << (D - 1)) - r->coeffs[8 * i + 3];
        r->coeffs[8 * i + 4] = (1 << (D - 1)) - r->coeffs[8 * i + 4];
 8002466:	f5c2 5280 	rsb	r2, r2, #4096	; 0x1000
        r->coeffs[8 * i + 5] = (1 << (D - 1)) - r->coeffs[8 * i + 5];
        r->coeffs[8 * i + 6] = (1 << (D - 1)) - r->coeffs[8 * i + 6];
 800246a:	f5c3 5380 	rsb	r3, r3, #4096	; 0x1000
        r->coeffs[8 * i + 7] |= (uint32_t)a[13 * i + 12] << 5;
 800246e:	ea48 1849 	orr.w	r8, r8, r9, lsl #5
        r->coeffs[8 * i + 4] = (1 << (D - 1)) - r->coeffs[8 * i + 4];
 8002472:	6102      	str	r2, [r0, #16]
        r->coeffs[8 * i + 6] = (1 << (D - 1)) - r->coeffs[8 * i + 6];
 8002474:	6183      	str	r3, [r0, #24]
        r->coeffs[8 * i + 0] = (1 << (D - 1)) - r->coeffs[8 * i + 0];
 8002476:	f5c7 5780 	rsb	r7, r7, #4096	; 0x1000
        r->coeffs[8 * i + 1] = (1 << (D - 1)) - r->coeffs[8 * i + 1];
 800247a:	f5c5 5580 	rsb	r5, r5, #4096	; 0x1000
        r->coeffs[8 * i + 2] = (1 << (D - 1)) - r->coeffs[8 * i + 2];
 800247e:	f5c6 5680 	rsb	r6, r6, #4096	; 0x1000
        r->coeffs[8 * i + 3] = (1 << (D - 1)) - r->coeffs[8 * i + 3];
 8002482:	f5c4 5480 	rsb	r4, r4, #4096	; 0x1000
        r->coeffs[8 * i + 5] = (1 << (D - 1)) - r->coeffs[8 * i + 5];
 8002486:	f5ce 5280 	rsb	r2, lr, #4096	; 0x1000
        r->coeffs[8 * i + 7] = (1 << (D - 1)) - r->coeffs[8 * i + 7];
 800248a:	f5c8 5380 	rsb	r3, r8, #4096	; 0x1000
        r->coeffs[8 * i + 0] = (1 << (D - 1)) - r->coeffs[8 * i + 0];
 800248e:	6007      	str	r7, [r0, #0]
        r->coeffs[8 * i + 1] = (1 << (D - 1)) - r->coeffs[8 * i + 1];
 8002490:	6045      	str	r5, [r0, #4]
        r->coeffs[8 * i + 2] = (1 << (D - 1)) - r->coeffs[8 * i + 2];
 8002492:	6086      	str	r6, [r0, #8]
        r->coeffs[8 * i + 3] = (1 << (D - 1)) - r->coeffs[8 * i + 3];
 8002494:	60c4      	str	r4, [r0, #12]
        r->coeffs[8 * i + 5] = (1 << (D - 1)) - r->coeffs[8 * i + 5];
 8002496:	6142      	str	r2, [r0, #20]
        r->coeffs[8 * i + 7] = (1 << (D - 1)) - r->coeffs[8 * i + 7];
 8002498:	61c3      	str	r3, [r0, #28]
    for (i = 0; i < N / 8; ++i) {
 800249a:	3020      	adds	r0, #32
 800249c:	4560      	cmp	r0, ip
 800249e:	f101 010d 	add.w	r1, r1, #13
 80024a2:	d186      	bne.n	80023b2 <PQCLEAN_DILITHIUM2_CLEAN_polyt0_unpack+0x8>
    }

    DBENCH_STOP(*tpack);
}
 80024a4:	e8bd 83f0 	ldmia.w	sp!, {r4, r5, r6, r7, r8, r9, pc}

080024a8 <PQCLEAN_DILITHIUM2_CLEAN_polyz_pack>:
*
* Arguments:   - uint8_t *r: pointer to output byte array with at least
*                            POLYZ_PACKEDBYTES bytes
*              - const poly *a: pointer to input polynomial
**************************************************/
void PQCLEAN_DILITHIUM2_CLEAN_polyz_pack(uint8_t *r, const poly *a) {
 80024a8:	b5f0      	push	{r4, r5, r6, r7, lr}
 80024aa:	f500 7610 	add.w	r6, r0, #576	; 0x240
    unsigned int i;
    uint32_t t[4];
    DBENCH_START();

    for (i = 0; i < N / 4; ++i) {
        t[0] = GAMMA1 - a->coeffs[4 * i + 0];
 80024ae:	680d      	ldr	r5, [r1, #0]
        t[1] = GAMMA1 - a->coeffs[4 * i + 1];
 80024b0:	684c      	ldr	r4, [r1, #4]
        t[2] = GAMMA1 - a->coeffs[4 * i + 2];
 80024b2:	688a      	ldr	r2, [r1, #8]
        t[3] = GAMMA1 - a->coeffs[4 * i + 3];
 80024b4:	68cb      	ldr	r3, [r1, #12]
        t[0] = GAMMA1 - a->coeffs[4 * i + 0];
 80024b6:	f5c5 3500 	rsb	r5, r5, #131072	; 0x20000
        t[1] = GAMMA1 - a->coeffs[4 * i + 1];
 80024ba:	f5c4 3400 	rsb	r4, r4, #131072	; 0x20000

        r[9 * i + 0]  = (uint8_t) t[0];
        r[9 * i + 1]  = (uint8_t) (t[0] >> 8);
 80024be:	0a2f      	lsrs	r7, r5, #8
 80024c0:	7047      	strb	r7, [r0, #1]
        r[9 * i + 2]  = (uint8_t) (t[0] >> 16);
        r[9 * i + 2] |= (uint8_t) (t[1] << 2);
 80024c2:	00a7      	lsls	r7, r4, #2
        r[9 * i + 0]  = (uint8_t) t[0];
 80024c4:	7005      	strb	r5, [r0, #0]
        r[9 * i + 2] |= (uint8_t) (t[1] << 2);
 80024c6:	ea47 4515 	orr.w	r5, r7, r5, lsr #16
        t[2] = GAMMA1 - a->coeffs[4 * i + 2];
 80024ca:	f5c2 3200 	rsb	r2, r2, #131072	; 0x20000
        r[9 * i + 2] |= (uint8_t) (t[1] << 2);
 80024ce:	7085      	strb	r5, [r0, #2]
        r[9 * i + 3]  = (uint8_t) (t[1] >> 6);
 80024d0:	09a5      	lsrs	r5, r4, #6
 80024d2:	70c5      	strb	r5, [r0, #3]
        r[9 * i + 4]  = (uint8_t) (t[1] >> 14);
        r[9 * i + 4] |= (uint8_t) (t[2] << 4);
 80024d4:	0115      	lsls	r5, r2, #4
 80024d6:	ea45 3494 	orr.w	r4, r5, r4, lsr #14
        t[3] = GAMMA1 - a->coeffs[4 * i + 3];
 80024da:	f5c3 3300 	rsb	r3, r3, #131072	; 0x20000
        r[9 * i + 4] |= (uint8_t) (t[2] << 4);
 80024de:	7104      	strb	r4, [r0, #4]
        r[9 * i + 5]  = (uint8_t) (t[2] >> 4);
 80024e0:	0914      	lsrs	r4, r2, #4
 80024e2:	7144      	strb	r4, [r0, #5]
        r[9 * i + 6]  = (uint8_t) (t[2] >> 12);
        r[9 * i + 6] |= (uint8_t) (t[3] << 6);
 80024e4:	019c      	lsls	r4, r3, #6
 80024e6:	ea44 3212 	orr.w	r2, r4, r2, lsr #12
 80024ea:	7182      	strb	r2, [r0, #6]
        r[9 * i + 7]  = (uint8_t) (t[3] >> 2);
 80024ec:	089a      	lsrs	r2, r3, #2
        r[9 * i + 8]  = (uint8_t) (t[3] >> 10);
 80024ee:	0a9b      	lsrs	r3, r3, #10
        r[9 * i + 7]  = (uint8_t) (t[3] >> 2);
 80024f0:	71c2      	strb	r2, [r0, #7]
        r[9 * i + 8]  = (uint8_t) (t[3] >> 10);
 80024f2:	7203      	strb	r3, [r0, #8]
    for (i = 0; i < N / 4; ++i) {
 80024f4:	3009      	adds	r0, #9
 80024f6:	4286      	cmp	r6, r0
 80024f8:	f101 0110 	add.w	r1, r1, #16
 80024fc:	d1d7      	bne.n	80024ae <PQCLEAN_DILITHIUM2_CLEAN_polyz_pack+0x6>
    }

    DBENCH_STOP(*tpack);
}
 80024fe:	bdf0      	pop	{r4, r5, r6, r7, pc}

08002500 <PQCLEAN_DILITHIUM2_CLEAN_polyz_unpack>:
*              in [-(GAMMA1 - 1), GAMMA1].
*
* Arguments:   - poly *r: pointer to output polynomial
*              - const uint8_t *a: byte array with bit-packed polynomial
**************************************************/
void PQCLEAN_DILITHIUM2_CLEAN_polyz_unpack(poly *r, const uint8_t *a) {
 8002500:	b5f0      	push	{r4, r5, r6, r7, lr}
 8002502:	f500 6680 	add.w	r6, r0, #1024	; 0x400
    unsigned int i;
    DBENCH_START();

    for (i = 0; i < N / 4; ++i) {
        r->coeffs[4 * i + 0]  = a[9 * i + 0];
 8002506:	780c      	ldrb	r4, [r1, #0]
 8002508:	6004      	str	r4, [r0, #0]
        r->coeffs[4 * i + 0] |= (uint32_t)a[9 * i + 1] << 8;
 800250a:	784b      	ldrb	r3, [r1, #1]
 800250c:	ea44 2403 	orr.w	r4, r4, r3, lsl #8
 8002510:	6004      	str	r4, [r0, #0]
        r->coeffs[4 * i + 0] |= (uint32_t)a[9 * i + 2] << 16;
 8002512:	788b      	ldrb	r3, [r1, #2]
 8002514:	ea44 4403 	orr.w	r4, r4, r3, lsl #16
        r->coeffs[4 * i + 0] &= 0x3FFFF;
 8002518:	f3c4 0411 	ubfx	r4, r4, #0, #18
 800251c:	6004      	str	r4, [r0, #0]

        r->coeffs[4 * i + 1]  = a[9 * i + 2] >> 2;
 800251e:	788a      	ldrb	r2, [r1, #2]
 8002520:	0892      	lsrs	r2, r2, #2
 8002522:	6042      	str	r2, [r0, #4]
        r->coeffs[4 * i + 1] |= (uint32_t)a[9 * i + 3] << 6;
 8002524:	78cb      	ldrb	r3, [r1, #3]
 8002526:	ea42 1283 	orr.w	r2, r2, r3, lsl #6
 800252a:	6042      	str	r2, [r0, #4]
        r->coeffs[4 * i + 1] |= (uint32_t)a[9 * i + 4] << 14;
 800252c:	790b      	ldrb	r3, [r1, #4]
 800252e:	ea42 3283 	orr.w	r2, r2, r3, lsl #14
        r->coeffs[4 * i + 1] &= 0x3FFFF;
 8002532:	f3c2 0211 	ubfx	r2, r2, #0, #18
 8002536:	6042      	str	r2, [r0, #4]

        r->coeffs[4 * i + 2]  = a[9 * i + 4] >> 4;
 8002538:	790b      	ldrb	r3, [r1, #4]
 800253a:	091b      	lsrs	r3, r3, #4
 800253c:	6083      	str	r3, [r0, #8]
        r->coeffs[4 * i + 2] |= (uint32_t)a[9 * i + 5] << 4;
 800253e:	794d      	ldrb	r5, [r1, #5]
 8002540:	ea43 1305 	orr.w	r3, r3, r5, lsl #4
 8002544:	6083      	str	r3, [r0, #8]
        r->coeffs[4 * i + 2] |= (uint32_t)a[9 * i + 6] << 12;
 8002546:	798d      	ldrb	r5, [r1, #6]
 8002548:	ea43 3305 	orr.w	r3, r3, r5, lsl #12
        r->coeffs[4 * i + 2] &= 0x3FFFF;
 800254c:	f3c3 0311 	ubfx	r3, r3, #0, #18
 8002550:	6083      	str	r3, [r0, #8]

        r->coeffs[4 * i + 3]  = a[9 * i + 6] >> 6;
 8002552:	798d      	ldrb	r5, [r1, #6]
 8002554:	09ad      	lsrs	r5, r5, #6
 8002556:	60c5      	str	r5, [r0, #12]
        r->coeffs[4 * i + 3] |= (uint32_t)a[9 * i + 7] << 2;
 8002558:	79cf      	ldrb	r7, [r1, #7]
 800255a:	ea45 0587 	orr.w	r5, r5, r7, lsl #2
 800255e:	60c5      	str	r5, [r0, #12]
        r->coeffs[4 * i + 3] |= (uint32_t)a[9 * i + 8] << 10;
 8002560:	7a0f      	ldrb	r7, [r1, #8]
 8002562:	ea45 2587 	orr.w	r5, r5, r7, lsl #10
        r->coeffs[4 * i + 3] &= 0x3FFFF;

        r->coeffs[4 * i + 0] = GAMMA1 - r->coeffs[4 * i + 0];
 8002566:	f5c4 3400 	rsb	r4, r4, #131072	; 0x20000
        r->coeffs[4 * i + 1] = GAMMA1 - r->coeffs[4 * i + 1];
 800256a:	f5c2 3200 	rsb	r2, r2, #131072	; 0x20000
        r->coeffs[4 * i + 2] = GAMMA1 - r->coeffs[4 * i + 2];
 800256e:	f5c3 3300 	rsb	r3, r3, #131072	; 0x20000
        r->coeffs[4 * i + 3] = GAMMA1 - r->coeffs[4 * i + 3];
 8002572:	f5c5 3500 	rsb	r5, r5, #131072	; 0x20000
        r->coeffs[4 * i + 0] = GAMMA1 - r->coeffs[4 * i + 0];
 8002576:	6004      	str	r4, [r0, #0]
        r->coeffs[4 * i + 1] = GAMMA1 - r->coeffs[4 * i + 1];
 8002578:	6042      	str	r2, [r0, #4]
        r->coeffs[4 * i + 2] = GAMMA1 - r->coeffs[4 * i + 2];
 800257a:	6083      	str	r3, [r0, #8]
        r->coeffs[4 * i + 3] = GAMMA1 - r->coeffs[4 * i + 3];
 800257c:	60c5      	str	r5, [r0, #12]
    for (i = 0; i < N / 4; ++i) {
 800257e:	3010      	adds	r0, #16
 8002580:	42b0      	cmp	r0, r6
 8002582:	f101 0109 	add.w	r1, r1, #9
 8002586:	d1be      	bne.n	8002506 <PQCLEAN_DILITHIUM2_CLEAN_polyz_unpack+0x6>
    }

    DBENCH_STOP(*tpack);
}
 8002588:	bdf0      	pop	{r4, r5, r6, r7, pc}

0800258a <PQCLEAN_DILITHIUM2_CLEAN_poly_uniform_gamma1>:
        uint16_t nonce) {
 800258a:	b510      	push	{r4, lr}
 800258c:	f5ad 7d2c 	sub.w	sp, sp, #688	; 0x2b0
 8002590:	4604      	mov	r4, r0
    stream256_init(&state, seed, nonce);
 8002592:	a801      	add	r0, sp, #4
 8002594:	f000 fa69 	bl	8002a6a <PQCLEAN_DILITHIUM2_CLEAN_dilithium_shake256_stream_init>
    stream256_squeezeblocks(buf, POLY_UNIFORM_GAMMA1_NBLOCKS, &state);
 8002598:	aa01      	add	r2, sp, #4
 800259a:	f44f 712a 	mov.w	r1, #680	; 0x2a8
 800259e:	a802      	add	r0, sp, #8
 80025a0:	f001 fb9f 	bl	8003ce2 <shake256_inc_squeeze>
    stream256_release(&state);
 80025a4:	a801      	add	r0, sp, #4
 80025a6:	f001 fba0 	bl	8003cea <shake256_inc_ctx_release>
    PQCLEAN_DILITHIUM2_CLEAN_polyz_unpack(a, buf);
 80025aa:	a902      	add	r1, sp, #8
 80025ac:	4620      	mov	r0, r4
 80025ae:	f7ff ffa7 	bl	8002500 <PQCLEAN_DILITHIUM2_CLEAN_polyz_unpack>
}
 80025b2:	f50d 7d2c 	add.w	sp, sp, #688	; 0x2b0
 80025b6:	bd10      	pop	{r4, pc}

080025b8 <PQCLEAN_DILITHIUM2_CLEAN_polyw1_pack>:
*
* Arguments:   - uint8_t *r: pointer to output byte array with at least
*                            POLYW1_PACKEDBYTES bytes
*              - const poly *a: pointer to input polynomial
**************************************************/
void PQCLEAN_DILITHIUM2_CLEAN_polyw1_pack(uint8_t *r, const poly *a) {
 80025b8:	b510      	push	{r4, lr}
 80025ba:	f100 02c0 	add.w	r2, r0, #192	; 0xc0
    unsigned int i;
    DBENCH_START();

    for (i = 0; i < N / 4; ++i) {
        r[3 * i + 0]  = (uint8_t) a->coeffs[4 * i + 0];
 80025be:	780b      	ldrb	r3, [r1, #0]
 80025c0:	7003      	strb	r3, [r0, #0]
        r[3 * i + 0] |= (uint8_t) (a->coeffs[4 * i + 1] << 6);
 80025c2:	684c      	ldr	r4, [r1, #4]
 80025c4:	ea43 1384 	orr.w	r3, r3, r4, lsl #6
 80025c8:	7003      	strb	r3, [r0, #0]
        r[3 * i + 1]  = (uint8_t) (a->coeffs[4 * i + 1] >> 2);
 80025ca:	684b      	ldr	r3, [r1, #4]
 80025cc:	f3c3 0387 	ubfx	r3, r3, #2, #8
 80025d0:	7043      	strb	r3, [r0, #1]
        r[3 * i + 1] |= (uint8_t) (a->coeffs[4 * i + 2] << 4);
 80025d2:	688c      	ldr	r4, [r1, #8]
 80025d4:	ea43 1304 	orr.w	r3, r3, r4, lsl #4
 80025d8:	7043      	strb	r3, [r0, #1]
        r[3 * i + 2]  = (uint8_t) (a->coeffs[4 * i + 2] >> 4);
 80025da:	688b      	ldr	r3, [r1, #8]
 80025dc:	f3c3 1307 	ubfx	r3, r3, #4, #8
 80025e0:	7083      	strb	r3, [r0, #2]
        r[3 * i + 2] |= (uint8_t) (a->coeffs[4 * i + 3] << 2);
 80025e2:	68cc      	ldr	r4, [r1, #12]
 80025e4:	ea43 0384 	orr.w	r3, r3, r4, lsl #2
 80025e8:	7083      	strb	r3, [r0, #2]
    for (i = 0; i < N / 4; ++i) {
 80025ea:	3003      	adds	r0, #3
 80025ec:	4290      	cmp	r0, r2
 80025ee:	f101 0110 	add.w	r1, r1, #16
 80025f2:	d1e4      	bne.n	80025be <PQCLEAN_DILITHIUM2_CLEAN_polyw1_pack+0x6>
    }

    DBENCH_STOP(*tpack);
}
 80025f4:	bd10      	pop	{r4, pc}

080025f6 <PQCLEAN_DILITHIUM2_CLEAN_polyvec_matrix_expand>:
*              sampling on the output stream of SHAKE128(rho|j|i)
*
* Arguments:   - polyvecl mat[K]: output matrix
*              - const uint8_t rho[]: byte array containing seed rho
**************************************************/
void PQCLEAN_DILITHIUM2_CLEAN_polyvec_matrix_expand(polyvecl mat[K], const uint8_t rho[SEEDBYTES]) {
 80025f6:	e92d 43f8 	stmdb	sp!, {r3, r4, r5, r6, r7, r8, r9, lr}
 80025fa:	4606      	mov	r6, r0
 80025fc:	4688      	mov	r8, r1
    unsigned int i, j;

    for (i = 0; i < K; ++i) {
 80025fe:	2500      	movs	r5, #0
        for (j = 0; j < L; ++j) {
 8002600:	022f      	lsls	r7, r5, #8
 8002602:	b2bf      	uxth	r7, r7
 8002604:	eb06 3905 	add.w	r9, r6, r5, lsl #12
 8002608:	2400      	movs	r4, #0
            PQCLEAN_DILITHIUM2_CLEAN_poly_uniform(&mat[i].vec[j], rho, (uint16_t) ((i << 8) + j));
 800260a:	193a      	adds	r2, r7, r4
 800260c:	eb09 2084 	add.w	r0, r9, r4, lsl #10
 8002610:	b292      	uxth	r2, r2
 8002612:	4641      	mov	r1, r8
        for (j = 0; j < L; ++j) {
 8002614:	3401      	adds	r4, #1
            PQCLEAN_DILITHIUM2_CLEAN_poly_uniform(&mat[i].vec[j], rho, (uint16_t) ((i << 8) + j));
 8002616:	f7ff fcdd 	bl	8001fd4 <PQCLEAN_DILITHIUM2_CLEAN_poly_uniform>
        for (j = 0; j < L; ++j) {
 800261a:	2c04      	cmp	r4, #4
 800261c:	d1f5      	bne.n	800260a <PQCLEAN_DILITHIUM2_CLEAN_polyvec_matrix_expand+0x14>
    for (i = 0; i < K; ++i) {
 800261e:	3501      	adds	r5, #1
 8002620:	2d04      	cmp	r5, #4
 8002622:	d1ed      	bne.n	8002600 <PQCLEAN_DILITHIUM2_CLEAN_polyvec_matrix_expand+0xa>
        }
    }
}
 8002624:	e8bd 83f8 	ldmia.w	sp!, {r3, r4, r5, r6, r7, r8, r9, pc}

08002628 <PQCLEAN_DILITHIUM2_CLEAN_polyvecl_uniform_eta>:

/**************************************************************/
/************ Vectors of polynomials of length L **************/
/**************************************************************/

void PQCLEAN_DILITHIUM2_CLEAN_polyvecl_uniform_eta(polyvecl *v, const uint8_t seed[CRHBYTES], uint16_t nonce) {
 8002628:	b5f8      	push	{r3, r4, r5, r6, r7, lr}
 800262a:	4605      	mov	r5, r0
 800262c:	460e      	mov	r6, r1
 800262e:	4617      	mov	r7, r2
    unsigned int i;

    for (i = 0; i < L; ++i) {
 8002630:	2400      	movs	r4, #0
        PQCLEAN_DILITHIUM2_CLEAN_poly_uniform_eta(&v->vec[i], seed, nonce++);
 8002632:	193a      	adds	r2, r7, r4
 8002634:	eb05 2084 	add.w	r0, r5, r4, lsl #10
 8002638:	b292      	uxth	r2, r2
 800263a:	4631      	mov	r1, r6
    for (i = 0; i < L; ++i) {
 800263c:	3401      	adds	r4, #1
        PQCLEAN_DILITHIUM2_CLEAN_poly_uniform_eta(&v->vec[i], seed, nonce++);
 800263e:	f7ff fd0b 	bl	8002058 <PQCLEAN_DILITHIUM2_CLEAN_poly_uniform_eta>
    for (i = 0; i < L; ++i) {
 8002642:	2c04      	cmp	r4, #4
 8002644:	d1f5      	bne.n	8002632 <PQCLEAN_DILITHIUM2_CLEAN_polyvecl_uniform_eta+0xa>
    }
}
 8002646:	bdf8      	pop	{r3, r4, r5, r6, r7, pc}

08002648 <PQCLEAN_DILITHIUM2_CLEAN_polyvecl_uniform_gamma1>:

void PQCLEAN_DILITHIUM2_CLEAN_polyvecl_uniform_gamma1(polyvecl *v, const uint8_t seed[CRHBYTES], uint16_t nonce) {
 8002648:	b5f8      	push	{r3, r4, r5, r6, r7, lr}
    unsigned int i;

    for (i = 0; i < L; ++i) {
        PQCLEAN_DILITHIUM2_CLEAN_poly_uniform_gamma1(&v->vec[i], seed, (uint16_t) (L * nonce + i));
 800264a:	0095      	lsls	r5, r2, #2
void PQCLEAN_DILITHIUM2_CLEAN_polyvecl_uniform_gamma1(polyvecl *v, const uint8_t seed[CRHBYTES], uint16_t nonce) {
 800264c:	4606      	mov	r6, r0
 800264e:	460f      	mov	r7, r1
        PQCLEAN_DILITHIUM2_CLEAN_poly_uniform_gamma1(&v->vec[i], seed, (uint16_t) (L * nonce + i));
 8002650:	b2ad      	uxth	r5, r5
    for (i = 0; i < L; ++i) {
 8002652:	2400      	movs	r4, #0
        PQCLEAN_DILITHIUM2_CLEAN_poly_uniform_gamma1(&v->vec[i], seed, (uint16_t) (L * nonce + i));
 8002654:	192a      	adds	r2, r5, r4
 8002656:	eb06 2084 	add.w	r0, r6, r4, lsl #10
 800265a:	b292      	uxth	r2, r2
 800265c:	4639      	mov	r1, r7
    for (i = 0; i < L; ++i) {
 800265e:	3401      	adds	r4, #1
        PQCLEAN_DILITHIUM2_CLEAN_poly_uniform_gamma1(&v->vec[i], seed, (uint16_t) (L * nonce + i));
 8002660:	f7ff ff93 	bl	800258a <PQCLEAN_DILITHIUM2_CLEAN_poly_uniform_gamma1>
    for (i = 0; i < L; ++i) {
 8002664:	2c04      	cmp	r4, #4
 8002666:	d1f5      	bne.n	8002654 <PQCLEAN_DILITHIUM2_CLEAN_polyvecl_uniform_gamma1+0xc>
    }
}
 8002668:	bdf8      	pop	{r3, r4, r5, r6, r7, pc}

0800266a <PQCLEAN_DILITHIUM2_CLEAN_polyvecl_reduce>:

void PQCLEAN_DILITHIUM2_CLEAN_polyvecl_reduce(polyvecl *v) {
 800266a:	b510      	push	{r4, lr}
 800266c:	4604      	mov	r4, r0
    unsigned int i;

    for (i = 0; i < L; ++i) {
        PQCLEAN_DILITHIUM2_CLEAN_poly_reduce(&v->vec[i]);
 800266e:	f7ff fbfc 	bl	8001e6a <PQCLEAN_DILITHIUM2_CLEAN_poly_reduce>
 8002672:	f504 6080 	add.w	r0, r4, #1024	; 0x400
 8002676:	f7ff fbf8 	bl	8001e6a <PQCLEAN_DILITHIUM2_CLEAN_poly_reduce>
 800267a:	f504 6000 	add.w	r0, r4, #2048	; 0x800
 800267e:	f7ff fbf4 	bl	8001e6a <PQCLEAN_DILITHIUM2_CLEAN_poly_reduce>
 8002682:	f504 6040 	add.w	r0, r4, #3072	; 0xc00
    }
}
 8002686:	e8bd 4010 	ldmia.w	sp!, {r4, lr}
        PQCLEAN_DILITHIUM2_CLEAN_poly_reduce(&v->vec[i]);
 800268a:	f7ff bbee 	b.w	8001e6a <PQCLEAN_DILITHIUM2_CLEAN_poly_reduce>

0800268e <PQCLEAN_DILITHIUM2_CLEAN_polyvecl_add>:
*
* Arguments:   - polyvecl *w: pointer to output vector
*              - const polyvecl *u: pointer to first summand
*              - const polyvecl *v: pointer to second summand
**************************************************/
void PQCLEAN_DILITHIUM2_CLEAN_polyvecl_add(polyvecl *w, const polyvecl *u, const polyvecl *v) {
 800268e:	b5f8      	push	{r3, r4, r5, r6, r7, lr}
 8002690:	4605      	mov	r5, r0
 8002692:	460e      	mov	r6, r1
 8002694:	4617      	mov	r7, r2
 8002696:	2400      	movs	r4, #0
    unsigned int i;

    for (i = 0; i < L; ++i) {
        PQCLEAN_DILITHIUM2_CLEAN_poly_add(&w->vec[i], &u->vec[i], &v->vec[i]);
 8002698:	193a      	adds	r2, r7, r4
 800269a:	1931      	adds	r1, r6, r4
 800269c:	1928      	adds	r0, r5, r4
    for (i = 0; i < L; ++i) {
 800269e:	f504 6480 	add.w	r4, r4, #1024	; 0x400
        PQCLEAN_DILITHIUM2_CLEAN_poly_add(&w->vec[i], &u->vec[i], &v->vec[i]);
 80026a2:	f7ff fbfa 	bl	8001e9a <PQCLEAN_DILITHIUM2_CLEAN_poly_add>
    for (i = 0; i < L; ++i) {
 80026a6:	f5b4 5f80 	cmp.w	r4, #4096	; 0x1000
 80026aa:	d1f5      	bne.n	8002698 <PQCLEAN_DILITHIUM2_CLEAN_polyvecl_add+0xa>
    }
}
 80026ac:	bdf8      	pop	{r3, r4, r5, r6, r7, pc}

080026ae <PQCLEAN_DILITHIUM2_CLEAN_polyvecl_ntt>:
* Description: Forward NTT of all polynomials in vector of length L. Output
*              coefficients can be up to 16*Q larger than input coefficients.
*
* Arguments:   - polyvecl *v: pointer to input/output vector
**************************************************/
void PQCLEAN_DILITHIUM2_CLEAN_polyvecl_ntt(polyvecl *v) {
 80026ae:	b510      	push	{r4, lr}
 80026b0:	4604      	mov	r4, r0
    unsigned int i;

    for (i = 0; i < L; ++i) {
        PQCLEAN_DILITHIUM2_CLEAN_poly_ntt(&v->vec[i]);
 80026b2:	f7ff fc18 	bl	8001ee6 <PQCLEAN_DILITHIUM2_CLEAN_poly_ntt>
 80026b6:	f504 6080 	add.w	r0, r4, #1024	; 0x400
 80026ba:	f7ff fc14 	bl	8001ee6 <PQCLEAN_DILITHIUM2_CLEAN_poly_ntt>
 80026be:	f504 6000 	add.w	r0, r4, #2048	; 0x800
 80026c2:	f7ff fc10 	bl	8001ee6 <PQCLEAN_DILITHIUM2_CLEAN_poly_ntt>
 80026c6:	f504 6040 	add.w	r0, r4, #3072	; 0xc00
    }
}
 80026ca:	e8bd 4010 	ldmia.w	sp!, {r4, lr}
        PQCLEAN_DILITHIUM2_CLEAN_poly_ntt(&v->vec[i]);
 80026ce:	f7ff bc0a 	b.w	8001ee6 <PQCLEAN_DILITHIUM2_CLEAN_poly_ntt>

080026d2 <PQCLEAN_DILITHIUM2_CLEAN_polyvecl_invntt_tomont>:

void PQCLEAN_DILITHIUM2_CLEAN_polyvecl_invntt_tomont(polyvecl *v) {
 80026d2:	b510      	push	{r4, lr}
 80026d4:	4604      	mov	r4, r0
    unsigned int i;

    for (i = 0; i < L; ++i) {
        PQCLEAN_DILITHIUM2_CLEAN_poly_invntt_tomont(&v->vec[i]);
 80026d6:	f7ff fc08 	bl	8001eea <PQCLEAN_DILITHIUM2_CLEAN_poly_invntt_tomont>
 80026da:	f504 6080 	add.w	r0, r4, #1024	; 0x400
 80026de:	f7ff fc04 	bl	8001eea <PQCLEAN_DILITHIUM2_CLEAN_poly_invntt_tomont>
 80026e2:	f504 6000 	add.w	r0, r4, #2048	; 0x800
 80026e6:	f7ff fc00 	bl	8001eea <PQCLEAN_DILITHIUM2_CLEAN_poly_invntt_tomont>
 80026ea:	f504 6040 	add.w	r0, r4, #3072	; 0xc00
    }
}
 80026ee:	e8bd 4010 	ldmia.w	sp!, {r4, lr}
        PQCLEAN_DILITHIUM2_CLEAN_poly_invntt_tomont(&v->vec[i]);
 80026f2:	f7ff bbfa 	b.w	8001eea <PQCLEAN_DILITHIUM2_CLEAN_poly_invntt_tomont>

080026f6 <PQCLEAN_DILITHIUM2_CLEAN_polyvecl_pointwise_poly_montgomery>:

void PQCLEAN_DILITHIUM2_CLEAN_polyvecl_pointwise_poly_montgomery(polyvecl *r, const poly *a, const polyvecl *v) {
 80026f6:	b5f8      	push	{r3, r4, r5, r6, r7, lr}
 80026f8:	4605      	mov	r5, r0
 80026fa:	460e      	mov	r6, r1
 80026fc:	4617      	mov	r7, r2
 80026fe:	2400      	movs	r4, #0
    unsigned int i;

    for (i = 0; i < L; ++i) {
        PQCLEAN_DILITHIUM2_CLEAN_poly_pointwise_montgomery(&r->vec[i], a, &v->vec[i]);
 8002700:	193a      	adds	r2, r7, r4
 8002702:	1928      	adds	r0, r5, r4
 8002704:	4631      	mov	r1, r6
    for (i = 0; i < L; ++i) {
 8002706:	f504 6480 	add.w	r4, r4, #1024	; 0x400
        PQCLEAN_DILITHIUM2_CLEAN_poly_pointwise_montgomery(&r->vec[i], a, &v->vec[i]);
 800270a:	f7ff fbf0 	bl	8001eee <PQCLEAN_DILITHIUM2_CLEAN_poly_pointwise_montgomery>
    for (i = 0; i < L; ++i) {
 800270e:	f5b4 5f80 	cmp.w	r4, #4096	; 0x1000
 8002712:	d1f5      	bne.n	8002700 <PQCLEAN_DILITHIUM2_CLEAN_polyvecl_pointwise_poly_montgomery+0xa>
    }
}
 8002714:	bdf8      	pop	{r3, r4, r5, r6, r7, pc}

08002716 <PQCLEAN_DILITHIUM2_CLEAN_polyvecl_pointwise_acc_montgomery>:
*              - const polyvecl *u: pointer to first input vector
*              - const polyvecl *v: pointer to second input vector
**************************************************/
void PQCLEAN_DILITHIUM2_CLEAN_polyvecl_pointwise_acc_montgomery(poly *w,
        const polyvecl *u,
        const polyvecl *v) {
 8002716:	b5f0      	push	{r4, r5, r6, r7, lr}
 8002718:	f2ad 4d04 	subw	sp, sp, #1028	; 0x404
 800271c:	4605      	mov	r5, r0
 800271e:	460e      	mov	r6, r1
 8002720:	4617      	mov	r7, r2
    unsigned int i;
    poly t;

    PQCLEAN_DILITHIUM2_CLEAN_poly_pointwise_montgomery(w, &u->vec[0], &v->vec[0]);
 8002722:	f7ff fbe4 	bl	8001eee <PQCLEAN_DILITHIUM2_CLEAN_poly_pointwise_montgomery>
 8002726:	f44f 6480 	mov.w	r4, #1024	; 0x400
    for (i = 1; i < L; ++i) {
        PQCLEAN_DILITHIUM2_CLEAN_poly_pointwise_montgomery(&t, &u->vec[i], &v->vec[i]);
 800272a:	193a      	adds	r2, r7, r4
 800272c:	1931      	adds	r1, r6, r4
 800272e:	4668      	mov	r0, sp
 8002730:	f7ff fbdd 	bl	8001eee <PQCLEAN_DILITHIUM2_CLEAN_poly_pointwise_montgomery>
    for (i = 1; i < L; ++i) {
 8002734:	f504 6480 	add.w	r4, r4, #1024	; 0x400
        PQCLEAN_DILITHIUM2_CLEAN_poly_add(w, w, &t);
 8002738:	466a      	mov	r2, sp
 800273a:	4629      	mov	r1, r5
 800273c:	4628      	mov	r0, r5
 800273e:	f7ff fbac 	bl	8001e9a <PQCLEAN_DILITHIUM2_CLEAN_poly_add>
    for (i = 1; i < L; ++i) {
 8002742:	f5b4 5f80 	cmp.w	r4, #4096	; 0x1000
 8002746:	d1f0      	bne.n	800272a <PQCLEAN_DILITHIUM2_CLEAN_polyvecl_pointwise_acc_montgomery+0x14>
    }
}
 8002748:	f20d 4d04 	addw	sp, sp, #1028	; 0x404
 800274c:	bdf0      	pop	{r4, r5, r6, r7, pc}

0800274e <PQCLEAN_DILITHIUM2_CLEAN_polyvec_matrix_pointwise_montgomery>:
void PQCLEAN_DILITHIUM2_CLEAN_polyvec_matrix_pointwise_montgomery(polyveck *t, const polyvecl mat[K], const polyvecl *v) {
 800274e:	b5f8      	push	{r3, r4, r5, r6, r7, lr}
 8002750:	4616      	mov	r6, r2
 8002752:	4604      	mov	r4, r0
 8002754:	460d      	mov	r5, r1
 8002756:	f500 5780 	add.w	r7, r0, #4096	; 0x1000
        PQCLEAN_DILITHIUM2_CLEAN_polyvecl_pointwise_acc_montgomery(&t->vec[i], &mat[i], v);
 800275a:	4629      	mov	r1, r5
 800275c:	4620      	mov	r0, r4
 800275e:	4632      	mov	r2, r6
    for (i = 0; i < K; ++i) {
 8002760:	f504 6480 	add.w	r4, r4, #1024	; 0x400
        PQCLEAN_DILITHIUM2_CLEAN_polyvecl_pointwise_acc_montgomery(&t->vec[i], &mat[i], v);
 8002764:	f7ff ffd7 	bl	8002716 <PQCLEAN_DILITHIUM2_CLEAN_polyvecl_pointwise_acc_montgomery>
    for (i = 0; i < K; ++i) {
 8002768:	42bc      	cmp	r4, r7
 800276a:	f505 5580 	add.w	r5, r5, #4096	; 0x1000
 800276e:	d1f4      	bne.n	800275a <PQCLEAN_DILITHIUM2_CLEAN_polyvec_matrix_pointwise_montgomery+0xc>
}
 8002770:	bdf8      	pop	{r3, r4, r5, r6, r7, pc}

08002772 <PQCLEAN_DILITHIUM2_CLEAN_polyvecl_chknorm>:
*              - int32_t B: norm bound
*
* Returns 0 if norm of all polynomials is strictly smaller than B <= (Q-1)/8
* and 1 otherwise.
**************************************************/
int PQCLEAN_DILITHIUM2_CLEAN_polyvecl_chknorm(const polyvecl *v, int32_t bound)  {
 8002772:	b570      	push	{r4, r5, r6, lr}
 8002774:	460d      	mov	r5, r1
 8002776:	4604      	mov	r4, r0
 8002778:	f500 5680 	add.w	r6, r0, #4096	; 0x1000
    unsigned int i;

    for (i = 0; i < L; ++i) {
        if (PQCLEAN_DILITHIUM2_CLEAN_poly_chknorm(&v->vec[i], bound)) {
 800277c:	4629      	mov	r1, r5
 800277e:	4620      	mov	r0, r4
 8002780:	f7ff fc10 	bl	8001fa4 <PQCLEAN_DILITHIUM2_CLEAN_poly_chknorm>
 8002784:	b920      	cbnz	r0, 8002790 <PQCLEAN_DILITHIUM2_CLEAN_polyvecl_chknorm+0x1e>
    for (i = 0; i < L; ++i) {
 8002786:	f504 6480 	add.w	r4, r4, #1024	; 0x400
 800278a:	42b4      	cmp	r4, r6
 800278c:	d1f6      	bne.n	800277c <PQCLEAN_DILITHIUM2_CLEAN_polyvecl_chknorm+0xa>
            return 1;
        }
    }

    return 0;
}
 800278e:	bd70      	pop	{r4, r5, r6, pc}
            return 1;
 8002790:	2001      	movs	r0, #1
 8002792:	e7fc      	b.n	800278e <PQCLEAN_DILITHIUM2_CLEAN_polyvecl_chknorm+0x1c>

08002794 <PQCLEAN_DILITHIUM2_CLEAN_polyveck_uniform_eta>:

/**************************************************************/
/************ Vectors of polynomials of length K **************/
/**************************************************************/

void PQCLEAN_DILITHIUM2_CLEAN_polyveck_uniform_eta(polyveck *v, const uint8_t seed[CRHBYTES], uint16_t nonce) {
 8002794:	b5f8      	push	{r3, r4, r5, r6, r7, lr}
 8002796:	4605      	mov	r5, r0
 8002798:	460e      	mov	r6, r1
 800279a:	4617      	mov	r7, r2
    unsigned int i;

    for (i = 0; i < K; ++i) {
 800279c:	2400      	movs	r4, #0
        PQCLEAN_DILITHIUM2_CLEAN_poly_uniform_eta(&v->vec[i], seed, nonce++);
 800279e:	193a      	adds	r2, r7, r4
 80027a0:	eb05 2084 	add.w	r0, r5, r4, lsl #10
 80027a4:	b292      	uxth	r2, r2
 80027a6:	4631      	mov	r1, r6
    for (i = 0; i < K; ++i) {
 80027a8:	3401      	adds	r4, #1
        PQCLEAN_DILITHIUM2_CLEAN_poly_uniform_eta(&v->vec[i], seed, nonce++);
 80027aa:	f7ff fc55 	bl	8002058 <PQCLEAN_DILITHIUM2_CLEAN_poly_uniform_eta>
    for (i = 0; i < K; ++i) {
 80027ae:	2c04      	cmp	r4, #4
 80027b0:	d1f5      	bne.n	800279e <PQCLEAN_DILITHIUM2_CLEAN_polyveck_uniform_eta+0xa>
    }
}
 80027b2:	bdf8      	pop	{r3, r4, r5, r6, r7, pc}

080027b4 <PQCLEAN_DILITHIUM2_CLEAN_polyveck_reduce>:
* Description: Reduce coefficients of polynomials in vector of length K
*              to representatives in [-6283009,6283007].
*
* Arguments:   - polyveck *v: pointer to input/output vector
**************************************************/
void PQCLEAN_DILITHIUM2_CLEAN_polyveck_reduce(polyveck *v) {
 80027b4:	b510      	push	{r4, lr}
 80027b6:	4604      	mov	r4, r0
    unsigned int i;

    for (i = 0; i < K; ++i) {
        PQCLEAN_DILITHIUM2_CLEAN_poly_reduce(&v->vec[i]);
 80027b8:	f7ff fb57 	bl	8001e6a <PQCLEAN_DILITHIUM2_CLEAN_poly_reduce>
 80027bc:	f504 6080 	add.w	r0, r4, #1024	; 0x400
 80027c0:	f7ff fb53 	bl	8001e6a <PQCLEAN_DILITHIUM2_CLEAN_poly_reduce>
 80027c4:	f504 6000 	add.w	r0, r4, #2048	; 0x800
 80027c8:	f7ff fb4f 	bl	8001e6a <PQCLEAN_DILITHIUM2_CLEAN_poly_reduce>
 80027cc:	f504 6040 	add.w	r0, r4, #3072	; 0xc00
    }
}
 80027d0:	e8bd 4010 	ldmia.w	sp!, {r4, lr}
        PQCLEAN_DILITHIUM2_CLEAN_poly_reduce(&v->vec[i]);
 80027d4:	f7ff bb49 	b.w	8001e6a <PQCLEAN_DILITHIUM2_CLEAN_poly_reduce>

080027d8 <PQCLEAN_DILITHIUM2_CLEAN_polyveck_caddq>:
* Description: For all coefficients of polynomials in vector of length K
*              add Q if coefficient is negative.
*
* Arguments:   - polyveck *v: pointer to input/output vector
**************************************************/
void PQCLEAN_DILITHIUM2_CLEAN_polyveck_caddq(polyveck *v) {
 80027d8:	b510      	push	{r4, lr}
 80027da:	4604      	mov	r4, r0
    unsigned int i;

    for (i = 0; i < K; ++i) {
        PQCLEAN_DILITHIUM2_CLEAN_poly_caddq(&v->vec[i]);
 80027dc:	f7ff fb51 	bl	8001e82 <PQCLEAN_DILITHIUM2_CLEAN_poly_caddq>
 80027e0:	f504 6080 	add.w	r0, r4, #1024	; 0x400
 80027e4:	f7ff fb4d 	bl	8001e82 <PQCLEAN_DILITHIUM2_CLEAN_poly_caddq>
 80027e8:	f504 6000 	add.w	r0, r4, #2048	; 0x800
 80027ec:	f7ff fb49 	bl	8001e82 <PQCLEAN_DILITHIUM2_CLEAN_poly_caddq>
 80027f0:	f504 6040 	add.w	r0, r4, #3072	; 0xc00
    }
}
 80027f4:	e8bd 4010 	ldmia.w	sp!, {r4, lr}
        PQCLEAN_DILITHIUM2_CLEAN_poly_caddq(&v->vec[i]);
 80027f8:	f7ff bb43 	b.w	8001e82 <PQCLEAN_DILITHIUM2_CLEAN_poly_caddq>

080027fc <PQCLEAN_DILITHIUM2_CLEAN_polyveck_add>:
*
* Arguments:   - polyveck *w: pointer to output vector
*              - const polyveck *u: pointer to first summand
*              - const polyveck *v: pointer to second summand
**************************************************/
void PQCLEAN_DILITHIUM2_CLEAN_polyveck_add(polyveck *w, const polyveck *u, const polyveck *v) {
 80027fc:	b5f8      	push	{r3, r4, r5, r6, r7, lr}
 80027fe:	4605      	mov	r5, r0
 8002800:	460e      	mov	r6, r1
 8002802:	4617      	mov	r7, r2
 8002804:	2400      	movs	r4, #0
    unsigned int i;

    for (i = 0; i < K; ++i) {
        PQCLEAN_DILITHIUM2_CLEAN_poly_add(&w->vec[i], &u->vec[i], &v->vec[i]);
 8002806:	193a      	adds	r2, r7, r4
 8002808:	1931      	adds	r1, r6, r4
 800280a:	1928      	adds	r0, r5, r4
    for (i = 0; i < K; ++i) {
 800280c:	f504 6480 	add.w	r4, r4, #1024	; 0x400
        PQCLEAN_DILITHIUM2_CLEAN_poly_add(&w->vec[i], &u->vec[i], &v->vec[i]);
 8002810:	f7ff fb43 	bl	8001e9a <PQCLEAN_DILITHIUM2_CLEAN_poly_add>
    for (i = 0; i < K; ++i) {
 8002814:	f5b4 5f80 	cmp.w	r4, #4096	; 0x1000
 8002818:	d1f5      	bne.n	8002806 <PQCLEAN_DILITHIUM2_CLEAN_polyveck_add+0xa>
    }
}
 800281a:	bdf8      	pop	{r3, r4, r5, r6, r7, pc}

0800281c <PQCLEAN_DILITHIUM2_CLEAN_polyveck_sub>:
* Arguments:   - polyveck *w: pointer to output vector
*              - const polyveck *u: pointer to first input vector
*              - const polyveck *v: pointer to second input vector to be
*                                   subtracted from first input vector
**************************************************/
void PQCLEAN_DILITHIUM2_CLEAN_polyveck_sub(polyveck *w, const polyveck *u, const polyveck *v) {
 800281c:	b5f8      	push	{r3, r4, r5, r6, r7, lr}
 800281e:	4605      	mov	r5, r0
 8002820:	460e      	mov	r6, r1
 8002822:	4617      	mov	r7, r2
 8002824:	2400      	movs	r4, #0
    unsigned int i;

    for (i = 0; i < K; ++i) {
        PQCLEAN_DILITHIUM2_CLEAN_poly_sub(&w->vec[i], &u->vec[i], &v->vec[i]);
 8002826:	193a      	adds	r2, r7, r4
 8002828:	1931      	adds	r1, r6, r4
 800282a:	1928      	adds	r0, r5, r4
    for (i = 0; i < K; ++i) {
 800282c:	f504 6480 	add.w	r4, r4, #1024	; 0x400
        PQCLEAN_DILITHIUM2_CLEAN_poly_sub(&w->vec[i], &u->vec[i], &v->vec[i]);
 8002830:	f7ff fb41 	bl	8001eb6 <PQCLEAN_DILITHIUM2_CLEAN_poly_sub>
    for (i = 0; i < K; ++i) {
 8002834:	f5b4 5f80 	cmp.w	r4, #4096	; 0x1000
 8002838:	d1f5      	bne.n	8002826 <PQCLEAN_DILITHIUM2_CLEAN_polyveck_sub+0xa>
    }
}
 800283a:	bdf8      	pop	{r3, r4, r5, r6, r7, pc}

0800283c <PQCLEAN_DILITHIUM2_CLEAN_polyveck_shiftl>:
* Description: Multiply vector of polynomials of Length K by 2^D without modular
*              reduction. Assumes input coefficients to be less than 2^{31-D}.
*
* Arguments:   - polyveck *v: pointer to input/output vector
**************************************************/
void PQCLEAN_DILITHIUM2_CLEAN_polyveck_shiftl(polyveck *v) {
 800283c:	b510      	push	{r4, lr}
 800283e:	4604      	mov	r4, r0
    unsigned int i;

    for (i = 0; i < K; ++i) {
        PQCLEAN_DILITHIUM2_CLEAN_poly_shiftl(&v->vec[i]);
 8002840:	f7ff fb47 	bl	8001ed2 <PQCLEAN_DILITHIUM2_CLEAN_poly_shiftl>
 8002844:	f504 6080 	add.w	r0, r4, #1024	; 0x400
 8002848:	f7ff fb43 	bl	8001ed2 <PQCLEAN_DILITHIUM2_CLEAN_poly_shiftl>
 800284c:	f504 6000 	add.w	r0, r4, #2048	; 0x800
 8002850:	f7ff fb3f 	bl	8001ed2 <PQCLEAN_DILITHIUM2_CLEAN_poly_shiftl>
 8002854:	f504 6040 	add.w	r0, r4, #3072	; 0xc00
    }
}
 8002858:	e8bd 4010 	ldmia.w	sp!, {r4, lr}
        PQCLEAN_DILITHIUM2_CLEAN_poly_shiftl(&v->vec[i]);
 800285c:	f7ff bb39 	b.w	8001ed2 <PQCLEAN_DILITHIUM2_CLEAN_poly_shiftl>

08002860 <PQCLEAN_DILITHIUM2_CLEAN_polyveck_ntt>:
* Description: Forward NTT of all polynomials in vector of length K. Output
*              coefficients can be up to 16*Q larger than input coefficients.
*
* Arguments:   - polyveck *v: pointer to input/output vector
**************************************************/
void PQCLEAN_DILITHIUM2_CLEAN_polyveck_ntt(polyveck *v) {
 8002860:	b510      	push	{r4, lr}
 8002862:	4604      	mov	r4, r0
    unsigned int i;

    for (i = 0; i < K; ++i) {
        PQCLEAN_DILITHIUM2_CLEAN_poly_ntt(&v->vec[i]);
 8002864:	f7ff fb3f 	bl	8001ee6 <PQCLEAN_DILITHIUM2_CLEAN_poly_ntt>
 8002868:	f504 6080 	add.w	r0, r4, #1024	; 0x400
 800286c:	f7ff fb3b 	bl	8001ee6 <PQCLEAN_DILITHIUM2_CLEAN_poly_ntt>
 8002870:	f504 6000 	add.w	r0, r4, #2048	; 0x800
 8002874:	f7ff fb37 	bl	8001ee6 <PQCLEAN_DILITHIUM2_CLEAN_poly_ntt>
 8002878:	f504 6040 	add.w	r0, r4, #3072	; 0xc00
    }
}
 800287c:	e8bd 4010 	ldmia.w	sp!, {r4, lr}
        PQCLEAN_DILITHIUM2_CLEAN_poly_ntt(&v->vec[i]);
 8002880:	f7ff bb31 	b.w	8001ee6 <PQCLEAN_DILITHIUM2_CLEAN_poly_ntt>

08002884 <PQCLEAN_DILITHIUM2_CLEAN_polyveck_invntt_tomont>:
*              in vector of length K. Input coefficients need to be less
*              than 2*Q.
*
* Arguments:   - polyveck *v: pointer to input/output vector
**************************************************/
void PQCLEAN_DILITHIUM2_CLEAN_polyveck_invntt_tomont(polyveck *v) {
 8002884:	b510      	push	{r4, lr}
 8002886:	4604      	mov	r4, r0
    unsigned int i;

    for (i = 0; i < K; ++i) {
        PQCLEAN_DILITHIUM2_CLEAN_poly_invntt_tomont(&v->vec[i]);
 8002888:	f7ff fb2f 	bl	8001eea <PQCLEAN_DILITHIUM2_CLEAN_poly_invntt_tomont>
 800288c:	f504 6080 	add.w	r0, r4, #1024	; 0x400
 8002890:	f7ff fb2b 	bl	8001eea <PQCLEAN_DILITHIUM2_CLEAN_poly_invntt_tomont>
 8002894:	f504 6000 	add.w	r0, r4, #2048	; 0x800
 8002898:	f7ff fb27 	bl	8001eea <PQCLEAN_DILITHIUM2_CLEAN_poly_invntt_tomont>
 800289c:	f504 6040 	add.w	r0, r4, #3072	; 0xc00
    }
}
 80028a0:	e8bd 4010 	ldmia.w	sp!, {r4, lr}
        PQCLEAN_DILITHIUM2_CLEAN_poly_invntt_tomont(&v->vec[i]);
 80028a4:	f7ff bb21 	b.w	8001eea <PQCLEAN_DILITHIUM2_CLEAN_poly_invntt_tomont>

080028a8 <PQCLEAN_DILITHIUM2_CLEAN_polyveck_pointwise_poly_montgomery>:

void PQCLEAN_DILITHIUM2_CLEAN_polyveck_pointwise_poly_montgomery(polyveck *r, const poly *a, const polyveck *v) {
 80028a8:	b5f8      	push	{r3, r4, r5, r6, r7, lr}
 80028aa:	4605      	mov	r5, r0
 80028ac:	460e      	mov	r6, r1
 80028ae:	4617      	mov	r7, r2
 80028b0:	2400      	movs	r4, #0
    unsigned int i;

    for (i = 0; i < K; ++i) {
        PQCLEAN_DILITHIUM2_CLEAN_poly_pointwise_montgomery(&r->vec[i], a, &v->vec[i]);
 80028b2:	193a      	adds	r2, r7, r4
 80028b4:	1928      	adds	r0, r5, r4
 80028b6:	4631      	mov	r1, r6
    for (i = 0; i < K; ++i) {
 80028b8:	f504 6480 	add.w	r4, r4, #1024	; 0x400
        PQCLEAN_DILITHIUM2_CLEAN_poly_pointwise_montgomery(&r->vec[i], a, &v->vec[i]);
 80028bc:	f7ff fb17 	bl	8001eee <PQCLEAN_DILITHIUM2_CLEAN_poly_pointwise_montgomery>
    for (i = 0; i < K; ++i) {
 80028c0:	f5b4 5f80 	cmp.w	r4, #4096	; 0x1000
 80028c4:	d1f5      	bne.n	80028b2 <PQCLEAN_DILITHIUM2_CLEAN_polyveck_pointwise_poly_montgomery+0xa>
    }
}
 80028c6:	bdf8      	pop	{r3, r4, r5, r6, r7, pc}

080028c8 <PQCLEAN_DILITHIUM2_CLEAN_polyveck_chknorm>:
*              - int32_t B: norm bound
*
* Returns 0 if norm of all polynomials are strictly smaller than B <= (Q-1)/8
* and 1 otherwise.
**************************************************/
int PQCLEAN_DILITHIUM2_CLEAN_polyveck_chknorm(const polyveck *v, int32_t bound) {
 80028c8:	b570      	push	{r4, r5, r6, lr}
 80028ca:	460d      	mov	r5, r1
 80028cc:	4604      	mov	r4, r0
 80028ce:	f500 5680 	add.w	r6, r0, #4096	; 0x1000
    unsigned int i;

    for (i = 0; i < K; ++i) {
        if (PQCLEAN_DILITHIUM2_CLEAN_poly_chknorm(&v->vec[i], bound)) {
 80028d2:	4629      	mov	r1, r5
 80028d4:	4620      	mov	r0, r4
 80028d6:	f7ff fb65 	bl	8001fa4 <PQCLEAN_DILITHIUM2_CLEAN_poly_chknorm>
 80028da:	b920      	cbnz	r0, 80028e6 <PQCLEAN_DILITHIUM2_CLEAN_polyveck_chknorm+0x1e>
    for (i = 0; i < K; ++i) {
 80028dc:	f504 6480 	add.w	r4, r4, #1024	; 0x400
 80028e0:	42b4      	cmp	r4, r6
 80028e2:	d1f6      	bne.n	80028d2 <PQCLEAN_DILITHIUM2_CLEAN_polyveck_chknorm+0xa>
            return 1;
        }
    }

    return 0;
}
 80028e4:	bd70      	pop	{r4, r5, r6, pc}
            return 1;
 80028e6:	2001      	movs	r0, #1
 80028e8:	e7fc      	b.n	80028e4 <PQCLEAN_DILITHIUM2_CLEAN_polyveck_chknorm+0x1c>

080028ea <PQCLEAN_DILITHIUM2_CLEAN_polyveck_power2round>:
*                              coefficients a1
*              - polyveck *v0: pointer to output vector of polynomials with
*                              coefficients a0
*              - const polyveck *v: pointer to input vector
**************************************************/
void PQCLEAN_DILITHIUM2_CLEAN_polyveck_power2round(polyveck *v1, polyveck *v0, const polyveck *v) {
 80028ea:	b5f8      	push	{r3, r4, r5, r6, r7, lr}
 80028ec:	4605      	mov	r5, r0
 80028ee:	460e      	mov	r6, r1
 80028f0:	4617      	mov	r7, r2
 80028f2:	2400      	movs	r4, #0
    unsigned int i;

    for (i = 0; i < K; ++i) {
        PQCLEAN_DILITHIUM2_CLEAN_poly_power2round(&v1->vec[i], &v0->vec[i], &v->vec[i]);
 80028f4:	193a      	adds	r2, r7, r4
 80028f6:	1931      	adds	r1, r6, r4
 80028f8:	1928      	adds	r0, r5, r4
    for (i = 0; i < K; ++i) {
 80028fa:	f504 6480 	add.w	r4, r4, #1024	; 0x400
        PQCLEAN_DILITHIUM2_CLEAN_poly_power2round(&v1->vec[i], &v0->vec[i], &v->vec[i]);
 80028fe:	f7ff fb0a 	bl	8001f16 <PQCLEAN_DILITHIUM2_CLEAN_poly_power2round>
    for (i = 0; i < K; ++i) {
 8002902:	f5b4 5f80 	cmp.w	r4, #4096	; 0x1000
 8002906:	d1f5      	bne.n	80028f4 <PQCLEAN_DILITHIUM2_CLEAN_polyveck_power2round+0xa>
    }
}
 8002908:	bdf8      	pop	{r3, r4, r5, r6, r7, pc}

0800290a <PQCLEAN_DILITHIUM2_CLEAN_polyveck_decompose>:
*                              coefficients a1
*              - polyveck *v0: pointer to output vector of polynomials with
*                              coefficients a0
*              - const polyveck *v: pointer to input vector
**************************************************/
void PQCLEAN_DILITHIUM2_CLEAN_polyveck_decompose(polyveck *v1, polyveck *v0, const polyveck *v) {
 800290a:	b5f8      	push	{r3, r4, r5, r6, r7, lr}
 800290c:	4605      	mov	r5, r0
 800290e:	460e      	mov	r6, r1
 8002910:	4617      	mov	r7, r2
 8002912:	2400      	movs	r4, #0
    unsigned int i;

    for (i = 0; i < K; ++i) {
        PQCLEAN_DILITHIUM2_CLEAN_poly_decompose(&v1->vec[i], &v0->vec[i], &v->vec[i]);
 8002914:	193a      	adds	r2, r7, r4
 8002916:	1931      	adds	r1, r6, r4
 8002918:	1928      	adds	r0, r5, r4
    for (i = 0; i < K; ++i) {
 800291a:	f504 6480 	add.w	r4, r4, #1024	; 0x400
        PQCLEAN_DILITHIUM2_CLEAN_poly_decompose(&v1->vec[i], &v0->vec[i], &v->vec[i]);
 800291e:	f7ff fb09 	bl	8001f34 <PQCLEAN_DILITHIUM2_CLEAN_poly_decompose>
    for (i = 0; i < K; ++i) {
 8002922:	f5b4 5f80 	cmp.w	r4, #4096	; 0x1000
 8002926:	d1f5      	bne.n	8002914 <PQCLEAN_DILITHIUM2_CLEAN_polyveck_decompose+0xa>
    }
}
 8002928:	bdf8      	pop	{r3, r4, r5, r6, r7, pc}

0800292a <PQCLEAN_DILITHIUM2_CLEAN_polyveck_make_hint>:
*
* Returns number of 1 bits.
**************************************************/
unsigned int PQCLEAN_DILITHIUM2_CLEAN_polyveck_make_hint(polyveck *h,
        const polyveck *v0,
        const polyveck *v1) {
 800292a:	e92d 41f0 	stmdb	sp!, {r4, r5, r6, r7, r8, lr}
 800292e:	2400      	movs	r4, #0
 8002930:	4606      	mov	r6, r0
 8002932:	460f      	mov	r7, r1
 8002934:	4690      	mov	r8, r2
    unsigned int i, s = 0;
 8002936:	4625      	mov	r5, r4

    for (i = 0; i < K; ++i) {
        s += PQCLEAN_DILITHIUM2_CLEAN_poly_make_hint(&h->vec[i], &v0->vec[i], &v1->vec[i]);
 8002938:	eb08 0204 	add.w	r2, r8, r4
 800293c:	1939      	adds	r1, r7, r4
 800293e:	1930      	adds	r0, r6, r4
 8002940:	f7ff fb07 	bl	8001f52 <PQCLEAN_DILITHIUM2_CLEAN_poly_make_hint>
    for (i = 0; i < K; ++i) {
 8002944:	f504 6480 	add.w	r4, r4, #1024	; 0x400
 8002948:	f5b4 5f80 	cmp.w	r4, #4096	; 0x1000
        s += PQCLEAN_DILITHIUM2_CLEAN_poly_make_hint(&h->vec[i], &v0->vec[i], &v1->vec[i]);
 800294c:	4405      	add	r5, r0
    for (i = 0; i < K; ++i) {
 800294e:	d1f3      	bne.n	8002938 <PQCLEAN_DILITHIUM2_CLEAN_polyveck_make_hint+0xe>
    }

    return s;
}
 8002950:	4628      	mov	r0, r5
 8002952:	e8bd 81f0 	ldmia.w	sp!, {r4, r5, r6, r7, r8, pc}

08002956 <PQCLEAN_DILITHIUM2_CLEAN_polyveck_use_hint>:
* Arguments:   - polyveck *w: pointer to output vector of polynomials with
*                             corrected high bits
*              - const polyveck *u: pointer to input vector
*              - const polyveck *h: pointer to input hint vector
**************************************************/
void PQCLEAN_DILITHIUM2_CLEAN_polyveck_use_hint(polyveck *w, const polyveck *u, const polyveck *h) {
 8002956:	b5f8      	push	{r3, r4, r5, r6, r7, lr}
 8002958:	4605      	mov	r5, r0
 800295a:	460e      	mov	r6, r1
 800295c:	4617      	mov	r7, r2
 800295e:	2400      	movs	r4, #0
    unsigned int i;

    for (i = 0; i < K; ++i) {
        PQCLEAN_DILITHIUM2_CLEAN_poly_use_hint(&w->vec[i], &u->vec[i], &h->vec[i]);
 8002960:	193a      	adds	r2, r7, r4
 8002962:	1931      	adds	r1, r6, r4
 8002964:	1928      	adds	r0, r5, r4
    for (i = 0; i < K; ++i) {
 8002966:	f504 6480 	add.w	r4, r4, #1024	; 0x400
        PQCLEAN_DILITHIUM2_CLEAN_poly_use_hint(&w->vec[i], &u->vec[i], &h->vec[i]);
 800296a:	f7ff fb09 	bl	8001f80 <PQCLEAN_DILITHIUM2_CLEAN_poly_use_hint>
    for (i = 0; i < K; ++i) {
 800296e:	f5b4 5f80 	cmp.w	r4, #4096	; 0x1000
 8002972:	d1f5      	bne.n	8002960 <PQCLEAN_DILITHIUM2_CLEAN_polyveck_use_hint+0xa>
    }
}
 8002974:	bdf8      	pop	{r3, r4, r5, r6, r7, pc}

08002976 <PQCLEAN_DILITHIUM2_CLEAN_polyveck_pack_w1>:

void PQCLEAN_DILITHIUM2_CLEAN_polyveck_pack_w1(uint8_t r[K * POLYW1_PACKEDBYTES], const polyveck *w1) {
 8002976:	b570      	push	{r4, r5, r6, lr}
 8002978:	4604      	mov	r4, r0
 800297a:	460d      	mov	r5, r1
 800297c:	f500 7640 	add.w	r6, r0, #768	; 0x300
    unsigned int i;

    for (i = 0; i < K; ++i) {
        PQCLEAN_DILITHIUM2_CLEAN_polyw1_pack(&r[i * POLYW1_PACKEDBYTES], &w1->vec[i]);
 8002980:	4629      	mov	r1, r5
 8002982:	4620      	mov	r0, r4
    for (i = 0; i < K; ++i) {
 8002984:	34c0      	adds	r4, #192	; 0xc0
        PQCLEAN_DILITHIUM2_CLEAN_polyw1_pack(&r[i * POLYW1_PACKEDBYTES], &w1->vec[i]);
 8002986:	f7ff fe17 	bl	80025b8 <PQCLEAN_DILITHIUM2_CLEAN_polyw1_pack>
    for (i = 0; i < K; ++i) {
 800298a:	42b4      	cmp	r4, r6
 800298c:	f505 6580 	add.w	r5, r5, #1024	; 0x400
 8002990:	d1f6      	bne.n	8002980 <PQCLEAN_DILITHIUM2_CLEAN_polyveck_pack_w1+0xa>
    }
}
 8002992:	bd70      	pop	{r4, r5, r6, pc}

08002994 <PQCLEAN_DILITHIUM2_CLEAN_power2round>:
* Returns a1.
**************************************************/
int32_t PQCLEAN_DILITHIUM2_CLEAN_power2round(int32_t *a0, int32_t a)  {
    int32_t a1;

    a1 = (a + (1 << (D - 1)) - 1) >> D;
 8002994:	f601 72ff 	addw	r2, r1, #4095	; 0xfff
    *a0 = a - (a1 << D);
 8002998:	f422 53ff 	bic.w	r3, r2, #8160	; 0x1fe0
 800299c:	f023 031f 	bic.w	r3, r3, #31
 80029a0:	1ac9      	subs	r1, r1, r3
 80029a2:	6001      	str	r1, [r0, #0]
    return a1;
}
 80029a4:	1350      	asrs	r0, r2, #13
 80029a6:	4770      	bx	lr

080029a8 <PQCLEAN_DILITHIUM2_CLEAN_decompose>:
* Returns a1.
**************************************************/
int32_t PQCLEAN_DILITHIUM2_CLEAN_decompose(int32_t *a0, int32_t a) {
    int32_t a1;

    a1  = (a + 127) >> 7;
 80029a8:	f101 037f 	add.w	r3, r1, #127	; 0x7f
    a1  = (a1 * 11275 + (1 << 23)) >> 24;
 80029ac:	f642 420b 	movw	r2, #11275	; 0x2c0b
    a1  = (a + 127) >> 7;
 80029b0:	11db      	asrs	r3, r3, #7
    a1  = (a1 * 11275 + (1 << 23)) >> 24;
 80029b2:	4353      	muls	r3, r2
 80029b4:	f503 0300 	add.w	r3, r3, #8388608	; 0x800000
 80029b8:	161b      	asrs	r3, r3, #24
    a1 ^= ((43 - a1) >> 31) & a1;
 80029ba:	f1c3 022b 	rsb	r2, r3, #43	; 0x2b
 80029be:	17d2      	asrs	r2, r2, #31
 80029c0:	ea23 0302 	bic.w	r3, r3, r2

    *a0  = a - a1 * 2 * GAMMA2;
 80029c4:	4a07      	ldr	r2, [pc, #28]	; (80029e4 <PQCLEAN_DILITHIUM2_CLEAN_decompose+0x3c>)
int32_t PQCLEAN_DILITHIUM2_CLEAN_decompose(int32_t *a0, int32_t a) {
 80029c6:	b510      	push	{r4, lr}
    *a0  = a - a1 * 2 * GAMMA2;
 80029c8:	fb02 1103 	mla	r1, r2, r3, r1
    *a0 -= (((Q - 1) / 2 - *a0) >> 31) & Q;
 80029cc:	f5c1 147f 	rsb	r4, r1, #4177920	; 0x3fc000
 80029d0:	4a05      	ldr	r2, [pc, #20]	; (80029e8 <PQCLEAN_DILITHIUM2_CLEAN_decompose+0x40>)
 80029d2:	f504 5440 	add.w	r4, r4, #12288	; 0x3000
 80029d6:	ea02 72e4 	and.w	r2, r2, r4, asr #31
 80029da:	1a89      	subs	r1, r1, r2
 80029dc:	6001      	str	r1, [r0, #0]
    return a1;
}
 80029de:	4618      	mov	r0, r3
 80029e0:	bd10      	pop	{r4, pc}
 80029e2:	bf00      	nop
 80029e4:	fffd1800 	.word	0xfffd1800
 80029e8:	007fe001 	.word	0x007fe001

080029ec <PQCLEAN_DILITHIUM2_CLEAN_make_hint>:
*              - int32_t a1: high bits of input element
*
* Returns 1 if overflow.
**************************************************/
unsigned int PQCLEAN_DILITHIUM2_CLEAN_make_hint(int32_t a0, int32_t a1) {
    if (a0 > GAMMA2 || a0 < -GAMMA2 || (a0 == -GAMMA2 && a1 != 0)) {
 80029ec:	f500 33ba 	add.w	r3, r0, #95232	; 0x17400
 80029f0:	f5b3 3f3a 	cmp.w	r3, #190464	; 0x2e800
 80029f4:	d806      	bhi.n	8002a04 <PQCLEAN_DILITHIUM2_CLEAN_make_hint+0x18>
 80029f6:	f510 3fba 	cmn.w	r0, #95232	; 0x17400
 80029fa:	d105      	bne.n	8002a08 <PQCLEAN_DILITHIUM2_CLEAN_make_hint+0x1c>
 80029fc:	1e08      	subs	r0, r1, #0
 80029fe:	bf18      	it	ne
 8002a00:	2001      	movne	r0, #1
 8002a02:	4770      	bx	lr
        return 1;
 8002a04:	2001      	movs	r0, #1
 8002a06:	4770      	bx	lr
    }

    return 0;
 8002a08:	2000      	movs	r0, #0
}
 8002a0a:	4770      	bx	lr

08002a0c <PQCLEAN_DILITHIUM2_CLEAN_use_hint>:
* Arguments:   - int32_t a: input element
*              - unsigned int hint: hint bit
*
* Returns corrected high bits.
**************************************************/
int32_t PQCLEAN_DILITHIUM2_CLEAN_use_hint(int32_t a, unsigned int hint) {
 8002a0c:	b513      	push	{r0, r1, r4, lr}
 8002a0e:	460c      	mov	r4, r1
    int32_t a0, a1;

    a1 = PQCLEAN_DILITHIUM2_CLEAN_decompose(&a0, a);
 8002a10:	4601      	mov	r1, r0
 8002a12:	a801      	add	r0, sp, #4
 8002a14:	f7ff ffc8 	bl	80029a8 <PQCLEAN_DILITHIUM2_CLEAN_decompose>
    if (hint == 0) {
 8002a18:	b12c      	cbz	r4, 8002a26 <PQCLEAN_DILITHIUM2_CLEAN_use_hint+0x1a>
        return a1;
    }

    if (a0 > 0) {
 8002a1a:	9b01      	ldr	r3, [sp, #4]
 8002a1c:	2b00      	cmp	r3, #0
 8002a1e:	dd04      	ble.n	8002a2a <PQCLEAN_DILITHIUM2_CLEAN_use_hint+0x1e>
        if (a1 == 43) {
 8002a20:	282b      	cmp	r0, #43	; 0x2b
 8002a22:	d005      	beq.n	8002a30 <PQCLEAN_DILITHIUM2_CLEAN_use_hint+0x24>
            return 0;
        }
        return a1 + 1;
 8002a24:	3001      	adds	r0, #1
    }
    if (a1 == 0) {
        return 43;
    }
    return a1 - 1;
}
 8002a26:	b002      	add	sp, #8
 8002a28:	bd10      	pop	{r4, pc}
    if (a1 == 0) {
 8002a2a:	b118      	cbz	r0, 8002a34 <PQCLEAN_DILITHIUM2_CLEAN_use_hint+0x28>
    return a1 - 1;
 8002a2c:	3801      	subs	r0, #1
 8002a2e:	e7fa      	b.n	8002a26 <PQCLEAN_DILITHIUM2_CLEAN_use_hint+0x1a>
            return 0;
 8002a30:	2000      	movs	r0, #0
 8002a32:	e7f8      	b.n	8002a26 <PQCLEAN_DILITHIUM2_CLEAN_use_hint+0x1a>
        return 43;
 8002a34:	202b      	movs	r0, #43	; 0x2b
 8002a36:	e7f6      	b.n	8002a26 <PQCLEAN_DILITHIUM2_CLEAN_use_hint+0x1a>

08002a38 <PQCLEAN_DILITHIUM2_CLEAN_dilithium_shake128_stream_init>:
#include "fips202.h"
#include "params.h"
#include "symmetric.h"
#include <stdint.h>

void PQCLEAN_DILITHIUM2_CLEAN_dilithium_shake128_stream_init(shake128incctx *state, const uint8_t seed[SEEDBYTES], uint16_t nonce) {
 8002a38:	b537      	push	{r0, r1, r2, r4, r5, lr}
 8002a3a:	4604      	mov	r4, r0
 8002a3c:	460d      	mov	r5, r1
    uint8_t t[2];
    t[0] = (uint8_t) nonce;
 8002a3e:	f88d 2004 	strb.w	r2, [sp, #4]
    t[1] = (uint8_t) (nonce >> 8);
 8002a42:	0a12      	lsrs	r2, r2, #8
 8002a44:	f88d 2005 	strb.w	r2, [sp, #5]

    shake128_inc_init(state);
 8002a48:	f001 f912 	bl	8003c70 <shake128_inc_init>
    shake128_inc_absorb(state, seed, SEEDBYTES);
 8002a4c:	4629      	mov	r1, r5
 8002a4e:	4620      	mov	r0, r4
 8002a50:	2220      	movs	r2, #32
 8002a52:	f001 f91b 	bl	8003c8c <shake128_inc_absorb>
    shake128_inc_absorb(state, t, 2);
 8002a56:	2202      	movs	r2, #2
 8002a58:	a901      	add	r1, sp, #4
 8002a5a:	4620      	mov	r0, r4
 8002a5c:	f001 f916 	bl	8003c8c <shake128_inc_absorb>
    shake128_inc_finalize(state);
 8002a60:	4620      	mov	r0, r4
 8002a62:	f001 f919 	bl	8003c98 <shake128_inc_finalize>
}
 8002a66:	b003      	add	sp, #12
 8002a68:	bd30      	pop	{r4, r5, pc}

08002a6a <PQCLEAN_DILITHIUM2_CLEAN_dilithium_shake256_stream_init>:

void PQCLEAN_DILITHIUM2_CLEAN_dilithium_shake256_stream_init(shake256incctx *state, const uint8_t seed[CRHBYTES], uint16_t nonce) {
 8002a6a:	b537      	push	{r0, r1, r2, r4, r5, lr}
 8002a6c:	4604      	mov	r4, r0
 8002a6e:	460d      	mov	r5, r1
    uint8_t t[2];
    t[0] = (uint8_t) nonce;
 8002a70:	f88d 2004 	strb.w	r2, [sp, #4]
    t[1] = (uint8_t) (nonce >> 8);
 8002a74:	0a12      	lsrs	r2, r2, #8
 8002a76:	f88d 2005 	strb.w	r2, [sp, #5]

    shake256_inc_init(state);
 8002a7a:	f001 f919 	bl	8003cb0 <shake256_inc_init>
    shake256_inc_absorb(state, seed, CRHBYTES);
 8002a7e:	4629      	mov	r1, r5
 8002a80:	4620      	mov	r0, r4
 8002a82:	2240      	movs	r2, #64	; 0x40
 8002a84:	f001 f922 	bl	8003ccc <shake256_inc_absorb>
    shake256_inc_absorb(state, t, 2);
 8002a88:	2202      	movs	r2, #2
 8002a8a:	a901      	add	r1, sp, #4
 8002a8c:	4620      	mov	r0, r4
 8002a8e:	f001 f91d 	bl	8003ccc <shake256_inc_absorb>
    shake256_inc_finalize(state);
 8002a92:	4620      	mov	r0, r4
 8002a94:	f001 f920 	bl	8003cd8 <shake256_inc_finalize>
}
 8002a98:	b003      	add	sp, #12
 8002a9a:	bd30      	pop	{r4, r5, pc}

08002a9c <load64>:
 *
 * Arguments:   - const uint8_t *x: pointer to input byte array
 *
 * Returns the loaded 64-bit unsigned integer
 **************************************************/
static uint64_t load64(const uint8_t *x) {
 8002a9c:	2300      	movs	r3, #0
 8002a9e:	b570      	push	{r4, r5, r6, lr}
    uint64_t r = 0;
 8002aa0:	4619      	mov	r1, r3
 8002aa2:	1e45      	subs	r5, r0, #1
 8002aa4:	4618      	mov	r0, r3
    for (size_t i = 0; i < 8; ++i) {
        r |= (uint64_t)x[i] << 8 * i;
 8002aa6:	f815 4f01 	ldrb.w	r4, [r5, #1]!
 8002aaa:	f1a3 0220 	sub.w	r2, r3, #32
 8002aae:	f1c3 0620 	rsb	r6, r3, #32
 8002ab2:	fa04 f202 	lsl.w	r2, r4, r2
 8002ab6:	fa24 f606 	lsr.w	r6, r4, r6
 8002aba:	409c      	lsls	r4, r3
    for (size_t i = 0; i < 8; ++i) {
 8002abc:	3308      	adds	r3, #8
        r |= (uint64_t)x[i] << 8 * i;
 8002abe:	4332      	orrs	r2, r6
    for (size_t i = 0; i < 8; ++i) {
 8002ac0:	2b40      	cmp	r3, #64	; 0x40
        r |= (uint64_t)x[i] << 8 * i;
 8002ac2:	ea40 0004 	orr.w	r0, r0, r4
 8002ac6:	ea41 0102 	orr.w	r1, r1, r2
    for (size_t i = 0; i < 8; ++i) {
 8002aca:	d1ec      	bne.n	8002aa6 <load64+0xa>
    }

    return r;
}
 8002acc:	bd70      	pop	{r4, r5, r6, pc}
 8002ace:	0000      	movs	r0, r0

08002ad0 <KeccakF1600_StatePermute>:
 *
 * Description: The Keccak F1600 Permutation
 *
 * Arguments:   - uint64_t *state: pointer to input/output Keccak state
 **************************************************/
static void KeccakF1600_StatePermute(uint64_t *state) {
 8002ad0:	e92d 4ff0 	stmdb	sp!, {r4, r5, r6, r7, r8, r9, sl, fp, lr}
 8002ad4:	b0bf      	sub	sp, #252	; 0xfc
    uint64_t Eka, Eke, Eki, Eko, Eku;
    uint64_t Ema, Eme, Emi, Emo, Emu;
    uint64_t Esa, Ese, Esi, Eso, Esu;

    // copyFromState(A, state)
    Aba = state[0];
 8002ad6:	6803      	ldr	r3, [r0, #0]
 8002ad8:	930c      	str	r3, [sp, #48]	; 0x30
 8002ada:	6843      	ldr	r3, [r0, #4]
 8002adc:	930d      	str	r3, [sp, #52]	; 0x34
    Abe = state[1];
 8002ade:	6883      	ldr	r3, [r0, #8]
 8002ae0:	930e      	str	r3, [sp, #56]	; 0x38
 8002ae2:	68c3      	ldr	r3, [r0, #12]
 8002ae4:	930f      	str	r3, [sp, #60]	; 0x3c
    Abi = state[2];
 8002ae6:	6903      	ldr	r3, [r0, #16]
 8002ae8:	9310      	str	r3, [sp, #64]	; 0x40
 8002aea:	6943      	ldr	r3, [r0, #20]
 8002aec:	9311      	str	r3, [sp, #68]	; 0x44
    Abo = state[3];
 8002aee:	6983      	ldr	r3, [r0, #24]
 8002af0:	9312      	str	r3, [sp, #72]	; 0x48
 8002af2:	69c3      	ldr	r3, [r0, #28]
 8002af4:	9313      	str	r3, [sp, #76]	; 0x4c
    Abu = state[4];
 8002af6:	6a03      	ldr	r3, [r0, #32]
 8002af8:	9314      	str	r3, [sp, #80]	; 0x50
 8002afa:	6a43      	ldr	r3, [r0, #36]	; 0x24
 8002afc:	9315      	str	r3, [sp, #84]	; 0x54
    Aga = state[5];
 8002afe:	6a83      	ldr	r3, [r0, #40]	; 0x28
 8002b00:	9316      	str	r3, [sp, #88]	; 0x58
 8002b02:	6ac3      	ldr	r3, [r0, #44]	; 0x2c
 8002b04:	9317      	str	r3, [sp, #92]	; 0x5c
    Age = state[6];
 8002b06:	6b03      	ldr	r3, [r0, #48]	; 0x30
 8002b08:	9318      	str	r3, [sp, #96]	; 0x60
 8002b0a:	6b43      	ldr	r3, [r0, #52]	; 0x34
 8002b0c:	9319      	str	r3, [sp, #100]	; 0x64
    Agi = state[7];
 8002b0e:	6b83      	ldr	r3, [r0, #56]	; 0x38
 8002b10:	931a      	str	r3, [sp, #104]	; 0x68
 8002b12:	6bc3      	ldr	r3, [r0, #60]	; 0x3c
 8002b14:	931b      	str	r3, [sp, #108]	; 0x6c
    Ago = state[8];
 8002b16:	6c03      	ldr	r3, [r0, #64]	; 0x40
 8002b18:	931c      	str	r3, [sp, #112]	; 0x70
 8002b1a:	6c43      	ldr	r3, [r0, #68]	; 0x44
 8002b1c:	931d      	str	r3, [sp, #116]	; 0x74
    Agu = state[9];
 8002b1e:	6c83      	ldr	r3, [r0, #72]	; 0x48
 8002b20:	931e      	str	r3, [sp, #120]	; 0x78
 8002b22:	6cc3      	ldr	r3, [r0, #76]	; 0x4c
 8002b24:	931f      	str	r3, [sp, #124]	; 0x7c
    Aka = state[10];
 8002b26:	6d03      	ldr	r3, [r0, #80]	; 0x50
 8002b28:	9320      	str	r3, [sp, #128]	; 0x80
 8002b2a:	6d43      	ldr	r3, [r0, #84]	; 0x54
 8002b2c:	9321      	str	r3, [sp, #132]	; 0x84
    Ake = state[11];
 8002b2e:	6d83      	ldr	r3, [r0, #88]	; 0x58
 8002b30:	9322      	str	r3, [sp, #136]	; 0x88
 8002b32:	6dc3      	ldr	r3, [r0, #92]	; 0x5c
 8002b34:	9323      	str	r3, [sp, #140]	; 0x8c
    Aki = state[12];
 8002b36:	6e03      	ldr	r3, [r0, #96]	; 0x60
 8002b38:	9324      	str	r3, [sp, #144]	; 0x90
 8002b3a:	6e43      	ldr	r3, [r0, #100]	; 0x64
 8002b3c:	9325      	str	r3, [sp, #148]	; 0x94
    Ako = state[13];
 8002b3e:	6e83      	ldr	r3, [r0, #104]	; 0x68
 8002b40:	9326      	str	r3, [sp, #152]	; 0x98
 8002b42:	6ec3      	ldr	r3, [r0, #108]	; 0x6c
 8002b44:	9327      	str	r3, [sp, #156]	; 0x9c
    Aku = state[14];
 8002b46:	6f03      	ldr	r3, [r0, #112]	; 0x70
 8002b48:	9328      	str	r3, [sp, #160]	; 0xa0
 8002b4a:	6f43      	ldr	r3, [r0, #116]	; 0x74
 8002b4c:	9329      	str	r3, [sp, #164]	; 0xa4
    Ama = state[15];
 8002b4e:	6f83      	ldr	r3, [r0, #120]	; 0x78
 8002b50:	932a      	str	r3, [sp, #168]	; 0xa8
 8002b52:	6fc3      	ldr	r3, [r0, #124]	; 0x7c
 8002b54:	932b      	str	r3, [sp, #172]	; 0xac
    Ame = state[16];
 8002b56:	f8d0 3080 	ldr.w	r3, [r0, #128]	; 0x80
 8002b5a:	932c      	str	r3, [sp, #176]	; 0xb0
 8002b5c:	f8d0 3084 	ldr.w	r3, [r0, #132]	; 0x84
 8002b60:	932d      	str	r3, [sp, #180]	; 0xb4
    Ami = state[17];
 8002b62:	f8d0 3088 	ldr.w	r3, [r0, #136]	; 0x88
 8002b66:	932e      	str	r3, [sp, #184]	; 0xb8
 8002b68:	f8d0 308c 	ldr.w	r3, [r0, #140]	; 0x8c
 8002b6c:	932f      	str	r3, [sp, #188]	; 0xbc
    Amo = state[18];
 8002b6e:	f8d0 3090 	ldr.w	r3, [r0, #144]	; 0x90
 8002b72:	9330      	str	r3, [sp, #192]	; 0xc0
 8002b74:	f8d0 3094 	ldr.w	r3, [r0, #148]	; 0x94
 8002b78:	9331      	str	r3, [sp, #196]	; 0xc4
    Amu = state[19];
 8002b7a:	f8d0 3098 	ldr.w	r3, [r0, #152]	; 0x98
 8002b7e:	9332      	str	r3, [sp, #200]	; 0xc8
 8002b80:	f8d0 309c 	ldr.w	r3, [r0, #156]	; 0x9c
 8002b84:	9333      	str	r3, [sp, #204]	; 0xcc
    Asa = state[20];
 8002b86:	f8d0 30a0 	ldr.w	r3, [r0, #160]	; 0xa0
 8002b8a:	930b      	str	r3, [sp, #44]	; 0x2c
 8002b8c:	f8d0 30a4 	ldr.w	r3, [r0, #164]	; 0xa4
 8002b90:	9334      	str	r3, [sp, #208]	; 0xd0
    Ase = state[21];
 8002b92:	f8d0 30a8 	ldr.w	r3, [r0, #168]	; 0xa8
 8002b96:	9335      	str	r3, [sp, #212]	; 0xd4
 8002b98:	f8d0 30ac 	ldr.w	r3, [r0, #172]	; 0xac
 8002b9c:	9336      	str	r3, [sp, #216]	; 0xd8
    Asi = state[22];
 8002b9e:	f8d0 30b0 	ldr.w	r3, [r0, #176]	; 0xb0
 8002ba2:	9337      	str	r3, [sp, #220]	; 0xdc
 8002ba4:	f8d0 30b4 	ldr.w	r3, [r0, #180]	; 0xb4
 8002ba8:	9338      	str	r3, [sp, #224]	; 0xe0
    Aso = state[23];
 8002baa:	f8d0 30b8 	ldr.w	r3, [r0, #184]	; 0xb8
 8002bae:	9339      	str	r3, [sp, #228]	; 0xe4
 8002bb0:	f8d0 30bc 	ldr.w	r3, [r0, #188]	; 0xbc
 8002bb4:	933a      	str	r3, [sp, #232]	; 0xe8
    Asu = state[24];
 8002bb6:	f8d0 30c0 	ldr.w	r3, [r0, #192]	; 0xc0
 8002bba:	933b      	str	r3, [sp, #236]	; 0xec
 8002bbc:	f8d0 60c4 	ldr.w	r6, [r0, #196]	; 0xc4

    for (round = 0; round < NROUNDS; round += 2) {
 8002bc0:	4b01      	ldr	r3, [pc, #4]	; (8002bc8 <KeccakF1600_StatePermute+0xf8>)
 8002bc2:	9301      	str	r3, [sp, #4]
 8002bc4:	e002      	b.n	8002bcc <KeccakF1600_StatePermute+0xfc>
 8002bc6:	bf00      	nop
 8002bc8:	0800ad08 	.word	0x0800ad08
        //    prepareTheta
        BCa = Aba ^ Aga ^ Aka ^ Ama ^ Asa;
 8002bcc:	9a16      	ldr	r2, [sp, #88]	; 0x58
 8002bce:	9b0c      	ldr	r3, [sp, #48]	; 0x30
 8002bd0:	9917      	ldr	r1, [sp, #92]	; 0x5c
 8002bd2:	4053      	eors	r3, r2
 8002bd4:	9a0d      	ldr	r2, [sp, #52]	; 0x34
 8002bd6:	ea82 0501 	eor.w	r5, r2, r1
 8002bda:	9a20      	ldr	r2, [sp, #128]	; 0x80
 8002bdc:	4053      	eors	r3, r2
 8002bde:	9a21      	ldr	r2, [sp, #132]	; 0x84
 8002be0:	4055      	eors	r5, r2
 8002be2:	9a2a      	ldr	r2, [sp, #168]	; 0xa8
 8002be4:	4053      	eors	r3, r2
 8002be6:	9a2b      	ldr	r2, [sp, #172]	; 0xac
 8002be8:	4055      	eors	r5, r2
 8002bea:	9a0b      	ldr	r2, [sp, #44]	; 0x2c
 8002bec:	4053      	eors	r3, r2
 8002bee:	9a34      	ldr	r2, [sp, #208]	; 0xd0
 8002bf0:	9309      	str	r3, [sp, #36]	; 0x24
 8002bf2:	4055      	eors	r5, r2
        BCe = Abe ^ Age ^ Ake ^ Ame ^ Ase;
 8002bf4:	9b0e      	ldr	r3, [sp, #56]	; 0x38
 8002bf6:	9a18      	ldr	r2, [sp, #96]	; 0x60
 8002bf8:	ea83 0902 	eor.w	r9, r3, r2
 8002bfc:	9b0f      	ldr	r3, [sp, #60]	; 0x3c
 8002bfe:	9a19      	ldr	r2, [sp, #100]	; 0x64
 8002c00:	ea83 0802 	eor.w	r8, r3, r2
 8002c04:	9b22      	ldr	r3, [sp, #136]	; 0x88
        BCi = Abi ^ Agi ^ Aki ^ Ami ^ Asi;
 8002c06:	9a1a      	ldr	r2, [sp, #104]	; 0x68
        BCe = Abe ^ Age ^ Ake ^ Ame ^ Ase;
 8002c08:	ea89 0903 	eor.w	r9, r9, r3
 8002c0c:	9b23      	ldr	r3, [sp, #140]	; 0x8c
 8002c0e:	ea88 0803 	eor.w	r8, r8, r3
 8002c12:	9b2c      	ldr	r3, [sp, #176]	; 0xb0
 8002c14:	ea89 0903 	eor.w	r9, r9, r3
 8002c18:	9b2d      	ldr	r3, [sp, #180]	; 0xb4
 8002c1a:	ea88 0803 	eor.w	r8, r8, r3
 8002c1e:	9b35      	ldr	r3, [sp, #212]	; 0xd4
 8002c20:	ea89 0903 	eor.w	r9, r9, r3
 8002c24:	9b36      	ldr	r3, [sp, #216]	; 0xd8
 8002c26:	ea88 0803 	eor.w	r8, r8, r3
        BCi = Abi ^ Agi ^ Aki ^ Ami ^ Asi;
 8002c2a:	9b10      	ldr	r3, [sp, #64]	; 0x40
 8002c2c:	ea83 0c02 	eor.w	ip, r3, r2
 8002c30:	9b11      	ldr	r3, [sp, #68]	; 0x44
 8002c32:	9a1b      	ldr	r2, [sp, #108]	; 0x6c
 8002c34:	ea83 0702 	eor.w	r7, r3, r2
 8002c38:	9b24      	ldr	r3, [sp, #144]	; 0x90
 8002c3a:	9a25      	ldr	r2, [sp, #148]	; 0x94
 8002c3c:	ea8c 0c03 	eor.w	ip, ip, r3
 8002c40:	4057      	eors	r7, r2
 8002c42:	9b2e      	ldr	r3, [sp, #184]	; 0xb8
 8002c44:	9a2f      	ldr	r2, [sp, #188]	; 0xbc
 8002c46:	ea8c 0c03 	eor.w	ip, ip, r3
 8002c4a:	4057      	eors	r7, r2
 8002c4c:	9b37      	ldr	r3, [sp, #220]	; 0xdc
 8002c4e:	9a38      	ldr	r2, [sp, #224]	; 0xe0
 8002c50:	ea8c 0c03 	eor.w	ip, ip, r3
 8002c54:	4057      	eors	r7, r2
        BCo = Abo ^ Ago ^ Ako ^ Amo ^ Aso;
 8002c56:	9b12      	ldr	r3, [sp, #72]	; 0x48
 8002c58:	9a1c      	ldr	r2, [sp, #112]	; 0x70
        BCu = Abu ^ Agu ^ Aku ^ Amu ^ Asu;
 8002c5a:	f8dd e07c 	ldr.w	lr, [sp, #124]	; 0x7c
        BCo = Abo ^ Ago ^ Ako ^ Amo ^ Aso;
 8002c5e:	ea83 0402 	eor.w	r4, r3, r2
 8002c62:	9b13      	ldr	r3, [sp, #76]	; 0x4c
 8002c64:	9a1d      	ldr	r2, [sp, #116]	; 0x74
 8002c66:	ea83 0102 	eor.w	r1, r3, r2
 8002c6a:	9a26      	ldr	r2, [sp, #152]	; 0x98
        BCu = Abu ^ Agu ^ Aku ^ Amu ^ Asu;
 8002c6c:	9b14      	ldr	r3, [sp, #80]	; 0x50
        BCo = Abo ^ Ago ^ Ako ^ Amo ^ Aso;
 8002c6e:	4054      	eors	r4, r2
 8002c70:	9a27      	ldr	r2, [sp, #156]	; 0x9c
 8002c72:	4051      	eors	r1, r2
 8002c74:	9a30      	ldr	r2, [sp, #192]	; 0xc0
 8002c76:	4054      	eors	r4, r2
 8002c78:	9a31      	ldr	r2, [sp, #196]	; 0xc4
 8002c7a:	4051      	eors	r1, r2
 8002c7c:	9a39      	ldr	r2, [sp, #228]	; 0xe4
 8002c7e:	4054      	eors	r4, r2
 8002c80:	9a3a      	ldr	r2, [sp, #232]	; 0xe8
 8002c82:	4051      	eors	r1, r2
        BCu = Abu ^ Agu ^ Aku ^ Amu ^ Asu;
 8002c84:	9a1e      	ldr	r2, [sp, #120]	; 0x78
 8002c86:	405a      	eors	r2, r3
 8002c88:	9b15      	ldr	r3, [sp, #84]	; 0x54
 8002c8a:	ea83 0e0e 	eor.w	lr, r3, lr
 8002c8e:	9b28      	ldr	r3, [sp, #160]	; 0xa0
 8002c90:	405a      	eors	r2, r3
 8002c92:	9b29      	ldr	r3, [sp, #164]	; 0xa4
 8002c94:	ea8e 0e03 	eor.w	lr, lr, r3
 8002c98:	9b32      	ldr	r3, [sp, #200]	; 0xc8
 8002c9a:	405a      	eors	r2, r3
 8002c9c:	9b33      	ldr	r3, [sp, #204]	; 0xcc
 8002c9e:	ea8e 0e03 	eor.w	lr, lr, r3
 8002ca2:	9b3b      	ldr	r3, [sp, #236]	; 0xec

        // thetaRhoPiChiIotaPrepareTheta(round  , A, E)
        Da = BCu ^ ROL(BCe, 1);
 8002ca4:	ea4f 0b49 	mov.w	fp, r9, lsl #1
        BCu = Abu ^ Agu ^ Aku ^ Amu ^ Asu;
 8002ca8:	405a      	eors	r2, r3
        Da = BCu ^ ROL(BCe, 1);
 8002caa:	ea4b 7bd8 	orr.w	fp, fp, r8, lsr #31
 8002cae:	ea4f 0a48 	mov.w	sl, r8, lsl #1
        BCu = Abu ^ Agu ^ Aku ^ Amu ^ Asu;
 8002cb2:	ea8e 0e06 	eor.w	lr, lr, r6
        Da = BCu ^ ROL(BCe, 1);
 8002cb6:	ea8b 0302 	eor.w	r3, fp, r2
 8002cba:	ea4a 7ad9 	orr.w	sl, sl, r9, lsr #31
 8002cbe:	9302      	str	r3, [sp, #8]
 8002cc0:	ea8a 030e 	eor.w	r3, sl, lr
 8002cc4:	9303      	str	r3, [sp, #12]
        De = BCa ^ ROL(BCi, 1);
 8002cc6:	ea4f 0b4c 	mov.w	fp, ip, lsl #1
 8002cca:	9b09      	ldr	r3, [sp, #36]	; 0x24
 8002ccc:	ea4b 7bd7 	orr.w	fp, fp, r7, lsr #31
 8002cd0:	ea4f 0a47 	mov.w	sl, r7, lsl #1
 8002cd4:	ea4a 7adc 	orr.w	sl, sl, ip, lsr #31
 8002cd8:	ea8b 0303 	eor.w	r3, fp, r3
 8002cdc:	9304      	str	r3, [sp, #16]
 8002cde:	ea8a 0305 	eor.w	r3, sl, r5
        Di = BCe ^ ROL(BCo, 1);
 8002ce2:	ea4f 0a41 	mov.w	sl, r1, lsl #1
 8002ce6:	ea4a 7ad4 	orr.w	sl, sl, r4, lsr #31
        De = BCa ^ ROL(BCi, 1);
 8002cea:	9305      	str	r3, [sp, #20]
        Di = BCe ^ ROL(BCo, 1);
 8002cec:	ea8a 0308 	eor.w	r3, sl, r8
        Do = BCi ^ ROL(BCu, 1);
 8002cf0:	ea4f 084e 	mov.w	r8, lr, lsl #1
 8002cf4:	ea48 78d2 	orr.w	r8, r8, r2, lsr #31
 8002cf8:	0052      	lsls	r2, r2, #1
 8002cfa:	ea42 72de 	orr.w	r2, r2, lr, lsr #31
        Di = BCe ^ ROL(BCo, 1);
 8002cfe:	9306      	str	r3, [sp, #24]
        Do = BCi ^ ROL(BCu, 1);
 8002d00:	ea82 030c 	eor.w	r3, r2, ip
 8002d04:	9307      	str	r3, [sp, #28]
 8002d06:	ea88 0307 	eor.w	r3, r8, r7
 8002d0a:	9308      	str	r3, [sp, #32]
        Du = BCo ^ ROL(BCa, 1);
 8002d0c:	9b09      	ldr	r3, [sp, #36]	; 0x24
 8002d0e:	006a      	lsls	r2, r5, #1
 8002d10:	ea42 72d3 	orr.w	r2, r2, r3, lsr #31
 8002d14:	005b      	lsls	r3, r3, #1
 8002d16:	ea43 73d5 	orr.w	r3, r3, r5, lsr #31
 8002d1a:	4063      	eors	r3, r4
 8002d1c:	9309      	str	r3, [sp, #36]	; 0x24
 8002d1e:	ea82 0301 	eor.w	r3, r2, r1
        Di = BCe ^ ROL(BCo, 1);
 8002d22:	ea4f 0b44 	mov.w	fp, r4, lsl #1

        Aba ^= Da;
 8002d26:	9a0c      	ldr	r2, [sp, #48]	; 0x30
        Du = BCo ^ ROL(BCa, 1);
 8002d28:	930a      	str	r3, [sp, #40]	; 0x28
        Aba ^= Da;
 8002d2a:	9b02      	ldr	r3, [sp, #8]
        Di = BCe ^ ROL(BCo, 1);
 8002d2c:	ea4b 7bd1 	orr.w	fp, fp, r1, lsr #31
 8002d30:	ea8b 0b09 	eor.w	fp, fp, r9
        Aba ^= Da;
 8002d34:	ea83 0902 	eor.w	r9, r3, r2
 8002d38:	9b03      	ldr	r3, [sp, #12]
 8002d3a:	9a0d      	ldr	r2, [sp, #52]	; 0x34
        BCa = Aba;
        Age ^= De;
        BCe = ROL(Age, 44);
        Aki ^= Di;
 8002d3c:	9906      	ldr	r1, [sp, #24]
 8002d3e:	9c25      	ldr	r4, [sp, #148]	; 0x94
        BCi = ROL(Aki, 43);
        Amo ^= Do;
 8002d40:	9f31      	ldr	r7, [sp, #196]	; 0xc4
        Aba ^= Da;
 8002d42:	ea83 0a02 	eor.w	sl, r3, r2
        Age ^= De;
 8002d46:	9a18      	ldr	r2, [sp, #96]	; 0x60
 8002d48:	9b04      	ldr	r3, [sp, #16]
 8002d4a:	ea83 0e02 	eor.w	lr, r3, r2
 8002d4e:	9a19      	ldr	r2, [sp, #100]	; 0x64
 8002d50:	9b05      	ldr	r3, [sp, #20]
 8002d52:	ea83 0c02 	eor.w	ip, r3, r2
        Aki ^= Di;
 8002d56:	9a24      	ldr	r2, [sp, #144]	; 0x90
 8002d58:	ea8b 0202 	eor.w	r2, fp, r2
 8002d5c:	404c      	eors	r4, r1
        BCi = ROL(Aki, 43);
 8002d5e:	ea4f 5852 	mov.w	r8, r2, lsr #21
 8002d62:	ea48 28c4 	orr.w	r8, r8, r4, lsl #11
 8002d66:	0d64      	lsrs	r4, r4, #21
 8002d68:	ea44 24c2 	orr.w	r4, r4, r2, lsl #11
        Amo ^= Do;
 8002d6c:	9930      	ldr	r1, [sp, #192]	; 0xc0
 8002d6e:	9a07      	ldr	r2, [sp, #28]
 8002d70:	4051      	eors	r1, r2
 8002d72:	9a08      	ldr	r2, [sp, #32]
        BCe = ROL(Age, 44);
 8002d74:	ea4f 551e 	mov.w	r5, lr, lsr #20
 8002d78:	ea45 350c 	orr.w	r5, r5, ip, lsl #12
        Amo ^= Do;
 8002d7c:	407a      	eors	r2, r7
        BCe = ROL(Age, 44);
 8002d7e:	ea4f 5c1c 	mov.w	ip, ip, lsr #20
 8002d82:	ea4c 330e 	orr.w	r3, ip, lr, lsl #12
        BCo = ROL(Amo, 21);
 8002d86:	ea4f 5e42 	mov.w	lr, r2, lsl #21
 8002d8a:	ea4e 2ed1 	orr.w	lr, lr, r1, lsr #11
 8002d8e:	0549      	lsls	r1, r1, #21
 8002d90:	ea41 21d2 	orr.w	r1, r1, r2, lsr #11
        Asu ^= Du;
 8002d94:	9f3b      	ldr	r7, [sp, #236]	; 0xec
 8002d96:	9a09      	ldr	r2, [sp, #36]	; 0x24
 8002d98:	4057      	eors	r7, r2
 8002d9a:	9a0a      	ldr	r2, [sp, #40]	; 0x28
 8002d9c:	4056      	eors	r6, r2
        BCu = ROL(Asu, 14);
 8002d9e:	03ba      	lsls	r2, r7, #14
 8002da0:	ea42 4296 	orr.w	r2, r2, r6, lsr #18
 8002da4:	ea4f 3c86 	mov.w	ip, r6, lsl #14
        Eba = BCa ^ ((~BCe) & BCi);
        Eba ^= KeccakF_RoundConstants[round];
 8002da8:	9e01      	ldr	r6, [sp, #4]
        BCu = ROL(Asu, 14);
 8002daa:	ea4c 4c97 	orr.w	ip, ip, r7, lsr #18
        Eba ^= KeccakF_RoundConstants[round];
 8002dae:	e9d6 7600 	ldrd	r7, r6, [r6]
 8002db2:	ea8a 0606 	eor.w	r6, sl, r6
 8002db6:	960d      	str	r6, [sp, #52]	; 0x34
 8002db8:	ea89 0707 	eor.w	r7, r9, r7
 8002dbc:	ea28 0605 	bic.w	r6, r8, r5
 8002dc0:	407e      	eors	r6, r7
 8002dc2:	9f0d      	ldr	r7, [sp, #52]	; 0x34
 8002dc4:	960c      	str	r6, [sp, #48]	; 0x30
 8002dc6:	ea24 0603 	bic.w	r6, r4, r3
 8002dca:	4077      	eors	r7, r6
        Ebe = BCe ^ ((~BCi) & BCo);
 8002dcc:	ea2e 0604 	bic.w	r6, lr, r4
 8002dd0:	405e      	eors	r6, r3
        Eba ^= KeccakF_RoundConstants[round];
 8002dd2:	970d      	str	r7, [sp, #52]	; 0x34
        Ebe = BCe ^ ((~BCi) & BCo);
 8002dd4:	ea21 0708 	bic.w	r7, r1, r8
 8002dd8:	406f      	eors	r7, r5
 8002dda:	9625      	str	r6, [sp, #148]	; 0x94
        Ebi = BCi ^ ((~BCo) & BCu);
        Ebo = BCo ^ ((~BCu) & BCa);
        Ebu = BCu ^ ((~BCa) & BCe);
 8002ddc:	ea25 0509 	bic.w	r5, r5, r9
        Ebi = BCi ^ ((~BCo) & BCu);
 8002de0:	ea2c 060e 	bic.w	r6, ip, lr
        Ebu = BCu ^ ((~BCa) & BCe);
 8002de4:	ea23 030a 	bic.w	r3, r3, sl
        Ebi = BCi ^ ((~BCo) & BCu);
 8002de8:	4074      	eors	r4, r6
        Ebu = BCu ^ ((~BCa) & BCe);
 8002dea:	ea83 030c 	eor.w	r3, r3, ip
        Ebo = BCo ^ ((~BCu) & BCa);
 8002dee:	ea29 0602 	bic.w	r6, r9, r2
        Ebe = BCe ^ ((~BCi) & BCo);
 8002df2:	9724      	str	r7, [sp, #144]	; 0x90
        Ebi = BCi ^ ((~BCo) & BCu);
 8002df4:	ea22 0701 	bic.w	r7, r2, r1
        Ebu = BCu ^ ((~BCa) & BCe);
 8002df8:	406a      	eors	r2, r5
        Ebo = BCo ^ ((~BCu) & BCa);
 8002dfa:	4071      	eors	r1, r6
        Ebi = BCi ^ ((~BCo) & BCu);
 8002dfc:	943c      	str	r4, [sp, #240]	; 0xf0
        Ebu = BCu ^ ((~BCa) & BCe);
 8002dfe:	9230      	str	r2, [sp, #192]	; 0xc0
        Ebo = BCo ^ ((~BCu) & BCa);
 8002e00:	ea2a 040c 	bic.w	r4, sl, ip

        Abo ^= Do;
 8002e04:	9a12      	ldr	r2, [sp, #72]	; 0x48
        Ebu = BCu ^ ((~BCa) & BCe);
 8002e06:	9331      	str	r3, [sp, #196]	; 0xc4
        Abo ^= Do;
 8002e08:	9b07      	ldr	r3, [sp, #28]
        Ebo = BCo ^ ((~BCu) & BCa);
 8002e0a:	9118      	str	r1, [sp, #96]	; 0x60
        Ebi = BCi ^ ((~BCo) & BCu);
 8002e0c:	ea87 0708 	eor.w	r7, r7, r8
        Ebo = BCo ^ ((~BCu) & BCa);
 8002e10:	ea84 010e 	eor.w	r1, r4, lr
        Abo ^= Do;
 8002e14:	405a      	eors	r2, r3
        Ebi = BCi ^ ((~BCo) & BCu);
 8002e16:	973b      	str	r7, [sp, #236]	; 0xec
        Ebo = BCo ^ ((~BCu) & BCa);
 8002e18:	9119      	str	r1, [sp, #100]	; 0x64
        Abo ^= Do;
 8002e1a:	9b08      	ldr	r3, [sp, #32]
 8002e1c:	9913      	ldr	r1, [sp, #76]	; 0x4c
        BCa = ROL(Abo, 28);
        Agu ^= Du;
        BCe = ROL(Agu, 20);
        Aka ^= Da;
 8002e1e:	9c21      	ldr	r4, [sp, #132]	; 0x84
        BCi = ROL(Aka, 3);
        Ame ^= De;
        BCo = ROL(Ame, 45);
        Asi ^= Di;
 8002e20:	9f38      	ldr	r7, [sp, #224]	; 0xe0
        Abo ^= Do;
 8002e22:	4059      	eors	r1, r3
        BCa = ROL(Abo, 28);
 8002e24:	ea4f 7c01 	mov.w	ip, r1, lsl #28
 8002e28:	ea4c 1c12 	orr.w	ip, ip, r2, lsr #4
 8002e2c:	0712      	lsls	r2, r2, #28
 8002e2e:	ea42 1e11 	orr.w	lr, r2, r1, lsr #4
        Agu ^= Du;
 8002e32:	9b09      	ldr	r3, [sp, #36]	; 0x24
 8002e34:	9a1e      	ldr	r2, [sp, #120]	; 0x78
        Aka ^= Da;
 8002e36:	9920      	ldr	r1, [sp, #128]	; 0x80
        Agu ^= Du;
 8002e38:	ea83 0802 	eor.w	r8, r3, r2
 8002e3c:	9a1f      	ldr	r2, [sp, #124]	; 0x7c
 8002e3e:	9b0a      	ldr	r3, [sp, #40]	; 0x28
 8002e40:	ea83 0602 	eor.w	r6, r3, r2
        Aka ^= Da;
 8002e44:	9a02      	ldr	r2, [sp, #8]
 8002e46:	404a      	eors	r2, r1
 8002e48:	9903      	ldr	r1, [sp, #12]
 8002e4a:	404c      	eors	r4, r1
        BCi = ROL(Aka, 3);
 8002e4c:	ea4f 09c4 	mov.w	r9, r4, lsl #3
 8002e50:	ea49 7952 	orr.w	r9, r9, r2, lsr #29
 8002e54:	00d2      	lsls	r2, r2, #3
 8002e56:	ea42 7454 	orr.w	r4, r2, r4, lsr #29
        Ame ^= De;
 8002e5a:	992c      	ldr	r1, [sp, #176]	; 0xb0
 8002e5c:	9a04      	ldr	r2, [sp, #16]
        BCe = ROL(Agu, 20);
 8002e5e:	0535      	lsls	r5, r6, #20
 8002e60:	ea45 3518 	orr.w	r5, r5, r8, lsr #12
 8002e64:	ea4f 5808 	mov.w	r8, r8, lsl #20
 8002e68:	ea48 3316 	orr.w	r3, r8, r6, lsr #12
        Ame ^= De;
 8002e6c:	4051      	eors	r1, r2
 8002e6e:	9e2d      	ldr	r6, [sp, #180]	; 0xb4
 8002e70:	9a05      	ldr	r2, [sp, #20]
        BCo = ROL(Ame, 45);
 8002e72:	ea4f 48d1 	mov.w	r8, r1, lsr #19
        Ame ^= De;
 8002e76:	4072      	eors	r2, r6
        BCo = ROL(Ame, 45);
 8002e78:	ea48 3842 	orr.w	r8, r8, r2, lsl #13
 8002e7c:	0cd2      	lsrs	r2, r2, #19
 8002e7e:	ea42 3241 	orr.w	r2, r2, r1, lsl #13
        Asi ^= Di;
 8002e82:	9937      	ldr	r1, [sp, #220]	; 0xdc
 8002e84:	ea8b 0601 	eor.w	r6, fp, r1
 8002e88:	9906      	ldr	r1, [sp, #24]
 8002e8a:	4079      	eors	r1, r7
        BCu = ROL(Asi, 61);
 8002e8c:	08f7      	lsrs	r7, r6, #3
 8002e8e:	ea47 7741 	orr.w	r7, r7, r1, lsl #29
        Ega = BCa ^ ((~BCe) & BCi);
 8002e92:	ea24 0a03 	bic.w	sl, r4, r3
        BCu = ROL(Asi, 61);
 8002e96:	08c9      	lsrs	r1, r1, #3
 8002e98:	ea41 7146 	orr.w	r1, r1, r6, lsl #29
        Ega = BCa ^ ((~BCe) & BCi);
 8002e9c:	ea8a 0a0e 	eor.w	sl, sl, lr
 8002ea0:	ea29 0605 	bic.w	r6, r9, r5
 8002ea4:	ea86 060c 	eor.w	r6, r6, ip
 8002ea8:	f8cd a0b0 	str.w	sl, [sp, #176]	; 0xb0
        Ege = BCe ^ ((~BCi) & BCo);
 8002eac:	ea28 0a04 	bic.w	sl, r8, r4
 8002eb0:	ea8a 0a03 	eor.w	sl, sl, r3
        Ega = BCa ^ ((~BCe) & BCi);
 8002eb4:	962d      	str	r6, [sp, #180]	; 0xb4
        Ege = BCe ^ ((~BCi) & BCo);
 8002eb6:	ea22 0609 	bic.w	r6, r2, r9
 8002eba:	406e      	eors	r6, r5
 8002ebc:	f8cd a048 	str.w	sl, [sp, #72]	; 0x48
        Egi = BCi ^ ((~BCo) & BCu);
 8002ec0:	ea27 0a08 	bic.w	sl, r7, r8
 8002ec4:	ea8a 0404 	eor.w	r4, sl, r4
        Ege = BCe ^ ((~BCi) & BCo);
 8002ec8:	9613      	str	r6, [sp, #76]	; 0x4c
        Egi = BCi ^ ((~BCo) & BCu);
 8002eca:	ea21 0602 	bic.w	r6, r1, r2
 8002ece:	9420      	str	r4, [sp, #128]	; 0x80
 8002ed0:	ea86 0409 	eor.w	r4, r6, r9
        Ego = BCo ^ ((~BCu) & BCa);
 8002ed4:	ea2e 0607 	bic.w	r6, lr, r7
        Egu = BCu ^ ((~BCa) & BCe);
 8002ed8:	ea23 0e0e 	bic.w	lr, r3, lr
 8002edc:	ea8e 0307 	eor.w	r3, lr, r7
 8002ee0:	ea25 050c 	bic.w	r5, r5, ip
        Egi = BCi ^ ((~BCo) & BCu);
 8002ee4:	9421      	str	r4, [sp, #132]	; 0x84
        Ego = BCo ^ ((~BCu) & BCa);
 8002ee6:	ea2c 0401 	bic.w	r4, ip, r1
 8002eea:	4062      	eors	r2, r4
        Egu = BCu ^ ((~BCa) & BCe);
 8002eec:	931e      	str	r3, [sp, #120]	; 0x78
 8002eee:	ea85 0301 	eor.w	r3, r5, r1
        Ego = BCo ^ ((~BCu) & BCa);
 8002ef2:	9238      	str	r2, [sp, #224]	; 0xe0
        Egu = BCu ^ ((~BCa) & BCe);
 8002ef4:	931f      	str	r3, [sp, #124]	; 0x7c

        Abe ^= De;
 8002ef6:	9a0e      	ldr	r2, [sp, #56]	; 0x38
 8002ef8:	9b04      	ldr	r3, [sp, #16]
 8002efa:	ea83 0902 	eor.w	r9, r3, r2
 8002efe:	9b05      	ldr	r3, [sp, #20]
 8002f00:	9a0f      	ldr	r2, [sp, #60]	; 0x3c
 8002f02:	ea83 0502 	eor.w	r5, r3, r2
        BCa = ROL(Abe, 1);
        Agi ^= Di;
 8002f06:	9b1a      	ldr	r3, [sp, #104]	; 0x68
        Ego = BCo ^ ((~BCu) & BCa);
 8002f08:	ea86 0608 	eor.w	r6, r6, r8
        Agi ^= Di;
 8002f0c:	ea8b 0203 	eor.w	r2, fp, r3
        Ego = BCo ^ ((~BCu) & BCa);
 8002f10:	9637      	str	r6, [sp, #220]	; 0xdc
        Agi ^= Di;
 8002f12:	9b06      	ldr	r3, [sp, #24]
 8002f14:	991b      	ldr	r1, [sp, #108]	; 0x6c
 8002f16:	ea83 0701 	eor.w	r7, r3, r1
        BCe = ROL(Agi, 6);
 8002f1a:	01be      	lsls	r6, r7, #6
 8002f1c:	ea46 6692 	orr.w	r6, r6, r2, lsr #26
 8002f20:	0192      	lsls	r2, r2, #6
 8002f22:	ea42 6397 	orr.w	r3, r2, r7, lsr #26
        Ako ^= Do;
 8002f26:	9926      	ldr	r1, [sp, #152]	; 0x98
 8002f28:	9a07      	ldr	r2, [sp, #28]
 8002f2a:	ea82 0701 	eor.w	r7, r2, r1
 8002f2e:	9927      	ldr	r1, [sp, #156]	; 0x9c
 8002f30:	9a08      	ldr	r2, [sp, #32]
        BCa = ROL(Abe, 1);
 8002f32:	ea4f 0c45 	mov.w	ip, r5, lsl #1
 8002f36:	ea4c 7cd9 	orr.w	ip, ip, r9, lsr #31
        Ako ^= Do;
 8002f3a:	404a      	eors	r2, r1
        BCa = ROL(Abe, 1);
 8002f3c:	ea4f 0949 	mov.w	r9, r9, lsl #1
        BCi = ROL(Ako, 25);
 8002f40:	0679      	lsls	r1, r7, #25
        BCa = ROL(Abe, 1);
 8002f42:	ea49 74d5 	orr.w	r4, r9, r5, lsr #31
        BCi = ROL(Ako, 25);
 8002f46:	ea41 11d2 	orr.w	r1, r1, r2, lsr #7
        Amu ^= Du;
 8002f4a:	9d32      	ldr	r5, [sp, #200]	; 0xc8
        BCo = ROL(Amu, 8);
        Asa ^= Da;
 8002f4c:	f8dd 90d0 	ldr.w	r9, [sp, #208]	; 0xd0
        BCi = ROL(Ako, 25);
 8002f50:	ea4f 6842 	mov.w	r8, r2, lsl #25
        Amu ^= Du;
 8002f54:	9a09      	ldr	r2, [sp, #36]	; 0x24
        BCi = ROL(Ako, 25);
 8002f56:	ea48 18d7 	orr.w	r8, r8, r7, lsr #7
        Amu ^= Du;
 8002f5a:	4055      	eors	r5, r2
 8002f5c:	9f33      	ldr	r7, [sp, #204]	; 0xcc
 8002f5e:	9a0a      	ldr	r2, [sp, #40]	; 0x28
 8002f60:	407a      	eors	r2, r7
        BCo = ROL(Amu, 8);
 8002f62:	ea4f 2e02 	mov.w	lr, r2, lsl #8
 8002f66:	ea4e 6e15 	orr.w	lr, lr, r5, lsr #24
 8002f6a:	022d      	lsls	r5, r5, #8
 8002f6c:	ea45 6512 	orr.w	r5, r5, r2, lsr #24
        Asa ^= Da;
 8002f70:	9f0b      	ldr	r7, [sp, #44]	; 0x2c
 8002f72:	9a02      	ldr	r2, [sp, #8]
 8002f74:	407a      	eors	r2, r7
 8002f76:	9f03      	ldr	r7, [sp, #12]
 8002f78:	ea87 0909 	eor.w	r9, r7, r9
        BCu = ROL(Asa, 18);
 8002f7c:	ea4f 4789 	mov.w	r7, r9, lsl #18
 8002f80:	ea47 3792 	orr.w	r7, r7, r2, lsr #14
        Eka = BCa ^ ((~BCe) & BCi);
 8002f84:	ea21 0a03 	bic.w	sl, r1, r3
        BCu = ROL(Asa, 18);
 8002f88:	0492      	lsls	r2, r2, #18
 8002f8a:	ea42 3299 	orr.w	r2, r2, r9, lsr #14
        Eka = BCa ^ ((~BCe) & BCi);
 8002f8e:	ea8a 0a04 	eor.w	sl, sl, r4
 8002f92:	ea28 0906 	bic.w	r9, r8, r6
 8002f96:	ea89 090c 	eor.w	r9, r9, ip
 8002f9a:	f8cd a068 	str.w	sl, [sp, #104]	; 0x68
        Eke = BCe ^ ((~BCi) & BCo);
 8002f9e:	ea25 0a01 	bic.w	sl, r5, r1
 8002fa2:	ea8a 0a03 	eor.w	sl, sl, r3
        Eka = BCa ^ ((~BCe) & BCi);
 8002fa6:	f8cd 906c 	str.w	r9, [sp, #108]	; 0x6c
        Eki = BCi ^ ((~BCo) & BCu);
        Eko = BCo ^ ((~BCu) & BCa);
        Eku = BCu ^ ((~BCa) & BCe);
 8002faa:	ea23 0304 	bic.w	r3, r3, r4
        Eke = BCe ^ ((~BCi) & BCo);
 8002fae:	ea2e 0908 	bic.w	r9, lr, r8
 8002fb2:	ea89 0906 	eor.w	r9, r9, r6
        Eku = BCu ^ ((~BCa) & BCe);
 8002fb6:	4053      	eors	r3, r2
 8002fb8:	ea26 060c 	bic.w	r6, r6, ip
        Eke = BCe ^ ((~BCi) & BCo);
 8002fbc:	f8cd a0c8 	str.w	sl, [sp, #200]	; 0xc8
        Eki = BCi ^ ((~BCo) & BCu);
 8002fc0:	ea22 0a05 	bic.w	sl, r2, r5
 8002fc4:	ea8a 0101 	eor.w	r1, sl, r1
        Eke = BCe ^ ((~BCi) & BCo);
 8002fc8:	f8cd 90cc 	str.w	r9, [sp, #204]	; 0xcc
        Eku = BCu ^ ((~BCa) & BCe);
 8002fcc:	9334      	str	r3, [sp, #208]	; 0xd0
        Eki = BCi ^ ((~BCo) & BCu);
 8002fce:	ea27 090e 	bic.w	r9, r7, lr
        Eku = BCu ^ ((~BCa) & BCe);
 8002fd2:	ea86 0307 	eor.w	r3, r6, r7
        Eki = BCi ^ ((~BCo) & BCu);
 8002fd6:	910e      	str	r1, [sp, #56]	; 0x38
        Eku = BCu ^ ((~BCa) & BCe);
 8002fd8:	933d      	str	r3, [sp, #244]	; 0xf4
        Eki = BCi ^ ((~BCo) & BCu);
 8002fda:	ea89 0108 	eor.w	r1, r9, r8

        Abu ^= Du;
 8002fde:	9b09      	ldr	r3, [sp, #36]	; 0x24
        Eki = BCi ^ ((~BCo) & BCu);
 8002fe0:	910f      	str	r1, [sp, #60]	; 0x3c
        Eko = BCo ^ ((~BCu) & BCa);
 8002fe2:	ea24 0802 	bic.w	r8, r4, r2
        Abu ^= Du;
 8002fe6:	9a14      	ldr	r2, [sp, #80]	; 0x50
        Eko = BCo ^ ((~BCu) & BCa);
 8002fe8:	ea2c 0107 	bic.w	r1, ip, r7
        Abu ^= Du;
 8002fec:	ea83 0702 	eor.w	r7, r3, r2
 8002ff0:	9b0a      	ldr	r3, [sp, #40]	; 0x28
 8002ff2:	9a15      	ldr	r2, [sp, #84]	; 0x54
 8002ff4:	ea83 0602 	eor.w	r6, r3, r2
        BCa = ROL(Abu, 27);
        Aga ^= Da;
 8002ff8:	9a16      	ldr	r2, [sp, #88]	; 0x58
 8002ffa:	9b02      	ldr	r3, [sp, #8]
        Eko = BCo ^ ((~BCu) & BCa);
 8002ffc:	ea81 010e 	eor.w	r1, r1, lr
        Aga ^= Da;
 8003000:	4053      	eors	r3, r2
        Eko = BCo ^ ((~BCu) & BCa);
 8003002:	9127      	str	r1, [sp, #156]	; 0x9c
        Aga ^= Da;
 8003004:	9a03      	ldr	r2, [sp, #12]
 8003006:	9917      	ldr	r1, [sp, #92]	; 0x5c
        BCa = ROL(Abu, 27);
 8003008:	ea4f 6ec6 	mov.w	lr, r6, lsl #27
 800300c:	ea4e 1e57 	orr.w	lr, lr, r7, lsr #5
 8003010:	06ff      	lsls	r7, r7, #27
 8003012:	ea47 1c56 	orr.w	ip, r7, r6, lsr #5
        Aga ^= Da;
 8003016:	4051      	eors	r1, r2
        BCe = ROL(Aga, 36);
 8003018:	0f1e      	lsrs	r6, r3, #28
 800301a:	ea46 1601 	orr.w	r6, r6, r1, lsl #4
        Eko = BCo ^ ((~BCu) & BCa);
 800301e:	ea88 0505 	eor.w	r5, r8, r5
        BCe = ROL(Aga, 36);
 8003022:	0f09      	lsrs	r1, r1, #28
 8003024:	ea41 1103 	orr.w	r1, r1, r3, lsl #4
        Eko = BCo ^ ((~BCu) & BCa);
 8003028:	9526      	str	r5, [sp, #152]	; 0x98
        Ake ^= De;
 800302a:	9b04      	ldr	r3, [sp, #16]
 800302c:	9a22      	ldr	r2, [sp, #136]	; 0x88
        BCi = ROL(Ake, 10);
        Ami ^= Di;
        BCo = ROL(Ami, 15);
        Aso ^= Do;
 800302e:	9f39      	ldr	r7, [sp, #228]	; 0xe4
        Ake ^= De;
 8003030:	ea83 0402 	eor.w	r4, r3, r2
 8003034:	9a23      	ldr	r2, [sp, #140]	; 0x8c
 8003036:	9b05      	ldr	r3, [sp, #20]
 8003038:	ea83 0502 	eor.w	r5, r3, r2
        BCi = ROL(Ake, 10);
 800303c:	ea4f 2885 	mov.w	r8, r5, lsl #10
 8003040:	ea48 5894 	orr.w	r8, r8, r4, lsr #22
 8003044:	02a4      	lsls	r4, r4, #10
 8003046:	ea44 5595 	orr.w	r5, r4, r5, lsr #22
        Ami ^= Di;
 800304a:	9a06      	ldr	r2, [sp, #24]
 800304c:	9c2f      	ldr	r4, [sp, #188]	; 0xbc
 800304e:	9b2e      	ldr	r3, [sp, #184]	; 0xb8
 8003050:	4054      	eors	r4, r2
 8003052:	ea8b 0303 	eor.w	r3, fp, r3
        BCo = ROL(Ami, 15);
 8003056:	03e2      	lsls	r2, r4, #15
 8003058:	ea42 4253 	orr.w	r2, r2, r3, lsr #17
 800305c:	03db      	lsls	r3, r3, #15
 800305e:	ea43 4354 	orr.w	r3, r3, r4, lsr #17
        Aso ^= Do;
 8003062:	9c07      	ldr	r4, [sp, #28]
 8003064:	ea84 0907 	eor.w	r9, r4, r7
 8003068:	9f3a      	ldr	r7, [sp, #232]	; 0xe8
 800306a:	9c08      	ldr	r4, [sp, #32]
 800306c:	407c      	eors	r4, r7
        BCu = ROL(Aso, 56);
 800306e:	ea4f 2719 	mov.w	r7, r9, lsr #8
 8003072:	ea47 6704 	orr.w	r7, r7, r4, lsl #24
        Ema = BCa ^ ((~BCe) & BCi);
 8003076:	ea25 0a06 	bic.w	sl, r5, r6
        BCu = ROL(Aso, 56);
 800307a:	0a24      	lsrs	r4, r4, #8
 800307c:	ea44 6409 	orr.w	r4, r4, r9, lsl #24
        Ema = BCa ^ ((~BCe) & BCi);
 8003080:	ea8a 0a0c 	eor.w	sl, sl, ip
 8003084:	ea28 0901 	bic.w	r9, r8, r1
 8003088:	ea89 090e 	eor.w	r9, r9, lr
 800308c:	f8cd a0e4 	str.w	sl, [sp, #228]	; 0xe4
        Eme = BCe ^ ((~BCi) & BCo);
 8003090:	ea23 0a05 	bic.w	sl, r3, r5
 8003094:	ea8a 0a06 	eor.w	sl, sl, r6
        Ema = BCa ^ ((~BCe) & BCi);
 8003098:	f8cd 90e8 	str.w	r9, [sp, #232]	; 0xe8
        Eme = BCe ^ ((~BCi) & BCo);
 800309c:	ea22 0908 	bic.w	r9, r2, r8
 80030a0:	ea89 0901 	eor.w	r9, r9, r1
 80030a4:	f8cd a058 	str.w	sl, [sp, #88]	; 0x58
        Emi = BCi ^ ((~BCo) & BCu);
 80030a8:	ea27 0a03 	bic.w	sl, r7, r3
 80030ac:	ea8a 0505 	eor.w	r5, sl, r5
        Eme = BCe ^ ((~BCi) & BCo);
 80030b0:	f8cd 905c 	str.w	r9, [sp, #92]	; 0x5c
        Emi = BCi ^ ((~BCo) & BCu);
 80030b4:	ea24 0902 	bic.w	r9, r4, r2
 80030b8:	952e      	str	r5, [sp, #184]	; 0xb8
 80030ba:	ea89 0508 	eor.w	r5, r9, r8
        Emo = BCo ^ ((~BCu) & BCa);
 80030be:	ea2c 0807 	bic.w	r8, ip, r7
 80030c2:	ea88 0303 	eor.w	r3, r8, r3
        Emi = BCi ^ ((~BCo) & BCu);
 80030c6:	952f      	str	r5, [sp, #188]	; 0xbc
        Emo = BCo ^ ((~BCu) & BCa);
 80030c8:	ea2e 0504 	bic.w	r5, lr, r4
        Emu = BCu ^ ((~BCa) & BCe);
 80030cc:	ea26 0c0c 	bic.w	ip, r6, ip
        Emo = BCo ^ ((~BCu) & BCa);
 80030d0:	9314      	str	r3, [sp, #80]	; 0x50
 80030d2:	ea85 0302 	eor.w	r3, r5, r2
        Emu = BCu ^ ((~BCa) & BCe);
 80030d6:	ea21 010e 	bic.w	r1, r1, lr
        Emo = BCo ^ ((~BCu) & BCa);
 80030da:	9315      	str	r3, [sp, #84]	; 0x54
        Emu = BCu ^ ((~BCa) & BCe);
 80030dc:	ea8c 0307 	eor.w	r3, ip, r7
 80030e0:	9322      	str	r3, [sp, #136]	; 0x88
 80030e2:	ea81 0304 	eor.w	r3, r1, r4
 80030e6:	9323      	str	r3, [sp, #140]	; 0x8c

        Abi ^= Di;
 80030e8:	9b10      	ldr	r3, [sp, #64]	; 0x40
 80030ea:	9a11      	ldr	r2, [sp, #68]	; 0x44
 80030ec:	ea8b 0903 	eor.w	r9, fp, r3
 80030f0:	9b06      	ldr	r3, [sp, #24]
 80030f2:	ea83 0a02 	eor.w	sl, r3, r2
        BCa = ROL(Abi, 62);
        Ago ^= Do;
 80030f6:	9b07      	ldr	r3, [sp, #28]
 80030f8:	9a1c      	ldr	r2, [sp, #112]	; 0x70
 80030fa:	ea83 0c02 	eor.w	ip, r3, r2
 80030fe:	9b08      	ldr	r3, [sp, #32]
 8003100:	9a1d      	ldr	r2, [sp, #116]	; 0x74
 8003102:	ea83 0702 	eor.w	r7, r3, r2
        BCe = ROL(Ago, 55);
        Aku ^= Du;
 8003106:	9b09      	ldr	r3, [sp, #36]	; 0x24
 8003108:	9a28      	ldr	r2, [sp, #160]	; 0xa0
 800310a:	ea83 0402 	eor.w	r4, r3, r2
 800310e:	9a29      	ldr	r2, [sp, #164]	; 0xa4
 8003110:	9b0a      	ldr	r3, [sp, #40]	; 0x28
 8003112:	ea83 0102 	eor.w	r1, r3, r2
        BCi = ROL(Aku, 39);
        Ama ^= Da;
 8003116:	9b02      	ldr	r3, [sp, #8]
 8003118:	9a2a      	ldr	r2, [sp, #168]	; 0xa8
        BCa = ROL(Abi, 62);
 800311a:	ea4f 0699 	mov.w	r6, r9, lsr #2
        Ama ^= Da;
 800311e:	ea83 0b02 	eor.w	fp, r3, r2
        BCe = ROL(Ago, 55);
 8003122:	ea4f 2e5c 	mov.w	lr, ip, lsr #9
        Ama ^= Da;
 8003126:	9a2b      	ldr	r2, [sp, #172]	; 0xac
 8003128:	9b03      	ldr	r3, [sp, #12]
        BCa = ROL(Abi, 62);
 800312a:	ea46 768a 	orr.w	r6, r6, sl, lsl #30
        BCe = ROL(Ago, 55);
 800312e:	ea4e 5ec7 	orr.w	lr, lr, r7, lsl #23
        BCa = ROL(Abi, 62);
 8003132:	ea4f 0a9a 	mov.w	sl, sl, lsr #2
        BCe = ROL(Ago, 55);
 8003136:	0a7f      	lsrs	r7, r7, #9
 8003138:	ea47 55cc 	orr.w	r5, r7, ip, lsl #23
        BCa = ROL(Abi, 62);
 800313c:	ea4a 7989 	orr.w	r9, sl, r9, lsl #30
        BCi = ROL(Aku, 39);
 8003140:	ea4f 6c54 	mov.w	ip, r4, lsr #25
        Ama ^= Da;
 8003144:	ea83 0a02 	eor.w	sl, r3, r2
        BCo = ROL(Ama, 41);
        Ase ^= De;
 8003148:	9a35      	ldr	r2, [sp, #212]	; 0xd4
 800314a:	9b04      	ldr	r3, [sp, #16]
        BCi = ROL(Aku, 39);
 800314c:	ea4c 1cc1 	orr.w	ip, ip, r1, lsl #7
        BCo = ROL(Ama, 41);
 8003150:	ea4f 57da 	mov.w	r7, sl, lsr #23
        BCi = ROL(Aku, 39);
 8003154:	0e49      	lsrs	r1, r1, #25
 8003156:	ea41 18c4 	orr.w	r8, r1, r4, lsl #7
        BCo = ROL(Ama, 41);
 800315a:	ea47 274b 	orr.w	r7, r7, fp, lsl #9
 800315e:	ea4f 51db 	mov.w	r1, fp, lsr #23
        Ase ^= De;
 8003162:	ea83 0b02 	eor.w	fp, r3, r2
 8003166:	9a36      	ldr	r2, [sp, #216]	; 0xd8
 8003168:	9b05      	ldr	r3, [sp, #20]
        BCo = ROL(Ama, 41);
 800316a:	ea41 214a 	orr.w	r1, r1, sl, lsl #9
        Ase ^= De;
 800316e:	ea83 0a02 	eor.w	sl, r3, r2
        BCu = ROL(Ase, 2);
 8003172:	ea4f 038b 	mov.w	r3, fp, lsl #2
 8003176:	ea43 729a 	orr.w	r2, r3, sl, lsr #30
        Esa = BCa ^ ((~BCe) & BCi);
 800317a:	ea28 0305 	bic.w	r3, r8, r5
 800317e:	ea83 0309 	eor.w	r3, r3, r9
        BCu = ROL(Ase, 2);
 8003182:	ea4f 048a 	mov.w	r4, sl, lsl #2
        Esa = BCa ^ ((~BCe) & BCi);
 8003186:	ea2c 0a0e 	bic.w	sl, ip, lr
 800318a:	ea8a 0a06 	eor.w	sl, sl, r6
 800318e:	9329      	str	r3, [sp, #164]	; 0xa4
        Ese = BCe ^ ((~BCi) & BCo);
 8003190:	ea21 030c 	bic.w	r3, r1, ip
        Esa = BCa ^ ((~BCe) & BCi);
 8003194:	f8cd a0a0 	str.w	sl, [sp, #160]	; 0xa0
        Ese = BCe ^ ((~BCi) & BCo);
 8003198:	ea83 030e 	eor.w	r3, r3, lr
 800319c:	ea27 0a08 	bic.w	sl, r7, r8
        BCu = ROL(Ase, 2);
 80031a0:	ea44 749b 	orr.w	r4, r4, fp, lsr #30
        Ese = BCe ^ ((~BCi) & BCo);
 80031a4:	9335      	str	r3, [sp, #212]	; 0xd4
 80031a6:	ea8a 0305 	eor.w	r3, sl, r5
 80031aa:	9336      	str	r3, [sp, #216]	; 0xd8
        Esi = BCi ^ ((~BCo) & BCu);
 80031ac:	ea24 0307 	bic.w	r3, r4, r7
 80031b0:	ea83 0308 	eor.w	r3, r3, r8
 80031b4:	931d      	str	r3, [sp, #116]	; 0x74
        Eso = BCo ^ ((~BCu) & BCa);
 80031b6:	ea29 0304 	bic.w	r3, r9, r4
 80031ba:	407b      	eors	r3, r7
 80031bc:	932b      	str	r3, [sp, #172]	; 0xac
        Esu = BCu ^ ((~BCa) & BCe);
 80031be:	ea2e 0306 	bic.w	r3, lr, r6
        Esi = BCi ^ ((~BCo) & BCu);
 80031c2:	ea22 0a01 	bic.w	sl, r2, r1
        Esu = BCu ^ ((~BCa) & BCe);
 80031c6:	ea25 0909 	bic.w	r9, r5, r9
 80031ca:	4053      	eors	r3, r2
        Esi = BCi ^ ((~BCo) & BCu);
 80031cc:	ea8a 0c0c 	eor.w	ip, sl, ip
        Esu = BCu ^ ((~BCa) & BCe);
 80031d0:	9310      	str	r3, [sp, #64]	; 0x40
 80031d2:	ea89 0304 	eor.w	r3, r9, r4
        Esi = BCi ^ ((~BCo) & BCu);
 80031d6:	f8cd c070 	str.w	ip, [sp, #112]	; 0x70
        Esu = BCu ^ ((~BCa) & BCe);
 80031da:	9311      	str	r3, [sp, #68]	; 0x44
        Eso = BCo ^ ((~BCu) & BCa);
 80031dc:	ea26 0c02 	bic.w	ip, r6, r2

        //    prepareTheta
        BCa = Eba ^ Ega ^ Eka ^ Ema ^ Esa;
 80031e0:	9b0c      	ldr	r3, [sp, #48]	; 0x30
 80031e2:	9a2c      	ldr	r2, [sp, #176]	; 0xb0
        Eso = BCo ^ ((~BCu) & BCa);
 80031e4:	ea8c 0101 	eor.w	r1, ip, r1
 80031e8:	912a      	str	r1, [sp, #168]	; 0xa8
        BCa = Eba ^ Ega ^ Eka ^ Ema ^ Esa;
 80031ea:	405a      	eors	r2, r3
 80031ec:	992d      	ldr	r1, [sp, #180]	; 0xb4
 80031ee:	9b0d      	ldr	r3, [sp, #52]	; 0x34
 80031f0:	ea83 0601 	eor.w	r6, r3, r1
 80031f4:	991a      	ldr	r1, [sp, #104]	; 0x68
        BCe = Ebe ^ Ege ^ Eke ^ Eme ^ Ese;
 80031f6:	9b24      	ldr	r3, [sp, #144]	; 0x90
        BCa = Eba ^ Ega ^ Eka ^ Ema ^ Esa;
 80031f8:	404a      	eors	r2, r1
 80031fa:	991b      	ldr	r1, [sp, #108]	; 0x6c
 80031fc:	404e      	eors	r6, r1
 80031fe:	9939      	ldr	r1, [sp, #228]	; 0xe4
 8003200:	404a      	eors	r2, r1
 8003202:	993a      	ldr	r1, [sp, #232]	; 0xe8
 8003204:	404e      	eors	r6, r1
 8003206:	9928      	ldr	r1, [sp, #160]	; 0xa0
 8003208:	404a      	eors	r2, r1
 800320a:	9929      	ldr	r1, [sp, #164]	; 0xa4
 800320c:	404e      	eors	r6, r1
        BCe = Ebe ^ Ege ^ Eke ^ Eme ^ Ese;
 800320e:	9912      	ldr	r1, [sp, #72]	; 0x48
 8003210:	ea83 0901 	eor.w	r9, r3, r1
 8003214:	9913      	ldr	r1, [sp, #76]	; 0x4c
 8003216:	9b25      	ldr	r3, [sp, #148]	; 0x94
 8003218:	ea83 0801 	eor.w	r8, r3, r1
 800321c:	9b32      	ldr	r3, [sp, #200]	; 0xc8
        BCi = Ebi ^ Egi ^ Eki ^ Emi ^ Esi;
 800321e:	9920      	ldr	r1, [sp, #128]	; 0x80
        BCo = Ebo ^ Ego ^ Eko ^ Emo ^ Eso;
        BCu = Ebu ^ Egu ^ Eku ^ Emu ^ Esu;
 8003220:	f8dd e0f4 	ldr.w	lr, [sp, #244]	; 0xf4
        BCe = Ebe ^ Ege ^ Eke ^ Eme ^ Ese;
 8003224:	ea89 0903 	eor.w	r9, r9, r3
 8003228:	9b33      	ldr	r3, [sp, #204]	; 0xcc
 800322a:	ea88 0803 	eor.w	r8, r8, r3
 800322e:	9b16      	ldr	r3, [sp, #88]	; 0x58
 8003230:	ea89 0903 	eor.w	r9, r9, r3
 8003234:	9b17      	ldr	r3, [sp, #92]	; 0x5c
 8003236:	ea88 0803 	eor.w	r8, r8, r3
 800323a:	9b35      	ldr	r3, [sp, #212]	; 0xd4
 800323c:	ea89 0903 	eor.w	r9, r9, r3
 8003240:	9b36      	ldr	r3, [sp, #216]	; 0xd8
 8003242:	ea88 0803 	eor.w	r8, r8, r3
        BCi = Ebi ^ Egi ^ Eki ^ Emi ^ Esi;
 8003246:	9b3b      	ldr	r3, [sp, #236]	; 0xec
 8003248:	ea83 0c01 	eor.w	ip, r3, r1
 800324c:	9b3c      	ldr	r3, [sp, #240]	; 0xf0
 800324e:	9921      	ldr	r1, [sp, #132]	; 0x84
 8003250:	ea83 0701 	eor.w	r7, r3, r1
 8003254:	9b0e      	ldr	r3, [sp, #56]	; 0x38
 8003256:	990f      	ldr	r1, [sp, #60]	; 0x3c
 8003258:	ea8c 0c03 	eor.w	ip, ip, r3
 800325c:	404f      	eors	r7, r1
 800325e:	9b2e      	ldr	r3, [sp, #184]	; 0xb8
 8003260:	992f      	ldr	r1, [sp, #188]	; 0xbc
 8003262:	ea8c 0c03 	eor.w	ip, ip, r3
 8003266:	404f      	eors	r7, r1
 8003268:	9b1c      	ldr	r3, [sp, #112]	; 0x70
 800326a:	991d      	ldr	r1, [sp, #116]	; 0x74
 800326c:	ea8c 0c03 	eor.w	ip, ip, r3
 8003270:	404f      	eors	r7, r1
        BCo = Ebo ^ Ego ^ Eko ^ Emo ^ Eso;
 8003272:	9b18      	ldr	r3, [sp, #96]	; 0x60
 8003274:	9937      	ldr	r1, [sp, #220]	; 0xdc
 8003276:	ea83 0501 	eor.w	r5, r3, r1
 800327a:	9b19      	ldr	r3, [sp, #100]	; 0x64
 800327c:	9938      	ldr	r1, [sp, #224]	; 0xe0
 800327e:	ea83 0401 	eor.w	r4, r3, r1
 8003282:	9926      	ldr	r1, [sp, #152]	; 0x98
        BCu = Ebu ^ Egu ^ Eku ^ Emu ^ Esu;
 8003284:	9b1e      	ldr	r3, [sp, #120]	; 0x78
        BCo = Ebo ^ Ego ^ Eko ^ Emo ^ Eso;
 8003286:	404d      	eors	r5, r1
 8003288:	9927      	ldr	r1, [sp, #156]	; 0x9c
 800328a:	404c      	eors	r4, r1
 800328c:	9914      	ldr	r1, [sp, #80]	; 0x50
 800328e:	404d      	eors	r5, r1
 8003290:	9915      	ldr	r1, [sp, #84]	; 0x54
 8003292:	404c      	eors	r4, r1
 8003294:	992a      	ldr	r1, [sp, #168]	; 0xa8
 8003296:	404d      	eors	r5, r1
 8003298:	992b      	ldr	r1, [sp, #172]	; 0xac
 800329a:	404c      	eors	r4, r1
        BCu = Ebu ^ Egu ^ Eku ^ Emu ^ Esu;
 800329c:	9934      	ldr	r1, [sp, #208]	; 0xd0
 800329e:	4059      	eors	r1, r3
 80032a0:	9b1f      	ldr	r3, [sp, #124]	; 0x7c
 80032a2:	ea83 0e0e 	eor.w	lr, r3, lr
 80032a6:	9b30      	ldr	r3, [sp, #192]	; 0xc0
 80032a8:	4059      	eors	r1, r3
 80032aa:	9b31      	ldr	r3, [sp, #196]	; 0xc4
 80032ac:	ea8e 0e03 	eor.w	lr, lr, r3
 80032b0:	9b22      	ldr	r3, [sp, #136]	; 0x88
 80032b2:	4059      	eors	r1, r3
 80032b4:	9b23      	ldr	r3, [sp, #140]	; 0x8c
 80032b6:	ea8e 0e03 	eor.w	lr, lr, r3
 80032ba:	9b10      	ldr	r3, [sp, #64]	; 0x40

        // thetaRhoPiChiIotaPrepareTheta(round+1, E, A)
        Da = BCu ^ ROL(BCe, 1);
 80032bc:	ea4f 0b49 	mov.w	fp, r9, lsl #1
        BCu = Ebu ^ Egu ^ Eku ^ Emu ^ Esu;
 80032c0:	4059      	eors	r1, r3
 80032c2:	9b11      	ldr	r3, [sp, #68]	; 0x44
        Da = BCu ^ ROL(BCe, 1);
 80032c4:	ea4b 7bd8 	orr.w	fp, fp, r8, lsr #31
 80032c8:	ea4f 0a48 	mov.w	sl, r8, lsl #1
        BCu = Ebu ^ Egu ^ Eku ^ Emu ^ Esu;
 80032cc:	ea8e 0e03 	eor.w	lr, lr, r3
        Da = BCu ^ ROL(BCe, 1);
 80032d0:	ea4a 7ad9 	orr.w	sl, sl, r9, lsr #31
 80032d4:	ea8b 0301 	eor.w	r3, fp, r1
        De = BCa ^ ROL(BCi, 1);
 80032d8:	ea4f 0b4c 	mov.w	fp, ip, lsl #1
        Da = BCu ^ ROL(BCe, 1);
 80032dc:	9302      	str	r3, [sp, #8]
        De = BCa ^ ROL(BCi, 1);
 80032de:	ea4b 7bd7 	orr.w	fp, fp, r7, lsr #31
        Da = BCu ^ ROL(BCe, 1);
 80032e2:	ea8a 030e 	eor.w	r3, sl, lr
        De = BCa ^ ROL(BCi, 1);
 80032e6:	ea4f 0a47 	mov.w	sl, r7, lsl #1
        Da = BCu ^ ROL(BCe, 1);
 80032ea:	9303      	str	r3, [sp, #12]
        De = BCa ^ ROL(BCi, 1);
 80032ec:	ea4a 7adc 	orr.w	sl, sl, ip, lsr #31
 80032f0:	ea8b 0302 	eor.w	r3, fp, r2
        Di = BCe ^ ROL(BCo, 1);
 80032f4:	ea4f 0b45 	mov.w	fp, r5, lsl #1
        De = BCa ^ ROL(BCi, 1);
 80032f8:	9304      	str	r3, [sp, #16]
        Di = BCe ^ ROL(BCo, 1);
 80032fa:	ea4b 7bd4 	orr.w	fp, fp, r4, lsr #31
        De = BCa ^ ROL(BCi, 1);
 80032fe:	ea8a 0306 	eor.w	r3, sl, r6
        Di = BCe ^ ROL(BCo, 1);
 8003302:	ea4f 0a44 	mov.w	sl, r4, lsl #1
        De = BCa ^ ROL(BCi, 1);
 8003306:	9305      	str	r3, [sp, #20]
        Di = BCe ^ ROL(BCo, 1);
 8003308:	ea4a 7ad5 	orr.w	sl, sl, r5, lsr #31
 800330c:	ea8b 0309 	eor.w	r3, fp, r9
 8003310:	9306      	str	r3, [sp, #24]
 8003312:	ea8a 0308 	eor.w	r3, sl, r8
        Do = BCi ^ ROL(BCu, 1);
 8003316:	ea4f 084e 	mov.w	r8, lr, lsl #1
 800331a:	ea48 78d1 	orr.w	r8, r8, r1, lsr #31
 800331e:	0049      	lsls	r1, r1, #1
 8003320:	ea41 71de 	orr.w	r1, r1, lr, lsr #31
        Di = BCe ^ ROL(BCo, 1);
 8003324:	9307      	str	r3, [sp, #28]
        Do = BCi ^ ROL(BCu, 1);
 8003326:	ea81 030c 	eor.w	r3, r1, ip
 800332a:	9308      	str	r3, [sp, #32]
 800332c:	ea88 0307 	eor.w	r3, r8, r7
        Du = BCo ^ ROL(BCa, 1);
 8003330:	0077      	lsls	r7, r6, #1
 8003332:	ea47 77d2 	orr.w	r7, r7, r2, lsr #31
 8003336:	0052      	lsls	r2, r2, #1
 8003338:	ea42 72d6 	orr.w	r2, r2, r6, lsr #31
        Do = BCi ^ ROL(BCu, 1);
 800333c:	9309      	str	r3, [sp, #36]	; 0x24
        Du = BCo ^ ROL(BCa, 1);
 800333e:	ea82 0305 	eor.w	r3, r2, r5
 8003342:	930a      	str	r3, [sp, #40]	; 0x28
 8003344:	ea87 0304 	eor.w	r3, r7, r4

        Eba ^= Da;
 8003348:	9a02      	ldr	r2, [sp, #8]
        Du = BCo ^ ROL(BCa, 1);
 800334a:	930b      	str	r3, [sp, #44]	; 0x2c
        Eba ^= Da;
 800334c:	9b0c      	ldr	r3, [sp, #48]	; 0x30
 800334e:	ea83 0702 	eor.w	r7, r3, r2
 8003352:	9b0d      	ldr	r3, [sp, #52]	; 0x34
 8003354:	9a03      	ldr	r2, [sp, #12]
 8003356:	ea83 0b02 	eor.w	fp, r3, r2
        BCa = Eba;
        Ege ^= De;
 800335a:	9b12      	ldr	r3, [sp, #72]	; 0x48
 800335c:	9a04      	ldr	r2, [sp, #16]
 800335e:	ea83 0a02 	eor.w	sl, r3, r2
 8003362:	9b13      	ldr	r3, [sp, #76]	; 0x4c
 8003364:	9a05      	ldr	r2, [sp, #20]
        BCe = ROL(Ege, 44);
 8003366:	ea4f 541a 	mov.w	r4, sl, lsr #20
        Ege ^= De;
 800336a:	ea83 0602 	eor.w	r6, r3, r2
        Eki ^= Di;
 800336e:	9b0e      	ldr	r3, [sp, #56]	; 0x38
 8003370:	9a06      	ldr	r2, [sp, #24]
        BCe = ROL(Ege, 44);
 8003372:	ea44 3406 	orr.w	r4, r4, r6, lsl #12
 8003376:	0d36      	lsrs	r6, r6, #20
 8003378:	ea46 360a 	orr.w	r6, r6, sl, lsl #12
        Eki ^= Di;
 800337c:	ea83 0a02 	eor.w	sl, r3, r2
 8003380:	9b0f      	ldr	r3, [sp, #60]	; 0x3c
 8003382:	9a07      	ldr	r2, [sp, #28]
 8003384:	ea83 0902 	eor.w	r9, r3, r2
        BCi = ROL(Eki, 43);
        Emo ^= Do;
 8003388:	9b14      	ldr	r3, [sp, #80]	; 0x50
 800338a:	9a08      	ldr	r2, [sp, #32]
 800338c:	ea83 0c02 	eor.w	ip, r3, r2
 8003390:	9b15      	ldr	r3, [sp, #84]	; 0x54
 8003392:	9a09      	ldr	r2, [sp, #36]	; 0x24
 8003394:	ea83 0502 	eor.w	r5, r3, r2
        BCo = ROL(Emo, 21);
 8003398:	ea4f 524c 	mov.w	r2, ip, lsl #21
 800339c:	ea42 22d5 	orr.w	r2, r2, r5, lsr #11
        Esu ^= Du;
 80033a0:	9b0a      	ldr	r3, [sp, #40]	; 0x28
        BCo = ROL(Emo, 21);
 80033a2:	ea4f 5e45 	mov.w	lr, r5, lsl #21
        Esu ^= Du;
 80033a6:	9d10      	ldr	r5, [sp, #64]	; 0x40
 80033a8:	405d      	eors	r5, r3
        BCo = ROL(Emo, 21);
 80033aa:	ea4e 2edc 	orr.w	lr, lr, ip, lsr #11
        Esu ^= Du;
 80033ae:	462b      	mov	r3, r5
 80033b0:	9d11      	ldr	r5, [sp, #68]	; 0x44
 80033b2:	f8dd c02c 	ldr.w	ip, [sp, #44]	; 0x2c
 80033b6:	ea85 050c 	eor.w	r5, r5, ip
        BCu = ROL(Esu, 14);
 80033ba:	ea4f 3c85 	mov.w	ip, r5, lsl #14
 80033be:	ea4c 4c93 	orr.w	ip, ip, r3, lsr #18
 80033c2:	039b      	lsls	r3, r3, #14
 80033c4:	ea43 4395 	orr.w	r3, r3, r5, lsr #18
        Aba = BCa ^ ((~BCe) & BCi);
        Aba ^= KeccakF_RoundConstants[round + 1];
 80033c8:	9d01      	ldr	r5, [sp, #4]
 80033ca:	68ad      	ldr	r5, [r5, #8]
 80033cc:	950c      	str	r5, [sp, #48]	; 0x30
 80033ce:	9d01      	ldr	r5, [sp, #4]
        BCi = ROL(Eki, 43);
 80033d0:	ea4f 585a 	mov.w	r8, sl, lsr #21
 80033d4:	ea48 28c9 	orr.w	r8, r8, r9, lsl #11
        Aba ^= KeccakF_RoundConstants[round + 1];
 80033d8:	68ed      	ldr	r5, [r5, #12]
        BCi = ROL(Eki, 43);
 80033da:	ea4f 5959 	mov.w	r9, r9, lsr #21
 80033de:	ea49 21ca 	orr.w	r1, r9, sl, lsl #11
        Aba ^= KeccakF_RoundConstants[round + 1];
 80033e2:	f8dd 9030 	ldr.w	r9, [sp, #48]	; 0x30
        Aba = BCa ^ ((~BCe) & BCi);
 80033e6:	ea28 0a04 	bic.w	sl, r8, r4
        Aba ^= KeccakF_RoundConstants[round + 1];
 80033ea:	ea8b 0505 	eor.w	r5, fp, r5
 80033ee:	950d      	str	r5, [sp, #52]	; 0x34
 80033f0:	ea87 0909 	eor.w	r9, r7, r9
        Aba = BCa ^ ((~BCe) & BCi);
 80033f4:	4655      	mov	r5, sl
        Aba ^= KeccakF_RoundConstants[round + 1];
 80033f6:	ea89 0905 	eor.w	r9, r9, r5
 80033fa:	9d0d      	ldr	r5, [sp, #52]	; 0x34
 80033fc:	f8cd 9030 	str.w	r9, [sp, #48]	; 0x30
        Aba = BCa ^ ((~BCe) & BCi);
 8003400:	ea21 0a06 	bic.w	sl, r1, r6
        Aba ^= KeccakF_RoundConstants[round + 1];
 8003404:	ea85 050a 	eor.w	r5, r5, sl
 8003408:	950d      	str	r5, [sp, #52]	; 0x34
        Abe = BCe ^ ((~BCi) & BCo);
 800340a:	ea2e 0501 	bic.w	r5, lr, r1
 800340e:	4075      	eors	r5, r6
 8003410:	ea22 0908 	bic.w	r9, r2, r8
 8003414:	950f      	str	r5, [sp, #60]	; 0x3c
        Abi = BCi ^ ((~BCo) & BCu);
 8003416:	ea2c 050e 	bic.w	r5, ip, lr
        Abe = BCe ^ ((~BCi) & BCo);
 800341a:	ea89 0904 	eor.w	r9, r9, r4
        Abi = BCi ^ ((~BCo) & BCu);
 800341e:	4069      	eors	r1, r5
        Abo = BCo ^ ((~BCu) & BCa);
 8003420:	ea27 0503 	bic.w	r5, r7, r3
        Abu = BCu ^ ((~BCa) & BCe);
 8003424:	ea24 0707 	bic.w	r7, r4, r7
 8003428:	ea26 060b 	bic.w	r6, r6, fp
        Abe = BCe ^ ((~BCi) & BCo);
 800342c:	f8cd 9038 	str.w	r9, [sp, #56]	; 0x38
        Abi = BCi ^ ((~BCo) & BCu);
 8003430:	9111      	str	r1, [sp, #68]	; 0x44
 8003432:	ea23 0902 	bic.w	r9, r3, r2
        Abo = BCo ^ ((~BCu) & BCa);
 8003436:	ea2b 010c 	bic.w	r1, fp, ip
 800343a:	406a      	eors	r2, r5
        Abu = BCu ^ ((~BCa) & BCe);
 800343c:	407b      	eors	r3, r7
        Abo = BCo ^ ((~BCu) & BCa);
 800343e:	9212      	str	r2, [sp, #72]	; 0x48
        Abu = BCu ^ ((~BCa) & BCe);
 8003440:	9314      	str	r3, [sp, #80]	; 0x50
        Abo = BCo ^ ((~BCu) & BCa);
 8003442:	ea81 020e 	eor.w	r2, r1, lr
        Abu = BCu ^ ((~BCa) & BCe);
 8003446:	ea86 030c 	eor.w	r3, r6, ip
        Abo = BCo ^ ((~BCu) & BCa);
 800344a:	9213      	str	r2, [sp, #76]	; 0x4c
        Abu = BCu ^ ((~BCa) & BCe);
 800344c:	9315      	str	r3, [sp, #84]	; 0x54

        Ebo ^= Do;
 800344e:	9a08      	ldr	r2, [sp, #32]
 8003450:	9b18      	ldr	r3, [sp, #96]	; 0x60
 8003452:	ea83 0102 	eor.w	r1, r3, r2
 8003456:	9b19      	ldr	r3, [sp, #100]	; 0x64
 8003458:	9a09      	ldr	r2, [sp, #36]	; 0x24
 800345a:	ea83 0e02 	eor.w	lr, r3, r2
        BCa = ROL(Ebo, 28);
 800345e:	ea4f 7b0e 	mov.w	fp, lr, lsl #28
        Egu ^= Du;
 8003462:	9b1e      	ldr	r3, [sp, #120]	; 0x78
 8003464:	9a0a      	ldr	r2, [sp, #40]	; 0x28
        BCa = ROL(Ebo, 28);
 8003466:	ea4b 1b11 	orr.w	fp, fp, r1, lsr #4
 800346a:	0709      	lsls	r1, r1, #28
 800346c:	ea41 141e 	orr.w	r4, r1, lr, lsr #4
        Egu ^= Du;
 8003470:	ea83 0e02 	eor.w	lr, r3, r2
 8003474:	9b1f      	ldr	r3, [sp, #124]	; 0x7c
 8003476:	9a0b      	ldr	r2, [sp, #44]	; 0x2c
 8003478:	ea83 0502 	eor.w	r5, r3, r2
        BCe = ROL(Egu, 20);
        Eka ^= Da;
 800347c:	9b1a      	ldr	r3, [sp, #104]	; 0x68
 800347e:	9a02      	ldr	r2, [sp, #8]
        BCe = ROL(Egu, 20);
 8003480:	052e      	lsls	r6, r5, #20
        Eka ^= Da;
 8003482:	ea83 0a02 	eor.w	sl, r3, r2
 8003486:	9a03      	ldr	r2, [sp, #12]
 8003488:	9b1b      	ldr	r3, [sp, #108]	; 0x6c
        BCe = ROL(Egu, 20);
 800348a:	ea46 361e 	orr.w	r6, r6, lr, lsr #12
        Abi = BCi ^ ((~BCo) & BCu);
 800348e:	ea89 0808 	eor.w	r8, r9, r8
        BCe = ROL(Egu, 20);
 8003492:	ea4f 5e0e 	mov.w	lr, lr, lsl #20
 8003496:	ea4e 3115 	orr.w	r1, lr, r5, lsr #12
        Eka ^= Da;
 800349a:	ea83 0902 	eor.w	r9, r3, r2
        Abi = BCi ^ ((~BCo) & BCu);
 800349e:	f8cd 8040 	str.w	r8, [sp, #64]	; 0x40
        BCi = ROL(Eka, 3);
        Eme ^= De;
 80034a2:	9b16      	ldr	r3, [sp, #88]	; 0x58
 80034a4:	9d04      	ldr	r5, [sp, #16]
 80034a6:	f8dd c014 	ldr.w	ip, [sp, #20]
        BCo = ROL(Eme, 45);
        Esi ^= Di;
 80034aa:	f8dd e01c 	ldr.w	lr, [sp, #28]
        Eme ^= De;
 80034ae:	406b      	eors	r3, r5
        BCi = ROL(Eka, 3);
 80034b0:	ea4f 07c9 	mov.w	r7, r9, lsl #3
        Eme ^= De;
 80034b4:	9d17      	ldr	r5, [sp, #92]	; 0x5c
        BCi = ROL(Eka, 3);
 80034b6:	ea47 775a 	orr.w	r7, r7, sl, lsr #29
 80034ba:	ea4f 0aca 	mov.w	sl, sl, lsl #3
 80034be:	ea4a 7259 	orr.w	r2, sl, r9, lsr #29
        Eme ^= De;
 80034c2:	ea85 090c 	eor.w	r9, r5, ip
        BCo = ROL(Eme, 45);
 80034c6:	0cdd      	lsrs	r5, r3, #19
 80034c8:	ea45 3549 	orr.w	r5, r5, r9, lsl #13
 80034cc:	ea4f 49d9 	mov.w	r9, r9, lsr #19
 80034d0:	ea49 3a43 	orr.w	sl, r9, r3, lsl #13
        Esi ^= Di;
 80034d4:	f8dd c018 	ldr.w	ip, [sp, #24]
 80034d8:	9b1c      	ldr	r3, [sp, #112]	; 0x70
 80034da:	ea83 0c0c 	eor.w	ip, r3, ip
 80034de:	9b1d      	ldr	r3, [sp, #116]	; 0x74
        BCu = ROL(Esi, 61);
 80034e0:	ea4f 08dc 	mov.w	r8, ip, lsr #3
        Esi ^= Di;
 80034e4:	ea83 030e 	eor.w	r3, r3, lr
        BCu = ROL(Esi, 61);
 80034e8:	ea48 7843 	orr.w	r8, r8, r3, lsl #29
        Aga = BCa ^ ((~BCe) & BCi);
 80034ec:	ea22 0e01 	bic.w	lr, r2, r1
        BCu = ROL(Esi, 61);
 80034f0:	08db      	lsrs	r3, r3, #3
 80034f2:	ea43 734c 	orr.w	r3, r3, ip, lsl #29
        Aga = BCa ^ ((~BCe) & BCi);
 80034f6:	ea8e 0e04 	eor.w	lr, lr, r4
 80034fa:	ea27 0c06 	bic.w	ip, r7, r6
 80034fe:	ea8c 0c0b 	eor.w	ip, ip, fp
 8003502:	f8cd e058 	str.w	lr, [sp, #88]	; 0x58
        Age = BCe ^ ((~BCi) & BCo);
 8003506:	ea25 0e02 	bic.w	lr, r5, r2
 800350a:	ea8e 0e01 	eor.w	lr, lr, r1
        Aga = BCa ^ ((~BCe) & BCi);
 800350e:	f8cd c05c 	str.w	ip, [sp, #92]	; 0x5c
        Age = BCe ^ ((~BCi) & BCo);
 8003512:	ea2a 0c07 	bic.w	ip, sl, r7
 8003516:	ea8c 0c06 	eor.w	ip, ip, r6
 800351a:	f8cd e060 	str.w	lr, [sp, #96]	; 0x60
        Agi = BCi ^ ((~BCo) & BCu);
 800351e:	ea28 0e05 	bic.w	lr, r8, r5
 8003522:	ea8e 0202 	eor.w	r2, lr, r2
        Age = BCe ^ ((~BCi) & BCo);
 8003526:	f8cd c064 	str.w	ip, [sp, #100]	; 0x64
        Agi = BCi ^ ((~BCo) & BCu);
 800352a:	ea23 0c0a 	bic.w	ip, r3, sl
 800352e:	921a      	str	r2, [sp, #104]	; 0x68
 8003530:	ea8c 0207 	eor.w	r2, ip, r7
 8003534:	921b      	str	r2, [sp, #108]	; 0x6c
        Ago = BCo ^ ((~BCu) & BCa);
 8003536:	ea2b 0203 	bic.w	r2, fp, r3
 800353a:	ea82 020a 	eor.w	r2, r2, sl
        Agu = BCu ^ ((~BCa) & BCe);
 800353e:	ea21 0104 	bic.w	r1, r1, r4
 8003542:	ea26 060b 	bic.w	r6, r6, fp
 8003546:	4073      	eors	r3, r6
        Ago = BCo ^ ((~BCu) & BCa);
 8003548:	921d      	str	r2, [sp, #116]	; 0x74
        Agu = BCu ^ ((~BCa) & BCe);
 800354a:	ea81 0208 	eor.w	r2, r1, r8
 800354e:	921e      	str	r2, [sp, #120]	; 0x78
 8003550:	931f      	str	r3, [sp, #124]	; 0x7c

        Ebe ^= De;
 8003552:	9a04      	ldr	r2, [sp, #16]
 8003554:	9b24      	ldr	r3, [sp, #144]	; 0x90
        Ago = BCo ^ ((~BCu) & BCa);
 8003556:	ea24 0708 	bic.w	r7, r4, r8
 800355a:	407d      	eors	r5, r7
        Ebe ^= De;
 800355c:	ea83 0702 	eor.w	r7, r3, r2
 8003560:	9b25      	ldr	r3, [sp, #148]	; 0x94
 8003562:	9a05      	ldr	r2, [sp, #20]
        Ago = BCo ^ ((~BCu) & BCa);
 8003564:	951c      	str	r5, [sp, #112]	; 0x70
        Ebe ^= De;
 8003566:	ea83 0602 	eor.w	r6, r3, r2
        BCa = ROL(Ebe, 1);
        Egi ^= Di;
 800356a:	9b20      	ldr	r3, [sp, #128]	; 0x80
 800356c:	9a06      	ldr	r2, [sp, #24]
        BCa = ROL(Ebe, 1);
 800356e:	ea4f 0846 	mov.w	r8, r6, lsl #1
        Egi ^= Di;
 8003572:	ea83 0402 	eor.w	r4, r3, r2
 8003576:	9b21      	ldr	r3, [sp, #132]	; 0x84
 8003578:	9a07      	ldr	r2, [sp, #28]
        BCa = ROL(Ebe, 1);
 800357a:	ea48 78d7 	orr.w	r8, r8, r7, lsr #31
 800357e:	007f      	lsls	r7, r7, #1
 8003580:	ea47 7bd6 	orr.w	fp, r7, r6, lsr #31
        Egi ^= Di;
 8003584:	ea83 0602 	eor.w	r6, r3, r2
        BCe = ROL(Egi, 6);
        Eko ^= Do;
 8003588:	9b26      	ldr	r3, [sp, #152]	; 0x98
 800358a:	9a08      	ldr	r2, [sp, #32]
 800358c:	ea83 0502 	eor.w	r5, r3, r2
 8003590:	9b27      	ldr	r3, [sp, #156]	; 0x9c
 8003592:	9a09      	ldr	r2, [sp, #36]	; 0x24
 8003594:	ea83 0102 	eor.w	r1, r3, r2
        BCi = ROL(Eko, 25);
 8003598:	066a      	lsls	r2, r5, #25
 800359a:	ea42 12d1 	orr.w	r2, r2, r1, lsr #7
        Emu ^= Du;
 800359e:	9b22      	ldr	r3, [sp, #136]	; 0x88
        BCi = ROL(Eko, 25);
 80035a0:	ea4f 6a41 	mov.w	sl, r1, lsl #25
        Emu ^= Du;
 80035a4:	990a      	ldr	r1, [sp, #40]	; 0x28
        BCe = ROL(Egi, 6);
 80035a6:	ea4f 1c86 	mov.w	ip, r6, lsl #6
        Emu ^= Du;
 80035aa:	ea83 0701 	eor.w	r7, r3, r1
 80035ae:	9b23      	ldr	r3, [sp, #140]	; 0x8c
 80035b0:	990b      	ldr	r1, [sp, #44]	; 0x2c
        BCe = ROL(Egi, 6);
 80035b2:	ea4c 6c94 	orr.w	ip, ip, r4, lsr #26
 80035b6:	01a4      	lsls	r4, r4, #6
 80035b8:	ea44 6996 	orr.w	r9, r4, r6, lsr #26
        Emu ^= Du;
 80035bc:	ea83 0401 	eor.w	r4, r3, r1
        BCo = ROL(Emu, 8);
 80035c0:	0221      	lsls	r1, r4, #8
 80035c2:	ea41 6117 	orr.w	r1, r1, r7, lsr #24
 80035c6:	023f      	lsls	r7, r7, #8
 80035c8:	ea47 6714 	orr.w	r7, r7, r4, lsr #24
        Esa ^= Da;
 80035cc:	9b28      	ldr	r3, [sp, #160]	; 0xa0
 80035ce:	9c02      	ldr	r4, [sp, #8]
        BCi = ROL(Eko, 25);
 80035d0:	ea4a 1ad5 	orr.w	sl, sl, r5, lsr #7
        Esa ^= Da;
 80035d4:	4063      	eors	r3, r4
 80035d6:	9d03      	ldr	r5, [sp, #12]
 80035d8:	9c29      	ldr	r4, [sp, #164]	; 0xa4
 80035da:	406c      	eors	r4, r5
        BCu = ROL(Esa, 18);
 80035dc:	ea4f 4e84 	mov.w	lr, r4, lsl #18
 80035e0:	ea4e 3e93 	orr.w	lr, lr, r3, lsr #14
 80035e4:	049b      	lsls	r3, r3, #18
 80035e6:	ea43 3394 	orr.w	r3, r3, r4, lsr #14
        Aka = BCa ^ ((~BCe) & BCi);
 80035ea:	ea2a 040c 	bic.w	r4, sl, ip
 80035ee:	ea22 0509 	bic.w	r5, r2, r9
 80035f2:	ea84 0408 	eor.w	r4, r4, r8
 80035f6:	ea85 050b 	eor.w	r5, r5, fp
 80035fa:	9421      	str	r4, [sp, #132]	; 0x84
        Ake = BCe ^ ((~BCi) & BCo);
 80035fc:	ea27 0402 	bic.w	r4, r7, r2
 8003600:	ea84 0409 	eor.w	r4, r4, r9
        Aka = BCa ^ ((~BCe) & BCi);
 8003604:	9520      	str	r5, [sp, #128]	; 0x80
        Ake = BCe ^ ((~BCi) & BCo);
 8003606:	ea21 050a 	bic.w	r5, r1, sl
 800360a:	9422      	str	r4, [sp, #136]	; 0x88
 800360c:	ea85 040c 	eor.w	r4, r5, ip
        Aki = BCi ^ ((~BCo) & BCu);
 8003610:	ea23 0507 	bic.w	r5, r3, r7
 8003614:	406a      	eors	r2, r5
        Ake = BCe ^ ((~BCi) & BCo);
 8003616:	9423      	str	r4, [sp, #140]	; 0x8c
        Aki = BCi ^ ((~BCo) & BCu);
 8003618:	ea2e 0401 	bic.w	r4, lr, r1
        Ako = BCo ^ ((~BCu) & BCa);
        Aku = BCu ^ ((~BCa) & BCe);
 800361c:	ea29 090b 	bic.w	r9, r9, fp
        Aki = BCi ^ ((~BCo) & BCu);
 8003620:	9224      	str	r2, [sp, #144]	; 0x90
 8003622:	ea84 020a 	eor.w	r2, r4, sl
        Aku = BCu ^ ((~BCa) & BCe);
 8003626:	ea2c 0c08 	bic.w	ip, ip, r8
        Ako = BCo ^ ((~BCu) & BCa);
 800362a:	ea2b 0403 	bic.w	r4, fp, r3
        Aki = BCi ^ ((~BCo) & BCu);
 800362e:	9225      	str	r2, [sp, #148]	; 0x94
        Aku = BCu ^ ((~BCa) & BCe);
 8003630:	ea89 0303 	eor.w	r3, r9, r3
        Ako = BCo ^ ((~BCu) & BCa);
 8003634:	ea28 020e 	bic.w	r2, r8, lr
 8003638:	404a      	eors	r2, r1
        Aku = BCu ^ ((~BCa) & BCe);
 800363a:	9328      	str	r3, [sp, #160]	; 0xa0
 800363c:	ea8c 030e 	eor.w	r3, ip, lr
        Ako = BCo ^ ((~BCu) & BCa);
 8003640:	9227      	str	r2, [sp, #156]	; 0x9c
        Aku = BCu ^ ((~BCa) & BCe);
 8003642:	9329      	str	r3, [sp, #164]	; 0xa4

        Ebu ^= Du;
 8003644:	9a0a      	ldr	r2, [sp, #40]	; 0x28
 8003646:	9b30      	ldr	r3, [sp, #192]	; 0xc0
        BCa = ROL(Ebu, 27);
        Ega ^= Da;
        BCe = ROL(Ega, 36);
        Eke ^= De;
 8003648:	9905      	ldr	r1, [sp, #20]
        Ebu ^= Du;
 800364a:	ea83 0502 	eor.w	r5, r3, r2
 800364e:	9a0b      	ldr	r2, [sp, #44]	; 0x2c
 8003650:	9b31      	ldr	r3, [sp, #196]	; 0xc4
 8003652:	4053      	eors	r3, r2
        BCa = ROL(Ebu, 27);
 8003654:	ea4f 6bc3 	mov.w	fp, r3, lsl #27
 8003658:	ea4b 1b55 	orr.w	fp, fp, r5, lsr #5
 800365c:	06ed      	lsls	r5, r5, #27
 800365e:	ea45 1c53 	orr.w	ip, r5, r3, lsr #5
        Ega ^= Da;
 8003662:	9a02      	ldr	r2, [sp, #8]
 8003664:	9b2c      	ldr	r3, [sp, #176]	; 0xb0
 8003666:	ea83 0a02 	eor.w	sl, r3, r2
 800366a:	9b2d      	ldr	r3, [sp, #180]	; 0xb4
 800366c:	9a03      	ldr	r2, [sp, #12]
 800366e:	ea83 0602 	eor.w	r6, r3, r2
        Eke ^= De;
 8003672:	9b32      	ldr	r3, [sp, #200]	; 0xc8
 8003674:	9a04      	ldr	r2, [sp, #16]
 8003676:	405a      	eors	r2, r3
 8003678:	9b33      	ldr	r3, [sp, #204]	; 0xcc
        BCe = ROL(Ega, 36);
 800367a:	ea4f 7e1a 	mov.w	lr, sl, lsr #28
 800367e:	ea4e 1e06 	orr.w	lr, lr, r6, lsl #4
        Eke ^= De;
 8003682:	ea83 0901 	eor.w	r9, r3, r1
        BCe = ROL(Ega, 36);
 8003686:	0f36      	lsrs	r6, r6, #28
 8003688:	ea46 160a 	orr.w	r6, r6, sl, lsl #4
        BCi = ROL(Eke, 10);
 800368c:	ea4f 2a89 	mov.w	sl, r9, lsl #10
 8003690:	ea4a 5a92 	orr.w	sl, sl, r2, lsr #22
        Emi ^= Di;
 8003694:	9906      	ldr	r1, [sp, #24]
        BCi = ROL(Eke, 10);
 8003696:	0293      	lsls	r3, r2, #10
        Emi ^= Di;
 8003698:	9a2e      	ldr	r2, [sp, #184]	; 0xb8
 800369a:	ea82 0501 	eor.w	r5, r2, r1
 800369e:	9907      	ldr	r1, [sp, #28]
 80036a0:	9a2f      	ldr	r2, [sp, #188]	; 0xbc
        BCi = ROL(Eke, 10);
 80036a2:	ea43 5399 	orr.w	r3, r3, r9, lsr #22
        Ako = BCo ^ ((~BCu) & BCa);
 80036a6:	407c      	eors	r4, r7
        Emi ^= Di;
 80036a8:	ea82 0901 	eor.w	r9, r2, r1
        Ako = BCo ^ ((~BCu) & BCa);
 80036ac:	9426      	str	r4, [sp, #152]	; 0x98
        BCo = ROL(Emi, 15);
        Eso ^= Do;
 80036ae:	9a2a      	ldr	r2, [sp, #168]	; 0xa8
 80036b0:	9908      	ldr	r1, [sp, #32]
        BCo = ROL(Emi, 15);
 80036b2:	ea4f 34c9 	mov.w	r4, r9, lsl #15
 80036b6:	ea44 4455 	orr.w	r4, r4, r5, lsr #17
 80036ba:	03ed      	lsls	r5, r5, #15
 80036bc:	ea45 4859 	orr.w	r8, r5, r9, lsr #17
        Eso ^= Do;
 80036c0:	4051      	eors	r1, r2
 80036c2:	9d09      	ldr	r5, [sp, #36]	; 0x24
 80036c4:	9a2b      	ldr	r2, [sp, #172]	; 0xac
        BCu = ROL(Eso, 56);
 80036c6:	ea4f 2911 	mov.w	r9, r1, lsr #8
        Eso ^= Do;
 80036ca:	ea82 0705 	eor.w	r7, r2, r5
        BCu = ROL(Eso, 56);
 80036ce:	ea49 6907 	orr.w	r9, r9, r7, lsl #24
 80036d2:	0a3f      	lsrs	r7, r7, #8
 80036d4:	ea47 6701 	orr.w	r7, r7, r1, lsl #24
        Ama = BCa ^ ((~BCe) & BCi);
 80036d8:	ea23 010e 	bic.w	r1, r3, lr
 80036dc:	ea2a 0206 	bic.w	r2, sl, r6
 80036e0:	ea81 010c 	eor.w	r1, r1, ip
 80036e4:	ea82 020b 	eor.w	r2, r2, fp
 80036e8:	912a      	str	r1, [sp, #168]	; 0xa8
        Ame = BCe ^ ((~BCi) & BCo);
 80036ea:	ea28 0103 	bic.w	r1, r8, r3
 80036ee:	ea81 010e 	eor.w	r1, r1, lr
        Ama = BCa ^ ((~BCe) & BCi);
 80036f2:	922b      	str	r2, [sp, #172]	; 0xac
        Ame = BCe ^ ((~BCi) & BCo);
 80036f4:	ea24 020a 	bic.w	r2, r4, sl
 80036f8:	4072      	eors	r2, r6
 80036fa:	912c      	str	r1, [sp, #176]	; 0xb0
        Ami = BCi ^ ((~BCo) & BCu);
 80036fc:	ea29 0108 	bic.w	r1, r9, r8
 8003700:	404b      	eors	r3, r1
        Ame = BCe ^ ((~BCi) & BCo);
 8003702:	922d      	str	r2, [sp, #180]	; 0xb4
        Ami = BCi ^ ((~BCo) & BCu);
 8003704:	ea27 0204 	bic.w	r2, r7, r4
        Amo = BCo ^ ((~BCu) & BCa);
 8003708:	ea2c 0109 	bic.w	r1, ip, r9
        Ami = BCi ^ ((~BCo) & BCu);
 800370c:	932e      	str	r3, [sp, #184]	; 0xb8
 800370e:	ea82 030a 	eor.w	r3, r2, sl
 8003712:	932f      	str	r3, [sp, #188]	; 0xbc
        Amo = BCo ^ ((~BCu) & BCa);
 8003714:	ea2b 0207 	bic.w	r2, fp, r7
 8003718:	ea81 0308 	eor.w	r3, r1, r8
        Amu = BCu ^ ((~BCa) & BCe);
 800371c:	ea2e 0c0c 	bic.w	ip, lr, ip
        Amo = BCo ^ ((~BCu) & BCa);
 8003720:	9330      	str	r3, [sp, #192]	; 0xc0
 8003722:	ea82 0304 	eor.w	r3, r2, r4
        Amu = BCu ^ ((~BCa) & BCe);
 8003726:	ea26 060b 	bic.w	r6, r6, fp
        Amo = BCo ^ ((~BCu) & BCa);
 800372a:	9331      	str	r3, [sp, #196]	; 0xc4
        Amu = BCu ^ ((~BCa) & BCe);
 800372c:	ea8c 0309 	eor.w	r3, ip, r9
 8003730:	9332      	str	r3, [sp, #200]	; 0xc8
 8003732:	ea86 0307 	eor.w	r3, r6, r7

        Ebi ^= Di;
 8003736:	9a06      	ldr	r2, [sp, #24]
        Amu = BCu ^ ((~BCa) & BCe);
 8003738:	9333      	str	r3, [sp, #204]	; 0xcc
        Ebi ^= Di;
 800373a:	9b3b      	ldr	r3, [sp, #236]	; 0xec
        BCa = ROL(Ebi, 62);
        Ego ^= Do;
 800373c:	9908      	ldr	r1, [sp, #32]
        Ebi ^= Di;
 800373e:	ea83 0902 	eor.w	r9, r3, r2
 8003742:	9b3c      	ldr	r3, [sp, #240]	; 0xf0
 8003744:	9a07      	ldr	r2, [sp, #28]
 8003746:	ea83 0802 	eor.w	r8, r3, r2
        Ego ^= Do;
 800374a:	9a37      	ldr	r2, [sp, #220]	; 0xdc
        BCa = ROL(Ebi, 62);
 800374c:	ea4f 0c99 	mov.w	ip, r9, lsr #2
        Ego ^= Do;
 8003750:	ea82 0601 	eor.w	r6, r2, r1
 8003754:	9a38      	ldr	r2, [sp, #224]	; 0xe0
        BCe = ROL(Ego, 55);
        Eku ^= Du;
 8003756:	990a      	ldr	r1, [sp, #40]	; 0x28
        BCa = ROL(Ebi, 62);
 8003758:	ea4c 7c88 	orr.w	ip, ip, r8, lsl #30
 800375c:	ea4f 0898 	mov.w	r8, r8, lsr #2
 8003760:	ea48 7389 	orr.w	r3, r8, r9, lsl #30
        Ego ^= Do;
 8003764:	ea82 0805 	eor.w	r8, r2, r5
        Eku ^= Du;
 8003768:	9a34      	ldr	r2, [sp, #208]	; 0xd0
 800376a:	ea82 0501 	eor.w	r5, r2, r1
 800376e:	9a3d      	ldr	r2, [sp, #244]	; 0xf4
 8003770:	990b      	ldr	r1, [sp, #44]	; 0x2c
        BCi = ROL(Eku, 39);
 8003772:	ea4f 6b55 	mov.w	fp, r5, lsr #25
        Eku ^= Du;
 8003776:	ea82 0401 	eor.w	r4, r2, r1
        BCi = ROL(Eku, 39);
 800377a:	ea4b 1bc4 	orr.w	fp, fp, r4, lsl #7
        Ema ^= Da;
 800377e:	9a39      	ldr	r2, [sp, #228]	; 0xe4
        BCi = ROL(Eku, 39);
 8003780:	0e61      	lsrs	r1, r4, #25
        Ema ^= Da;
 8003782:	9c02      	ldr	r4, [sp, #8]
        BCi = ROL(Eku, 39);
 8003784:	ea41 11c5 	orr.w	r1, r1, r5, lsl #7
        Ema ^= Da;
 8003788:	4062      	eors	r2, r4
 800378a:	9d03      	ldr	r5, [sp, #12]
 800378c:	9c3a      	ldr	r4, [sp, #232]	; 0xe8
 800378e:	ea84 0a05 	eor.w	sl, r4, r5
        BCo = ROL(Ema, 41);
 8003792:	ea4f 54da 	mov.w	r4, sl, lsr #23
 8003796:	ea44 2442 	orr.w	r4, r4, r2, lsl #9
        Ese ^= De;
 800379a:	9d04      	ldr	r5, [sp, #16]
        BCo = ROL(Ema, 41);
 800379c:	0dd7      	lsrs	r7, r2, #23
        Ese ^= De;
 800379e:	9a35      	ldr	r2, [sp, #212]	; 0xd4
 80037a0:	ea82 0905 	eor.w	r9, r2, r5
 80037a4:	9a36      	ldr	r2, [sp, #216]	; 0xd8
 80037a6:	9d05      	ldr	r5, [sp, #20]
        BCe = ROL(Ego, 55);
 80037a8:	ea4f 2e56 	mov.w	lr, r6, lsr #9
 80037ac:	ea4e 5ec8 	orr.w	lr, lr, r8, lsl #23
        BCo = ROL(Ema, 41);
 80037b0:	ea47 274a 	orr.w	r7, r7, sl, lsl #9
        BCe = ROL(Ego, 55);
 80037b4:	ea4f 2858 	mov.w	r8, r8, lsr #9
        Ese ^= De;
 80037b8:	ea82 0a05 	eor.w	sl, r2, r5
        BCe = ROL(Ego, 55);
 80037bc:	ea48 58c6 	orr.w	r8, r8, r6, lsl #23
        BCu = ROL(Ese, 2);
 80037c0:	ea4f 068a 	mov.w	r6, sl, lsl #2
 80037c4:	ea46 7599 	orr.w	r5, r6, r9, lsr #30
        Asa = BCa ^ ((~BCe) & BCi);
 80037c8:	ea2b 020e 	bic.w	r2, fp, lr
        BCu = ROL(Ese, 2);
 80037cc:	ea4f 0989 	mov.w	r9, r9, lsl #2
 80037d0:	ea49 7a9a 	orr.w	sl, r9, sl, lsr #30
        Asa = BCa ^ ((~BCe) & BCi);
 80037d4:	ea82 020c 	eor.w	r2, r2, ip
 80037d8:	ea21 0908 	bic.w	r9, r1, r8
 80037dc:	920b      	str	r2, [sp, #44]	; 0x2c
 80037de:	ea89 0203 	eor.w	r2, r9, r3
 80037e2:	9234      	str	r2, [sp, #208]	; 0xd0
        Ase = BCe ^ ((~BCi) & BCo);
 80037e4:	ea27 060b 	bic.w	r6, r7, fp
 80037e8:	ea24 0201 	bic.w	r2, r4, r1
 80037ec:	ea86 060e 	eor.w	r6, r6, lr
 80037f0:	ea82 0208 	eor.w	r2, r2, r8
 80037f4:	9635      	str	r6, [sp, #212]	; 0xd4
 80037f6:	9236      	str	r2, [sp, #216]	; 0xd8
        Asi = BCi ^ ((~BCo) & BCu);
 80037f8:	ea2a 0607 	bic.w	r6, sl, r7
 80037fc:	ea25 0204 	bic.w	r2, r5, r4
 8003800:	404a      	eors	r2, r1
 8003802:	ea86 060b 	eor.w	r6, r6, fp
        Aso = BCo ^ ((~BCu) & BCa);
        Asu = BCu ^ ((~BCa) & BCe);
 8003806:	ea2e 0e0c 	bic.w	lr, lr, ip
        Asi = BCi ^ ((~BCo) & BCu);
 800380a:	9637      	str	r6, [sp, #220]	; 0xdc
 800380c:	9238      	str	r2, [sp, #224]	; 0xe0
        Asu = BCu ^ ((~BCa) & BCe);
 800380e:	ea28 0603 	bic.w	r6, r8, r3
        Aso = BCo ^ ((~BCu) & BCa);
 8003812:	ea23 0205 	bic.w	r2, r3, r5
        Asu = BCu ^ ((~BCa) & BCe);
 8003816:	ea8e 030a 	eor.w	r3, lr, sl
 800381a:	933b      	str	r3, [sp, #236]	; 0xec
    for (round = 0; round < NROUNDS; round += 2) {
 800381c:	9b01      	ldr	r3, [sp, #4]
 800381e:	3310      	adds	r3, #16
        Aso = BCo ^ ((~BCu) & BCa);
 8003820:	4062      	eors	r2, r4
    for (round = 0; round < NROUNDS; round += 2) {
 8003822:	9301      	str	r3, [sp, #4]
        Aso = BCo ^ ((~BCu) & BCa);
 8003824:	923a      	str	r2, [sp, #232]	; 0xe8
    for (round = 0; round < NROUNDS; round += 2) {
 8003826:	4b40      	ldr	r3, [pc, #256]	; (8003928 <KeccakF1600_StatePermute+0xe58>)
 8003828:	9a01      	ldr	r2, [sp, #4]
        Aso = BCo ^ ((~BCu) & BCa);
 800382a:	ea2c 090a 	bic.w	r9, ip, sl
 800382e:	ea89 0107 	eor.w	r1, r9, r7
    for (round = 0; round < NROUNDS; round += 2) {
 8003832:	4293      	cmp	r3, r2
        Aso = BCo ^ ((~BCu) & BCa);
 8003834:	9139      	str	r1, [sp, #228]	; 0xe4
        Asu = BCu ^ ((~BCa) & BCe);
 8003836:	ea86 0605 	eor.w	r6, r6, r5
    for (round = 0; round < NROUNDS; round += 2) {
 800383a:	f47f a9c7 	bne.w	8002bcc <KeccakF1600_StatePermute+0xfc>
    }

    // copyToState(state, A)
    state[0] = Aba;
 800383e:	9b0c      	ldr	r3, [sp, #48]	; 0x30
 8003840:	6003      	str	r3, [r0, #0]
 8003842:	9b0d      	ldr	r3, [sp, #52]	; 0x34
 8003844:	6043      	str	r3, [r0, #4]
    state[1] = Abe;
 8003846:	9b0e      	ldr	r3, [sp, #56]	; 0x38
 8003848:	6083      	str	r3, [r0, #8]
 800384a:	9b0f      	ldr	r3, [sp, #60]	; 0x3c
 800384c:	60c3      	str	r3, [r0, #12]
    state[2] = Abi;
 800384e:	9b10      	ldr	r3, [sp, #64]	; 0x40
 8003850:	6103      	str	r3, [r0, #16]
 8003852:	9b11      	ldr	r3, [sp, #68]	; 0x44
 8003854:	6143      	str	r3, [r0, #20]
    state[3] = Abo;
 8003856:	9b12      	ldr	r3, [sp, #72]	; 0x48
 8003858:	6183      	str	r3, [r0, #24]
 800385a:	9b13      	ldr	r3, [sp, #76]	; 0x4c
 800385c:	61c3      	str	r3, [r0, #28]
    state[4] = Abu;
 800385e:	9b14      	ldr	r3, [sp, #80]	; 0x50
 8003860:	6203      	str	r3, [r0, #32]
 8003862:	9b15      	ldr	r3, [sp, #84]	; 0x54
 8003864:	6243      	str	r3, [r0, #36]	; 0x24
    state[5] = Aga;
 8003866:	9b16      	ldr	r3, [sp, #88]	; 0x58
 8003868:	6283      	str	r3, [r0, #40]	; 0x28
 800386a:	9b17      	ldr	r3, [sp, #92]	; 0x5c
 800386c:	62c3      	str	r3, [r0, #44]	; 0x2c
    state[6] = Age;
 800386e:	9b18      	ldr	r3, [sp, #96]	; 0x60
 8003870:	6303      	str	r3, [r0, #48]	; 0x30
 8003872:	9b19      	ldr	r3, [sp, #100]	; 0x64
 8003874:	6343      	str	r3, [r0, #52]	; 0x34
    state[7] = Agi;
 8003876:	9b1a      	ldr	r3, [sp, #104]	; 0x68
 8003878:	6383      	str	r3, [r0, #56]	; 0x38
 800387a:	9b1b      	ldr	r3, [sp, #108]	; 0x6c
 800387c:	63c3      	str	r3, [r0, #60]	; 0x3c
    state[8] = Ago;
 800387e:	9b1c      	ldr	r3, [sp, #112]	; 0x70
 8003880:	6403      	str	r3, [r0, #64]	; 0x40
 8003882:	9b1d      	ldr	r3, [sp, #116]	; 0x74
 8003884:	6443      	str	r3, [r0, #68]	; 0x44
    state[9] = Agu;
 8003886:	9b1e      	ldr	r3, [sp, #120]	; 0x78
 8003888:	6483      	str	r3, [r0, #72]	; 0x48
 800388a:	9b1f      	ldr	r3, [sp, #124]	; 0x7c
 800388c:	64c3      	str	r3, [r0, #76]	; 0x4c
    state[10] = Aka;
 800388e:	9b20      	ldr	r3, [sp, #128]	; 0x80
 8003890:	6503      	str	r3, [r0, #80]	; 0x50
 8003892:	9b21      	ldr	r3, [sp, #132]	; 0x84
 8003894:	6543      	str	r3, [r0, #84]	; 0x54
    state[11] = Ake;
 8003896:	9b22      	ldr	r3, [sp, #136]	; 0x88
 8003898:	6583      	str	r3, [r0, #88]	; 0x58
 800389a:	9b23      	ldr	r3, [sp, #140]	; 0x8c
 800389c:	65c3      	str	r3, [r0, #92]	; 0x5c
    state[12] = Aki;
 800389e:	9b24      	ldr	r3, [sp, #144]	; 0x90
 80038a0:	6603      	str	r3, [r0, #96]	; 0x60
 80038a2:	9b25      	ldr	r3, [sp, #148]	; 0x94
 80038a4:	6643      	str	r3, [r0, #100]	; 0x64
    state[13] = Ako;
 80038a6:	9b26      	ldr	r3, [sp, #152]	; 0x98
 80038a8:	6683      	str	r3, [r0, #104]	; 0x68
 80038aa:	9b27      	ldr	r3, [sp, #156]	; 0x9c
 80038ac:	66c3      	str	r3, [r0, #108]	; 0x6c
    state[14] = Aku;
 80038ae:	9b28      	ldr	r3, [sp, #160]	; 0xa0
 80038b0:	6703      	str	r3, [r0, #112]	; 0x70
 80038b2:	9b29      	ldr	r3, [sp, #164]	; 0xa4
 80038b4:	6743      	str	r3, [r0, #116]	; 0x74
    state[15] = Ama;
 80038b6:	9b2a      	ldr	r3, [sp, #168]	; 0xa8
 80038b8:	6783      	str	r3, [r0, #120]	; 0x78
 80038ba:	9b2b      	ldr	r3, [sp, #172]	; 0xac
 80038bc:	67c3      	str	r3, [r0, #124]	; 0x7c
    state[16] = Ame;
 80038be:	9b2c      	ldr	r3, [sp, #176]	; 0xb0
 80038c0:	f8c0 3080 	str.w	r3, [r0, #128]	; 0x80
 80038c4:	9b2d      	ldr	r3, [sp, #180]	; 0xb4
 80038c6:	f8c0 3084 	str.w	r3, [r0, #132]	; 0x84
    state[17] = Ami;
 80038ca:	9b2e      	ldr	r3, [sp, #184]	; 0xb8
 80038cc:	f8c0 3088 	str.w	r3, [r0, #136]	; 0x88
 80038d0:	9b2f      	ldr	r3, [sp, #188]	; 0xbc
 80038d2:	f8c0 308c 	str.w	r3, [r0, #140]	; 0x8c
    state[18] = Amo;
 80038d6:	9b30      	ldr	r3, [sp, #192]	; 0xc0
 80038d8:	f8c0 3090 	str.w	r3, [r0, #144]	; 0x90
 80038dc:	9b31      	ldr	r3, [sp, #196]	; 0xc4
 80038de:	f8c0 3094 	str.w	r3, [r0, #148]	; 0x94
    state[19] = Amu;
 80038e2:	9b32      	ldr	r3, [sp, #200]	; 0xc8
 80038e4:	f8c0 3098 	str.w	r3, [r0, #152]	; 0x98
 80038e8:	9b33      	ldr	r3, [sp, #204]	; 0xcc
 80038ea:	f8c0 309c 	str.w	r3, [r0, #156]	; 0x9c
    state[20] = Asa;
 80038ee:	9b0b      	ldr	r3, [sp, #44]	; 0x2c
 80038f0:	f8c0 30a0 	str.w	r3, [r0, #160]	; 0xa0
 80038f4:	9b34      	ldr	r3, [sp, #208]	; 0xd0
 80038f6:	f8c0 30a4 	str.w	r3, [r0, #164]	; 0xa4
    state[21] = Ase;
 80038fa:	9b35      	ldr	r3, [sp, #212]	; 0xd4
 80038fc:	f8c0 30a8 	str.w	r3, [r0, #168]	; 0xa8
 8003900:	9b36      	ldr	r3, [sp, #216]	; 0xd8
 8003902:	f8c0 30ac 	str.w	r3, [r0, #172]	; 0xac
    state[22] = Asi;
 8003906:	9b37      	ldr	r3, [sp, #220]	; 0xdc
 8003908:	f8c0 30b0 	str.w	r3, [r0, #176]	; 0xb0
 800390c:	9b38      	ldr	r3, [sp, #224]	; 0xe0
 800390e:	f8c0 30b4 	str.w	r3, [r0, #180]	; 0xb4
    state[23] = Aso;
 8003912:	9b3a      	ldr	r3, [sp, #232]	; 0xe8
 8003914:	f8c0 30bc 	str.w	r3, [r0, #188]	; 0xbc
    state[24] = Asu;
 8003918:	9b3b      	ldr	r3, [sp, #236]	; 0xec
    state[23] = Aso;
 800391a:	f8c0 10b8 	str.w	r1, [r0, #184]	; 0xb8
    state[24] = Asu;
 800391e:	e9c0 3630 	strd	r3, r6, [r0, #192]	; 0xc0
}
 8003922:	b03f      	add	sp, #252	; 0xfc
 8003924:	e8bd 8ff0 	ldmia.w	sp!, {r4, r5, r6, r7, r8, r9, sl, fp, pc}
 8003928:	0800adc8 	.word	0x0800adc8

0800392c <keccak_absorb>:
 *              - size_t mlen: length of input in bytes
 *              - uint8_t p: domain-separation byte for different
 *                                 Keccak-derived functions
 **************************************************/
static void keccak_absorb(uint64_t *s, uint32_t r, const uint8_t *m,
                          size_t mlen, uint8_t p) {
 800392c:	e92d 4ff0 	stmdb	sp!, {r4, r5, r6, r7, r8, r9, sl, fp, lr}
 8003930:	460c      	mov	r4, r1
 8003932:	b0b3      	sub	sp, #204	; 0xcc
 8003934:	4690      	mov	r8, r2
    size_t i;
    uint8_t t[200];

    /* Zero state */
    for (i = 0; i < 25; ++i) {
        s[i] = 0;
 8003936:	2100      	movs	r1, #0
 8003938:	22c8      	movs	r2, #200	; 0xc8
                          size_t mlen, uint8_t p) {
 800393a:	4682      	mov	sl, r0
 800393c:	461d      	mov	r5, r3
        s[i] = 0;
 800393e:	f001 fdc5 	bl	80054cc <memset>
    }

    while (mlen >= r) {
        for (i = 0; i < r / 8; ++i) {
 8003942:	08e6      	lsrs	r6, r4, #3
 8003944:	f1aa 0708 	sub.w	r7, sl, #8
    while (mlen >= r) {
 8003948:	42a5      	cmp	r5, r4
 800394a:	d22d      	bcs.n	80039a8 <keccak_absorb+0x7c>
        mlen -= r;
        m += r;
    }

    for (i = 0; i < r; ++i) {
        t[i] = 0;
 800394c:	4622      	mov	r2, r4
 800394e:	2100      	movs	r1, #0
 8003950:	4668      	mov	r0, sp
 8003952:	f001 fdbb 	bl	80054cc <memset>
    }
    for (i = 0; i < mlen; ++i) {
        t[i] = m[i];
 8003956:	462a      	mov	r2, r5
 8003958:	4641      	mov	r1, r8
 800395a:	4668      	mov	r0, sp
 800395c:	f7fc fc50 	bl	8000200 <memcpy>
    }
    t[i] = p;
 8003960:	ab32      	add	r3, sp, #200	; 0xc8
 8003962:	441d      	add	r5, r3
 8003964:	f89d 30f0 	ldrb.w	r3, [sp, #240]	; 0xf0
 8003968:	f805 3cc8 	strb.w	r3, [r5, #-200]
    t[r - 1] |= 128;
 800396c:	3c01      	subs	r4, #1
 800396e:	ab32      	add	r3, sp, #200	; 0xc8
 8003970:	441c      	add	r4, r3
 8003972:	466d      	mov	r5, sp
 8003974:	f814 3cc8 	ldrb.w	r3, [r4, #-200]
 8003978:	f063 037f 	orn	r3, r3, #127	; 0x7f
 800397c:	f804 3cc8 	strb.w	r3, [r4, #-200]
    
    for (i = 0; i <r / 8 ; ++i) {
 8003980:	463c      	mov	r4, r7
 8003982:	2700      	movs	r7, #0
        s[i] ^= load64(t + 8 * i);
 8003984:	4628      	mov	r0, r5
 8003986:	f7ff f889 	bl	8002a9c <load64>
 800398a:	f854 2f08 	ldr.w	r2, [r4, #8]!
 800398e:	6863      	ldr	r3, [r4, #4]
    for (i = 0; i <r / 8 ; ++i) {
 8003990:	3701      	adds	r7, #1
        s[i] ^= load64(t + 8 * i);
 8003992:	4042      	eors	r2, r0
 8003994:	404b      	eors	r3, r1
    for (i = 0; i <r / 8 ; ++i) {
 8003996:	42be      	cmp	r6, r7
        s[i] ^= load64(t + 8 * i);
 8003998:	e9c4 2300 	strd	r2, r3, [r4]
    for (i = 0; i <r / 8 ; ++i) {
 800399c:	f105 0508 	add.w	r5, r5, #8
 80039a0:	d8f0      	bhi.n	8003984 <keccak_absorb+0x58>
    }
	
}
 80039a2:	b033      	add	sp, #204	; 0xcc
 80039a4:	e8bd 8ff0 	ldmia.w	sp!, {r4, r5, r6, r7, r8, r9, sl, fp, pc}
 80039a8:	46b9      	mov	r9, r7
        for (i = 0; i < r / 8; ++i) {
 80039aa:	f04f 0b00 	mov.w	fp, #0
            s[i] ^= load64(m + 8 * i);
 80039ae:	eb08 00cb 	add.w	r0, r8, fp, lsl #3
 80039b2:	f7ff f873 	bl	8002a9c <load64>
 80039b6:	f859 2f08 	ldr.w	r2, [r9, #8]!
 80039ba:	f8d9 3004 	ldr.w	r3, [r9, #4]
        for (i = 0; i < r / 8; ++i) {
 80039be:	f10b 0b01 	add.w	fp, fp, #1
            s[i] ^= load64(m + 8 * i);
 80039c2:	4042      	eors	r2, r0
 80039c4:	404b      	eors	r3, r1
        for (i = 0; i < r / 8; ++i) {
 80039c6:	455e      	cmp	r6, fp
            s[i] ^= load64(m + 8 * i);
 80039c8:	e9c9 2300 	strd	r2, r3, [r9]
        for (i = 0; i < r / 8; ++i) {
 80039cc:	d8ef      	bhi.n	80039ae <keccak_absorb+0x82>
        KeccakF1600_StatePermute(s);
 80039ce:	4650      	mov	r0, sl
 80039d0:	f7ff f87e 	bl	8002ad0 <KeccakF1600_StatePermute>
        mlen -= r;
 80039d4:	1b2d      	subs	r5, r5, r4
        m += r;
 80039d6:	44a0      	add	r8, r4
 80039d8:	e7b6      	b.n	8003948 <keccak_absorb+0x1c>

080039da <keccak_squeezeblocks>:
 *                                                squeezed (written to h)
 *              - uint64_t *s: pointer to input/output Keccak state
 *              - uint32_t r: rate in bytes (e.g., 168 for SHAKE128)
 **************************************************/
static void keccak_squeezeblocks(uint8_t *h, size_t nblocks,
                                 uint64_t *s, uint32_t r) {
 80039da:	e92d 4ff8 	stmdb	sp!, {r3, r4, r5, r6, r7, r8, r9, sl, fp, lr}
 80039de:	4606      	mov	r6, r0
 80039e0:	460d      	mov	r5, r1
 80039e2:	4610      	mov	r0, r2
 80039e4:	461f      	mov	r7, r3
    while (nblocks > 0) {
        KeccakF1600_StatePermute(s);
        for (size_t i = 0; i < (r >> 3); i++) {
 80039e6:	ea4f 08d3 	mov.w	r8, r3, lsr #3
    while (nblocks > 0) {
 80039ea:	b90d      	cbnz	r5, 80039f0 <keccak_squeezeblocks+0x16>
            store64(h + 8 * i, s[i]);
        }
        h += r;
        nblocks--;
    }
}
 80039ec:	e8bd 8ff8 	ldmia.w	sp!, {r3, r4, r5, r6, r7, r8, r9, sl, fp, pc}
        KeccakF1600_StatePermute(s);
 80039f0:	f7ff f86e 	bl	8002ad0 <KeccakF1600_StatePermute>
        for (size_t i = 0; i < (r >> 3); i++) {
 80039f4:	f1a0 0208 	sub.w	r2, r0, #8
 80039f8:	2300      	movs	r3, #0
            store64(h + 8 * i, s[i]);
 80039fa:	f852 bf08 	ldr.w	fp, [r2, #8]!
 80039fe:	f8d2 a004 	ldr.w	sl, [r2, #4]
    for (size_t i = 0; i < 8; ++i) {
 8003a02:	eb06 09c3 	add.w	r9, r6, r3, lsl #3
            store64(h + 8 * i, s[i]);
 8003a06:	2400      	movs	r4, #0
        x[i] = (uint8_t) (u >> 8 * i);
 8003a08:	f1c4 0e20 	rsb	lr, r4, #32
 8003a0c:	f1a4 0c20 	sub.w	ip, r4, #32
 8003a10:	fa2b f104 	lsr.w	r1, fp, r4
 8003a14:	fa0a fe0e 	lsl.w	lr, sl, lr
 8003a18:	ea41 010e 	orr.w	r1, r1, lr
 8003a1c:	fa2a fc0c 	lsr.w	ip, sl, ip
    for (size_t i = 0; i < 8; ++i) {
 8003a20:	3408      	adds	r4, #8
        x[i] = (uint8_t) (u >> 8 * i);
 8003a22:	ea41 010c 	orr.w	r1, r1, ip
    for (size_t i = 0; i < 8; ++i) {
 8003a26:	2c40      	cmp	r4, #64	; 0x40
        x[i] = (uint8_t) (u >> 8 * i);
 8003a28:	f809 1b01 	strb.w	r1, [r9], #1
    for (size_t i = 0; i < 8; ++i) {
 8003a2c:	d1ec      	bne.n	8003a08 <keccak_squeezeblocks+0x2e>
        for (size_t i = 0; i < (r >> 3); i++) {
 8003a2e:	3301      	adds	r3, #1
 8003a30:	4598      	cmp	r8, r3
 8003a32:	d8e2      	bhi.n	80039fa <keccak_squeezeblocks+0x20>
        h += r;
 8003a34:	443e      	add	r6, r7
        nblocks--;
 8003a36:	3d01      	subs	r5, #1
 8003a38:	e7d7      	b.n	80039ea <keccak_squeezeblocks+0x10>

08003a3a <keccak_inc_init>:
 * Arguments:   - uint64_t *s_inc: pointer to input/output incremental state
 *                First 25 values represent Keccak state.
 *                26th value represents either the number of absorbed bytes
 *                that have not been permuted, or not-yet-squeezed bytes.
 **************************************************/
static void keccak_inc_init(uint64_t *s_inc) {
 8003a3a:	b510      	push	{r4, lr}
    size_t i;

    for (i = 0; i < 25; ++i) {
        s_inc[i] = 0;
 8003a3c:	22c8      	movs	r2, #200	; 0xc8
 8003a3e:	2100      	movs	r1, #0
static void keccak_inc_init(uint64_t *s_inc) {
 8003a40:	4604      	mov	r4, r0
        s_inc[i] = 0;
 8003a42:	f001 fd43 	bl	80054cc <memset>
    }
    s_inc[25] = 0;
 8003a46:	2200      	movs	r2, #0
 8003a48:	2300      	movs	r3, #0
 8003a4a:	e9c4 2332 	strd	r2, r3, [r4, #200]	; 0xc8
}
 8003a4e:	bd10      	pop	{r4, pc}

08003a50 <keccak_inc_absorb>:
 *              - uint32_t r: rate in bytes (e.g., 168 for SHAKE128)
 *              - const uint8_t *m: pointer to input to be absorbed into s
 *              - size_t mlen: length of input in bytes
 **************************************************/
static void keccak_inc_absorb(uint64_t *s_inc, uint32_t r, const uint8_t *m,
                              size_t mlen) {
 8003a50:	e92d 47f0 	stmdb	sp!, {r4, r5, r6, r7, r8, r9, sl, lr}
 8003a54:	460d      	mov	r5, r1
 8003a56:	4690      	mov	r8, r2
 8003a58:	4699      	mov	r9, r3
               xor with the s_inc[25] + i'th byte of the state; little-endian */
            s_inc[(s_inc[25] + i) >> 3] ^= (uint64_t)m[i] << (8 * ((s_inc[25] + i) & 0x07));
        }
        mlen -= (size_t)(r - s_inc[25]);
        m += r - s_inc[25];
        s_inc[25] = 0;
 8003a5a:	2600      	movs	r6, #0
 8003a5c:	2700      	movs	r7, #0
    while (mlen + s_inc[25] >= r) {
 8003a5e:	e9d0 3232 	ldrd	r3, r2, [r0, #200]	; 0xc8
 8003a62:	eb19 0303 	adds.w	r3, r9, r3
 8003a66:	f142 0200 	adc.w	r2, r2, #0
 8003a6a:	42ab      	cmp	r3, r5
 8003a6c:	f172 0300 	sbcs.w	r3, r2, #0
 8003a70:	d240      	bcs.n	8003af4 <keccak_inc_absorb+0xa4>
 8003a72:	2200      	movs	r2, #0
 8003a74:	4615      	mov	r5, r2

        KeccakF1600_StatePermute(s_inc);
    }

    for (i = 0; i < mlen; i++) {
 8003a76:	4591      	cmp	r9, r2
        s_inc[(s_inc[25] + i) >> 3] ^= (uint64_t)m[i] << (8 * ((s_inc[25] + i) & 0x07));
 8003a78:	e9d0 3132 	ldrd	r3, r1, [r0, #200]	; 0xc8
    for (i = 0; i < mlen; i++) {
 8003a7c:	d83c      	bhi.n	8003af8 <keccak_inc_absorb+0xa8>
    }
    s_inc[25] += mlen;
 8003a7e:	eb19 0303 	adds.w	r3, r9, r3
 8003a82:	f141 0100 	adc.w	r1, r1, #0
 8003a86:	e9c0 3132 	strd	r3, r1, [r0, #200]	; 0xc8
}
 8003a8a:	e8bd 87f0 	ldmia.w	sp!, {r4, r5, r6, r7, r8, r9, sl, pc}
            s_inc[(s_inc[25] + i) >> 3] ^= (uint64_t)m[i] << (8 * ((s_inc[25] + i) & 0x07));
 8003a8e:	190c      	adds	r4, r1, r4
 8003a90:	f143 0300 	adc.w	r3, r3, #0
 8003a94:	ea4f 0cd4 	mov.w	ip, r4, lsr #3
 8003a98:	f004 0407 	and.w	r4, r4, #7
 8003a9c:	ea4c 7c43 	orr.w	ip, ip, r3, lsl #29
 8003aa0:	00e4      	lsls	r4, r4, #3
 8003aa2:	f818 3001 	ldrb.w	r3, [r8, r1]
 8003aa6:	eb00 0ecc 	add.w	lr, r0, ip, lsl #3
 8003aaa:	f1a4 0a20 	sub.w	sl, r4, #32
 8003aae:	f1c4 0220 	rsb	r2, r4, #32
 8003ab2:	fa23 f202 	lsr.w	r2, r3, r2
 8003ab6:	fa03 fa0a 	lsl.w	sl, r3, sl
 8003aba:	ea4a 0a02 	orr.w	sl, sl, r2
 8003abe:	fa03 f404 	lsl.w	r4, r3, r4
 8003ac2:	f850 203c 	ldr.w	r2, [r0, ip, lsl #3]
 8003ac6:	f8de 3004 	ldr.w	r3, [lr, #4]
 8003aca:	4054      	eors	r4, r2
 8003acc:	ea83 030a 	eor.w	r3, r3, sl
 8003ad0:	f840 403c 	str.w	r4, [r0, ip, lsl #3]
        for (i = 0; i < r - (uint32_t)s_inc[25]; i++) {
 8003ad4:	3101      	adds	r1, #1
            s_inc[(s_inc[25] + i) >> 3] ^= (uint64_t)m[i] << (8 * ((s_inc[25] + i) & 0x07));
 8003ad6:	f8ce 3004 	str.w	r3, [lr, #4]
        for (i = 0; i < r - (uint32_t)s_inc[25]; i++) {
 8003ada:	e9d0 4332 	ldrd	r4, r3, [r0, #200]	; 0xc8
 8003ade:	1b2a      	subs	r2, r5, r4
 8003ae0:	428a      	cmp	r2, r1
 8003ae2:	d8d4      	bhi.n	8003a8e <keccak_inc_absorb+0x3e>
        mlen -= (size_t)(r - s_inc[25]);
 8003ae4:	1b64      	subs	r4, r4, r5
        s_inc[25] = 0;
 8003ae6:	e9c0 6732 	strd	r6, r7, [r0, #200]	; 0xc8
        mlen -= (size_t)(r - s_inc[25]);
 8003aea:	44a1      	add	r9, r4
        m += r - s_inc[25];
 8003aec:	4490      	add	r8, r2
        KeccakF1600_StatePermute(s_inc);
 8003aee:	f7fe ffef 	bl	8002ad0 <KeccakF1600_StatePermute>
 8003af2:	e7b4      	b.n	8003a5e <keccak_inc_absorb+0xe>
        for (i = 0; i < r - (uint32_t)s_inc[25]; i++) {
 8003af4:	2100      	movs	r1, #0
 8003af6:	e7f0      	b.n	8003ada <keccak_inc_absorb+0x8a>
        s_inc[(s_inc[25] + i) >> 3] ^= (uint64_t)m[i] << (8 * ((s_inc[25] + i) & 0x07));
 8003af8:	18d3      	adds	r3, r2, r3
 8003afa:	eb45 0101 	adc.w	r1, r5, r1
 8003afe:	08dc      	lsrs	r4, r3, #3
 8003b00:	f003 0307 	and.w	r3, r3, #7
 8003b04:	f818 6002 	ldrb.w	r6, [r8, r2]
 8003b08:	ea44 7441 	orr.w	r4, r4, r1, lsl #29
 8003b0c:	00db      	lsls	r3, r3, #3
 8003b0e:	eb00 0cc4 	add.w	ip, r0, r4, lsl #3
 8003b12:	f1a3 0120 	sub.w	r1, r3, #32
 8003b16:	f1c3 0720 	rsb	r7, r3, #32
 8003b1a:	fa26 f707 	lsr.w	r7, r6, r7
 8003b1e:	fa06 f101 	lsl.w	r1, r6, r1
 8003b22:	4339      	orrs	r1, r7
 8003b24:	fa06 f303 	lsl.w	r3, r6, r3
 8003b28:	f850 7034 	ldr.w	r7, [r0, r4, lsl #3]
 8003b2c:	f8dc 6004 	ldr.w	r6, [ip, #4]
 8003b30:	407b      	eors	r3, r7
 8003b32:	4071      	eors	r1, r6
 8003b34:	3201      	adds	r2, #1
 8003b36:	f840 3034 	str.w	r3, [r0, r4, lsl #3]
 8003b3a:	f145 0500 	adc.w	r5, r5, #0
 8003b3e:	f8cc 1004 	str.w	r1, [ip, #4]
    for (i = 0; i < mlen; i++) {
 8003b42:	e798      	b.n	8003a76 <keccak_inc_absorb+0x26>

08003b44 <keccak_inc_finalize>:
 *                that have not been permuted, or not-yet-squeezed bytes.
 *              - uint32_t r: rate in bytes (e.g., 168 for SHAKE128)
 *              - uint8_t p: domain-separation byte for different
 *                                 Keccak-derived functions
 **************************************************/
static void keccak_inc_finalize(uint64_t *s_inc, uint32_t r, uint8_t p) {
 8003b44:	b5f0      	push	{r4, r5, r6, r7, lr}
    /* After keccak_inc_absorb, we are guaranteed that s_inc[25] < r,
       so we can always use one more byte for p in the current state. */
    s_inc[s_inc[25] >> 3] ^= (uint64_t)p << (8 * (s_inc[25] & 0x07));
 8003b46:	e9d0 3532 	ldrd	r3, r5, [r0, #200]	; 0xc8
 8003b4a:	08dc      	lsrs	r4, r3, #3
 8003b4c:	f003 0307 	and.w	r3, r3, #7
 8003b50:	ea44 7445 	orr.w	r4, r4, r5, lsl #29
 8003b54:	00db      	lsls	r3, r3, #3
 8003b56:	eb00 07c4 	add.w	r7, r0, r4, lsl #3
 8003b5a:	f1a3 0520 	sub.w	r5, r3, #32
 8003b5e:	f1c3 0620 	rsb	r6, r3, #32
 8003b62:	fa22 f606 	lsr.w	r6, r2, r6
 8003b66:	fa02 f505 	lsl.w	r5, r2, r5
 8003b6a:	409a      	lsls	r2, r3
 8003b6c:	f850 3034 	ldr.w	r3, [r0, r4, lsl #3]
 8003b70:	4335      	orrs	r5, r6
    s_inc[(r - 1) >> 3] ^= (uint64_t)128 << (8 * ((r - 1) & 0x07));
 8003b72:	3901      	subs	r1, #1
    s_inc[s_inc[25] >> 3] ^= (uint64_t)p << (8 * (s_inc[25] & 0x07));
 8003b74:	687e      	ldr	r6, [r7, #4]
 8003b76:	405a      	eors	r2, r3
    s_inc[(r - 1) >> 3] ^= (uint64_t)128 << (8 * ((r - 1) & 0x07));
 8003b78:	f021 0107 	bic.w	r1, r1, #7
    s_inc[s_inc[25] >> 3] ^= (uint64_t)p << (8 * (s_inc[25] & 0x07));
 8003b7c:	f840 2034 	str.w	r2, [r0, r4, lsl #3]
    s_inc[(r - 1) >> 3] ^= (uint64_t)128 << (8 * ((r - 1) & 0x07));
 8003b80:	4401      	add	r1, r0
    s_inc[s_inc[25] >> 3] ^= (uint64_t)p << (8 * (s_inc[25] & 0x07));
 8003b82:	4075      	eors	r5, r6
 8003b84:	607d      	str	r5, [r7, #4]
    s_inc[(r - 1) >> 3] ^= (uint64_t)128 << (8 * ((r - 1) & 0x07));
 8003b86:	684b      	ldr	r3, [r1, #4]
 8003b88:	f103 4300 	add.w	r3, r3, #2147483648	; 0x80000000
 8003b8c:	604b      	str	r3, [r1, #4]
    s_inc[25] = 0;
 8003b8e:	2200      	movs	r2, #0
 8003b90:	2300      	movs	r3, #0
 8003b92:	e9c0 2332 	strd	r2, r3, [r0, #200]	; 0xc8
}
 8003b96:	bdf0      	pop	{r4, r5, r6, r7, pc}

08003b98 <keccak_inc_squeeze>:
 *                26th value represents either the number of absorbed bytes
 *                that have not been permuted, or not-yet-squeezed bytes.
 *              - uint32_t r: rate in bytes (e.g., 168 for SHAKE128)
 **************************************************/
static void keccak_inc_squeeze(uint8_t *h, size_t outlen,
                               uint64_t *s_inc, uint32_t r) {
 8003b98:	e92d 43f8 	stmdb	sp!, {r3, r4, r5, r6, r7, r8, r9, lr}
    size_t i;

    /* First consume any bytes we still have sitting around */
    for (i = 0; i < outlen && i < s_inc[25]; i++) {
 8003b9c:	2500      	movs	r5, #0
                               uint64_t *s_inc, uint32_t r) {
 8003b9e:	4616      	mov	r6, r2
 8003ba0:	461f      	mov	r7, r3
    for (i = 0; i < outlen && i < s_inc[25]; i++) {
 8003ba2:	462a      	mov	r2, r5
 8003ba4:	42a9      	cmp	r1, r5
 8003ba6:	e9d6 4332 	ldrd	r4, r3, [r6, #200]	; 0xc8
        /* There are s_inc[25] bytes left, so r - s_inc[25] is the first
           available byte. We consume from there, i.e., up to r. */
        h[i] = (uint8_t)(s_inc[(r - s_inc[25] + i) >> 3] >> (8 * ((r - s_inc[25] + i) & 0x07)));
 8003baa:	4681      	mov	r9, r0
    for (i = 0; i < outlen && i < s_inc[25]; i++) {
 8003bac:	d903      	bls.n	8003bb6 <keccak_inc_squeeze+0x1e>
 8003bae:	42a5      	cmp	r5, r4
 8003bb0:	eb72 0c03 	sbcs.w	ip, r2, r3
 8003bb4:	d30c      	bcc.n	8003bd0 <keccak_inc_squeeze+0x38>
    }
    h += i;
    outlen -= i;
    s_inc[25] -= i;
 8003bb6:	1b64      	subs	r4, r4, r5
 8003bb8:	eb63 0302 	sbc.w	r3, r3, r2
 8003bbc:	e9c6 4332 	strd	r4, r3, [r6, #200]	; 0xc8
    outlen -= i;
 8003bc0:	eba1 0805 	sub.w	r8, r1, r5
        for (i = 0; i < outlen && i < r; i++) {
            h[i] = (uint8_t)(s_inc[i >> 3] >> (8 * (i & 0x07)));
        }
        h += i;
        outlen -= i;
        s_inc[25] = r - i;
 8003bc4:	2400      	movs	r4, #0
    while (outlen > 0) {
 8003bc6:	f1b8 0f00 	cmp.w	r8, #0
 8003bca:	d129      	bne.n	8003c20 <keccak_inc_squeeze+0x88>
    }
}
 8003bcc:	e8bd 83f8 	ldmia.w	sp!, {r3, r4, r5, r6, r7, r8, r9, pc}
        h[i] = (uint8_t)(s_inc[(r - s_inc[25] + i) >> 3] >> (8 * ((r - s_inc[25] + i) & 0x07)));
 8003bd0:	1b3c      	subs	r4, r7, r4
 8003bd2:	eb63 0343 	sbc.w	r3, r3, r3, lsl #1
 8003bd6:	1964      	adds	r4, r4, r5
 8003bd8:	eb42 0303 	adc.w	r3, r2, r3
 8003bdc:	ea4f 0cd4 	mov.w	ip, r4, lsr #3
 8003be0:	ea4c 7c43 	orr.w	ip, ip, r3, lsl #29
 8003be4:	eb06 0ecc 	add.w	lr, r6, ip, lsl #3
 8003be8:	f004 0407 	and.w	r4, r4, #7
 8003bec:	f8de 8004 	ldr.w	r8, [lr, #4]
 8003bf0:	f856 303c 	ldr.w	r3, [r6, ip, lsl #3]
 8003bf4:	00e4      	lsls	r4, r4, #3
 8003bf6:	f1c4 0e20 	rsb	lr, r4, #32
 8003bfa:	f1a4 0c20 	sub.w	ip, r4, #32
 8003bfe:	fa08 fe0e 	lsl.w	lr, r8, lr
 8003c02:	fa23 f404 	lsr.w	r4, r3, r4
 8003c06:	ea44 040e 	orr.w	r4, r4, lr
 8003c0a:	fa28 fc0c 	lsr.w	ip, r8, ip
 8003c0e:	ea44 040c 	orr.w	r4, r4, ip
 8003c12:	f800 4b01 	strb.w	r4, [r0], #1
    for (i = 0; i < outlen && i < s_inc[25]; i++) {
 8003c16:	1c6c      	adds	r4, r5, #1
 8003c18:	4625      	mov	r5, r4
 8003c1a:	f142 0200 	adc.w	r2, r2, #0
 8003c1e:	e7c1      	b.n	8003ba4 <keccak_inc_squeeze+0xc>
        KeccakF1600_StatePermute(s_inc);
 8003c20:	4630      	mov	r0, r6
 8003c22:	f7fe ff55 	bl	8002ad0 <KeccakF1600_StatePermute>
        for (i = 0; i < outlen && i < r; i++) {
 8003c26:	2200      	movs	r2, #0
            h[i] = (uint8_t)(s_inc[i >> 3] >> (8 * (i & 0x07)));
 8003c28:	f022 0007 	bic.w	r0, r2, #7
 8003c2c:	08d5      	lsrs	r5, r2, #3
 8003c2e:	4430      	add	r0, r6
 8003c30:	f002 0307 	and.w	r3, r2, #7
 8003c34:	f8d0 c004 	ldr.w	ip, [r0, #4]
 8003c38:	00d9      	lsls	r1, r3, #3
 8003c3a:	f856 3035 	ldr.w	r3, [r6, r5, lsl #3]
 8003c3e:	f1c1 0520 	rsb	r5, r1, #32
 8003c42:	f1a1 0020 	sub.w	r0, r1, #32
 8003c46:	40cb      	lsrs	r3, r1
 8003c48:	fa0c f505 	lsl.w	r5, ip, r5
 8003c4c:	432b      	orrs	r3, r5
 8003c4e:	fa2c f000 	lsr.w	r0, ip, r0
 8003c52:	4303      	orrs	r3, r0
 8003c54:	f809 3002 	strb.w	r3, [r9, r2]
        for (i = 0; i < outlen && i < r; i++) {
 8003c58:	3201      	adds	r2, #1
 8003c5a:	4590      	cmp	r8, r2
 8003c5c:	d001      	beq.n	8003c62 <keccak_inc_squeeze+0xca>
 8003c5e:	4297      	cmp	r7, r2
 8003c60:	d1e2      	bne.n	8003c28 <keccak_inc_squeeze+0x90>
        h += i;
 8003c62:	4491      	add	r9, r2
        outlen -= i;
 8003c64:	eba8 0802 	sub.w	r8, r8, r2
        s_inc[25] = r - i;
 8003c68:	1aba      	subs	r2, r7, r2
 8003c6a:	e9c6 2432 	strd	r2, r4, [r6, #200]	; 0xc8
 8003c6e:	e7aa      	b.n	8003bc6 <keccak_inc_squeeze+0x2e>

08003c70 <shake128_inc_init>:

void shake128_inc_init(shake128incctx *state) {
 8003c70:	b510      	push	{r4, lr}
 8003c72:	4604      	mov	r4, r0
    state->ctx = malloc(PQC_SHAKEINCCTX_BYTES);
 8003c74:	20d0      	movs	r0, #208	; 0xd0
 8003c76:	f001 f8b9 	bl	8004dec <malloc>
 8003c7a:	6020      	str	r0, [r4, #0]
    if (state->ctx == NULL) {
 8003c7c:	b910      	cbnz	r0, 8003c84 <shake128_inc_init+0x14>
        exit(111);
 8003c7e:	206f      	movs	r0, #111	; 0x6f
 8003c80:	f000 ffbc 	bl	8004bfc <exit>
    }
    keccak_inc_init(state->ctx);
}
 8003c84:	e8bd 4010 	ldmia.w	sp!, {r4, lr}
    keccak_inc_init(state->ctx);
 8003c88:	f7ff bed7 	b.w	8003a3a <keccak_inc_init>

08003c8c <shake128_inc_absorb>:

void shake128_inc_absorb(shake128incctx *state, const uint8_t *input, size_t inlen) {
 8003c8c:	4613      	mov	r3, r2
    keccak_inc_absorb(state->ctx, SHAKE128_RATE, input, inlen);
 8003c8e:	6800      	ldr	r0, [r0, #0]
 8003c90:	460a      	mov	r2, r1
 8003c92:	21a8      	movs	r1, #168	; 0xa8
 8003c94:	f7ff bedc 	b.w	8003a50 <keccak_inc_absorb>

08003c98 <shake128_inc_finalize>:
}

void shake128_inc_finalize(shake128incctx *state) {
    keccak_inc_finalize(state->ctx, SHAKE128_RATE, 0x1F);
 8003c98:	6800      	ldr	r0, [r0, #0]
 8003c9a:	221f      	movs	r2, #31
 8003c9c:	21a8      	movs	r1, #168	; 0xa8
 8003c9e:	f7ff bf51 	b.w	8003b44 <keccak_inc_finalize>

08003ca2 <shake128_inc_squeeze>:
}

void shake128_inc_squeeze(uint8_t *output, size_t outlen, shake128incctx *state) {
    keccak_inc_squeeze(output, outlen, state->ctx, SHAKE128_RATE);
 8003ca2:	6812      	ldr	r2, [r2, #0]
 8003ca4:	23a8      	movs	r3, #168	; 0xa8
 8003ca6:	f7ff bf77 	b.w	8003b98 <keccak_inc_squeeze>

08003caa <shake128_inc_ctx_release>:
    }
    memcpy(dest->ctx, src->ctx, PQC_SHAKEINCCTX_BYTES);
}

void shake128_inc_ctx_release(shake128incctx *state) {
    free(state->ctx);
 8003caa:	6800      	ldr	r0, [r0, #0]
 8003cac:	f001 b8a6 	b.w	8004dfc <free>

08003cb0 <shake256_inc_init>:
}

void shake256_inc_init(shake256incctx *state) {
 8003cb0:	b510      	push	{r4, lr}
 8003cb2:	4604      	mov	r4, r0
    state->ctx = malloc(PQC_SHAKEINCCTX_BYTES);
 8003cb4:	20d0      	movs	r0, #208	; 0xd0
 8003cb6:	f001 f899 	bl	8004dec <malloc>
 8003cba:	6020      	str	r0, [r4, #0]
    if (state->ctx == NULL) {
 8003cbc:	b910      	cbnz	r0, 8003cc4 <shake256_inc_init+0x14>
        exit(111);
 8003cbe:	206f      	movs	r0, #111	; 0x6f
 8003cc0:	f000 ff9c 	bl	8004bfc <exit>
    }
    keccak_inc_init(state->ctx);
}
 8003cc4:	e8bd 4010 	ldmia.w	sp!, {r4, lr}
    keccak_inc_init(state->ctx);
 8003cc8:	f7ff beb7 	b.w	8003a3a <keccak_inc_init>

08003ccc <shake256_inc_absorb>:

void shake256_inc_absorb(shake256incctx *state, const uint8_t *input, size_t inlen) {
 8003ccc:	4613      	mov	r3, r2
    keccak_inc_absorb(state->ctx, SHAKE256_RATE, input, inlen);
 8003cce:	6800      	ldr	r0, [r0, #0]
 8003cd0:	460a      	mov	r2, r1
 8003cd2:	2188      	movs	r1, #136	; 0x88
 8003cd4:	f7ff bebc 	b.w	8003a50 <keccak_inc_absorb>

08003cd8 <shake256_inc_finalize>:
}

void shake256_inc_finalize(shake256incctx *state) {
    keccak_inc_finalize(state->ctx, SHAKE256_RATE, 0x1F);
 8003cd8:	6800      	ldr	r0, [r0, #0]
 8003cda:	221f      	movs	r2, #31
 8003cdc:	2188      	movs	r1, #136	; 0x88
 8003cde:	f7ff bf31 	b.w	8003b44 <keccak_inc_finalize>

08003ce2 <shake256_inc_squeeze>:
}

void shake256_inc_squeeze(uint8_t *output, size_t outlen, shake256incctx *state) {
    keccak_inc_squeeze(output, outlen, state->ctx, SHAKE256_RATE);
 8003ce2:	6812      	ldr	r2, [r2, #0]
 8003ce4:	2388      	movs	r3, #136	; 0x88
 8003ce6:	f7ff bf57 	b.w	8003b98 <keccak_inc_squeeze>

08003cea <shake256_inc_ctx_release>:
    }
    memcpy(dest->ctx, src->ctx, PQC_SHAKEINCCTX_BYTES);
}

void shake256_inc_ctx_release(shake256incctx *state) {
    free(state->ctx);
 8003cea:	6800      	ldr	r0, [r0, #0]
 8003cec:	f001 b886 	b.w	8004dfc <free>

08003cf0 <shake256_absorb>:
 * Arguments:   - shake256ctx *state: pointer to (uninitialized) output Keccak state
 *              - const uint8_t *input: pointer to input to be absorbed
 *                                            into s
 *              - size_t inlen: length of input in bytes
 **************************************************/
void shake256_absorb(shake256ctx *state, const uint8_t *input, size_t inlen) {
 8003cf0:	b5f7      	push	{r0, r1, r2, r4, r5, r6, r7, lr}
 8003cf2:	4607      	mov	r7, r0
    state->ctx = malloc(PQC_SHAKECTX_BYTES);
 8003cf4:	20c8      	movs	r0, #200	; 0xc8
void shake256_absorb(shake256ctx *state, const uint8_t *input, size_t inlen) {
 8003cf6:	460d      	mov	r5, r1
 8003cf8:	4616      	mov	r6, r2
    state->ctx = malloc(PQC_SHAKECTX_BYTES);
 8003cfa:	f001 f877 	bl	8004dec <malloc>
 8003cfe:	6038      	str	r0, [r7, #0]
    if (state->ctx == NULL) {
 8003d00:	b910      	cbnz	r0, 8003d08 <shake256_absorb+0x18>
        exit(111);
 8003d02:	206f      	movs	r0, #111	; 0x6f
 8003d04:	f000 ff7a 	bl	8004bfc <exit>
    }
    keccak_absorb(state->ctx, SHAKE256_RATE, input, inlen, 0x1F);
 8003d08:	231f      	movs	r3, #31
 8003d0a:	9300      	str	r3, [sp, #0]
 8003d0c:	462a      	mov	r2, r5
 8003d0e:	4633      	mov	r3, r6
 8003d10:	2188      	movs	r1, #136	; 0x88
 8003d12:	f7ff fe0b 	bl	800392c <keccak_absorb>
}
 8003d16:	b003      	add	sp, #12
 8003d18:	bdf0      	pop	{r4, r5, r6, r7, pc}

08003d1a <shake256_squeezeblocks>:
 *              - size_t nblocks: number of blocks to be squeezed
 *                                (written to output)
 *              - shake256ctx *state: pointer to input/output Keccak state
 **************************************************/
void shake256_squeezeblocks(uint8_t *output, size_t nblocks, shake256ctx *state) {
    keccak_squeezeblocks(output, nblocks, state->ctx, SHAKE256_RATE);
 8003d1a:	6812      	ldr	r2, [r2, #0]
 8003d1c:	2388      	movs	r3, #136	; 0x88
 8003d1e:	f7ff be5c 	b.w	80039da <keccak_squeezeblocks>

08003d22 <shake256_ctx_release>:
    memcpy(dest->ctx, src->ctx, PQC_SHAKECTX_BYTES);
}

/** Release the allocated state. Call only once. */
void shake256_ctx_release(shake256ctx *state) {
    free(state->ctx);
 8003d22:	6800      	ldr	r0, [r0, #0]
 8003d24:	f001 b86a 	b.w	8004dfc <free>

08003d28 <shake256>:
 *              - size_t outlen: requested output length in bytes
 *              - const uint8_t *input: pointer to input
 *              - size_t inlen: length of input in bytes
 **************************************************/
void shake256(uint8_t *output, size_t outlen,
              const uint8_t *input, size_t inlen) {
 8003d28:	b5f0      	push	{r4, r5, r6, r7, lr}
 8003d2a:	b0a5      	sub	sp, #148	; 0x94
 8003d2c:	460c      	mov	r4, r1
 8003d2e:	4606      	mov	r6, r0
 8003d30:	4611      	mov	r1, r2
    size_t nblocks = outlen / SHAKE256_RATE;
 8003d32:	2788      	movs	r7, #136	; 0x88
    uint8_t t[SHAKE256_RATE];
    shake256ctx s;
	
    shake256_absorb(&s, input, inlen);
 8003d34:	461a      	mov	r2, r3
 8003d36:	a801      	add	r0, sp, #4
 8003d38:	f7ff ffda 	bl	8003cf0 <shake256_absorb>
    size_t nblocks = outlen / SHAKE256_RATE;
 8003d3c:	fbb4 f5f7 	udiv	r5, r4, r7
    shake256_squeezeblocks(output, nblocks, &s);
 8003d40:	aa01      	add	r2, sp, #4
 8003d42:	4629      	mov	r1, r5
 8003d44:	4630      	mov	r0, r6
 8003d46:	437d      	muls	r5, r7
 8003d48:	f7ff ffe7 	bl	8003d1a <shake256_squeezeblocks>

    output += nblocks * SHAKE256_RATE;
    outlen -= nblocks * SHAKE256_RATE;

    if (outlen) {
 8003d4c:	1b64      	subs	r4, r4, r5
 8003d4e:	d009      	beq.n	8003d64 <shake256+0x3c>
        shake256_squeezeblocks(t, 1, &s);
 8003d50:	aa01      	add	r2, sp, #4
 8003d52:	2101      	movs	r1, #1
 8003d54:	a802      	add	r0, sp, #8
 8003d56:	f7ff ffe0 	bl	8003d1a <shake256_squeezeblocks>
        for (size_t i = 0; i < outlen; ++i) {
            output[i] = t[i];
 8003d5a:	4622      	mov	r2, r4
 8003d5c:	a902      	add	r1, sp, #8
 8003d5e:	1970      	adds	r0, r6, r5
 8003d60:	f7fc fa4e 	bl	8000200 <memcpy>
        }
    }
    shake256_ctx_release(&s);
 8003d64:	a801      	add	r0, sp, #4
 8003d66:	f7ff ffdc 	bl	8003d22 <shake256_ctx_release>
}
 8003d6a:	b025      	add	sp, #148	; 0x94
 8003d6c:	bdf0      	pop	{r4, r5, r6, r7, pc}
 8003d6e:	0000      	movs	r0, r0

08003d70 <PQCLEAN_DILITHIUM2_CLEAN_montgomery_reduce>:
*
* Arguments:   - int64_t: finite field element a
*
* Returns r.
**************************************************/
int32_t PQCLEAN_DILITHIUM2_CLEAN_montgomery_reduce(int64_t a) {
 8003d70:	4603      	mov	r3, r0
    int32_t t;

    t = (int32_t)((uint64_t)a * (uint64_t)QINV);
 8003d72:	ebc3 02c3 	rsb	r2, r3, r3, lsl #3
int32_t PQCLEAN_DILITHIUM2_CLEAN_montgomery_reduce(int64_t a) {
 8003d76:	4608      	mov	r0, r1
    t = (int32_t)((uint64_t)a * (uint64_t)QINV);
 8003d78:	eb03 2282 	add.w	r2, r3, r2, lsl #10
    t = (a - (int64_t)t * Q) >> 32;
 8003d7c:	4902      	ldr	r1, [pc, #8]	; (8003d88 <PQCLEAN_DILITHIUM2_CLEAN_montgomery_reduce+0x18>)
    t = (int32_t)((uint64_t)a * (uint64_t)QINV);
 8003d7e:	eb03 3242 	add.w	r2, r3, r2, lsl #13
    return t;
}
 8003d82:	fbc2 3001 	smlal	r3, r0, r2, r1
 8003d86:	4770      	bx	lr
 8003d88:	ff801fff 	.word	0xff801fff

08003d8c <PQCLEAN_DILITHIUM2_CLEAN_reduce32>:
    int32_t t;

    t = (a + (1 << 22)) >> 23;
    t = a - t * Q;
    return t;
}
 8003d8c:	4a03      	ldr	r2, [pc, #12]	; (8003d9c <PQCLEAN_DILITHIUM2_CLEAN_reduce32+0x10>)
    t = (a + (1 << 22)) >> 23;
 8003d8e:	f500 0380 	add.w	r3, r0, #4194304	; 0x400000
 8003d92:	15db      	asrs	r3, r3, #23
}
 8003d94:	fb02 0003 	mla	r0, r2, r3, r0
 8003d98:	4770      	bx	lr
 8003d9a:	bf00      	nop
 8003d9c:	ff801fff 	.word	0xff801fff

08003da0 <PQCLEAN_DILITHIUM2_CLEAN_caddq>:
* Arguments:   - int32_t: finite field element a
*
* Returns r.
**************************************************/
int32_t PQCLEAN_DILITHIUM2_CLEAN_caddq(int32_t a) {
    a += (a >> 31) & Q;
 8003da0:	4b02      	ldr	r3, [pc, #8]	; (8003dac <PQCLEAN_DILITHIUM2_CLEAN_caddq+0xc>)
 8003da2:	ea03 73e0 	and.w	r3, r3, r0, asr #31
    return a;
}
 8003da6:	4418      	add	r0, r3
 8003da8:	4770      	bx	lr
 8003daa:	bf00      	nop
 8003dac:	007fe001 	.word	0x007fe001

08003db0 <PQCLEAN_DILITHIUM2_CLEAN_ntt>:
* Description: Forward NTT, in-place. No modular reduction is performed after
*              additions or subtractions. Output vector is in bitreversed order.
*
* Arguments:   - uint32_t p[N]: input/output coefficient array
**************************************************/
void PQCLEAN_DILITHIUM2_CLEAN_ntt(int32_t a[N]) {
 8003db0:	e92d 4ff7 	stmdb	sp!, {r0, r1, r2, r4, r5, r6, r7, r8, r9, sl, fp, lr}
 8003db4:	4606      	mov	r6, r0

    k = 0;
    for (len = 128; len > 0; len >>= 1) {
        for (start = 0; start < N; start = j + len) {
            zeta = zetas[++k];
            for (j = start; j < start + len; ++j) {
 8003db6:	f04f 0808 	mov.w	r8, #8
    k = 0;
 8003dba:	f04f 0900 	mov.w	r9, #0
    for (len = 128; len > 0; len >>= 1) {
 8003dbe:	2580      	movs	r5, #128	; 0x80
        for (start = 0; start < N; start = j + len) {
 8003dc0:	2400      	movs	r4, #0
            zeta = zetas[++k];
 8003dc2:	4b17      	ldr	r3, [pc, #92]	; (8003e20 <PQCLEAN_DILITHIUM2_CLEAN_ntt+0x70>)
 8003dc4:	f109 0901 	add.w	r9, r9, #1
 8003dc8:	eb06 0784 	add.w	r7, r6, r4, lsl #2
 8003dcc:	f853 2029 	ldr.w	r2, [r3, r9, lsl #2]
            for (j = start; j < start + len; ++j) {
 8003dd0:	192b      	adds	r3, r5, r4
 8003dd2:	eb06 0b83 	add.w	fp, r6, r3, lsl #2
 8003dd6:	46a2      	mov	sl, r4
 8003dd8:	459a      	cmp	sl, r3
 8003dda:	d30b      	bcc.n	8003df4 <PQCLEAN_DILITHIUM2_CLEAN_ntt+0x44>
                t = PQCLEAN_DILITHIUM2_CLEAN_montgomery_reduce((int64_t)zeta * a[j + len]);
 8003ddc:	eb04 0445 	add.w	r4, r4, r5, lsl #1
        for (start = 0; start < N; start = j + len) {
 8003de0:	2cff      	cmp	r4, #255	; 0xff
 8003de2:	d9ee      	bls.n	8003dc2 <PQCLEAN_DILITHIUM2_CLEAN_ntt+0x12>
    for (len = 128; len > 0; len >>= 1) {
 8003de4:	f1b8 0801 	subs.w	r8, r8, #1
 8003de8:	ea4f 0555 	mov.w	r5, r5, lsr #1
 8003dec:	d1e8      	bne.n	8003dc0 <PQCLEAN_DILITHIUM2_CLEAN_ntt+0x10>
                a[j + len] = a[j] - t;
                a[j] = a[j] + t;
            }
        }
    }
}
 8003dee:	b003      	add	sp, #12
 8003df0:	e8bd 8ff0 	ldmia.w	sp!, {r4, r5, r6, r7, r8, r9, sl, fp, pc}
                t = PQCLEAN_DILITHIUM2_CLEAN_montgomery_reduce((int64_t)zeta * a[j + len]);
 8003df4:	f8db 1000 	ldr.w	r1, [fp]
 8003df8:	9301      	str	r3, [sp, #4]
 8003dfa:	fb82 0101 	smull	r0, r1, r2, r1
 8003dfe:	9200      	str	r2, [sp, #0]
 8003e00:	f7ff ffb6 	bl	8003d70 <PQCLEAN_DILITHIUM2_CLEAN_montgomery_reduce>
                a[j + len] = a[j] - t;
 8003e04:	6839      	ldr	r1, [r7, #0]
 8003e06:	1a09      	subs	r1, r1, r0
 8003e08:	f84b 1b04 	str.w	r1, [fp], #4
                a[j] = a[j] + t;
 8003e0c:	f857 1b04 	ldr.w	r1, [r7], #4
 8003e10:	4408      	add	r0, r1
            for (j = start; j < start + len; ++j) {
 8003e12:	e9dd 2300 	ldrd	r2, r3, [sp]
                a[j] = a[j] + t;
 8003e16:	f847 0c04 	str.w	r0, [r7, #-4]
            for (j = start; j < start + len; ++j) {
 8003e1a:	f10a 0a01 	add.w	sl, sl, #1
 8003e1e:	e7db      	b.n	8003dd8 <PQCLEAN_DILITHIUM2_CLEAN_ntt+0x28>
 8003e20:	0800adc8 	.word	0x0800adc8

08003e24 <PQCLEAN_DILITHIUM2_CLEAN_invntt_tomont>:
*              Q in absolute value. Output coefficient are smaller than Q in
*              absolute value.
*
* Arguments:   - uint32_t p[N]: input/output coefficient array
**************************************************/
void PQCLEAN_DILITHIUM2_CLEAN_invntt_tomont(int32_t a[N]) {
 8003e24:	e92d 4ff0 	stmdb	sp!, {r4, r5, r6, r7, r8, r9, sl, fp, lr}
    const int32_t f = 41978; // mont^2/256

    k = 256;
    for (len = 1; len < N; len <<= 1) {
        for (start = 0; start < N; start = j + len) {
            zeta = -zetas[--k];
 8003e28:	4a28      	ldr	r2, [pc, #160]	; (8003ecc <PQCLEAN_DILITHIUM2_CLEAN_invntt_tomont+0xa8>)
void PQCLEAN_DILITHIUM2_CLEAN_invntt_tomont(int32_t a[N]) {
 8003e2a:	b085      	sub	sp, #20
 8003e2c:	4604      	mov	r4, r0
            for (j = start; j < start + len; ++j) {
 8003e2e:	f04f 0808 	mov.w	r8, #8
    k = 256;
 8003e32:	f44f 7980 	mov.w	r9, #256	; 0x100
    for (len = 1; len < N; len <<= 1) {
 8003e36:	2601      	movs	r6, #1
        for (start = 0; start < N; start = j + len) {
 8003e38:	2500      	movs	r5, #0
            zeta = -zetas[--k];
 8003e3a:	f109 39ff 	add.w	r9, r9, #4294967295
 8003e3e:	eb04 0b85 	add.w	fp, r4, r5, lsl #2
 8003e42:	f852 3029 	ldr.w	r3, [r2, r9, lsl #2]
 8003e46:	425b      	negs	r3, r3
 8003e48:	9302      	str	r3, [sp, #8]
            for (j = start; j < start + len; ++j) {
 8003e4a:	19ab      	adds	r3, r5, r6
 8003e4c:	bf2c      	ite	cs
 8003e4e:	2101      	movcs	r1, #1
 8003e50:	2100      	movcc	r1, #0
 8003e52:	9101      	str	r1, [sp, #4]
 8003e54:	eb04 0783 	add.w	r7, r4, r3, lsl #2
 8003e58:	46aa      	mov	sl, r5
 8003e5a:	459a      	cmp	sl, r3
 8003e5c:	d31e      	bcc.n	8003e9c <PQCLEAN_DILITHIUM2_CLEAN_invntt_tomont+0x78>
                t = a[j];
                a[j] = t + a[j + len];
 8003e5e:	9b01      	ldr	r3, [sp, #4]
 8003e60:	2b00      	cmp	r3, #0
 8003e62:	bf0c      	ite	eq
 8003e64:	4633      	moveq	r3, r6
 8003e66:	2300      	movne	r3, #0
 8003e68:	4433      	add	r3, r6
 8003e6a:	441d      	add	r5, r3
        for (start = 0; start < N; start = j + len) {
 8003e6c:	2dff      	cmp	r5, #255	; 0xff
 8003e6e:	d9e4      	bls.n	8003e3a <PQCLEAN_DILITHIUM2_CLEAN_invntt_tomont+0x16>
    for (len = 1; len < N; len <<= 1) {
 8003e70:	f1b8 0801 	subs.w	r8, r8, #1
 8003e74:	ea4f 0646 	mov.w	r6, r6, lsl #1
 8003e78:	d1de      	bne.n	8003e38 <PQCLEAN_DILITHIUM2_CLEAN_invntt_tomont+0x14>
 8003e7a:	1f25      	subs	r5, r4, #4
            }
        }
    }

    for (j = 0; j < N; ++j) {
        a[j] = PQCLEAN_DILITHIUM2_CLEAN_montgomery_reduce((int64_t)f * a[j]);
 8003e7c:	f24a 36fa 	movw	r6, #41978	; 0xa3fa
 8003e80:	f504 747f 	add.w	r4, r4, #1020	; 0x3fc
 8003e84:	f855 1f04 	ldr.w	r1, [r5, #4]!
 8003e88:	fb81 0106 	smull	r0, r1, r1, r6
 8003e8c:	f7ff ff70 	bl	8003d70 <PQCLEAN_DILITHIUM2_CLEAN_montgomery_reduce>
    for (j = 0; j < N; ++j) {
 8003e90:	42ac      	cmp	r4, r5
        a[j] = PQCLEAN_DILITHIUM2_CLEAN_montgomery_reduce((int64_t)f * a[j]);
 8003e92:	6028      	str	r0, [r5, #0]
    for (j = 0; j < N; ++j) {
 8003e94:	d1f6      	bne.n	8003e84 <PQCLEAN_DILITHIUM2_CLEAN_invntt_tomont+0x60>
    }
}
 8003e96:	b005      	add	sp, #20
 8003e98:	e8bd 8ff0 	ldmia.w	sp!, {r4, r5, r6, r7, r8, r9, sl, fp, pc}
                t = a[j];
 8003e9c:	f8db 1000 	ldr.w	r1, [fp]
                a[j] = t + a[j + len];
 8003ea0:	6838      	ldr	r0, [r7, #0]
 8003ea2:	9303      	str	r3, [sp, #12]
 8003ea4:	4408      	add	r0, r1
 8003ea6:	f84b 0b04 	str.w	r0, [fp], #4
                a[j + len] = t - a[j + len];
 8003eaa:	f857 0b04 	ldr.w	r0, [r7], #4
                a[j + len] = PQCLEAN_DILITHIUM2_CLEAN_montgomery_reduce((int64_t)zeta * a[j + len]);
 8003eae:	9b02      	ldr	r3, [sp, #8]
                a[j + len] = t - a[j + len];
 8003eb0:	1a09      	subs	r1, r1, r0
 8003eb2:	f847 1c04 	str.w	r1, [r7, #-4]
                a[j + len] = PQCLEAN_DILITHIUM2_CLEAN_montgomery_reduce((int64_t)zeta * a[j + len]);
 8003eb6:	fb83 0101 	smull	r0, r1, r3, r1
 8003eba:	f7ff ff59 	bl	8003d70 <PQCLEAN_DILITHIUM2_CLEAN_montgomery_reduce>
            for (j = start; j < start + len; ++j) {
 8003ebe:	f10a 0a01 	add.w	sl, sl, #1
 8003ec2:	9b03      	ldr	r3, [sp, #12]
 8003ec4:	4a01      	ldr	r2, [pc, #4]	; (8003ecc <PQCLEAN_DILITHIUM2_CLEAN_invntt_tomont+0xa8>)
                a[j + len] = PQCLEAN_DILITHIUM2_CLEAN_montgomery_reduce((int64_t)zeta * a[j + len]);
 8003ec6:	f847 0c04 	str.w	r0, [r7, #-4]
            for (j = start; j < start + len; ++j) {
 8003eca:	e7c6      	b.n	8003e5a <PQCLEAN_DILITHIUM2_CLEAN_invntt_tomont+0x36>
 8003ecc:	0800adc8 	.word	0x0800adc8

08003ed0 <ss_crc>:


// 0xA6 formerly 
#define CW_CRC 0x4D 
uint8_t ss_crc(uint8_t *buf, uint8_t len)
{
 8003ed0:	4603      	mov	r3, r0
	unsigned int k = 0;
	uint8_t crc = 0x00;
	while (len--) {
 8003ed2:	4401      	add	r1, r0
	uint8_t crc = 0x00;
 8003ed4:	2000      	movs	r0, #0
	while (len--) {
 8003ed6:	428b      	cmp	r3, r1
 8003ed8:	d100      	bne.n	8003edc <ss_crc+0xc>
			crc = crc & 0x80 ? (crc << 1) ^ CW_CRC: crc << 1;
		}
	}
	return crc;

}
 8003eda:	4770      	bx	lr
		crc ^= *buf++;
 8003edc:	f813 2b01 	ldrb.w	r2, [r3], #1
 8003ee0:	4050      	eors	r0, r2
 8003ee2:	2208      	movs	r2, #8
			crc = crc & 0x80 ? (crc << 1) ^ CW_CRC: crc << 1;
 8003ee4:	f010 0f80 	tst.w	r0, #128	; 0x80
 8003ee8:	ea4f 0040 	mov.w	r0, r0, lsl #1
 8003eec:	bf18      	it	ne
 8003eee:	f080 004d 	eorne.w	r0, r0, #77	; 0x4d
		for (k = 0; k < 8; k++) {
 8003ef2:	3a01      	subs	r2, #1
			crc = crc & 0x80 ? (crc << 1) ^ CW_CRC: crc << 1;
 8003ef4:	b2c0      	uxtb	r0, r0
		for (k = 0; k < 8; k++) {
 8003ef6:	d1f5      	bne.n	8003ee4 <ss_crc+0x14>
 8003ef8:	e7ed      	b.n	8003ed6 <ss_crc+0x6>

08003efa <stuff_data>:
    return 0x00;

}

uint8_t stuff_data(uint8_t *buf, uint8_t len)
{
 8003efa:	b530      	push	{r4, r5, lr}
	uint8_t i = 1;
	uint8_t last = 0;
 8003efc:	2200      	movs	r2, #0
 8003efe:	4604      	mov	r4, r0
	uint8_t i = 1;
 8003f00:	2301      	movs	r3, #1
	for (; i < len; i++) {
 8003f02:	428b      	cmp	r3, r1
 8003f04:	d301      	bcc.n	8003f0a <stuff_data+0x10>
			buf[last] = i - last;
			last = i;
		}
	}
	return 0x00;
}
 8003f06:	2000      	movs	r0, #0
 8003f08:	bd30      	pop	{r4, r5, pc}
		if (buf[i] == FRAME_BYTE) {
 8003f0a:	f814 5f01 	ldrb.w	r5, [r4, #1]!
 8003f0e:	b915      	cbnz	r5, 8003f16 <stuff_data+0x1c>
			buf[last] = i - last;
 8003f10:	1a9d      	subs	r5, r3, r2
 8003f12:	5485      	strb	r5, [r0, r2]
 8003f14:	461a      	mov	r2, r3
	for (; i < len; i++) {
 8003f16:	3301      	adds	r3, #1
 8003f18:	b2db      	uxtb	r3, r3
 8003f1a:	e7f2      	b.n	8003f02 <stuff_data+0x8>

08003f1c <unstuff_data>:

uint8_t unstuff_data(uint8_t *buf, uint8_t len)
{
 8003f1c:	b510      	push	{r4, lr}
	uint8_t next = buf[0]; // 
 8003f1e:	7802      	ldrb	r2, [r0, #0]
	buf[0] = 0x00; // 
 8003f20:	2400      	movs	r4, #0
{
 8003f22:	4603      	mov	r3, r0
	buf[0] = 0x00; // 
 8003f24:	7004      	strb	r4, [r0, #0]
	uint8_t next = buf[0]; // 
 8003f26:	4610      	mov	r0, r2
	//len -= 1;
	uint8_t tmp = next;
	while ((next < len) && tmp != 0) {
 8003f28:	4288      	cmp	r0, r1
 8003f2a:	d200      	bcs.n	8003f2e <unstuff_data+0x12>
 8003f2c:	b902      	cbnz	r2, 8003f30 <unstuff_data+0x14>
		tmp = buf[next]; // 
		buf[next] = FRAME_BYTE; // 
		next += tmp; // 
	}
	return next;
}
 8003f2e:	bd10      	pop	{r4, pc}
		tmp = buf[next]; // 
 8003f30:	5c1a      	ldrb	r2, [r3, r0]
		buf[next] = FRAME_BYTE; // 
 8003f32:	541c      	strb	r4, [r3, r0]
		next += tmp; // 
 8003f34:	4410      	add	r0, r2
 8003f36:	b2c0      	uxtb	r0, r0
 8003f38:	e7f6      	b.n	8003f28 <unstuff_data+0xc>

08003f3a <simpleserial_init>:
// This just adds the "v" command for now...
void simpleserial_init()
{
	// simpleserial_addcmd('v', 0, check_version);
 //    simpleserial_addcmd('w', 0, ss_get_commands);
}
 8003f3a:	4770      	bx	lr

08003f3c <simpleserial_addcmd>:

int simpleserial_addcmd(char c, unsigned int len, uint8_t (*fp)(uint8_t, uint8_t, uint8_t, uint8_t*))
{
 8003f3c:	b538      	push	{r3, r4, r5, lr}
	if(num_commands >= MAX_SS_CMDS) {
 8003f3e:	4d0c      	ldr	r5, [pc, #48]	; (8003f70 <simpleserial_addcmd+0x34>)
 8003f40:	682b      	ldr	r3, [r5, #0]
 8003f42:	2b7f      	cmp	r3, #127	; 0x7f
 8003f44:	dd04      	ble.n	8003f50 <simpleserial_addcmd+0x14>
		putch('a');
 8003f46:	2061      	movs	r0, #97	; 0x61
		return 1;
	}

	if(len >= MAX_SS_LEN) {
		putch('b');
 8003f48:	f000 f97c 	bl	8004244 <putch>
		return 1;
 8003f4c:	2001      	movs	r0, #1
	commands[num_commands].len = len;
	commands[num_commands].fp  = fp;
	num_commands++;

	return 0;
}
 8003f4e:	bd38      	pop	{r3, r4, r5, pc}
	if(len >= MAX_SS_LEN) {
 8003f50:	f5b1 7f00 	cmp.w	r1, #512	; 0x200
 8003f54:	d301      	bcc.n	8003f5a <simpleserial_addcmd+0x1e>
		putch('b');
 8003f56:	2062      	movs	r0, #98	; 0x62
 8003f58:	e7f6      	b.n	8003f48 <simpleserial_addcmd+0xc>
	commands[num_commands].c   = c;
 8003f5a:	240c      	movs	r4, #12
 8003f5c:	fb04 5403 	mla	r4, r4, r3, r5
	num_commands++;
 8003f60:	3301      	adds	r3, #1
	commands[num_commands].c   = c;
 8003f62:	7120      	strb	r0, [r4, #4]
	commands[num_commands].fp  = fp;
 8003f64:	e9c4 1202 	strd	r1, r2, [r4, #8]
	num_commands++;
 8003f68:	602b      	str	r3, [r5, #0]
	return 0;
 8003f6a:	2000      	movs	r0, #0
 8003f6c:	e7ef      	b.n	8003f4e <simpleserial_addcmd+0x12>
 8003f6e:	bf00      	nop
 8003f70:	10001364 	.word	0x10001364

08003f74 <simpleserial_put>:
	simpleserial_put('e', 0x05, &err);
	return;
}

void simpleserial_put(char c, uint8_t size, uint8_t* output)
{
 8003f74:	b570      	push	{r4, r5, r6, lr}
 8003f76:	f5ad 7d00 	sub.w	sp, sp, #512	; 0x200
 8003f7a:	460c      	mov	r4, r1
	uint8_t data_buf[MAX_SS_LEN];
	data_buf[0] = 0x00;
 8003f7c:	2500      	movs	r5, #0
{
 8003f7e:	4611      	mov	r1, r2
	data_buf[1] = c;
 8003f80:	f88d 0001 	strb.w	r0, [sp, #1]
	data_buf[2] = size;
	int i = 0;
	for (; i < size; i++) {
		data_buf[i + 3] = output[i];
 8003f84:	4622      	mov	r2, r4
 8003f86:	f10d 0003 	add.w	r0, sp, #3
	data_buf[2] = size;
 8003f8a:	f88d 4002 	strb.w	r4, [sp, #2]
	data_buf[0] = 0x00;
 8003f8e:	f88d 5000 	strb.w	r5, [sp]
		data_buf[i + 3] = output[i];
 8003f92:	f7fc f935 	bl	8000200 <memcpy>
	}
	data_buf[i + 3] = ss_crc(data_buf+1, size+2);
 8003f96:	1ca1      	adds	r1, r4, #2
 8003f98:	b2c9      	uxtb	r1, r1
 8003f9a:	f10d 0001 	add.w	r0, sp, #1
 8003f9e:	f7ff ff97 	bl	8003ed0 <ss_crc>
 8003fa2:	eb0d 0304 	add.w	r3, sp, r4
	data_buf[i + 4] = 0x00;
 8003fa6:	1d26      	adds	r6, r4, #4
	stuff_data(data_buf, i + 5);
 8003fa8:	1d61      	adds	r1, r4, #5
	data_buf[i + 3] = ss_crc(data_buf+1, size+2);
 8003faa:	70d8      	strb	r0, [r3, #3]
	stuff_data(data_buf, i + 5);
 8003fac:	b2c9      	uxtb	r1, r1
 8003fae:	4668      	mov	r0, sp
	data_buf[i + 4] = 0x00;
 8003fb0:	f80d 5006 	strb.w	r5, [sp, r6]
	stuff_data(data_buf, i + 5);
 8003fb4:	f7ff ffa1 	bl	8003efa <stuff_data>
	for (int i = 0; i < size + 5; i++) {
 8003fb8:	466c      	mov	r4, sp
		putch(data_buf[i]);
 8003fba:	f814 0b01 	ldrb.w	r0, [r4], #1
	for (int i = 0; i < size + 5; i++) {
 8003fbe:	3501      	adds	r5, #1
		putch(data_buf[i]);
 8003fc0:	f000 f940 	bl	8004244 <putch>
	for (int i = 0; i < size + 5; i++) {
 8003fc4:	42ae      	cmp	r6, r5
 8003fc6:	daf8      	bge.n	8003fba <simpleserial_put+0x46>
	}
}
 8003fc8:	f50d 7d00 	add.w	sp, sp, #512	; 0x200
 8003fcc:	bd70      	pop	{r4, r5, r6, pc}
 8003fce:	0000      	movs	r0, r0

08003fd0 <simpleserial_get>:
{
 8003fd0:	e92d 47f0 	stmdb	sp!, {r4, r5, r6, r7, r8, r9, sl, lr}
 8003fd4:	f5ad 7d02 	sub.w	sp, sp, #520	; 0x208
	uint8_t err = 0;
 8003fd8:	2500      	movs	r5, #0
 8003fda:	ae02      	add	r6, sp, #8
 8003fdc:	f88d 5007 	strb.w	r5, [sp, #7]
	for (int i = 0; i < 4; i++) {
 8003fe0:	4634      	mov	r4, r6
		data_buf[i] = getch(); //PTR, cmd, scmd, len
 8003fe2:	f000 f91d 	bl	8004220 <getch>
 8003fe6:	f806 0b01 	strb.w	r0, [r6], #1
		if (data_buf[i] == FRAME_BYTE) {  //data_buf[i] == 0x00
 8003fea:	b960      	cbnz	r0, 8004006 <simpleserial_get+0x36>
			err = SS_ERR_FRAME_BYTE;
 8003fec:	2305      	movs	r3, #5
        err = 7;
 8003fee:	f88d 3007 	strb.w	r3, [sp, #7]
	simpleserial_put('e', 0x05, &err);
 8003ff2:	f10d 0207 	add.w	r2, sp, #7
 8003ff6:	2105      	movs	r1, #5
 8003ff8:	2065      	movs	r0, #101	; 0x65
 8003ffa:	f7ff ffbb 	bl	8003f74 <simpleserial_put>
}
 8003ffe:	f50d 7d02 	add.w	sp, sp, #520	; 0x208
 8004002:	e8bd 87f0 	ldmia.w	sp!, {r4, r5, r6, r7, r8, r9, sl, pc}
	for (int i = 0; i < 4; i++) {
 8004006:	3501      	adds	r5, #1
 8004008:	2d04      	cmp	r5, #4
 800400a:	d1ea      	bne.n	8003fe2 <simpleserial_get+0x12>
	uint8_t next_frame = unstuff_data(data_buf, 4);
 800400c:	4629      	mov	r1, r5
 800400e:	4620      	mov	r0, r4
 8004010:	f7ff ff84 	bl	8003f1c <unstuff_data>
	for(c = 0; c < num_commands; c++)
 8004014:	4f26      	ldr	r7, [pc, #152]	; (80040b0 <simpleserial_get+0xe0>)
		if(commands[c].c == data_buf[1])
 8004016:	7861      	ldrb	r1, [r4, #1]
	for(c = 0; c < num_commands; c++)
 8004018:	683a      	ldr	r2, [r7, #0]
	uint8_t next_frame = unstuff_data(data_buf, 4);
 800401a:	4680      	mov	r8, r0
	for(c = 0; c < num_commands; c++)
 800401c:	2300      	movs	r3, #0
		if(commands[c].c == data_buf[1])
 800401e:	200c      	movs	r0, #12
	for(c = 0; c < num_commands; c++)
 8004020:	fa5f f983 	uxtb.w	r9, r3
 8004024:	4591      	cmp	r9, r2
 8004026:	db02      	blt.n	800402e <simpleserial_get+0x5e>
	if (c == num_commands) {
 8004028:	d107      	bne.n	800403a <simpleserial_get+0x6a>
        err = 7;
 800402a:	2307      	movs	r3, #7
 800402c:	e7df      	b.n	8003fee <simpleserial_get+0x1e>
		if(commands[c].c == data_buf[1])
 800402e:	fb00 7609 	mla	r6, r0, r9, r7
 8004032:	3301      	adds	r3, #1
 8004034:	7936      	ldrb	r6, [r6, #4]
 8004036:	428e      	cmp	r6, r1
 8004038:	d1f2      	bne.n	8004020 <simpleserial_get+0x50>
	if ((data_buf[3] + 5) < next_frame) {
 800403a:	78e3      	ldrb	r3, [r4, #3]
 800403c:	3305      	adds	r3, #5
 800403e:	4543      	cmp	r3, r8
 8004040:	da02      	bge.n	8004048 <simpleserial_get+0x78>
        err = 11;
 8004042:	230b      	movs	r3, #11
 8004044:	e7d3      	b.n	8003fee <simpleserial_get+0x1e>
 8004046:	4635      	mov	r5, r6
		data_buf[i] = getch();
 8004048:	f000 f8ea 	bl	8004220 <getch>
 800404c:	5560      	strb	r0, [r4, r5]
		if (data_buf[i] == FRAME_BYTE) {
 800404e:	b908      	cbnz	r0, 8004054 <simpleserial_get+0x84>
            err = 12;
 8004050:	230c      	movs	r3, #12
 8004052:	e7cc      	b.n	8003fee <simpleserial_get+0x1e>
	for (; i < data_buf[3] + 5; i++) {
 8004054:	78e3      	ldrb	r3, [r4, #3]
 8004056:	1c6e      	adds	r6, r5, #1
 8004058:	3304      	adds	r3, #4
 800405a:	42b3      	cmp	r3, r6
 800405c:	daf3      	bge.n	8004046 <simpleserial_get+0x76>
	data_buf[i] = getch();
 800405e:	f000 f8df 	bl	8004220 <getch>
 8004062:	55a0      	strb	r0, [r4, r6]
	if (data_buf[i] != FRAME_BYTE) {
 8004064:	b108      	cbz	r0, 800406a <simpleserial_get+0x9a>
        err = 13;
 8004066:	230d      	movs	r3, #13
 8004068:	e7c1      	b.n	8003fee <simpleserial_get+0x1e>
	unstuff_data(data_buf + next_frame, i - next_frame + 1);
 800406a:	f1c8 0101 	rsb	r1, r8, #1
 800406e:	fa51 f186 	uxtab	r1, r1, r6
 8004072:	b2c9      	uxtb	r1, r1
 8004074:	fa5f fa86 	uxtb.w	sl, r6
 8004078:	eb04 0008 	add.w	r0, r4, r8
 800407c:	f7ff ff4e 	bl	8003f1c <unstuff_data>
	uint8_t crc = ss_crc(data_buf+1, i-2);
 8004080:	f1aa 0102 	sub.w	r1, sl, #2
 8004084:	b2c9      	uxtb	r1, r1
 8004086:	f10d 0009 	add.w	r0, sp, #9
 800408a:	f7ff ff21 	bl	8003ed0 <ss_crc>
	if (crc != data_buf[i-1]) {
 800408e:	5d63      	ldrb	r3, [r4, r5]
 8004090:	4283      	cmp	r3, r0
 8004092:	d001      	beq.n	8004098 <simpleserial_get+0xc8>
        err = 14;
 8004094:	230e      	movs	r3, #14
 8004096:	e7aa      	b.n	8003fee <simpleserial_get+0x1e>
	err = commands[c].fp(data_buf[1], data_buf[2], data_buf[3], data_buf+4);
 8004098:	230c      	movs	r3, #12
 800409a:	fb03 7709 	mla	r7, r3, r9, r7
 800409e:	78e2      	ldrb	r2, [r4, #3]
 80040a0:	68fd      	ldr	r5, [r7, #12]
 80040a2:	78a1      	ldrb	r1, [r4, #2]
 80040a4:	7860      	ldrb	r0, [r4, #1]
 80040a6:	446b      	add	r3, sp
 80040a8:	47a8      	blx	r5
 80040aa:	f88d 0007 	strb.w	r0, [sp, #7]
 80040ae:	e7a0      	b.n	8003ff2 <simpleserial_get+0x22>
 80040b0:	10001364 	.word	0x10001364

080040b4 <platform_init>:

uint8_t hw_key[16];
static CRYP_HandleTypeDef cryp;

void platform_init(void)
{
 80040b4:	b530      	push	{r4, r5, lr}
	//HAL_Init();

#ifdef STM32F4FPU
     /* set CP10 and CP11 Full Access */
     SCB->CPACR |= ((3UL << 10*2)|(3UL << 11*2)); // SCB->CPACR |= 0x00f00000;
 80040b6:	4a1f      	ldr	r2, [pc, #124]	; (8004134 <platform_init+0x80>)
 80040b8:	f8d2 3088 	ldr.w	r3, [r2, #136]	; 0x88
 80040bc:	f443 0370 	orr.w	r3, r3, #15728640	; 0xf00000
 80040c0:	f8c2 3088 	str.w	r3, [r2, #136]	; 0x88
{
 80040c4:	b093      	sub	sp, #76	; 0x4c
    FLASH->ACR |= 0b111 << 8; //enable ART acceleration

#else
	RCC_OscInitTypeDef RCC_OscInitStruct;
	RCC_OscInitStruct.OscillatorType = RCC_OSCILLATORTYPE_HSE | RCC_OSCILLATORTYPE_HSI;
	RCC_OscInitStruct.HSEState       = RCC_HSE_BYPASS;
 80040c6:	2203      	movs	r2, #3
 80040c8:	f44f 23a0 	mov.w	r3, #327680	; 0x50000
 80040cc:	e9cd 2306 	strd	r2, r3, [sp, #24]
	RCC_OscInitStruct.HSIState       = RCC_HSI_ON;  // HSI is needed for the RNG
	RCC_OscInitStruct.PLL.PLLState   = RCC_PLL_ON;  // we need PLL to use RNG
	RCC_OscInitStruct.PLL.PLLSource  = RCC_PLLSOURCE_HSE;
 80040d0:	2102      	movs	r1, #2
 80040d2:	f44f 0380 	mov.w	r3, #4194304	; 0x400000
 80040d6:	e9cd 130c 	strd	r1, r3, [sp, #48]	; 0x30
	RCC_OscInitStruct.PLL.PLLM       = 12;  // Internal clock is 16MHz
	RCC_OscInitStruct.PLL.PLLN       = 196;
 80040da:	200c      	movs	r0, #12
 80040dc:	23c4      	movs	r3, #196	; 0xc4
 80040de:	e9cd 030e 	strd	r0, r3, [sp, #56]	; 0x38
	RCC_OscInitStruct.PLL.PLLP       = RCC_PLLP_DIV4;
	RCC_OscInitStruct.PLL.PLLQ       = 7;  // divisor for RNG, USB and SDIO
 80040e2:	2404      	movs	r4, #4
 80040e4:	2307      	movs	r3, #7
	RCC_OscInitStruct.HSIState       = RCC_HSI_ON;  // HSI is needed for the RNG
 80040e6:	2501      	movs	r5, #1
	if (HAL_RCC_OscConfig(&RCC_OscInitStruct) != HAL_OK) {
 80040e8:	a806      	add	r0, sp, #24
	RCC_OscInitStruct.PLL.PLLQ       = 7;  // divisor for RNG, USB and SDIO
 80040ea:	e9cd 4310 	strd	r4, r3, [sp, #64]	; 0x40
	RCC_OscInitStruct.HSIState       = RCC_HSI_ON;  // HSI is needed for the RNG
 80040ee:	9509      	str	r5, [sp, #36]	; 0x24
	if (HAL_RCC_OscConfig(&RCC_OscInitStruct) != HAL_OK) {
 80040f0:	f000 f8c0 	bl	8004274 <HAL_RCC_OscConfig>
 80040f4:	4604      	mov	r4, r0
 80040f6:	b100      	cbz	r0, 80040fa <platform_init+0x46>
        for(;;);
 80040f8:	e7fe      	b.n	80040f8 <platform_init+0x44>
	RCC_ClkInitStruct.ClockType      = (RCC_CLOCKTYPE_SYSCLK | RCC_CLOCKTYPE_HCLK | RCC_CLOCKTYPE_PCLK1 | RCC_CLOCKTYPE_PCLK2);
	RCC_ClkInitStruct.SYSCLKSource   = RCC_SYSCLKSOURCE_HSE;
	RCC_ClkInitStruct.AHBCLKDivider  = RCC_SYSCLK_DIV1;
	RCC_ClkInitStruct.APB1CLKDivider = RCC_HCLK_DIV1;
	RCC_ClkInitStruct.APB2CLKDivider = RCC_HCLK_DIV1;
	HAL_RCC_ClockConfig(&RCC_ClkInitStruct, FLASH_ACR_LATENCY_0WS); //wait states not needed for HSE
 80040fa:	4601      	mov	r1, r0
	RCC_ClkInitStruct.APB1CLKDivider = RCC_HCLK_DIV1;
 80040fc:	e9cd 0003 	strd	r0, r0, [sp, #12]
	RCC_ClkInitStruct.ClockType      = (RCC_CLOCKTYPE_SYSCLK | RCC_CLOCKTYPE_HCLK | RCC_CLOCKTYPE_PCLK1 | RCC_CLOCKTYPE_PCLK2);
 8004100:	230f      	movs	r3, #15
	RCC_ClkInitStruct.APB2CLKDivider = RCC_HCLK_DIV1;
 8004102:	9005      	str	r0, [sp, #20]
	HAL_RCC_ClockConfig(&RCC_ClkInitStruct, FLASH_ACR_LATENCY_0WS); //wait states not needed for HSE
 8004104:	a801      	add	r0, sp, #4
	RCC_ClkInitStruct.SYSCLKSource   = RCC_SYSCLKSOURCE_HSE;
 8004106:	e9cd 3501 	strd	r3, r5, [sp, #4]
	HAL_RCC_ClockConfig(&RCC_ClkInitStruct, FLASH_ACR_LATENCY_0WS); //wait states not needed for HSE
 800410a:	f000 fa53 	bl	80045b4 <HAL_RCC_ClockConfig>
#endif

	// Configure and starts the RNG
	__HAL_RCC_RNG_CLK_ENABLE();
 800410e:	4b0a      	ldr	r3, [pc, #40]	; (8004138 <platform_init+0x84>)
 8004110:	9400      	str	r4, [sp, #0]
 8004112:	6b5a      	ldr	r2, [r3, #52]	; 0x34
	RngHandle.Instance = RNG;
 8004114:	4809      	ldr	r0, [pc, #36]	; (800413c <platform_init+0x88>)
	__HAL_RCC_RNG_CLK_ENABLE();
 8004116:	f042 0240 	orr.w	r2, r2, #64	; 0x40
 800411a:	635a      	str	r2, [r3, #52]	; 0x34
 800411c:	6b5b      	ldr	r3, [r3, #52]	; 0x34
 800411e:	f003 0340 	and.w	r3, r3, #64	; 0x40
 8004122:	9300      	str	r3, [sp, #0]
 8004124:	9b00      	ldr	r3, [sp, #0]
	RngHandle.Instance = RNG;
 8004126:	4b06      	ldr	r3, [pc, #24]	; (8004140 <platform_init+0x8c>)
 8004128:	6003      	str	r3, [r0, #0]
	RngHandle.State = HAL_RNG_STATE_RESET;
 800412a:	7144      	strb	r4, [r0, #5]
	HAL_RNG_Init(&RngHandle);
 800412c:	f000 fce1 	bl	8004af2 <HAL_RNG_Init>

}
 8004130:	b013      	add	sp, #76	; 0x4c
 8004132:	bd30      	pop	{r4, r5, pc}
 8004134:	e000ed00 	.word	0xe000ed00
 8004138:	40023800 	.word	0x40023800
 800413c:	10001968 	.word	0x10001968
 8004140:	50060800 	.word	0x50060800

08004144 <init_uart>:

void init_uart(void)
{
 8004144:	b530      	push	{r4, r5, lr}
	GPIO_InitTypeDef GpioInit;
	GpioInit.Pin       = GPIO_PIN_9 | GPIO_PIN_10;
	GpioInit.Mode      = GPIO_MODE_AF_PP;
 8004146:	2302      	movs	r3, #2
{
 8004148:	b089      	sub	sp, #36	; 0x24
	GpioInit.Mode      = GPIO_MODE_AF_PP;
 800414a:	f44f 62c0 	mov.w	r2, #1536	; 0x600
 800414e:	e9cd 2303 	strd	r2, r3, [sp, #12]
	GpioInit.Pull      = GPIO_PULLUP;
 8004152:	2201      	movs	r2, #1
	GpioInit.Speed     = GPIO_SPEED_FREQ_HIGH;
 8004154:	e9cd 2305 	strd	r2, r3, [sp, #20]
	GpioInit.Alternate = GPIO_AF7_USART1;
	__GPIOA_CLK_ENABLE();
 8004158:	4c15      	ldr	r4, [pc, #84]	; (80041b0 <init_uart+0x6c>)
	HAL_GPIO_Init(GPIOA, &GpioInit);
 800415a:	4816      	ldr	r0, [pc, #88]	; (80041b4 <init_uart+0x70>)
	__GPIOA_CLK_ENABLE();
 800415c:	2500      	movs	r5, #0
	GpioInit.Alternate = GPIO_AF7_USART1;
 800415e:	2307      	movs	r3, #7
	__GPIOA_CLK_ENABLE();
 8004160:	9501      	str	r5, [sp, #4]
	GpioInit.Alternate = GPIO_AF7_USART1;
 8004162:	9307      	str	r3, [sp, #28]
	__GPIOA_CLK_ENABLE();
 8004164:	6b23      	ldr	r3, [r4, #48]	; 0x30
 8004166:	4313      	orrs	r3, r2
 8004168:	6323      	str	r3, [r4, #48]	; 0x30
 800416a:	6b23      	ldr	r3, [r4, #48]	; 0x30
 800416c:	4013      	ands	r3, r2
 800416e:	9301      	str	r3, [sp, #4]
	HAL_GPIO_Init(GPIOA, &GpioInit);
 8004170:	a903      	add	r1, sp, #12
	__GPIOA_CLK_ENABLE();
 8004172:	9b01      	ldr	r3, [sp, #4]
	HAL_GPIO_Init(GPIOA, &GpioInit);
 8004174:	f000 fab6 	bl	80046e4 <HAL_GPIO_Init>

	UartHandle.Instance        = USART1;
 8004178:	480f      	ldr	r0, [pc, #60]	; (80041b8 <init_uart+0x74>)
  #if SS_VER==SS_VER_2_1
  UartHandle.Init.BaudRate   = 230400;
 800417a:	4910      	ldr	r1, [pc, #64]	; (80041bc <init_uart+0x78>)
	UartHandle.Init.WordLength = UART_WORDLENGTH_8B;
	UartHandle.Init.StopBits   = UART_STOPBITS_1;
	UartHandle.Init.Parity     = UART_PARITY_NONE;
	UartHandle.Init.HwFlowCtl  = UART_HWCONTROL_NONE;
	UartHandle.Init.Mode       = UART_MODE_TX_RX;
	__USART1_CLK_ENABLE();
 800417c:	9502      	str	r5, [sp, #8]
  UartHandle.Init.BaudRate   = 230400;
 800417e:	f44f 3361 	mov.w	r3, #230400	; 0x38400
 8004182:	e9c0 1303 	strd	r1, r3, [r0, #12]
	UartHandle.Init.StopBits   = UART_STOPBITS_1;
 8004186:	e9c0 5505 	strd	r5, r5, [r0, #20]
	UartHandle.Init.Mode       = UART_MODE_TX_RX;
 800418a:	230c      	movs	r3, #12
	UartHandle.Init.Parity     = UART_PARITY_NONE;
 800418c:	61c5      	str	r5, [r0, #28]
	UartHandle.Init.HwFlowCtl  = UART_HWCONTROL_NONE;
 800418e:	6245      	str	r5, [r0, #36]	; 0x24
	UartHandle.Init.Mode       = UART_MODE_TX_RX;
 8004190:	6203      	str	r3, [r0, #32]
	__USART1_CLK_ENABLE();
 8004192:	6c63      	ldr	r3, [r4, #68]	; 0x44
 8004194:	f043 0310 	orr.w	r3, r3, #16
 8004198:	6463      	str	r3, [r4, #68]	; 0x44
 800419a:	6c63      	ldr	r3, [r4, #68]	; 0x44
 800419c:	f003 0310 	and.w	r3, r3, #16
 80041a0:	9302      	str	r3, [sp, #8]
	HAL_UART_Init(&UartHandle);
 80041a2:	300c      	adds	r0, #12
	__USART1_CLK_ENABLE();
 80041a4:	9b02      	ldr	r3, [sp, #8]
	HAL_UART_Init(&UartHandle);
 80041a6:	f000 fb89 	bl	80048bc <HAL_UART_Init>
}
 80041aa:	b009      	add	sp, #36	; 0x24
 80041ac:	bd30      	pop	{r4, r5, pc}
 80041ae:	bf00      	nop
 80041b0:	40023800 	.word	0x40023800
 80041b4:	40020000 	.word	0x40020000
 80041b8:	10001968 	.word	0x10001968
 80041bc:	40011000 	.word	0x40011000

080041c0 <trigger_setup>:

//#define STM32F4_WLCSP

void trigger_setup(void)
{
 80041c0:	b57f      	push	{r0, r1, r2, r3, r4, r5, r6, lr}
	__GPIOA_CLK_ENABLE();
 80041c2:	4b0d      	ldr	r3, [pc, #52]	; (80041f8 <trigger_setup+0x38>)
	GPIO_InitTypeDef GpioInit;
	GpioInit.Pin       = GPIO_PIN_12;
	GpioInit.Mode      = GPIO_MODE_OUTPUT_PP;
	GpioInit.Pull      = GPIO_NOPULL;
	GpioInit.Speed     = GPIO_SPEED_FREQ_HIGH;
	HAL_GPIO_Init(GPIOA, &GpioInit);
 80041c4:	480d      	ldr	r0, [pc, #52]	; (80041fc <trigger_setup+0x3c>)
	__GPIOA_CLK_ENABLE();
 80041c6:	2100      	movs	r1, #0
 80041c8:	9100      	str	r1, [sp, #0]
 80041ca:	6b1a      	ldr	r2, [r3, #48]	; 0x30
 80041cc:	f042 0201 	orr.w	r2, r2, #1
 80041d0:	631a      	str	r2, [r3, #48]	; 0x30
 80041d2:	6b1b      	ldr	r3, [r3, #48]	; 0x30
	GpioInit.Pull      = GPIO_NOPULL;
 80041d4:	9103      	str	r1, [sp, #12]
	__GPIOA_CLK_ENABLE();
 80041d6:	f003 0301 	and.w	r3, r3, #1
 80041da:	9300      	str	r3, [sp, #0]
 80041dc:	9b00      	ldr	r3, [sp, #0]
	GpioInit.Mode      = GPIO_MODE_OUTPUT_PP;
 80041de:	f44f 5280 	mov.w	r2, #4096	; 0x1000
 80041e2:	2301      	movs	r3, #1
 80041e4:	e9cd 2301 	strd	r2, r3, [sp, #4]
	HAL_GPIO_Init(GPIOA, &GpioInit);
 80041e8:	a901      	add	r1, sp, #4
	GpioInit.Speed     = GPIO_SPEED_FREQ_HIGH;
 80041ea:	2302      	movs	r3, #2
 80041ec:	9304      	str	r3, [sp, #16]
	HAL_GPIO_Init(GPIOA, &GpioInit);
 80041ee:	f000 fa79 	bl	80046e4 <HAL_GPIO_Init>
#endif
}
 80041f2:	b007      	add	sp, #28
 80041f4:	f85d fb04 	ldr.w	pc, [sp], #4
 80041f8:	40023800 	.word	0x40023800
 80041fc:	40020000 	.word	0x40020000

08004200 <trigger_high>:
void trigger_high(void)
{
#ifdef STM32F4_WLCSP
    HAL_GPIO_WritePin(GPIOD, GPIO_PIN_4, SET);
#else
	HAL_GPIO_WritePin(GPIOA, GPIO_PIN_12, SET);
 8004200:	4802      	ldr	r0, [pc, #8]	; (800420c <trigger_high+0xc>)
 8004202:	2201      	movs	r2, #1
 8004204:	f44f 5180 	mov.w	r1, #4096	; 0x1000
 8004208:	f000 bb52 	b.w	80048b0 <HAL_GPIO_WritePin>
 800420c:	40020000 	.word	0x40020000

08004210 <trigger_low>:
void trigger_low(void)
{
#ifdef STM32F4_WLCSP
    HAL_GPIO_WritePin(GPIOD, GPIO_PIN_4, RESET);
#else
	HAL_GPIO_WritePin(GPIOA, GPIO_PIN_12, RESET);
 8004210:	4802      	ldr	r0, [pc, #8]	; (800421c <trigger_low+0xc>)
 8004212:	2200      	movs	r2, #0
 8004214:	f44f 5180 	mov.w	r1, #4096	; 0x1000
 8004218:	f000 bb4a 	b.w	80048b0 <HAL_GPIO_WritePin>
 800421c:	40020000 	.word	0x40020000

08004220 <getch>:
#endif
}
char getch(void)
{
 8004220:	b513      	push	{r0, r1, r4, lr}
	uint8_t d;
	while (HAL_UART_Receive(&UartHandle, &d, 1, 5000) != HAL_OK);
 8004222:	4c07      	ldr	r4, [pc, #28]	; (8004240 <getch+0x20>)
 8004224:	f241 3388 	movw	r3, #5000	; 0x1388
 8004228:	2201      	movs	r2, #1
 800422a:	f10d 0107 	add.w	r1, sp, #7
 800422e:	4620      	mov	r0, r4
 8004230:	f000 fbf7 	bl	8004a22 <HAL_UART_Receive>
 8004234:	2800      	cmp	r0, #0
 8004236:	d1f5      	bne.n	8004224 <getch+0x4>
	return d;
}
 8004238:	f89d 0007 	ldrb.w	r0, [sp, #7]
 800423c:	b002      	add	sp, #8
 800423e:	bd10      	pop	{r4, pc}
 8004240:	10001974 	.word	0x10001974

08004244 <putch>:

void putch(char c)
{
 8004244:	b507      	push	{r0, r1, r2, lr}
	uint8_t d  = c;
	HAL_UART_Transmit(&UartHandle,  &d, 1, 5000);
 8004246:	f241 3388 	movw	r3, #5000	; 0x1388
	uint8_t d  = c;
 800424a:	f88d 0007 	strb.w	r0, [sp, #7]
	HAL_UART_Transmit(&UartHandle,  &d, 1, 5000);
 800424e:	2201      	movs	r2, #1
 8004250:	f10d 0107 	add.w	r1, sp, #7
 8004254:	4802      	ldr	r0, [pc, #8]	; (8004260 <putch+0x1c>)
 8004256:	f000 fb9f 	bl	8004998 <HAL_UART_Transmit>
}
 800425a:	b003      	add	sp, #12
 800425c:	f85d fb04 	ldr.w	pc, [sp], #4
 8004260:	10001974 	.word	0x10001974

08004264 <HAL_GetTick>:


uint32_t HAL_GetTick(void)
{
	static uint32_t tick;
	return tick++;;
 8004264:	4b02      	ldr	r3, [pc, #8]	; (8004270 <HAL_GetTick+0xc>)
 8004266:	6818      	ldr	r0, [r3, #0]
 8004268:	1c42      	adds	r2, r0, #1
 800426a:	601a      	str	r2, [r3, #0]
}
 800426c:	4770      	bx	lr
 800426e:	bf00      	nop
 8004270:	10001a04 	.word	0x10001a04

08004274 <HAL_RCC_OscConfig>:
  uint32_t tickstart = 0U;

  /* Check the parameters */
  assert_param(IS_RCC_OSCILLATORTYPE(RCC_OscInitStruct->OscillatorType));
  /*------------------------------- HSE Configuration ------------------------*/
  if(((RCC_OscInitStruct->OscillatorType) & RCC_OSCILLATORTYPE_HSE) == RCC_OSCILLATORTYPE_HSE)
 8004274:	6803      	ldr	r3, [r0, #0]
{
 8004276:	b573      	push	{r0, r1, r4, r5, r6, lr}
  if(((RCC_OscInitStruct->OscillatorType) & RCC_OSCILLATORTYPE_HSE) == RCC_OSCILLATORTYPE_HSE)
 8004278:	07de      	lsls	r6, r3, #31
{
 800427a:	4601      	mov	r1, r0
  if(((RCC_OscInitStruct->OscillatorType) & RCC_OSCILLATORTYPE_HSE) == RCC_OSCILLATORTYPE_HSE)
 800427c:	d43b      	bmi.n	80042f6 <HAL_RCC_OscConfig+0x82>
        }
      }
    }
  }
  /*----------------------------- HSI Configuration --------------------------*/
  if(((RCC_OscInitStruct->OscillatorType) & RCC_OSCILLATORTYPE_HSI) == RCC_OSCILLATORTYPE_HSI)
 800427e:	680b      	ldr	r3, [r1, #0]
 8004280:	079d      	lsls	r5, r3, #30
 8004282:	f100 808b 	bmi.w	800439c <HAL_RCC_OscConfig+0x128>
        }
      }
    }
  }
  /*------------------------------ LSI Configuration -------------------------*/
  if(((RCC_OscInitStruct->OscillatorType) & RCC_OSCILLATORTYPE_LSI) == RCC_OSCILLATORTYPE_LSI)
 8004286:	680b      	ldr	r3, [r1, #0]
 8004288:	0718      	lsls	r0, r3, #28
 800428a:	f100 80d6 	bmi.w	800443a <HAL_RCC_OscConfig+0x1c6>
        }
      }
    }
  }
  /*------------------------------ LSE Configuration -------------------------*/
  if(((RCC_OscInitStruct->OscillatorType) & RCC_OSCILLATORTYPE_LSE) == RCC_OSCILLATORTYPE_LSE)
 800428e:	680b      	ldr	r3, [r1, #0]
 8004290:	075a      	lsls	r2, r3, #29
 8004292:	d52a      	bpl.n	80042ea <HAL_RCC_OscConfig+0x76>
  {
    /* Check the parameters */
    assert_param(IS_RCC_LSE(RCC_OscInitStruct->LSEState));

    /* Enable Power Clock*/
    __HAL_RCC_PWR_CLK_ENABLE();
 8004294:	2300      	movs	r3, #0
 8004296:	9301      	str	r3, [sp, #4]
 8004298:	4b91      	ldr	r3, [pc, #580]	; (80044e0 <HAL_RCC_OscConfig+0x26c>)

    /* Enable write access to Backup domain */
    PWR->CR |= PWR_CR_DBP;
 800429a:	4c92      	ldr	r4, [pc, #584]	; (80044e4 <HAL_RCC_OscConfig+0x270>)
    __HAL_RCC_PWR_CLK_ENABLE();
 800429c:	6c1a      	ldr	r2, [r3, #64]	; 0x40
 800429e:	f042 5280 	orr.w	r2, r2, #268435456	; 0x10000000
 80042a2:	641a      	str	r2, [r3, #64]	; 0x40
 80042a4:	6c1b      	ldr	r3, [r3, #64]	; 0x40
 80042a6:	f003 5380 	and.w	r3, r3, #268435456	; 0x10000000
 80042aa:	9301      	str	r3, [sp, #4]
 80042ac:	9b01      	ldr	r3, [sp, #4]
    PWR->CR |= PWR_CR_DBP;
 80042ae:	6823      	ldr	r3, [r4, #0]
 80042b0:	f443 7380 	orr.w	r3, r3, #256	; 0x100
 80042b4:	6023      	str	r3, [r4, #0]

    /* Wait for Backup domain Write protection enable */
    tickstart = HAL_GetTick();
 80042b6:	f7ff ffd5 	bl	8004264 <HAL_GetTick>
 80042ba:	4605      	mov	r5, r0

    while((PWR->CR & PWR_CR_DBP) == RESET)
 80042bc:	6823      	ldr	r3, [r4, #0]
 80042be:	05d8      	lsls	r0, r3, #23
 80042c0:	f140 80df 	bpl.w	8004482 <HAL_RCC_OscConfig+0x20e>
        return HAL_TIMEOUT;
      }
    }

    /* Set the new LSE configuration -----------------------------------------*/
    __HAL_RCC_LSE_CONFIG(RCC_OscInitStruct->LSEState);
 80042c4:	688b      	ldr	r3, [r1, #8]
 80042c6:	4c86      	ldr	r4, [pc, #536]	; (80044e0 <HAL_RCC_OscConfig+0x26c>)
 80042c8:	2b01      	cmp	r3, #1
 80042ca:	f040 80e1 	bne.w	8004490 <HAL_RCC_OscConfig+0x21c>
 80042ce:	6f23      	ldr	r3, [r4, #112]	; 0x70
 80042d0:	f043 0301 	orr.w	r3, r3, #1
 80042d4:	6723      	str	r3, [r4, #112]	; 0x70
    /* Check the LSE State */
    if((RCC_OscInitStruct->LSEState) != RCC_LSE_OFF)
    {
      /* Get Start Tick*/
      tickstart = HAL_GetTick();
 80042d6:	f7ff ffc5 	bl	8004264 <HAL_GetTick>

      /* Wait till LSE is ready */
      while(__HAL_RCC_GET_FLAG(RCC_FLAG_LSERDY) == RESET)
 80042da:	4d81      	ldr	r5, [pc, #516]	; (80044e0 <HAL_RCC_OscConfig+0x26c>)
      tickstart = HAL_GetTick();
 80042dc:	4604      	mov	r4, r0
      {
        if((HAL_GetTick() - tickstart ) > RCC_LSE_TIMEOUT_VALUE)
 80042de:	f241 3688 	movw	r6, #5000	; 0x1388
      while(__HAL_RCC_GET_FLAG(RCC_FLAG_LSERDY) == RESET)
 80042e2:	6f2b      	ldr	r3, [r5, #112]	; 0x70
 80042e4:	079a      	lsls	r2, r3, #30
 80042e6:	f140 80f4 	bpl.w	80044d2 <HAL_RCC_OscConfig+0x25e>
    }
  }
  /*-------------------------------- PLL Configuration -----------------------*/
  /* Check the parameters */
  assert_param(IS_RCC_PLL(RCC_OscInitStruct->PLL.PLLState));
  if ((RCC_OscInitStruct->PLL.PLLState) != RCC_PLL_NONE)
 80042ea:	698a      	ldr	r2, [r1, #24]
 80042ec:	2a00      	cmp	r2, #0
 80042ee:	f040 80ff 	bne.w	80044f0 <HAL_RCC_OscConfig+0x27c>
    else
    {
      return HAL_ERROR;
    }
  }
  return HAL_OK;
 80042f2:	2000      	movs	r0, #0
 80042f4:	e015      	b.n	8004322 <HAL_RCC_OscConfig+0xae>
    if((__HAL_RCC_GET_SYSCLK_SOURCE() == RCC_CFGR_SWS_HSE) ||\
 80042f6:	4b7a      	ldr	r3, [pc, #488]	; (80044e0 <HAL_RCC_OscConfig+0x26c>)
 80042f8:	689a      	ldr	r2, [r3, #8]
 80042fa:	f002 020c 	and.w	r2, r2, #12
 80042fe:	2a04      	cmp	r2, #4
 8004300:	d007      	beq.n	8004312 <HAL_RCC_OscConfig+0x9e>
      ((__HAL_RCC_GET_SYSCLK_SOURCE() == RCC_CFGR_SWS_PLL) && ((RCC->PLLCFGR & RCC_PLLCFGR_PLLSRC) == RCC_PLLCFGR_PLLSRC_HSE)))
 8004302:	689a      	ldr	r2, [r3, #8]
 8004304:	f002 020c 	and.w	r2, r2, #12
    if((__HAL_RCC_GET_SYSCLK_SOURCE() == RCC_CFGR_SWS_HSE) ||\
 8004308:	2a08      	cmp	r2, #8
 800430a:	d10c      	bne.n	8004326 <HAL_RCC_OscConfig+0xb2>
      ((__HAL_RCC_GET_SYSCLK_SOURCE() == RCC_CFGR_SWS_PLL) && ((RCC->PLLCFGR & RCC_PLLCFGR_PLLSRC) == RCC_PLLCFGR_PLLSRC_HSE)))
 800430c:	685a      	ldr	r2, [r3, #4]
 800430e:	0254      	lsls	r4, r2, #9
 8004310:	d509      	bpl.n	8004326 <HAL_RCC_OscConfig+0xb2>
      if((__HAL_RCC_GET_FLAG(RCC_FLAG_HSERDY) != RESET) && (RCC_OscInitStruct->HSEState == RCC_HSE_OFF))
 8004312:	4b73      	ldr	r3, [pc, #460]	; (80044e0 <HAL_RCC_OscConfig+0x26c>)
 8004314:	681b      	ldr	r3, [r3, #0]
 8004316:	0398      	lsls	r0, r3, #14
 8004318:	d5b1      	bpl.n	800427e <HAL_RCC_OscConfig+0xa>
 800431a:	684b      	ldr	r3, [r1, #4]
 800431c:	2b00      	cmp	r3, #0
 800431e:	d1ae      	bne.n	800427e <HAL_RCC_OscConfig+0xa>
        return HAL_ERROR;
 8004320:	2001      	movs	r0, #1
}
 8004322:	b002      	add	sp, #8
 8004324:	bd70      	pop	{r4, r5, r6, pc}
      __HAL_RCC_HSE_CONFIG(RCC_OscInitStruct->HSEState);
 8004326:	684a      	ldr	r2, [r1, #4]
 8004328:	f5b2 3f80 	cmp.w	r2, #65536	; 0x10000
 800432c:	d112      	bne.n	8004354 <HAL_RCC_OscConfig+0xe0>
 800432e:	681a      	ldr	r2, [r3, #0]
 8004330:	f442 3280 	orr.w	r2, r2, #65536	; 0x10000
 8004334:	601a      	str	r2, [r3, #0]
        tickstart = HAL_GetTick();
 8004336:	f7ff ff95 	bl	8004264 <HAL_GetTick>
        while(__HAL_RCC_GET_FLAG(RCC_FLAG_HSERDY) == RESET)
 800433a:	4d69      	ldr	r5, [pc, #420]	; (80044e0 <HAL_RCC_OscConfig+0x26c>)
          if((HAL_GetTick() - tickstart ) > HSE_TIMEOUT_VALUE)
 800433c:	4e6a      	ldr	r6, [pc, #424]	; (80044e8 <HAL_RCC_OscConfig+0x274>)
        tickstart = HAL_GetTick();
 800433e:	4604      	mov	r4, r0
        while(__HAL_RCC_GET_FLAG(RCC_FLAG_HSERDY) == RESET)
 8004340:	682b      	ldr	r3, [r5, #0]
 8004342:	039a      	lsls	r2, r3, #14
 8004344:	d49b      	bmi.n	800427e <HAL_RCC_OscConfig+0xa>
          if((HAL_GetTick() - tickstart ) > HSE_TIMEOUT_VALUE)
 8004346:	f7ff ff8d 	bl	8004264 <HAL_GetTick>
 800434a:	1b00      	subs	r0, r0, r4
 800434c:	42b0      	cmp	r0, r6
 800434e:	d9f7      	bls.n	8004340 <HAL_RCC_OscConfig+0xcc>
            return HAL_TIMEOUT;
 8004350:	2003      	movs	r0, #3
 8004352:	e7e6      	b.n	8004322 <HAL_RCC_OscConfig+0xae>
      __HAL_RCC_HSE_CONFIG(RCC_OscInitStruct->HSEState);
 8004354:	4c62      	ldr	r4, [pc, #392]	; (80044e0 <HAL_RCC_OscConfig+0x26c>)
 8004356:	f5b2 2fa0 	cmp.w	r2, #327680	; 0x50000
 800435a:	6823      	ldr	r3, [r4, #0]
 800435c:	d107      	bne.n	800436e <HAL_RCC_OscConfig+0xfa>
 800435e:	f443 2380 	orr.w	r3, r3, #262144	; 0x40000
 8004362:	6023      	str	r3, [r4, #0]
 8004364:	6823      	ldr	r3, [r4, #0]
 8004366:	f443 3380 	orr.w	r3, r3, #65536	; 0x10000
 800436a:	6023      	str	r3, [r4, #0]
      if((RCC_OscInitStruct->HSEState) != RCC_HSE_OFF)
 800436c:	e7e3      	b.n	8004336 <HAL_RCC_OscConfig+0xc2>
      __HAL_RCC_HSE_CONFIG(RCC_OscInitStruct->HSEState);
 800436e:	f423 3380 	bic.w	r3, r3, #65536	; 0x10000
 8004372:	6023      	str	r3, [r4, #0]
 8004374:	6823      	ldr	r3, [r4, #0]
 8004376:	f423 2380 	bic.w	r3, r3, #262144	; 0x40000
 800437a:	6023      	str	r3, [r4, #0]
      if((RCC_OscInitStruct->HSEState) != RCC_HSE_OFF)
 800437c:	2a00      	cmp	r2, #0
 800437e:	d1da      	bne.n	8004336 <HAL_RCC_OscConfig+0xc2>
        tickstart = HAL_GetTick();
 8004380:	f7ff ff70 	bl	8004264 <HAL_GetTick>
          if((HAL_GetTick() - tickstart ) > HSE_TIMEOUT_VALUE)
 8004384:	4e58      	ldr	r6, [pc, #352]	; (80044e8 <HAL_RCC_OscConfig+0x274>)
        tickstart = HAL_GetTick();
 8004386:	4605      	mov	r5, r0
        while(__HAL_RCC_GET_FLAG(RCC_FLAG_HSERDY) != RESET)
 8004388:	6823      	ldr	r3, [r4, #0]
 800438a:	039b      	lsls	r3, r3, #14
 800438c:	f57f af77 	bpl.w	800427e <HAL_RCC_OscConfig+0xa>
          if((HAL_GetTick() - tickstart ) > HSE_TIMEOUT_VALUE)
 8004390:	f7ff ff68 	bl	8004264 <HAL_GetTick>
 8004394:	1b40      	subs	r0, r0, r5
 8004396:	42b0      	cmp	r0, r6
 8004398:	d9f6      	bls.n	8004388 <HAL_RCC_OscConfig+0x114>
 800439a:	e7d9      	b.n	8004350 <HAL_RCC_OscConfig+0xdc>
    if((__HAL_RCC_GET_SYSCLK_SOURCE() == RCC_CFGR_SWS_HSI) ||\
 800439c:	4b50      	ldr	r3, [pc, #320]	; (80044e0 <HAL_RCC_OscConfig+0x26c>)
 800439e:	689a      	ldr	r2, [r3, #8]
 80043a0:	f012 0f0c 	tst.w	r2, #12
 80043a4:	d007      	beq.n	80043b6 <HAL_RCC_OscConfig+0x142>
      ((__HAL_RCC_GET_SYSCLK_SOURCE() == RCC_CFGR_SWS_PLL) && ((RCC->PLLCFGR & RCC_PLLCFGR_PLLSRC) == RCC_PLLCFGR_PLLSRC_HSI)))
 80043a6:	689a      	ldr	r2, [r3, #8]
 80043a8:	f002 020c 	and.w	r2, r2, #12
    if((__HAL_RCC_GET_SYSCLK_SOURCE() == RCC_CFGR_SWS_HSI) ||\
 80043ac:	2a08      	cmp	r2, #8
 80043ae:	d116      	bne.n	80043de <HAL_RCC_OscConfig+0x16a>
      ((__HAL_RCC_GET_SYSCLK_SOURCE() == RCC_CFGR_SWS_PLL) && ((RCC->PLLCFGR & RCC_PLLCFGR_PLLSRC) == RCC_PLLCFGR_PLLSRC_HSI)))
 80043b0:	685b      	ldr	r3, [r3, #4]
 80043b2:	0258      	lsls	r0, r3, #9
 80043b4:	d413      	bmi.n	80043de <HAL_RCC_OscConfig+0x16a>
      if((__HAL_RCC_GET_FLAG(RCC_FLAG_HSIRDY) != RESET) && (RCC_OscInitStruct->HSIState != RCC_HSI_ON))
 80043b6:	484a      	ldr	r0, [pc, #296]	; (80044e0 <HAL_RCC_OscConfig+0x26c>)
 80043b8:	6803      	ldr	r3, [r0, #0]
 80043ba:	079a      	lsls	r2, r3, #30
 80043bc:	d502      	bpl.n	80043c4 <HAL_RCC_OscConfig+0x150>
 80043be:	68cb      	ldr	r3, [r1, #12]
 80043c0:	2b01      	cmp	r3, #1
 80043c2:	d1ad      	bne.n	8004320 <HAL_RCC_OscConfig+0xac>
        __HAL_RCC_HSI_CALIBRATIONVALUE_ADJUST(RCC_OscInitStruct->HSICalibrationValue);
 80043c4:	6804      	ldr	r4, [r0, #0]
__attribute__((always_inline)) __STATIC_INLINE uint32_t __RBIT(uint32_t value)
{
  uint32_t result;

#if       (__CORTEX_M >= 0x03U) || (__CORTEX_SC >= 300U)
   __ASM volatile ("rbit %0, %1" : "=r" (result) : "r" (value) );
 80043c6:	23f8      	movs	r3, #248	; 0xf8
 80043c8:	fa93 f3a3 	rbit	r3, r3
 80043cc:	fab3 f283 	clz	r2, r3
 80043d0:	690b      	ldr	r3, [r1, #16]
 80043d2:	4093      	lsls	r3, r2
 80043d4:	f024 02f8 	bic.w	r2, r4, #248	; 0xf8
 80043d8:	4313      	orrs	r3, r2
 80043da:	6003      	str	r3, [r0, #0]
      if((__HAL_RCC_GET_FLAG(RCC_FLAG_HSIRDY) != RESET) && (RCC_OscInitStruct->HSIState != RCC_HSI_ON))
 80043dc:	e753      	b.n	8004286 <HAL_RCC_OscConfig+0x12>
      if((RCC_OscInitStruct->HSIState)!= RCC_HSI_OFF)
 80043de:	68ca      	ldr	r2, [r1, #12]
 80043e0:	4b42      	ldr	r3, [pc, #264]	; (80044ec <HAL_RCC_OscConfig+0x278>)
 80043e2:	b1da      	cbz	r2, 800441c <HAL_RCC_OscConfig+0x1a8>
        __HAL_RCC_HSI_ENABLE();
 80043e4:	2201      	movs	r2, #1
 80043e6:	601a      	str	r2, [r3, #0]
        tickstart = HAL_GetTick();
 80043e8:	f7ff ff3c 	bl	8004264 <HAL_GetTick>
        while(__HAL_RCC_GET_FLAG(RCC_FLAG_HSIRDY) == RESET)
 80043ec:	4c3c      	ldr	r4, [pc, #240]	; (80044e0 <HAL_RCC_OscConfig+0x26c>)
        tickstart = HAL_GetTick();
 80043ee:	4605      	mov	r5, r0
        while(__HAL_RCC_GET_FLAG(RCC_FLAG_HSIRDY) == RESET)
 80043f0:	6823      	ldr	r3, [r4, #0]
 80043f2:	079b      	lsls	r3, r3, #30
 80043f4:	d50c      	bpl.n	8004410 <HAL_RCC_OscConfig+0x19c>
        __HAL_RCC_HSI_CALIBRATIONVALUE_ADJUST(RCC_OscInitStruct->HSICalibrationValue);
 80043f6:	6820      	ldr	r0, [r4, #0]
 80043f8:	23f8      	movs	r3, #248	; 0xf8
 80043fa:	fa93 f3a3 	rbit	r3, r3
 80043fe:	fab3 f283 	clz	r2, r3
 8004402:	690b      	ldr	r3, [r1, #16]
 8004404:	4093      	lsls	r3, r2
 8004406:	f020 02f8 	bic.w	r2, r0, #248	; 0xf8
 800440a:	4313      	orrs	r3, r2
 800440c:	6023      	str	r3, [r4, #0]
 800440e:	e73a      	b.n	8004286 <HAL_RCC_OscConfig+0x12>
          if((HAL_GetTick() - tickstart ) > HSI_TIMEOUT_VALUE)
 8004410:	f7ff ff28 	bl	8004264 <HAL_GetTick>
 8004414:	1b40      	subs	r0, r0, r5
 8004416:	2802      	cmp	r0, #2
 8004418:	d9ea      	bls.n	80043f0 <HAL_RCC_OscConfig+0x17c>
 800441a:	e799      	b.n	8004350 <HAL_RCC_OscConfig+0xdc>
        __HAL_RCC_HSI_DISABLE();
 800441c:	601a      	str	r2, [r3, #0]
        tickstart = HAL_GetTick();
 800441e:	f7ff ff21 	bl	8004264 <HAL_GetTick>
        while(__HAL_RCC_GET_FLAG(RCC_FLAG_HSIRDY) != RESET)
 8004422:	4d2f      	ldr	r5, [pc, #188]	; (80044e0 <HAL_RCC_OscConfig+0x26c>)
        tickstart = HAL_GetTick();
 8004424:	4604      	mov	r4, r0
        while(__HAL_RCC_GET_FLAG(RCC_FLAG_HSIRDY) != RESET)
 8004426:	682b      	ldr	r3, [r5, #0]
 8004428:	079e      	lsls	r6, r3, #30
 800442a:	f57f af2c 	bpl.w	8004286 <HAL_RCC_OscConfig+0x12>
          if((HAL_GetTick() - tickstart ) > HSI_TIMEOUT_VALUE)
 800442e:	f7ff ff19 	bl	8004264 <HAL_GetTick>
 8004432:	1b00      	subs	r0, r0, r4
 8004434:	2802      	cmp	r0, #2
 8004436:	d9f6      	bls.n	8004426 <HAL_RCC_OscConfig+0x1b2>
 8004438:	e78a      	b.n	8004350 <HAL_RCC_OscConfig+0xdc>
    if((RCC_OscInitStruct->LSIState)!= RCC_LSI_OFF)
 800443a:	694a      	ldr	r2, [r1, #20]
 800443c:	4b2b      	ldr	r3, [pc, #172]	; (80044ec <HAL_RCC_OscConfig+0x278>)
 800443e:	b182      	cbz	r2, 8004462 <HAL_RCC_OscConfig+0x1ee>
      __HAL_RCC_LSI_ENABLE();
 8004440:	2201      	movs	r2, #1
 8004442:	f8c3 2e80 	str.w	r2, [r3, #3712]	; 0xe80
      tickstart = HAL_GetTick();
 8004446:	f7ff ff0d 	bl	8004264 <HAL_GetTick>
      while(__HAL_RCC_GET_FLAG(RCC_FLAG_LSIRDY) == RESET)
 800444a:	4d25      	ldr	r5, [pc, #148]	; (80044e0 <HAL_RCC_OscConfig+0x26c>)
      tickstart = HAL_GetTick();
 800444c:	4604      	mov	r4, r0
      while(__HAL_RCC_GET_FLAG(RCC_FLAG_LSIRDY) == RESET)
 800444e:	6f6b      	ldr	r3, [r5, #116]	; 0x74
 8004450:	079b      	lsls	r3, r3, #30
 8004452:	f53f af1c 	bmi.w	800428e <HAL_RCC_OscConfig+0x1a>
        if((HAL_GetTick() - tickstart ) > LSI_TIMEOUT_VALUE)
 8004456:	f7ff ff05 	bl	8004264 <HAL_GetTick>
 800445a:	1b00      	subs	r0, r0, r4
 800445c:	2802      	cmp	r0, #2
 800445e:	d9f6      	bls.n	800444e <HAL_RCC_OscConfig+0x1da>
 8004460:	e776      	b.n	8004350 <HAL_RCC_OscConfig+0xdc>
      __HAL_RCC_LSI_DISABLE();
 8004462:	f8c3 2e80 	str.w	r2, [r3, #3712]	; 0xe80
      tickstart = HAL_GetTick();
 8004466:	f7ff fefd 	bl	8004264 <HAL_GetTick>
      while(__HAL_RCC_GET_FLAG(RCC_FLAG_LSIRDY) != RESET)
 800446a:	4d1d      	ldr	r5, [pc, #116]	; (80044e0 <HAL_RCC_OscConfig+0x26c>)
      tickstart = HAL_GetTick();
 800446c:	4604      	mov	r4, r0
      while(__HAL_RCC_GET_FLAG(RCC_FLAG_LSIRDY) != RESET)
 800446e:	6f6b      	ldr	r3, [r5, #116]	; 0x74
 8004470:	079e      	lsls	r6, r3, #30
 8004472:	f57f af0c 	bpl.w	800428e <HAL_RCC_OscConfig+0x1a>
        if((HAL_GetTick() - tickstart ) > LSI_TIMEOUT_VALUE)
 8004476:	f7ff fef5 	bl	8004264 <HAL_GetTick>
 800447a:	1b00      	subs	r0, r0, r4
 800447c:	2802      	cmp	r0, #2
 800447e:	d9f6      	bls.n	800446e <HAL_RCC_OscConfig+0x1fa>
 8004480:	e766      	b.n	8004350 <HAL_RCC_OscConfig+0xdc>
      if((HAL_GetTick() - tickstart ) > RCC_DBP_TIMEOUT_VALUE)
 8004482:	f7ff feef 	bl	8004264 <HAL_GetTick>
 8004486:	1b40      	subs	r0, r0, r5
 8004488:	2802      	cmp	r0, #2
 800448a:	f67f af17 	bls.w	80042bc <HAL_RCC_OscConfig+0x48>
 800448e:	e75f      	b.n	8004350 <HAL_RCC_OscConfig+0xdc>
    __HAL_RCC_LSE_CONFIG(RCC_OscInitStruct->LSEState);
 8004490:	2b05      	cmp	r3, #5
 8004492:	d104      	bne.n	800449e <HAL_RCC_OscConfig+0x22a>
 8004494:	6f23      	ldr	r3, [r4, #112]	; 0x70
 8004496:	f043 0304 	orr.w	r3, r3, #4
 800449a:	6723      	str	r3, [r4, #112]	; 0x70
 800449c:	e717      	b.n	80042ce <HAL_RCC_OscConfig+0x5a>
 800449e:	6f22      	ldr	r2, [r4, #112]	; 0x70
 80044a0:	f022 0201 	bic.w	r2, r2, #1
 80044a4:	6722      	str	r2, [r4, #112]	; 0x70
 80044a6:	6f22      	ldr	r2, [r4, #112]	; 0x70
 80044a8:	f022 0204 	bic.w	r2, r2, #4
 80044ac:	6722      	str	r2, [r4, #112]	; 0x70
    if((RCC_OscInitStruct->LSEState) != RCC_LSE_OFF)
 80044ae:	2b00      	cmp	r3, #0
 80044b0:	f47f af11 	bne.w	80042d6 <HAL_RCC_OscConfig+0x62>
      tickstart = HAL_GetTick();
 80044b4:	f7ff fed6 	bl	8004264 <HAL_GetTick>
        if((HAL_GetTick() - tickstart ) > RCC_LSE_TIMEOUT_VALUE)
 80044b8:	f241 3688 	movw	r6, #5000	; 0x1388
      tickstart = HAL_GetTick();
 80044bc:	4605      	mov	r5, r0
      while(__HAL_RCC_GET_FLAG(RCC_FLAG_LSERDY) != RESET)
 80044be:	6f23      	ldr	r3, [r4, #112]	; 0x70
 80044c0:	079b      	lsls	r3, r3, #30
 80044c2:	f57f af12 	bpl.w	80042ea <HAL_RCC_OscConfig+0x76>
        if((HAL_GetTick() - tickstart ) > RCC_LSE_TIMEOUT_VALUE)
 80044c6:	f7ff fecd 	bl	8004264 <HAL_GetTick>
 80044ca:	1b40      	subs	r0, r0, r5
 80044cc:	42b0      	cmp	r0, r6
 80044ce:	d9f6      	bls.n	80044be <HAL_RCC_OscConfig+0x24a>
 80044d0:	e73e      	b.n	8004350 <HAL_RCC_OscConfig+0xdc>
        if((HAL_GetTick() - tickstart ) > RCC_LSE_TIMEOUT_VALUE)
 80044d2:	f7ff fec7 	bl	8004264 <HAL_GetTick>
 80044d6:	1b00      	subs	r0, r0, r4
 80044d8:	42b0      	cmp	r0, r6
 80044da:	f67f af02 	bls.w	80042e2 <HAL_RCC_OscConfig+0x6e>
 80044de:	e737      	b.n	8004350 <HAL_RCC_OscConfig+0xdc>
 80044e0:	40023800 	.word	0x40023800
 80044e4:	40007000 	.word	0x40007000
 80044e8:	05f5e100 	.word	0x05f5e100
 80044ec:	42470000 	.word	0x42470000
    if(__HAL_RCC_GET_SYSCLK_SOURCE() != RCC_CFGR_SWS_PLL)
 80044f0:	4c2d      	ldr	r4, [pc, #180]	; (80045a8 <HAL_RCC_OscConfig+0x334>)
 80044f2:	68a3      	ldr	r3, [r4, #8]
 80044f4:	f003 030c 	and.w	r3, r3, #12
 80044f8:	2b08      	cmp	r3, #8
 80044fa:	f43f af11 	beq.w	8004320 <HAL_RCC_OscConfig+0xac>
      if((RCC_OscInitStruct->PLL.PLLState) == RCC_PLL_ON)
 80044fe:	4b2b      	ldr	r3, [pc, #172]	; (80045ac <HAL_RCC_OscConfig+0x338>)
 8004500:	2a02      	cmp	r2, #2
 8004502:	f04f 0200 	mov.w	r2, #0
        __HAL_RCC_PLL_DISABLE();
 8004506:	661a      	str	r2, [r3, #96]	; 0x60
      if((RCC_OscInitStruct->PLL.PLLState) == RCC_PLL_ON)
 8004508:	d140      	bne.n	800458c <HAL_RCC_OscConfig+0x318>
        tickstart = HAL_GetTick();
 800450a:	f7ff feab 	bl	8004264 <HAL_GetTick>
          if((HAL_GetTick() - tickstart ) > PLL_TIMEOUT_VALUE)
 800450e:	4e28      	ldr	r6, [pc, #160]	; (80045b0 <HAL_RCC_OscConfig+0x33c>)
        tickstart = HAL_GetTick();
 8004510:	4605      	mov	r5, r0
        while(__HAL_RCC_GET_FLAG(RCC_FLAG_PLLRDY) != RESET)
 8004512:	6823      	ldr	r3, [r4, #0]
 8004514:	0198      	lsls	r0, r3, #6
 8004516:	d433      	bmi.n	8004580 <HAL_RCC_OscConfig+0x30c>
 8004518:	f647 76c0 	movw	r6, #32704	; 0x7fc0
 800451c:	fa96 f6a6 	rbit	r6, r6
 8004520:	f44f 3240 	mov.w	r2, #196608	; 0x30000
        WRITE_REG(RCC->PLLCFGR, (RCC_OscInitStruct->PLL.PLLSource                                            | \
 8004524:	fab6 f686 	clz	r6, r6
 8004528:	fa92 f2a2 	rbit	r2, r2
 800452c:	f04f 6070 	mov.w	r0, #251658240	; 0xf000000
 8004530:	fab2 f582 	clz	r5, r2
 8004534:	fa90 f0a0 	rbit	r0, r0
 8004538:	e9d1 3207 	ldrd	r3, r2, [r1, #28]
 800453c:	4313      	orrs	r3, r2
 800453e:	6a4a      	ldr	r2, [r1, #36]	; 0x24
 8004540:	40b2      	lsls	r2, r6
 8004542:	4313      	orrs	r3, r2
 8004544:	6a8a      	ldr	r2, [r1, #40]	; 0x28
 8004546:	0852      	lsrs	r2, r2, #1
 8004548:	3a01      	subs	r2, #1
 800454a:	40aa      	lsls	r2, r5
 800454c:	4313      	orrs	r3, r2
 800454e:	6aca      	ldr	r2, [r1, #44]	; 0x2c
          if((HAL_GetTick() - tickstart ) > PLL_TIMEOUT_VALUE)
 8004550:	4d17      	ldr	r5, [pc, #92]	; (80045b0 <HAL_RCC_OscConfig+0x33c>)
        WRITE_REG(RCC->PLLCFGR, (RCC_OscInitStruct->PLL.PLLSource                                            | \
 8004552:	fab0 f080 	clz	r0, r0
 8004556:	fa02 f000 	lsl.w	r0, r2, r0
 800455a:	4303      	orrs	r3, r0
 800455c:	6063      	str	r3, [r4, #4]
        __HAL_RCC_PLL_ENABLE();
 800455e:	4b13      	ldr	r3, [pc, #76]	; (80045ac <HAL_RCC_OscConfig+0x338>)
        while(__HAL_RCC_GET_FLAG(RCC_FLAG_PLLRDY) == RESET)
 8004560:	4c11      	ldr	r4, [pc, #68]	; (80045a8 <HAL_RCC_OscConfig+0x334>)
        __HAL_RCC_PLL_ENABLE();
 8004562:	2201      	movs	r2, #1
 8004564:	661a      	str	r2, [r3, #96]	; 0x60
        tickstart = HAL_GetTick();
 8004566:	f7ff fe7d 	bl	8004264 <HAL_GetTick>
 800456a:	4601      	mov	r1, r0
        while(__HAL_RCC_GET_FLAG(RCC_FLAG_PLLRDY) == RESET)
 800456c:	6823      	ldr	r3, [r4, #0]
 800456e:	019a      	lsls	r2, r3, #6
 8004570:	f53f aebf 	bmi.w	80042f2 <HAL_RCC_OscConfig+0x7e>
          if((HAL_GetTick() - tickstart ) > PLL_TIMEOUT_VALUE)
 8004574:	f7ff fe76 	bl	8004264 <HAL_GetTick>
 8004578:	1a40      	subs	r0, r0, r1
 800457a:	42a8      	cmp	r0, r5
 800457c:	d9f6      	bls.n	800456c <HAL_RCC_OscConfig+0x2f8>
 800457e:	e6e7      	b.n	8004350 <HAL_RCC_OscConfig+0xdc>
          if((HAL_GetTick() - tickstart ) > PLL_TIMEOUT_VALUE)
 8004580:	f7ff fe70 	bl	8004264 <HAL_GetTick>
 8004584:	1b40      	subs	r0, r0, r5
 8004586:	42b0      	cmp	r0, r6
 8004588:	d9c3      	bls.n	8004512 <HAL_RCC_OscConfig+0x29e>
 800458a:	e6e1      	b.n	8004350 <HAL_RCC_OscConfig+0xdc>
        tickstart = HAL_GetTick();
 800458c:	f7ff fe6a 	bl	8004264 <HAL_GetTick>
          if((HAL_GetTick() - tickstart ) > PLL_TIMEOUT_VALUE)
 8004590:	4d07      	ldr	r5, [pc, #28]	; (80045b0 <HAL_RCC_OscConfig+0x33c>)
        tickstart = HAL_GetTick();
 8004592:	4601      	mov	r1, r0
        while(__HAL_RCC_GET_FLAG(RCC_FLAG_PLLRDY) != RESET)
 8004594:	6823      	ldr	r3, [r4, #0]
 8004596:	019b      	lsls	r3, r3, #6
 8004598:	f57f aeab 	bpl.w	80042f2 <HAL_RCC_OscConfig+0x7e>
          if((HAL_GetTick() - tickstart ) > PLL_TIMEOUT_VALUE)
 800459c:	f7ff fe62 	bl	8004264 <HAL_GetTick>
 80045a0:	1a40      	subs	r0, r0, r1
 80045a2:	42a8      	cmp	r0, r5
 80045a4:	d9f6      	bls.n	8004594 <HAL_RCC_OscConfig+0x320>
 80045a6:	e6d3      	b.n	8004350 <HAL_RCC_OscConfig+0xdc>
 80045a8:	40023800 	.word	0x40023800
 80045ac:	42470000 	.word	0x42470000
 80045b0:	001e8480 	.word	0x001e8480

080045b4 <HAL_RCC_ClockConfig>:
  *         HPRE[3:0] bits to ensure that HCLK not exceed the maximum allowed frequency
  *         (for more details refer to section above "Initialization/de-initialization functions")
  * @retval None
  */
HAL_StatusTypeDef HAL_RCC_ClockConfig(RCC_ClkInitTypeDef  *RCC_ClkInitStruct, uint32_t FLatency)
{
 80045b4:	b5f8      	push	{r3, r4, r5, r6, r7, lr}
  /* To correctly read data from FLASH memory, the number of wait states (LATENCY)
    must be correctly programmed according to the frequency of the CPU clock
    (HCLK) and the supply voltage of the device. */

  /* Increasing the number of wait states because of higher CPU frequency */
  if(FLatency > (FLASH->ACR & FLASH_ACR_LATENCY))
 80045b6:	4b49      	ldr	r3, [pc, #292]	; (80046dc <HAL_RCC_ClockConfig+0x128>)
 80045b8:	681a      	ldr	r2, [r3, #0]
 80045ba:	f002 020f 	and.w	r2, r2, #15
 80045be:	428a      	cmp	r2, r1
{
 80045c0:	4604      	mov	r4, r0
  if(FLatency > (FLASH->ACR & FLASH_ACR_LATENCY))
 80045c2:	d31a      	bcc.n	80045fa <HAL_RCC_ClockConfig+0x46>
      return HAL_ERROR;
    }
  }

  /*-------------------------- HCLK Configuration --------------------------*/
  if(((RCC_ClkInitStruct->ClockType) & RCC_CLOCKTYPE_HCLK) == RCC_CLOCKTYPE_HCLK)
 80045c4:	6822      	ldr	r2, [r4, #0]
 80045c6:	0790      	lsls	r0, r2, #30
 80045c8:	d420      	bmi.n	800460c <HAL_RCC_ClockConfig+0x58>
    assert_param(IS_RCC_HCLK(RCC_ClkInitStruct->AHBCLKDivider));
    MODIFY_REG(RCC->CFGR, RCC_CFGR_HPRE, RCC_ClkInitStruct->AHBCLKDivider);
  }

  /*------------------------- SYSCLK Configuration ---------------------------*/
  if(((RCC_ClkInitStruct->ClockType) & RCC_CLOCKTYPE_SYSCLK) == RCC_CLOCKTYPE_SYSCLK)
 80045ca:	07d2      	lsls	r2, r2, #31
 80045cc:	d426      	bmi.n	800461c <HAL_RCC_ClockConfig+0x68>
      }
    }
  }

  /* Decreasing the number of wait states because of lower CPU frequency */
  if(FLatency < (FLASH->ACR & FLASH_ACR_LATENCY))
 80045ce:	4b43      	ldr	r3, [pc, #268]	; (80046dc <HAL_RCC_ClockConfig+0x128>)
 80045d0:	681a      	ldr	r2, [r3, #0]
 80045d2:	f002 020f 	and.w	r2, r2, #15
 80045d6:	428a      	cmp	r2, r1
 80045d8:	d870      	bhi.n	80046bc <HAL_RCC_ClockConfig+0x108>
      return HAL_ERROR;
    }
 }

  /*-------------------------- PCLK1 Configuration ---------------------------*/
  if(((RCC_ClkInitStruct->ClockType) & RCC_CLOCKTYPE_PCLK1) == RCC_CLOCKTYPE_PCLK1)
 80045da:	6820      	ldr	r0, [r4, #0]
 80045dc:	0743      	lsls	r3, r0, #29
 80045de:	d475      	bmi.n	80046cc <HAL_RCC_ClockConfig+0x118>
    assert_param(IS_RCC_PCLK(RCC_ClkInitStruct->APB1CLKDivider));
    MODIFY_REG(RCC->CFGR, RCC_CFGR_PPRE1, RCC_ClkInitStruct->APB1CLKDivider);
  }

  /*-------------------------- PCLK2 Configuration ---------------------------*/
  if(((RCC_ClkInitStruct->ClockType) & RCC_CLOCKTYPE_PCLK2) == RCC_CLOCKTYPE_PCLK2)
 80045e0:	f010 0008 	ands.w	r0, r0, #8
 80045e4:	d011      	beq.n	800460a <HAL_RCC_ClockConfig+0x56>
  {
    assert_param(IS_RCC_PCLK(RCC_ClkInitStruct->APB2CLKDivider));
    MODIFY_REG(RCC->CFGR, RCC_CFGR_PPRE2, ((RCC_ClkInitStruct->APB2CLKDivider) << 3U));
 80045e6:	4a3e      	ldr	r2, [pc, #248]	; (80046e0 <HAL_RCC_ClockConfig+0x12c>)
 80045e8:	6921      	ldr	r1, [r4, #16]
 80045ea:	6893      	ldr	r3, [r2, #8]
 80045ec:	f423 4360 	bic.w	r3, r3, #57344	; 0xe000
 80045f0:	ea43 03c1 	orr.w	r3, r3, r1, lsl #3
 80045f4:	6093      	str	r3, [r2, #8]
  //SystemCoreClock = HAL_RCC_GetSysClockFreq() >> AHBPrescTable[(RCC->CFGR & RCC_CFGR_HPRE)>> POSITION_VAL(RCC_CFGR_HPRE)];

  /* Configure the source of time base considering new system clocks settings*/
  //HAL_InitTick (TICK_INT_PRIORITY);

  return HAL_OK;
 80045f6:	2000      	movs	r0, #0
 80045f8:	e007      	b.n	800460a <HAL_RCC_ClockConfig+0x56>
    __HAL_FLASH_SET_LATENCY(FLatency);
 80045fa:	b2ca      	uxtb	r2, r1
 80045fc:	701a      	strb	r2, [r3, #0]
    if((FLASH->ACR & FLASH_ACR_LATENCY) != FLatency)
 80045fe:	681b      	ldr	r3, [r3, #0]
 8004600:	f003 030f 	and.w	r3, r3, #15
 8004604:	428b      	cmp	r3, r1
 8004606:	d0dd      	beq.n	80045c4 <HAL_RCC_ClockConfig+0x10>
      return HAL_ERROR;
 8004608:	2001      	movs	r0, #1
}
 800460a:	bdf8      	pop	{r3, r4, r5, r6, r7, pc}
    MODIFY_REG(RCC->CFGR, RCC_CFGR_HPRE, RCC_ClkInitStruct->AHBCLKDivider);
 800460c:	4834      	ldr	r0, [pc, #208]	; (80046e0 <HAL_RCC_ClockConfig+0x12c>)
 800460e:	68a5      	ldr	r5, [r4, #8]
 8004610:	6883      	ldr	r3, [r0, #8]
 8004612:	f023 03f0 	bic.w	r3, r3, #240	; 0xf0
 8004616:	432b      	orrs	r3, r5
 8004618:	6083      	str	r3, [r0, #8]
 800461a:	e7d6      	b.n	80045ca <HAL_RCC_ClockConfig+0x16>
    if(RCC_ClkInitStruct->SYSCLKSource == RCC_SYSCLKSOURCE_HSE)
 800461c:	6862      	ldr	r2, [r4, #4]
 800461e:	4b30      	ldr	r3, [pc, #192]	; (80046e0 <HAL_RCC_ClockConfig+0x12c>)
 8004620:	2a01      	cmp	r2, #1
 8004622:	d11d      	bne.n	8004660 <HAL_RCC_ClockConfig+0xac>
      if(__HAL_RCC_GET_FLAG(RCC_FLAG_HSERDY) == RESET)
 8004624:	681b      	ldr	r3, [r3, #0]
 8004626:	f413 3f00 	tst.w	r3, #131072	; 0x20000
      if(__HAL_RCC_GET_FLAG(RCC_FLAG_HSIRDY) == RESET)
 800462a:	d0ed      	beq.n	8004608 <HAL_RCC_ClockConfig+0x54>
    __HAL_RCC_SYSCLK_CONFIG(RCC_ClkInitStruct->SYSCLKSource);
 800462c:	4d2c      	ldr	r5, [pc, #176]	; (80046e0 <HAL_RCC_ClockConfig+0x12c>)
 800462e:	68ab      	ldr	r3, [r5, #8]
 8004630:	f023 0303 	bic.w	r3, r3, #3
 8004634:	4313      	orrs	r3, r2
 8004636:	60ab      	str	r3, [r5, #8]
    tickstart = HAL_GetTick();
 8004638:	f7ff fe14 	bl	8004264 <HAL_GetTick>
    if(RCC_ClkInitStruct->SYSCLKSource == RCC_SYSCLKSOURCE_HSE)
 800463c:	6863      	ldr	r3, [r4, #4]
 800463e:	2b01      	cmp	r3, #1
    tickstart = HAL_GetTick();
 8004640:	4606      	mov	r6, r0
        if((HAL_GetTick() - tickstart ) > CLOCKSWITCH_TIMEOUT_VALUE)
 8004642:	f241 3788 	movw	r7, #5000	; 0x1388
    if(RCC_ClkInitStruct->SYSCLKSource == RCC_SYSCLKSOURCE_HSE)
 8004646:	d115      	bne.n	8004674 <HAL_RCC_ClockConfig+0xc0>
      while (__HAL_RCC_GET_SYSCLK_SOURCE() != RCC_SYSCLKSOURCE_STATUS_HSE)
 8004648:	68ab      	ldr	r3, [r5, #8]
 800464a:	f003 030c 	and.w	r3, r3, #12
 800464e:	2b04      	cmp	r3, #4
 8004650:	d0bd      	beq.n	80045ce <HAL_RCC_ClockConfig+0x1a>
        if((HAL_GetTick() - tickstart ) > CLOCKSWITCH_TIMEOUT_VALUE)
 8004652:	f7ff fe07 	bl	8004264 <HAL_GetTick>
 8004656:	1b80      	subs	r0, r0, r6
 8004658:	42b8      	cmp	r0, r7
 800465a:	d9f5      	bls.n	8004648 <HAL_RCC_ClockConfig+0x94>
          return HAL_TIMEOUT;
 800465c:	2003      	movs	r0, #3
 800465e:	e7d4      	b.n	800460a <HAL_RCC_ClockConfig+0x56>
    else if((RCC_ClkInitStruct->SYSCLKSource == RCC_SYSCLKSOURCE_PLLCLK)   ||
 8004660:	1e90      	subs	r0, r2, #2
 8004662:	2801      	cmp	r0, #1
      if(__HAL_RCC_GET_FLAG(RCC_FLAG_PLLRDY) == RESET)
 8004664:	681b      	ldr	r3, [r3, #0]
    else if((RCC_ClkInitStruct->SYSCLKSource == RCC_SYSCLKSOURCE_PLLCLK)   ||
 8004666:	d802      	bhi.n	800466e <HAL_RCC_ClockConfig+0xba>
      if(__HAL_RCC_GET_FLAG(RCC_FLAG_PLLRDY) == RESET)
 8004668:	f013 7f00 	tst.w	r3, #33554432	; 0x2000000
 800466c:	e7dd      	b.n	800462a <HAL_RCC_ClockConfig+0x76>
      if(__HAL_RCC_GET_FLAG(RCC_FLAG_HSIRDY) == RESET)
 800466e:	f013 0f02 	tst.w	r3, #2
 8004672:	e7da      	b.n	800462a <HAL_RCC_ClockConfig+0x76>
    else if(RCC_ClkInitStruct->SYSCLKSource == RCC_SYSCLKSOURCE_PLLCLK)
 8004674:	2b02      	cmp	r3, #2
 8004676:	d10a      	bne.n	800468e <HAL_RCC_ClockConfig+0xda>
      while (__HAL_RCC_GET_SYSCLK_SOURCE() != RCC_SYSCLKSOURCE_STATUS_PLLCLK)
 8004678:	68ab      	ldr	r3, [r5, #8]
 800467a:	f003 030c 	and.w	r3, r3, #12
 800467e:	2b08      	cmp	r3, #8
 8004680:	d0a5      	beq.n	80045ce <HAL_RCC_ClockConfig+0x1a>
        if((HAL_GetTick() - tickstart ) > CLOCKSWITCH_TIMEOUT_VALUE)
 8004682:	f7ff fdef 	bl	8004264 <HAL_GetTick>
 8004686:	1b80      	subs	r0, r0, r6
 8004688:	42b8      	cmp	r0, r7
 800468a:	d9f5      	bls.n	8004678 <HAL_RCC_ClockConfig+0xc4>
 800468c:	e7e6      	b.n	800465c <HAL_RCC_ClockConfig+0xa8>
    else if(RCC_ClkInitStruct->SYSCLKSource == RCC_SYSCLKSOURCE_PLLRCLK)
 800468e:	2b03      	cmp	r3, #3
 8004690:	d10f      	bne.n	80046b2 <HAL_RCC_ClockConfig+0xfe>
      while (__HAL_RCC_GET_SYSCLK_SOURCE() != RCC_SYSCLKSOURCE_STATUS_PLLRCLK)
 8004692:	68ab      	ldr	r3, [r5, #8]
 8004694:	f003 030c 	and.w	r3, r3, #12
 8004698:	2b0c      	cmp	r3, #12
 800469a:	d098      	beq.n	80045ce <HAL_RCC_ClockConfig+0x1a>
        if((HAL_GetTick() - tickstart ) > CLOCKSWITCH_TIMEOUT_VALUE)
 800469c:	f7ff fde2 	bl	8004264 <HAL_GetTick>
 80046a0:	1b80      	subs	r0, r0, r6
 80046a2:	42b8      	cmp	r0, r7
 80046a4:	d9f5      	bls.n	8004692 <HAL_RCC_ClockConfig+0xde>
 80046a6:	e7d9      	b.n	800465c <HAL_RCC_ClockConfig+0xa8>
        if((HAL_GetTick() - tickstart ) > CLOCKSWITCH_TIMEOUT_VALUE)
 80046a8:	f7ff fddc 	bl	8004264 <HAL_GetTick>
 80046ac:	1b80      	subs	r0, r0, r6
 80046ae:	42b8      	cmp	r0, r7
 80046b0:	d8d4      	bhi.n	800465c <HAL_RCC_ClockConfig+0xa8>
      while(__HAL_RCC_GET_SYSCLK_SOURCE() != RCC_SYSCLKSOURCE_STATUS_HSI)
 80046b2:	68ab      	ldr	r3, [r5, #8]
 80046b4:	f013 0f0c 	tst.w	r3, #12
 80046b8:	d1f6      	bne.n	80046a8 <HAL_RCC_ClockConfig+0xf4>
 80046ba:	e788      	b.n	80045ce <HAL_RCC_ClockConfig+0x1a>
    __HAL_FLASH_SET_LATENCY(FLatency);
 80046bc:	b2ca      	uxtb	r2, r1
 80046be:	701a      	strb	r2, [r3, #0]
    if((FLASH->ACR & FLASH_ACR_LATENCY) != FLatency)
 80046c0:	681b      	ldr	r3, [r3, #0]
 80046c2:	f003 030f 	and.w	r3, r3, #15
 80046c6:	428b      	cmp	r3, r1
 80046c8:	d19e      	bne.n	8004608 <HAL_RCC_ClockConfig+0x54>
 80046ca:	e786      	b.n	80045da <HAL_RCC_ClockConfig+0x26>
    MODIFY_REG(RCC->CFGR, RCC_CFGR_PPRE1, RCC_ClkInitStruct->APB1CLKDivider);
 80046cc:	4904      	ldr	r1, [pc, #16]	; (80046e0 <HAL_RCC_ClockConfig+0x12c>)
 80046ce:	68e3      	ldr	r3, [r4, #12]
 80046d0:	688a      	ldr	r2, [r1, #8]
 80046d2:	f422 52e0 	bic.w	r2, r2, #7168	; 0x1c00
 80046d6:	431a      	orrs	r2, r3
 80046d8:	608a      	str	r2, [r1, #8]
 80046da:	e781      	b.n	80045e0 <HAL_RCC_ClockConfig+0x2c>
 80046dc:	40023c00 	.word	0x40023c00
 80046e0:	40023800 	.word	0x40023800

080046e4 <HAL_GPIO_Init>:
  * @param  GPIO_Init: pointer to a GPIO_InitTypeDef structure that contains
  *         the configuration information for the specified GPIO peripheral.
  * @retval None
  */
void HAL_GPIO_Init(GPIO_TypeDef  *GPIOx, GPIO_InitTypeDef *GPIO_Init)
{
 80046e4:	e92d 4ff7 	stmdb	sp!, {r0, r1, r2, r4, r5, r6, r7, r8, r9, sl, fp, lr}
      /*--------------------- EXTI Mode Configuration ------------------------*/
      /* Configure the External Interrupt or event for the current IO */
      if((GPIO_Init->Mode & EXTI_MODE) == EXTI_MODE)
      {
        /* Enable SYSCFG Clock */
        __HAL_RCC_SYSCFG_CLK_ENABLE();
 80046e8:	f8df 81b4 	ldr.w	r8, [pc, #436]	; 80048a0 <HAL_GPIO_Init+0x1bc>
        temp &= ~(0x0FU << (4U * (position & 0x03U)));
        temp |= ((uint32_t)(GPIO_GET_INDEX(GPIOx)) << (4U * (position & 0x03U)));
        SYSCFG->EXTICR[position >> 2U] = temp;

        /* Clear EXTI line configuration */
        temp = EXTI->IMR;
 80046ec:	4a6d      	ldr	r2, [pc, #436]	; (80048a4 <HAL_GPIO_Init+0x1c0>)
        temp |= ((uint32_t)(GPIO_GET_INDEX(GPIOx)) << (4U * (position & 0x03U)));
 80046ee:	f8df 91b8 	ldr.w	r9, [pc, #440]	; 80048a8 <HAL_GPIO_Init+0x1c4>
  for(position = 0U; position < GPIO_NUMBER; position++)
 80046f2:	2300      	movs	r3, #0
    iocurrent = (uint32_t)(GPIO_Init->Pin) & ioposition;
 80046f4:	680c      	ldr	r4, [r1, #0]
    ioposition = 0x01U << position;
 80046f6:	2701      	movs	r7, #1
 80046f8:	409f      	lsls	r7, r3
    iocurrent = (uint32_t)(GPIO_Init->Pin) & ioposition;
 80046fa:	ea07 0504 	and.w	r5, r7, r4
    if(iocurrent == ioposition)
 80046fe:	ea37 0404 	bics.w	r4, r7, r4
 8004702:	f040 80b9 	bne.w	8004878 <HAL_GPIO_Init+0x194>
      if((GPIO_Init->Mode == GPIO_MODE_AF_PP) || (GPIO_Init->Mode == GPIO_MODE_AF_OD))
 8004706:	684c      	ldr	r4, [r1, #4]
 8004708:	f024 0a10 	bic.w	sl, r4, #16
 800470c:	f1ba 0f02 	cmp.w	sl, #2
 8004710:	d116      	bne.n	8004740 <HAL_GPIO_Init+0x5c>
        temp = GPIOx->AFR[position >> 3U];
 8004712:	ea4f 0ed3 	mov.w	lr, r3, lsr #3
 8004716:	eb00 0e8e 	add.w	lr, r0, lr, lsl #2
        temp &= ~(0xFU << ((uint32_t)(position & 0x07U) * 4U)) ;
 800471a:	f003 0b07 	and.w	fp, r3, #7
        temp = GPIOx->AFR[position >> 3U];
 800471e:	f8de 6020 	ldr.w	r6, [lr, #32]
        temp &= ~(0xFU << ((uint32_t)(position & 0x07U) * 4U)) ;
 8004722:	ea4f 0b8b 	mov.w	fp, fp, lsl #2
 8004726:	f04f 0c0f 	mov.w	ip, #15
 800472a:	fa0c fc0b 	lsl.w	ip, ip, fp
 800472e:	ea26 0c0c 	bic.w	ip, r6, ip
        temp |= ((uint32_t)(GPIO_Init->Alternate) << (((uint32_t)position & 0x07U) * 4U));
 8004732:	690e      	ldr	r6, [r1, #16]
 8004734:	fa06 f60b 	lsl.w	r6, r6, fp
 8004738:	ea46 060c 	orr.w	r6, r6, ip
        GPIOx->AFR[position >> 3U] = temp;
 800473c:	f8ce 6020 	str.w	r6, [lr, #32]
      temp = GPIOx->MODER;
 8004740:	f8d0 b000 	ldr.w	fp, [r0]
      temp &= ~(GPIO_MODER_MODER0 << (position * 2U));
 8004744:	ea4f 0e43 	mov.w	lr, r3, lsl #1
 8004748:	f04f 0c03 	mov.w	ip, #3
 800474c:	fa0c fc0e 	lsl.w	ip, ip, lr
 8004750:	ea2b 0b0c 	bic.w	fp, fp, ip
 8004754:	ea6f 060c 	mvn.w	r6, ip
      temp |= ((GPIO_Init->Mode & GPIO_MODE) << (position * 2U));
 8004758:	f004 0c03 	and.w	ip, r4, #3
 800475c:	fa0c fc0e 	lsl.w	ip, ip, lr
      if((GPIO_Init->Mode == GPIO_MODE_OUTPUT_PP) || (GPIO_Init->Mode == GPIO_MODE_AF_PP) ||
 8004760:	f10a 3aff 	add.w	sl, sl, #4294967295
      temp |= ((GPIO_Init->Mode & GPIO_MODE) << (position * 2U));
 8004764:	ea4c 0c0b 	orr.w	ip, ip, fp
      if((GPIO_Init->Mode == GPIO_MODE_OUTPUT_PP) || (GPIO_Init->Mode == GPIO_MODE_AF_PP) ||
 8004768:	f1ba 0f01 	cmp.w	sl, #1
      GPIOx->MODER = temp;
 800476c:	f8c0 c000 	str.w	ip, [r0]
      if((GPIO_Init->Mode == GPIO_MODE_OUTPUT_PP) || (GPIO_Init->Mode == GPIO_MODE_AF_PP) ||
 8004770:	d816      	bhi.n	80047a0 <HAL_GPIO_Init+0xbc>
        temp = GPIOx->OSPEEDR;
 8004772:	f8d0 c008 	ldr.w	ip, [r0, #8]
        temp |= (GPIO_Init->Speed << (position * 2U));
 8004776:	f8d1 a00c 	ldr.w	sl, [r1, #12]
        temp &= ~(GPIO_OSPEEDER_OSPEEDR0 << (position * 2U));
 800477a:	ea06 0c0c 	and.w	ip, r6, ip
        temp |= (GPIO_Init->Speed << (position * 2U));
 800477e:	fa0a fa0e 	lsl.w	sl, sl, lr
 8004782:	ea4a 0c0c 	orr.w	ip, sl, ip
        GPIOx->OSPEEDR = temp;
 8004786:	f8c0 c008 	str.w	ip, [r0, #8]
        temp = GPIOx->OTYPER;
 800478a:	f8d0 c004 	ldr.w	ip, [r0, #4]
        temp &= ~(GPIO_OTYPER_OT_0 << position) ;
 800478e:	ea2c 0707 	bic.w	r7, ip, r7
        temp |= (((GPIO_Init->Mode & GPIO_OUTPUT_TYPE) >> 4U) << position);
 8004792:	f3c4 1c00 	ubfx	ip, r4, #4, #1
 8004796:	fa0c fc03 	lsl.w	ip, ip, r3
 800479a:	ea4c 0707 	orr.w	r7, ip, r7
        GPIOx->OTYPER = temp;
 800479e:	6047      	str	r7, [r0, #4]
      temp = GPIOx->PUPDR;
 80047a0:	68c7      	ldr	r7, [r0, #12]
      temp &= ~(GPIO_PUPDR_PUPDR0 << (position * 2U));
 80047a2:	4037      	ands	r7, r6
      temp |= ((GPIO_Init->Pull) << (position * 2U));
 80047a4:	688e      	ldr	r6, [r1, #8]
 80047a6:	fa06 f60e 	lsl.w	r6, r6, lr
 80047aa:	433e      	orrs	r6, r7
      GPIOx->PUPDR = temp;
 80047ac:	60c6      	str	r6, [r0, #12]
      if((GPIO_Init->Mode & EXTI_MODE) == EXTI_MODE)
 80047ae:	00e6      	lsls	r6, r4, #3
 80047b0:	d562      	bpl.n	8004878 <HAL_GPIO_Init+0x194>
        __HAL_RCC_SYSCFG_CLK_ENABLE();
 80047b2:	2600      	movs	r6, #0
 80047b4:	9601      	str	r6, [sp, #4]
 80047b6:	f8d8 7044 	ldr.w	r7, [r8, #68]	; 0x44
 80047ba:	f447 4780 	orr.w	r7, r7, #16384	; 0x4000
 80047be:	f8c8 7044 	str.w	r7, [r8, #68]	; 0x44
 80047c2:	f8d8 7044 	ldr.w	r7, [r8, #68]	; 0x44
 80047c6:	f407 4780 	and.w	r7, r7, #16384	; 0x4000
 80047ca:	9701      	str	r7, [sp, #4]
 80047cc:	9f01      	ldr	r7, [sp, #4]
        temp = SYSCFG->EXTICR[position >> 2U];
 80047ce:	f023 0703 	bic.w	r7, r3, #3
 80047d2:	f107 4780 	add.w	r7, r7, #1073741824	; 0x40000000
 80047d6:	f507 379c 	add.w	r7, r7, #79872	; 0x13800
        temp &= ~(0x0FU << (4U * (position & 0x03U)));
 80047da:	f003 0e03 	and.w	lr, r3, #3
        temp = SYSCFG->EXTICR[position >> 2U];
 80047de:	f8d7 a008 	ldr.w	sl, [r7, #8]
        temp &= ~(0x0FU << (4U * (position & 0x03U)));
 80047e2:	ea4f 0e8e 	mov.w	lr, lr, lsl #2
 80047e6:	f04f 0c0f 	mov.w	ip, #15
 80047ea:	fa0c fc0e 	lsl.w	ip, ip, lr
 80047ee:	ea2a 0c0c 	bic.w	ip, sl, ip
        temp |= ((uint32_t)(GPIO_GET_INDEX(GPIOx)) << (4U * (position & 0x03U)));
 80047f2:	f8df a0b8 	ldr.w	sl, [pc, #184]	; 80048ac <HAL_GPIO_Init+0x1c8>
 80047f6:	4550      	cmp	r0, sl
 80047f8:	d01d      	beq.n	8004836 <HAL_GPIO_Init+0x152>
 80047fa:	f106 4680 	add.w	r6, r6, #1073741824	; 0x40000000
 80047fe:	f506 3601 	add.w	r6, r6, #132096	; 0x20400
 8004802:	42b0      	cmp	r0, r6
 8004804:	d03f      	beq.n	8004886 <HAL_GPIO_Init+0x1a2>
 8004806:	f506 6680 	add.w	r6, r6, #1024	; 0x400
 800480a:	42b0      	cmp	r0, r6
 800480c:	d03d      	beq.n	800488a <HAL_GPIO_Init+0x1a6>
 800480e:	f506 6680 	add.w	r6, r6, #1024	; 0x400
 8004812:	42b0      	cmp	r0, r6
 8004814:	d03b      	beq.n	800488e <HAL_GPIO_Init+0x1aa>
 8004816:	f506 6680 	add.w	r6, r6, #1024	; 0x400
 800481a:	42b0      	cmp	r0, r6
 800481c:	d039      	beq.n	8004892 <HAL_GPIO_Init+0x1ae>
 800481e:	4548      	cmp	r0, r9
 8004820:	d039      	beq.n	8004896 <HAL_GPIO_Init+0x1b2>
 8004822:	f506 6600 	add.w	r6, r6, #2048	; 0x800
 8004826:	42b0      	cmp	r0, r6
 8004828:	d037      	beq.n	800489a <HAL_GPIO_Init+0x1b6>
 800482a:	f506 6680 	add.w	r6, r6, #1024	; 0x400
 800482e:	42b0      	cmp	r0, r6
 8004830:	bf0c      	ite	eq
 8004832:	2607      	moveq	r6, #7
 8004834:	2608      	movne	r6, #8
 8004836:	fa06 f60e 	lsl.w	r6, r6, lr
 800483a:	ea46 060c 	orr.w	r6, r6, ip
        SYSCFG->EXTICR[position >> 2U] = temp;
 800483e:	60be      	str	r6, [r7, #8]
        temp = EXTI->IMR;
 8004840:	6816      	ldr	r6, [r2, #0]
        temp &= ~((uint32_t)iocurrent);
 8004842:	43ef      	mvns	r7, r5
        if((GPIO_Init->Mode & GPIO_MODE_IT) == GPIO_MODE_IT)
 8004844:	f414 3f80 	tst.w	r4, #65536	; 0x10000
        temp &= ~((uint32_t)iocurrent);
 8004848:	bf0c      	ite	eq
 800484a:	403e      	andeq	r6, r7
        {
          temp |= iocurrent;
 800484c:	432e      	orrne	r6, r5
        }
        EXTI->IMR = temp;
 800484e:	6016      	str	r6, [r2, #0]

        temp = EXTI->EMR;
 8004850:	6856      	ldr	r6, [r2, #4]
        temp &= ~((uint32_t)iocurrent);
        if((GPIO_Init->Mode & GPIO_MODE_EVT) == GPIO_MODE_EVT)
 8004852:	f414 3f00 	tst.w	r4, #131072	; 0x20000
        temp &= ~((uint32_t)iocurrent);
 8004856:	bf0c      	ite	eq
 8004858:	403e      	andeq	r6, r7
        {
          temp |= iocurrent;
 800485a:	432e      	orrne	r6, r5
        }
        EXTI->EMR = temp;
 800485c:	6056      	str	r6, [r2, #4]

        /* Clear Rising Falling edge configuration */
        temp = EXTI->RTSR;
 800485e:	6896      	ldr	r6, [r2, #8]
        temp &= ~((uint32_t)iocurrent);
        if((GPIO_Init->Mode & RISING_EDGE) == RISING_EDGE)
 8004860:	f414 1f80 	tst.w	r4, #1048576	; 0x100000
        temp &= ~((uint32_t)iocurrent);
 8004864:	bf0c      	ite	eq
 8004866:	403e      	andeq	r6, r7
        {
          temp |= iocurrent;
 8004868:	432e      	orrne	r6, r5
        }
        EXTI->RTSR = temp;
 800486a:	6096      	str	r6, [r2, #8]

        temp = EXTI->FTSR;
 800486c:	68d6      	ldr	r6, [r2, #12]
        temp &= ~((uint32_t)iocurrent);
        if((GPIO_Init->Mode & FALLING_EDGE) == FALLING_EDGE)
 800486e:	02a4      	lsls	r4, r4, #10
        temp &= ~((uint32_t)iocurrent);
 8004870:	bf54      	ite	pl
 8004872:	403e      	andpl	r6, r7
        {
          temp |= iocurrent;
 8004874:	432e      	orrmi	r6, r5
        }
        EXTI->FTSR = temp;
 8004876:	60d6      	str	r6, [r2, #12]
  for(position = 0U; position < GPIO_NUMBER; position++)
 8004878:	3301      	adds	r3, #1
 800487a:	2b10      	cmp	r3, #16
 800487c:	f47f af3a 	bne.w	80046f4 <HAL_GPIO_Init+0x10>
      }
    }
  }
}
 8004880:	b003      	add	sp, #12
 8004882:	e8bd 8ff0 	ldmia.w	sp!, {r4, r5, r6, r7, r8, r9, sl, fp, pc}
        temp |= ((uint32_t)(GPIO_GET_INDEX(GPIOx)) << (4U * (position & 0x03U)));
 8004886:	2601      	movs	r6, #1
 8004888:	e7d5      	b.n	8004836 <HAL_GPIO_Init+0x152>
 800488a:	2602      	movs	r6, #2
 800488c:	e7d3      	b.n	8004836 <HAL_GPIO_Init+0x152>
 800488e:	2603      	movs	r6, #3
 8004890:	e7d1      	b.n	8004836 <HAL_GPIO_Init+0x152>
 8004892:	2604      	movs	r6, #4
 8004894:	e7cf      	b.n	8004836 <HAL_GPIO_Init+0x152>
 8004896:	2605      	movs	r6, #5
 8004898:	e7cd      	b.n	8004836 <HAL_GPIO_Init+0x152>
 800489a:	2606      	movs	r6, #6
 800489c:	e7cb      	b.n	8004836 <HAL_GPIO_Init+0x152>
 800489e:	bf00      	nop
 80048a0:	40023800 	.word	0x40023800
 80048a4:	40013c00 	.word	0x40013c00
 80048a8:	40021400 	.word	0x40021400
 80048ac:	40020000 	.word	0x40020000

080048b0 <HAL_GPIO_WritePin>:
{
  /* Check the parameters */
  assert_param(IS_GPIO_PIN(GPIO_Pin));
  assert_param(IS_GPIO_PIN_ACTION(PinState));

  if(PinState != GPIO_PIN_RESET)
 80048b0:	b10a      	cbz	r2, 80048b6 <HAL_GPIO_WritePin+0x6>
  {
    GPIOx->BSRR = GPIO_Pin;
  }
  else
  {
    GPIOx->BSRR = (uint32_t)GPIO_Pin << 16U;
 80048b2:	6181      	str	r1, [r0, #24]
  }
}
 80048b4:	4770      	bx	lr
    GPIOx->BSRR = (uint32_t)GPIO_Pin << 16U;
 80048b6:	0409      	lsls	r1, r1, #16
 80048b8:	e7fb      	b.n	80048b2 <HAL_GPIO_WritePin+0x2>
 80048ba:	0000      	movs	r0, r0

080048bc <HAL_UART_Init>:
  * @param  huart: pointer to a UART_HandleTypeDef structure that contains
  *                the configuration information for the specified UART module.
  * @retval HAL status
  */
HAL_StatusTypeDef HAL_UART_Init(UART_HandleTypeDef *huart)
{
 80048bc:	b570      	push	{r4, r5, r6, lr}
  /* Check the UART handle allocation */
  if(huart == NULL)
 80048be:	2800      	cmp	r0, #0
 80048c0:	d066      	beq.n	8004990 <HAL_UART_Init+0xd4>
    assert_param(IS_UART_INSTANCE(huart->Instance));
  }
  assert_param(IS_UART_WORD_LENGTH(huart->Init.WordLength));
  assert_param(IS_UART_OVERSAMPLING(huart->Init.OverSampling));

  if(huart->gState == HAL_UART_STATE_RESET)
 80048c2:	f890 3039 	ldrb.w	r3, [r0, #57]	; 0x39
 80048c6:	f003 02ff 	and.w	r2, r3, #255	; 0xff
 80048ca:	b90b      	cbnz	r3, 80048d0 <HAL_UART_Init+0x14>
  {
    /* Allocate lock resource and initialize it */
    huart->Lock = HAL_UNLOCKED;
 80048cc:	f880 2038 	strb.w	r2, [r0, #56]	; 0x38
  }

  huart->gState = HAL_UART_STATE_BUSY;

  /* Disable the peripheral */
  __HAL_UART_DISABLE(huart);
 80048d0:	6801      	ldr	r1, [r0, #0]
  tmpreg |= (uint32_t)huart->Init.StopBits;
 80048d2:	68c2      	ldr	r2, [r0, #12]
  tmpreg |= (uint32_t)huart->Init.WordLength | huart->Init.Parity | huart->Init.Mode | huart->Init.OverSampling;
 80048d4:	6905      	ldr	r5, [r0, #16]
 80048d6:	69c4      	ldr	r4, [r0, #28]
  huart->gState = HAL_UART_STATE_BUSY;
 80048d8:	2324      	movs	r3, #36	; 0x24
 80048da:	f880 3039 	strb.w	r3, [r0, #57]	; 0x39
  __HAL_UART_DISABLE(huart);
 80048de:	68cb      	ldr	r3, [r1, #12]
 80048e0:	f423 5300 	bic.w	r3, r3, #8192	; 0x2000
 80048e4:	60cb      	str	r3, [r1, #12]
  tmpreg = huart->Instance->CR2;
 80048e6:	690b      	ldr	r3, [r1, #16]
  tmpreg &= (uint32_t)~((uint32_t)USART_CR2_STOP);
 80048e8:	f423 5340 	bic.w	r3, r3, #12288	; 0x3000
  tmpreg |= (uint32_t)huart->Init.StopBits;
 80048ec:	4313      	orrs	r3, r2
  WRITE_REG(huart->Instance->CR2, (uint32_t)tmpreg);
 80048ee:	610b      	str	r3, [r1, #16]
  tmpreg |= (uint32_t)huart->Init.WordLength | huart->Init.Parity | huart->Init.Mode | huart->Init.OverSampling;
 80048f0:	6883      	ldr	r3, [r0, #8]
  tmpreg = huart->Instance->CR1;
 80048f2:	68ca      	ldr	r2, [r1, #12]
  tmpreg |= (uint32_t)huart->Init.WordLength | huart->Init.Parity | huart->Init.Mode | huart->Init.OverSampling;
 80048f4:	432b      	orrs	r3, r5
 80048f6:	6945      	ldr	r5, [r0, #20]
  tmpreg &= (uint32_t)~((uint32_t)(USART_CR1_M | USART_CR1_PCE | USART_CR1_PS | USART_CR1_TE | \
 80048f8:	f422 4216 	bic.w	r2, r2, #38400	; 0x9600
  tmpreg |= (uint32_t)huart->Init.WordLength | huart->Init.Parity | huart->Init.Mode | huart->Init.OverSampling;
 80048fc:	432b      	orrs	r3, r5
  tmpreg &= (uint32_t)~((uint32_t)(USART_CR1_M | USART_CR1_PCE | USART_CR1_PS | USART_CR1_TE | \
 80048fe:	f022 020c 	bic.w	r2, r2, #12
  tmpreg |= (uint32_t)huart->Init.WordLength | huart->Init.Parity | huart->Init.Mode | huart->Init.OverSampling;
 8004902:	4323      	orrs	r3, r4
 8004904:	4313      	orrs	r3, r2
  WRITE_REG(huart->Instance->CR1, (uint32_t)tmpreg);
 8004906:	60cb      	str	r3, [r1, #12]
  tmpreg = huart->Instance->CR3;
 8004908:	694b      	ldr	r3, [r1, #20]
  tmpreg |= huart->Init.HwFlowCtl;
 800490a:	6982      	ldr	r2, [r0, #24]
  tmpreg &= (uint32_t)~((uint32_t)(USART_CR3_RTSE | USART_CR3_CTSE));
 800490c:	f423 7340 	bic.w	r3, r3, #768	; 0x300
  tmpreg |= huart->Init.HwFlowCtl;
 8004910:	4313      	orrs	r3, r2
  if(huart->Init.OverSampling == UART_OVERSAMPLING_8)
 8004912:	f5b4 4f00 	cmp.w	r4, #32768	; 0x8000
  WRITE_REG(huart->Instance->CR3, (uint32_t)tmpreg);
 8004916:	614b      	str	r3, [r1, #20]
  if(huart->Init.OverSampling == UART_OVERSAMPLING_8)
 8004918:	4a1e      	ldr	r2, [pc, #120]	; (8004994 <HAL_UART_Init+0xd8>)
      huart->Instance->BRR = UART_BRR_SAMPLING8(HAL_RCC_GetPCLK1Freq(), huart->Init.BaudRate);
 800491a:	6843      	ldr	r3, [r0, #4]
 800491c:	f04f 0564 	mov.w	r5, #100	; 0x64
  if(huart->Init.OverSampling == UART_OVERSAMPLING_8)
 8004920:	d128      	bne.n	8004974 <HAL_UART_Init+0xb8>
      huart->Instance->BRR = UART_BRR_SAMPLING8(HAL_RCC_GetPCLK1Freq(), huart->Init.BaudRate);
 8004922:	005b      	lsls	r3, r3, #1
 8004924:	fbb2 f2f3 	udiv	r2, r2, r3
 8004928:	fbb2 f6f5 	udiv	r6, r2, r5
 800492c:	fb05 2216 	mls	r2, r5, r6, r2
 8004930:	00d3      	lsls	r3, r2, #3
 8004932:	3332      	adds	r3, #50	; 0x32
 8004934:	fbb3 f3f5 	udiv	r3, r3, r5
 8004938:	f003 0207 	and.w	r2, r3, #7
 800493c:	005b      	lsls	r3, r3, #1
 800493e:	eb02 1206 	add.w	r2, r2, r6, lsl #4
 8004942:	f403 73f8 	and.w	r3, r3, #496	; 0x1f0
 8004946:	4413      	add	r3, r2
      huart->Instance->BRR = UART_BRR_SAMPLING16(HAL_RCC_GetPCLK2Freq(), huart->Init.BaudRate);
 8004948:	608b      	str	r3, [r1, #8]
  UART_SetConfig(huart);

  /* In asynchronous mode, the following bits must be kept cleared:
     - LINEN and CLKEN bits in the USART_CR2 register,
     - SCEN, HDSEL and IREN  bits in the USART_CR3 register.*/
  CLEAR_BIT(huart->Instance->CR2, (USART_CR2_LINEN | USART_CR2_CLKEN));
 800494a:	690b      	ldr	r3, [r1, #16]
 800494c:	f423 4390 	bic.w	r3, r3, #18432	; 0x4800
 8004950:	610b      	str	r3, [r1, #16]
  CLEAR_BIT(huart->Instance->CR3, (USART_CR3_SCEN | USART_CR3_HDSEL | USART_CR3_IREN));
 8004952:	694b      	ldr	r3, [r1, #20]
 8004954:	f023 032a 	bic.w	r3, r3, #42	; 0x2a
 8004958:	614b      	str	r3, [r1, #20]

  /* Enable the peripheral */
  __HAL_UART_ENABLE(huart);
 800495a:	68cb      	ldr	r3, [r1, #12]
 800495c:	f443 5300 	orr.w	r3, r3, #8192	; 0x2000
 8004960:	60cb      	str	r3, [r1, #12]

  /* Initialize the UART state */
  huart->ErrorCode = HAL_UART_ERROR_NONE;
  huart->gState= HAL_UART_STATE_READY;
 8004962:	2220      	movs	r2, #32
  huart->ErrorCode = HAL_UART_ERROR_NONE;
 8004964:	2300      	movs	r3, #0
 8004966:	63c3      	str	r3, [r0, #60]	; 0x3c
  huart->gState= HAL_UART_STATE_READY;
 8004968:	f880 2039 	strb.w	r2, [r0, #57]	; 0x39
  huart->RxState= HAL_UART_STATE_READY;
 800496c:	f880 203a 	strb.w	r2, [r0, #58]	; 0x3a

  return HAL_OK;
 8004970:	4618      	mov	r0, r3
}
 8004972:	bd70      	pop	{r4, r5, r6, pc}
      huart->Instance->BRR = UART_BRR_SAMPLING16(HAL_RCC_GetPCLK1Freq(), huart->Init.BaudRate);
 8004974:	009b      	lsls	r3, r3, #2
 8004976:	fbb2 f2f3 	udiv	r2, r2, r3
 800497a:	fbb2 f6f5 	udiv	r6, r2, r5
 800497e:	fb05 2316 	mls	r3, r5, r6, r2
 8004982:	011b      	lsls	r3, r3, #4
 8004984:	3332      	adds	r3, #50	; 0x32
 8004986:	fbb3 f3f5 	udiv	r3, r3, r5
 800498a:	eb03 1306 	add.w	r3, r3, r6, lsl #4
 800498e:	e7db      	b.n	8004948 <HAL_UART_Init+0x8c>
    return HAL_ERROR;
 8004990:	2001      	movs	r0, #1
 8004992:	e7ee      	b.n	8004972 <HAL_UART_Init+0xb6>
 8004994:	0afb6e90 	.word	0x0afb6e90

08004998 <HAL_UART_Transmit>:
{
  uint16_t* tmp;
  //uint32_t tickstart = 0U;

  /* Check that a Tx process is not already ongoing */
  if(huart->gState == HAL_UART_STATE_READY)
 8004998:	f890 3039 	ldrb.w	r3, [r0, #57]	; 0x39
 800499c:	2b20      	cmp	r3, #32
 800499e:	d13e      	bne.n	8004a1e <HAL_UART_Transmit+0x86>
  {
    if((pData == NULL ) || (Size == 0))
 80049a0:	2900      	cmp	r1, #0
 80049a2:	d03a      	beq.n	8004a1a <HAL_UART_Transmit+0x82>
 80049a4:	2a00      	cmp	r2, #0
 80049a6:	d038      	beq.n	8004a1a <HAL_UART_Transmit+0x82>
    {
      return  HAL_ERROR;
    }

    /* Process Locked */
    __HAL_LOCK(huart);
 80049a8:	f890 3038 	ldrb.w	r3, [r0, #56]	; 0x38
 80049ac:	2b01      	cmp	r3, #1
 80049ae:	d036      	beq.n	8004a1e <HAL_UART_Transmit+0x86>
 80049b0:	2301      	movs	r3, #1
 80049b2:	f880 3038 	strb.w	r3, [r0, #56]	; 0x38

    huart->ErrorCode = HAL_UART_ERROR_NONE;
 80049b6:	2300      	movs	r3, #0
 80049b8:	63c3      	str	r3, [r0, #60]	; 0x3c
    huart->gState = HAL_UART_STATE_BUSY_TX;
 80049ba:	2321      	movs	r3, #33	; 0x21
 80049bc:	f880 3039 	strb.w	r3, [r0, #57]	; 0x39
  while((__HAL_UART_GET_FLAG(huart, Flag) ? SET : RESET) == Status);
 80049c0:	6803      	ldr	r3, [r0, #0]

    /* Init tickstart for timeout managment */
    //tickstart = HAL_GetTick();

    huart->TxXferSize = Size;
 80049c2:	8482      	strh	r2, [r0, #36]	; 0x24
    huart->TxXferCount = Size;
 80049c4:	84c2      	strh	r2, [r0, #38]	; 0x26
    while(huart->TxXferCount > 0U)
 80049c6:	8cc2      	ldrh	r2, [r0, #38]	; 0x26
 80049c8:	b292      	uxth	r2, r2
 80049ca:	b952      	cbnz	r2, 80049e2 <HAL_UART_Transmit+0x4a>
  while((__HAL_UART_GET_FLAG(huart, Flag) ? SET : RESET) == Status);
 80049cc:	681a      	ldr	r2, [r3, #0]
 80049ce:	0652      	lsls	r2, r2, #25
 80049d0:	d5fc      	bpl.n	80049cc <HAL_UART_Transmit+0x34>
    {
      return HAL_TIMEOUT;
    }

    /* At end of Tx process, restore huart->gState to Ready */
      huart->gState = HAL_UART_STATE_READY;
 80049d2:	2320      	movs	r3, #32
 80049d4:	f880 3039 	strb.w	r3, [r0, #57]	; 0x39

    /* Process Unlocked */
    __HAL_UNLOCK(huart);
 80049d8:	2300      	movs	r3, #0
 80049da:	f880 3038 	strb.w	r3, [r0, #56]	; 0x38

    return HAL_OK;
 80049de:	4618      	mov	r0, r3
 80049e0:	4770      	bx	lr
      huart->TxXferCount--;
 80049e2:	8cc2      	ldrh	r2, [r0, #38]	; 0x26
 80049e4:	3a01      	subs	r2, #1
 80049e6:	b292      	uxth	r2, r2
 80049e8:	84c2      	strh	r2, [r0, #38]	; 0x26
      if(huart->Init.WordLength == UART_WORDLENGTH_9B)
 80049ea:	6882      	ldr	r2, [r0, #8]
 80049ec:	f5b2 5f80 	cmp.w	r2, #4096	; 0x1000
 80049f0:	d10c      	bne.n	8004a0c <HAL_UART_Transmit+0x74>
  while((__HAL_UART_GET_FLAG(huart, Flag) ? SET : RESET) == Status);
 80049f2:	681a      	ldr	r2, [r3, #0]
 80049f4:	0612      	lsls	r2, r2, #24
 80049f6:	d5fc      	bpl.n	80049f2 <HAL_UART_Transmit+0x5a>
        huart->Instance->DR = (*tmp & (uint16_t)0x01FF);
 80049f8:	880a      	ldrh	r2, [r1, #0]
 80049fa:	f3c2 0208 	ubfx	r2, r2, #0, #9
 80049fe:	605a      	str	r2, [r3, #4]
        if(huart->Init.Parity == UART_PARITY_NONE)
 8004a00:	6902      	ldr	r2, [r0, #16]
 8004a02:	b90a      	cbnz	r2, 8004a08 <HAL_UART_Transmit+0x70>
          pData +=2U;
 8004a04:	3102      	adds	r1, #2
 8004a06:	e7de      	b.n	80049c6 <HAL_UART_Transmit+0x2e>
          pData +=1U;
 8004a08:	3101      	adds	r1, #1
 8004a0a:	e7dc      	b.n	80049c6 <HAL_UART_Transmit+0x2e>
  while((__HAL_UART_GET_FLAG(huart, Flag) ? SET : RESET) == Status);
 8004a0c:	681a      	ldr	r2, [r3, #0]
 8004a0e:	0612      	lsls	r2, r2, #24
 8004a10:	d5fc      	bpl.n	8004a0c <HAL_UART_Transmit+0x74>
        huart->Instance->DR = (*pData++ & (uint8_t)0xFF);
 8004a12:	f811 2b01 	ldrb.w	r2, [r1], #1
 8004a16:	605a      	str	r2, [r3, #4]
 8004a18:	e7d5      	b.n	80049c6 <HAL_UART_Transmit+0x2e>
      return  HAL_ERROR;
 8004a1a:	2001      	movs	r0, #1
 8004a1c:	4770      	bx	lr
  }
  else
  {
    return HAL_BUSY;
 8004a1e:	2002      	movs	r0, #2
  }
}
 8004a20:	4770      	bx	lr

08004a22 <HAL_UART_Receive>:
  * @param  Size: Amount of data to be received
  * @param  Timeout: Timeout duration
  * @retval HAL status
  */
HAL_StatusTypeDef HAL_UART_Receive(UART_HandleTypeDef *huart, uint8_t *pData, uint16_t Size, uint32_t Timeout)
{
 8004a22:	b510      	push	{r4, lr}
  uint16_t* tmp;
  //uint32_t tickstart = 0U;

  /* Check that a Rx process is not already ongoing */
  if(huart->RxState == HAL_UART_STATE_READY)
 8004a24:	f890 303a 	ldrb.w	r3, [r0, #58]	; 0x3a
 8004a28:	2b20      	cmp	r3, #32
 8004a2a:	d144      	bne.n	8004ab6 <HAL_UART_Receive+0x94>
  {
    if((pData == NULL ) || (Size == 0))
 8004a2c:	2900      	cmp	r1, #0
 8004a2e:	d040      	beq.n	8004ab2 <HAL_UART_Receive+0x90>
 8004a30:	2a00      	cmp	r2, #0
 8004a32:	d03e      	beq.n	8004ab2 <HAL_UART_Receive+0x90>
    {
      return  HAL_ERROR;
    }

    /* Process Locked */
    __HAL_LOCK(huart);
 8004a34:	f890 3038 	ldrb.w	r3, [r0, #56]	; 0x38
 8004a38:	2b01      	cmp	r3, #1
 8004a3a:	d03c      	beq.n	8004ab6 <HAL_UART_Receive+0x94>
 8004a3c:	2301      	movs	r3, #1
 8004a3e:	f880 3038 	strb.w	r3, [r0, #56]	; 0x38

    huart->ErrorCode = HAL_UART_ERROR_NONE;
 8004a42:	2300      	movs	r3, #0
 8004a44:	63c3      	str	r3, [r0, #60]	; 0x3c
    huart->RxState = HAL_UART_STATE_BUSY_RX;
 8004a46:	2322      	movs	r3, #34	; 0x22
 8004a48:	f880 303a 	strb.w	r3, [r0, #58]	; 0x3a

    /* Init tickstart for timeout managment */
    //tickstart = HAL_GetTick();

    huart->RxXferSize = Size;
 8004a4c:	8582      	strh	r2, [r0, #44]	; 0x2c
    huart->RxXferCount = Size;
 8004a4e:	85c2      	strh	r2, [r0, #46]	; 0x2e

    /* Check the remain data to be received */
    while(huart->RxXferCount > 0U)
 8004a50:	8dc3      	ldrh	r3, [r0, #46]	; 0x2e
 8004a52:	b29b      	uxth	r3, r3
 8004a54:	b933      	cbnz	r3, 8004a64 <HAL_UART_Receive+0x42>

      }
    }

    /* At end of Rx process, restore huart->RxState to Ready */
    huart->RxState = HAL_UART_STATE_READY;
 8004a56:	2220      	movs	r2, #32
 8004a58:	f880 203a 	strb.w	r2, [r0, #58]	; 0x3a

    /* Process Unlocked */
    __HAL_UNLOCK(huart);
 8004a5c:	f880 3038 	strb.w	r3, [r0, #56]	; 0x38

    return HAL_OK;
 8004a60:	4618      	mov	r0, r3
  }
  else
  {
    return HAL_BUSY;
  }
}
 8004a62:	bd10      	pop	{r4, pc}
      huart->RxXferCount--;
 8004a64:	8dc3      	ldrh	r3, [r0, #46]	; 0x2e
  while((__HAL_UART_GET_FLAG(huart, Flag) ? SET : RESET) == Status);
 8004a66:	6802      	ldr	r2, [r0, #0]
      huart->RxXferCount--;
 8004a68:	3b01      	subs	r3, #1
 8004a6a:	b29b      	uxth	r3, r3
 8004a6c:	85c3      	strh	r3, [r0, #46]	; 0x2e
      if(huart->Init.WordLength == UART_WORDLENGTH_9B)
 8004a6e:	6883      	ldr	r3, [r0, #8]
 8004a70:	f5b3 5f80 	cmp.w	r3, #4096	; 0x1000
 8004a74:	d111      	bne.n	8004a9a <HAL_UART_Receive+0x78>
  while((__HAL_UART_GET_FLAG(huart, Flag) ? SET : RESET) == Status);
 8004a76:	6813      	ldr	r3, [r2, #0]
 8004a78:	069c      	lsls	r4, r3, #26
 8004a7a:	d5fc      	bpl.n	8004a76 <HAL_UART_Receive+0x54>
        if(huart->Init.Parity == UART_PARITY_NONE)
 8004a7c:	6903      	ldr	r3, [r0, #16]
          *tmp = (uint16_t)(huart->Instance->DR & (uint16_t)0x01FF);
 8004a7e:	6852      	ldr	r2, [r2, #4]
        if(huart->Init.Parity == UART_PARITY_NONE)
 8004a80:	b933      	cbnz	r3, 8004a90 <HAL_UART_Receive+0x6e>
          *tmp = (uint16_t)(huart->Instance->DR & (uint16_t)0x01FF);
 8004a82:	460b      	mov	r3, r1
 8004a84:	f3c2 0208 	ubfx	r2, r2, #0, #9
 8004a88:	f823 2b02 	strh.w	r2, [r3], #2
{
 8004a8c:	4619      	mov	r1, r3
 8004a8e:	e7df      	b.n	8004a50 <HAL_UART_Receive+0x2e>
          *tmp = (uint16_t)(huart->Instance->DR & (uint16_t)0x00FF);
 8004a90:	460b      	mov	r3, r1
 8004a92:	b2d2      	uxtb	r2, r2
 8004a94:	f823 2b01 	strh.w	r2, [r3], #1
          pData +=1U;
 8004a98:	e7f8      	b.n	8004a8c <HAL_UART_Receive+0x6a>
  while((__HAL_UART_GET_FLAG(huart, Flag) ? SET : RESET) == Status);
 8004a9a:	6813      	ldr	r3, [r2, #0]
 8004a9c:	069b      	lsls	r3, r3, #26
 8004a9e:	d5fc      	bpl.n	8004a9a <HAL_UART_Receive+0x78>
        if(huart->Init.Parity == UART_PARITY_NONE)
 8004aa0:	6904      	ldr	r4, [r0, #16]
          *pData++ = (uint8_t)(huart->Instance->DR & (uint8_t)0x00FF);
 8004aa2:	6852      	ldr	r2, [r2, #4]
          pData +=1U;
 8004aa4:	1c4b      	adds	r3, r1, #1
        if(huart->Init.Parity == UART_PARITY_NONE)
 8004aa6:	b90c      	cbnz	r4, 8004aac <HAL_UART_Receive+0x8a>
          *pData++ = (uint8_t)(huart->Instance->DR & (uint8_t)0x007F);
 8004aa8:	700a      	strb	r2, [r1, #0]
 8004aaa:	e7ef      	b.n	8004a8c <HAL_UART_Receive+0x6a>
 8004aac:	f002 027f 	and.w	r2, r2, #127	; 0x7f
 8004ab0:	e7fa      	b.n	8004aa8 <HAL_UART_Receive+0x86>
      return  HAL_ERROR;
 8004ab2:	2001      	movs	r0, #1
 8004ab4:	e7d5      	b.n	8004a62 <HAL_UART_Receive+0x40>
    return HAL_BUSY;
 8004ab6:	2002      	movs	r0, #2
 8004ab8:	e7d3      	b.n	8004a62 <HAL_UART_Receive+0x40>
 8004aba:	0000      	movs	r0, r0

08004abc <_sbrk>:
{
	extern char end asm("end");
	static char *heap_end;
	char *prev_heap_end;

	if (heap_end == 0)
 8004abc:	4a0a      	ldr	r2, [pc, #40]	; (8004ae8 <_sbrk+0x2c>)
 8004abe:	6811      	ldr	r1, [r2, #0]
{
 8004ac0:	b508      	push	{r3, lr}
 8004ac2:	4603      	mov	r3, r0
	if (heap_end == 0)
 8004ac4:	b909      	cbnz	r1, 8004aca <_sbrk+0xe>
		heap_end = &end;
 8004ac6:	4909      	ldr	r1, [pc, #36]	; (8004aec <_sbrk+0x30>)
 8004ac8:	6011      	str	r1, [r2, #0]

	prev_heap_end = heap_end;
 8004aca:	6810      	ldr	r0, [r2, #0]
	if (heap_end + incr > stack_ptr)
 8004acc:	4669      	mov	r1, sp
 8004ace:	4403      	add	r3, r0
 8004ad0:	428b      	cmp	r3, r1
 8004ad2:	d906      	bls.n	8004ae2 <_sbrk+0x26>
	{
		errno = ENOMEM;
 8004ad4:	f000 f88c 	bl	8004bf0 <__errno>
 8004ad8:	230c      	movs	r3, #12
 8004ada:	6003      	str	r3, [r0, #0]
		return (caddr_t) -1;
 8004adc:	f04f 30ff 	mov.w	r0, #4294967295
	}

	heap_end += incr;

	return (caddr_t) prev_heap_end;
}
 8004ae0:	bd08      	pop	{r3, pc}
	heap_end += incr;
 8004ae2:	6013      	str	r3, [r2, #0]
	return (caddr_t) prev_heap_end;
 8004ae4:	e7fc      	b.n	8004ae0 <_sbrk+0x24>
 8004ae6:	bf00      	nop
 8004ae8:	10001a08 	.word	0x10001a08
 8004aec:	10001a58 	.word	0x10001a58

08004af0 <HAL_RNG_MspInit>:
  /* Prevent unused argument(s) compilation warning */
  UNUSED(hrng);
  /* NOTE : This function should not be modified. When the callback is needed,
            function HAL_RNG_MspInit must be implemented in the user file.
   */
}
 8004af0:	4770      	bx	lr

08004af2 <HAL_RNG_Init>:
{ 
 8004af2:	b510      	push	{r4, lr}
  if(hrng == NULL)
 8004af4:	4604      	mov	r4, r0
 8004af6:	b1a8      	cbz	r0, 8004b24 <HAL_RNG_Init+0x32>
  __HAL_LOCK(hrng);
 8004af8:	7903      	ldrb	r3, [r0, #4]
 8004afa:	2b01      	cmp	r3, #1
 8004afc:	d014      	beq.n	8004b28 <HAL_RNG_Init+0x36>
  if(hrng->State == HAL_RNG_STATE_RESET)
 8004afe:	7943      	ldrb	r3, [r0, #5]
 8004b00:	f003 02ff 	and.w	r2, r3, #255	; 0xff
 8004b04:	b913      	cbnz	r3, 8004b0c <HAL_RNG_Init+0x1a>
    hrng->Lock = HAL_UNLOCKED;
 8004b06:	7102      	strb	r2, [r0, #4]
    HAL_RNG_MspInit(hrng);
 8004b08:	f7ff fff2 	bl	8004af0 <HAL_RNG_MspInit>
  __HAL_RNG_ENABLE(hrng);
 8004b0c:	6822      	ldr	r2, [r4, #0]
  hrng->State = HAL_RNG_STATE_BUSY;
 8004b0e:	2302      	movs	r3, #2
 8004b10:	7163      	strb	r3, [r4, #5]
  __HAL_RNG_ENABLE(hrng);
 8004b12:	6813      	ldr	r3, [r2, #0]
 8004b14:	f043 0304 	orr.w	r3, r3, #4
 8004b18:	6013      	str	r3, [r2, #0]
  __HAL_UNLOCK(hrng);
 8004b1a:	2000      	movs	r0, #0
  hrng->State = HAL_RNG_STATE_READY;
 8004b1c:	2301      	movs	r3, #1
 8004b1e:	7163      	strb	r3, [r4, #5]
  __HAL_UNLOCK(hrng);
 8004b20:	7120      	strb	r0, [r4, #4]
}
 8004b22:	bd10      	pop	{r4, pc}
    return HAL_ERROR;
 8004b24:	2001      	movs	r0, #1
 8004b26:	e7fc      	b.n	8004b22 <HAL_RNG_Init+0x30>
  __HAL_LOCK(hrng);
 8004b28:	2002      	movs	r0, #2
 8004b2a:	e7fa      	b.n	8004b22 <HAL_RNG_Init+0x30>

08004b2c <Reset_Handler>:
 8004b2c:	2100      	movs	r1, #0
 8004b2e:	e003      	b.n	8004b38 <LoopCopyDataInit>

08004b30 <CopyDataInit>:
 8004b30:	4b0b      	ldr	r3, [pc, #44]	; (8004b60 <LoopForever+0x2>)
 8004b32:	585b      	ldr	r3, [r3, r1]
 8004b34:	5043      	str	r3, [r0, r1]
 8004b36:	3104      	adds	r1, #4

08004b38 <LoopCopyDataInit>:
 8004b38:	480a      	ldr	r0, [pc, #40]	; (8004b64 <LoopForever+0x6>)
 8004b3a:	4b0b      	ldr	r3, [pc, #44]	; (8004b68 <LoopForever+0xa>)
 8004b3c:	1842      	adds	r2, r0, r1
 8004b3e:	429a      	cmp	r2, r3
 8004b40:	d3f6      	bcc.n	8004b30 <CopyDataInit>
 8004b42:	4a0a      	ldr	r2, [pc, #40]	; (8004b6c <LoopForever+0xe>)
 8004b44:	e002      	b.n	8004b4c <LoopFillZerobss>

08004b46 <FillZerobss>:
 8004b46:	2300      	movs	r3, #0
 8004b48:	6013      	str	r3, [r2, #0]
 8004b4a:	3204      	adds	r2, #4

08004b4c <LoopFillZerobss>:
 8004b4c:	4b08      	ldr	r3, [pc, #32]	; (8004b70 <LoopForever+0x12>)
 8004b4e:	429a      	cmp	r2, r3
 8004b50:	d3f9      	bcc.n	8004b46 <FillZerobss>
 8004b52:	f3af 8000 	nop.w
 8004b56:	f000 f91d 	bl	8004d94 <__libc_init_array>
 8004b5a:	f7fc fc0f 	bl	800137c <main>

08004b5e <LoopForever>:
 8004b5e:	e7fe      	b.n	8004b5e <LoopForever>
 8004b60:	0800b748 	.word	0x0800b748
 8004b64:	10000000 	.word	0x10000000
 8004b68:	100009b0 	.word	0x100009b0
 8004b6c:	100009b0 	.word	0x100009b0
 8004b70:	10001a54 	.word	0x10001a54

08004b74 <BusFault_Handler>:
 8004b74:	e7fe      	b.n	8004b74 <BusFault_Handler>
 8004b76:	0000      	movs	r0, r0

08004b78 <calloc>:
 8004b78:	b410      	push	{r4}
 8004b7a:	4c04      	ldr	r4, [pc, #16]	; (8004b8c <calloc+0x14>)
 8004b7c:	4603      	mov	r3, r0
 8004b7e:	460a      	mov	r2, r1
 8004b80:	6820      	ldr	r0, [r4, #0]
 8004b82:	bc10      	pop	{r4}
 8004b84:	4619      	mov	r1, r3
 8004b86:	f000 b803 	b.w	8004b90 <_calloc_r>
 8004b8a:	bf00      	nop
 8004b8c:	10000000 	.word	0x10000000

08004b90 <_calloc_r>:
 8004b90:	b510      	push	{r4, lr}
 8004b92:	fb02 f101 	mul.w	r1, r2, r1
 8004b96:	f000 f939 	bl	8004e0c <_malloc_r>
 8004b9a:	4604      	mov	r4, r0
 8004b9c:	b168      	cbz	r0, 8004bba <_calloc_r+0x2a>
 8004b9e:	f850 2c04 	ldr.w	r2, [r0, #-4]
 8004ba2:	f022 0203 	bic.w	r2, r2, #3
 8004ba6:	3a04      	subs	r2, #4
 8004ba8:	2a24      	cmp	r2, #36	; 0x24
 8004baa:	d818      	bhi.n	8004bde <_calloc_r+0x4e>
 8004bac:	2a13      	cmp	r2, #19
 8004bae:	d806      	bhi.n	8004bbe <_calloc_r+0x2e>
 8004bb0:	4602      	mov	r2, r0
 8004bb2:	2300      	movs	r3, #0
 8004bb4:	e9c2 3300 	strd	r3, r3, [r2]
 8004bb8:	6093      	str	r3, [r2, #8]
 8004bba:	4620      	mov	r0, r4
 8004bbc:	bd10      	pop	{r4, pc}
 8004bbe:	2300      	movs	r3, #0
 8004bc0:	2a1b      	cmp	r2, #27
 8004bc2:	e9c0 3300 	strd	r3, r3, [r0]
 8004bc6:	d90f      	bls.n	8004be8 <_calloc_r+0x58>
 8004bc8:	2a24      	cmp	r2, #36	; 0x24
 8004bca:	e9c0 3302 	strd	r3, r3, [r0, #8]
 8004bce:	bf11      	iteee	ne
 8004bd0:	f100 0210 	addne.w	r2, r0, #16
 8004bd4:	6103      	streq	r3, [r0, #16]
 8004bd6:	f100 0218 	addeq.w	r2, r0, #24
 8004bda:	6143      	streq	r3, [r0, #20]
 8004bdc:	e7e9      	b.n	8004bb2 <_calloc_r+0x22>
 8004bde:	2100      	movs	r1, #0
 8004be0:	f000 fc74 	bl	80054cc <memset>
 8004be4:	4620      	mov	r0, r4
 8004be6:	bd10      	pop	{r4, pc}
 8004be8:	f100 0208 	add.w	r2, r0, #8
 8004bec:	e7e1      	b.n	8004bb2 <_calloc_r+0x22>
 8004bee:	bf00      	nop

08004bf0 <__errno>:
 8004bf0:	4b01      	ldr	r3, [pc, #4]	; (8004bf8 <__errno+0x8>)
 8004bf2:	6818      	ldr	r0, [r3, #0]
 8004bf4:	4770      	bx	lr
 8004bf6:	bf00      	nop
 8004bf8:	10000000 	.word	0x10000000

08004bfc <exit>:
 8004bfc:	b508      	push	{r3, lr}
 8004bfe:	2100      	movs	r1, #0
 8004c00:	4604      	mov	r4, r0
 8004c02:	f002 fbb7 	bl	8007374 <__call_exitprocs>
 8004c06:	4b04      	ldr	r3, [pc, #16]	; (8004c18 <exit+0x1c>)
 8004c08:	6818      	ldr	r0, [r3, #0]
 8004c0a:	6bc3      	ldr	r3, [r0, #60]	; 0x3c
 8004c0c:	b103      	cbz	r3, 8004c10 <exit+0x14>
 8004c0e:	4798      	blx	r3
 8004c10:	4620      	mov	r0, r4
 8004c12:	f006 f86b 	bl	800acec <_exit>
 8004c16:	bf00      	nop
 8004c18:	0800b438 	.word	0x0800b438

08004c1c <_cleanup_r>:
 8004c1c:	4901      	ldr	r1, [pc, #4]	; (8004c24 <_cleanup_r+0x8>)
 8004c1e:	f000 b895 	b.w	8004d4c <_fwalk_reent>
 8004c22:	bf00      	nop
 8004c24:	08008455 	.word	0x08008455

08004c28 <__sinit>:
 8004c28:	e92d 47f0 	stmdb	sp!, {r4, r5, r6, r7, r8, r9, sl, lr}
 8004c2c:	4682      	mov	sl, r0
 8004c2e:	4839      	ldr	r0, [pc, #228]	; (8004d14 <__sinit+0xec>)
 8004c30:	f000 f8d8 	bl	8004de4 <__retarget_lock_acquire_recursive>
 8004c34:	f8da 4038 	ldr.w	r4, [sl, #56]	; 0x38
 8004c38:	2c00      	cmp	r4, #0
 8004c3a:	d166      	bne.n	8004d0a <__sinit+0xe2>
 8004c3c:	f8da 5004 	ldr.w	r5, [sl, #4]
 8004c40:	4a35      	ldr	r2, [pc, #212]	; (8004d18 <__sinit+0xf0>)
 8004c42:	f8ca 203c 	str.w	r2, [sl, #60]	; 0x3c
 8004c46:	2303      	movs	r3, #3
 8004c48:	e9ca 43b8 	strd	r4, r3, [sl, #736]	; 0x2e0
 8004c4c:	f8df 90cc 	ldr.w	r9, [pc, #204]	; 8004d1c <__sinit+0xf4>
 8004c50:	f8df 80cc 	ldr.w	r8, [pc, #204]	; 8004d20 <__sinit+0xf8>
 8004c54:	4f33      	ldr	r7, [pc, #204]	; (8004d24 <__sinit+0xfc>)
 8004c56:	4e34      	ldr	r6, [pc, #208]	; (8004d28 <__sinit+0x100>)
 8004c58:	2304      	movs	r3, #4
 8004c5a:	f50a 723b 	add.w	r2, sl, #748	; 0x2ec
 8004c5e:	f8ca 22e8 	str.w	r2, [sl, #744]	; 0x2e8
 8004c62:	4621      	mov	r1, r4
 8004c64:	e9c5 4302 	strd	r4, r3, [r5, #8]
 8004c68:	e9c5 4400 	strd	r4, r4, [r5]
 8004c6c:	e9c5 4404 	strd	r4, r4, [r5, #16]
 8004c70:	666c      	str	r4, [r5, #100]	; 0x64
 8004c72:	2208      	movs	r2, #8
 8004c74:	61ac      	str	r4, [r5, #24]
 8004c76:	f105 005c 	add.w	r0, r5, #92	; 0x5c
 8004c7a:	f000 fc27 	bl	80054cc <memset>
 8004c7e:	e9c5 5907 	strd	r5, r9, [r5, #28]
 8004c82:	e9c5 8709 	strd	r8, r7, [r5, #36]	; 0x24
 8004c86:	62ee      	str	r6, [r5, #44]	; 0x2c
 8004c88:	f105 0058 	add.w	r0, r5, #88	; 0x58
 8004c8c:	f000 f8a6 	bl	8004ddc <__retarget_lock_init_recursive>
 8004c90:	f8da 5008 	ldr.w	r5, [sl, #8]
 8004c94:	4b25      	ldr	r3, [pc, #148]	; (8004d2c <__sinit+0x104>)
 8004c96:	60eb      	str	r3, [r5, #12]
 8004c98:	4621      	mov	r1, r4
 8004c9a:	e9c5 4400 	strd	r4, r4, [r5]
 8004c9e:	e9c5 4404 	strd	r4, r4, [r5, #16]
 8004ca2:	666c      	str	r4, [r5, #100]	; 0x64
 8004ca4:	60ac      	str	r4, [r5, #8]
 8004ca6:	61ac      	str	r4, [r5, #24]
 8004ca8:	2208      	movs	r2, #8
 8004caa:	f105 005c 	add.w	r0, r5, #92	; 0x5c
 8004cae:	f000 fc0d 	bl	80054cc <memset>
 8004cb2:	e9c5 5907 	strd	r5, r9, [r5, #28]
 8004cb6:	e9c5 8709 	strd	r8, r7, [r5, #36]	; 0x24
 8004cba:	62ee      	str	r6, [r5, #44]	; 0x2c
 8004cbc:	f105 0058 	add.w	r0, r5, #88	; 0x58
 8004cc0:	f000 f88c 	bl	8004ddc <__retarget_lock_init_recursive>
 8004cc4:	f8da 500c 	ldr.w	r5, [sl, #12]
 8004cc8:	4b19      	ldr	r3, [pc, #100]	; (8004d30 <__sinit+0x108>)
 8004cca:	60eb      	str	r3, [r5, #12]
 8004ccc:	4621      	mov	r1, r4
 8004cce:	e9c5 4400 	strd	r4, r4, [r5]
 8004cd2:	e9c5 4404 	strd	r4, r4, [r5, #16]
 8004cd6:	666c      	str	r4, [r5, #100]	; 0x64
 8004cd8:	60ac      	str	r4, [r5, #8]
 8004cda:	61ac      	str	r4, [r5, #24]
 8004cdc:	2208      	movs	r2, #8
 8004cde:	f105 005c 	add.w	r0, r5, #92	; 0x5c
 8004ce2:	f000 fbf3 	bl	80054cc <memset>
 8004ce6:	f105 0058 	add.w	r0, r5, #88	; 0x58
 8004cea:	e9c5 5907 	strd	r5, r9, [r5, #28]
 8004cee:	e9c5 760a 	strd	r7, r6, [r5, #40]	; 0x28
 8004cf2:	f8c5 8024 	str.w	r8, [r5, #36]	; 0x24
 8004cf6:	f000 f871 	bl	8004ddc <__retarget_lock_init_recursive>
 8004cfa:	2301      	movs	r3, #1
 8004cfc:	f8ca 3038 	str.w	r3, [sl, #56]	; 0x38
 8004d00:	4804      	ldr	r0, [pc, #16]	; (8004d14 <__sinit+0xec>)
 8004d02:	e8bd 47f0 	ldmia.w	sp!, {r4, r5, r6, r7, r8, r9, sl, lr}
 8004d06:	f000 b86f 	b.w	8004de8 <__retarget_lock_release_recursive>
 8004d0a:	e8bd 47f0 	ldmia.w	sp!, {r4, r5, r6, r7, r8, r9, sl, lr}
 8004d0e:	4801      	ldr	r0, [pc, #4]	; (8004d14 <__sinit+0xec>)
 8004d10:	f000 b86a 	b.w	8004de8 <__retarget_lock_release_recursive>
 8004d14:	10001a18 	.word	0x10001a18
 8004d18:	08004c1d 	.word	0x08004c1d
 8004d1c:	08005681 	.word	0x08005681
 8004d20:	080056a5 	.word	0x080056a5
 8004d24:	080056e5 	.word	0x080056e5
 8004d28:	08005705 	.word	0x08005705
 8004d2c:	00010009 	.word	0x00010009
 8004d30:	00020012 	.word	0x00020012

08004d34 <__sfp_lock_acquire>:
 8004d34:	4801      	ldr	r0, [pc, #4]	; (8004d3c <__sfp_lock_acquire+0x8>)
 8004d36:	f000 b855 	b.w	8004de4 <__retarget_lock_acquire_recursive>
 8004d3a:	bf00      	nop
 8004d3c:	10001a14 	.word	0x10001a14

08004d40 <__sfp_lock_release>:
 8004d40:	4801      	ldr	r0, [pc, #4]	; (8004d48 <__sfp_lock_release+0x8>)
 8004d42:	f000 b851 	b.w	8004de8 <__retarget_lock_release_recursive>
 8004d46:	bf00      	nop
 8004d48:	10001a14 	.word	0x10001a14

08004d4c <_fwalk_reent>:
 8004d4c:	e92d 43f8 	stmdb	sp!, {r3, r4, r5, r6, r7, r8, r9, lr}
 8004d50:	4607      	mov	r7, r0
 8004d52:	4688      	mov	r8, r1
 8004d54:	f500 7638 	add.w	r6, r0, #736	; 0x2e0
 8004d58:	f04f 0900 	mov.w	r9, #0
 8004d5c:	e9d6 5401 	ldrd	r5, r4, [r6, #4]
 8004d60:	3d01      	subs	r5, #1
 8004d62:	d411      	bmi.n	8004d88 <_fwalk_reent+0x3c>
 8004d64:	89a3      	ldrh	r3, [r4, #12]
 8004d66:	2b01      	cmp	r3, #1
 8004d68:	f105 35ff 	add.w	r5, r5, #4294967295
 8004d6c:	d908      	bls.n	8004d80 <_fwalk_reent+0x34>
 8004d6e:	f9b4 300e 	ldrsh.w	r3, [r4, #14]
 8004d72:	3301      	adds	r3, #1
 8004d74:	4621      	mov	r1, r4
 8004d76:	d003      	beq.n	8004d80 <_fwalk_reent+0x34>
 8004d78:	4638      	mov	r0, r7
 8004d7a:	47c0      	blx	r8
 8004d7c:	ea49 0900 	orr.w	r9, r9, r0
 8004d80:	1c6b      	adds	r3, r5, #1
 8004d82:	f104 0468 	add.w	r4, r4, #104	; 0x68
 8004d86:	d1ed      	bne.n	8004d64 <_fwalk_reent+0x18>
 8004d88:	6836      	ldr	r6, [r6, #0]
 8004d8a:	2e00      	cmp	r6, #0
 8004d8c:	d1e6      	bne.n	8004d5c <_fwalk_reent+0x10>
 8004d8e:	4648      	mov	r0, r9
 8004d90:	e8bd 83f8 	ldmia.w	sp!, {r3, r4, r5, r6, r7, r8, r9, pc}

08004d94 <__libc_init_array>:
 8004d94:	b570      	push	{r4, r5, r6, lr}
 8004d96:	4e0d      	ldr	r6, [pc, #52]	; (8004dcc <__libc_init_array+0x38>)
 8004d98:	4d0d      	ldr	r5, [pc, #52]	; (8004dd0 <__libc_init_array+0x3c>)
 8004d9a:	1b76      	subs	r6, r6, r5
 8004d9c:	10b6      	asrs	r6, r6, #2
 8004d9e:	d006      	beq.n	8004dae <__libc_init_array+0x1a>
 8004da0:	2400      	movs	r4, #0
 8004da2:	f855 3b04 	ldr.w	r3, [r5], #4
 8004da6:	3401      	adds	r4, #1
 8004da8:	4798      	blx	r3
 8004daa:	42a6      	cmp	r6, r4
 8004dac:	d1f9      	bne.n	8004da2 <__libc_init_array+0xe>
 8004dae:	4e09      	ldr	r6, [pc, #36]	; (8004dd4 <__libc_init_array+0x40>)
 8004db0:	4d09      	ldr	r5, [pc, #36]	; (8004dd8 <__libc_init_array+0x44>)
 8004db2:	1b76      	subs	r6, r6, r5
 8004db4:	f005 ff9c 	bl	800acf0 <_init>
 8004db8:	10b6      	asrs	r6, r6, #2
 8004dba:	d006      	beq.n	8004dca <__libc_init_array+0x36>
 8004dbc:	2400      	movs	r4, #0
 8004dbe:	f855 3b04 	ldr.w	r3, [r5], #4
 8004dc2:	3401      	adds	r4, #1
 8004dc4:	4798      	blx	r3
 8004dc6:	42a6      	cmp	r6, r4
 8004dc8:	d1f9      	bne.n	8004dbe <__libc_init_array+0x2a>
 8004dca:	bd70      	pop	{r4, r5, r6, pc}
 8004dcc:	0800b73c 	.word	0x0800b73c
 8004dd0:	0800b73c 	.word	0x0800b73c
 8004dd4:	0800b744 	.word	0x0800b744
 8004dd8:	0800b73c 	.word	0x0800b73c

08004ddc <__retarget_lock_init_recursive>:
 8004ddc:	4770      	bx	lr
 8004dde:	bf00      	nop

08004de0 <__retarget_lock_close_recursive>:
 8004de0:	4770      	bx	lr
 8004de2:	bf00      	nop

08004de4 <__retarget_lock_acquire_recursive>:
 8004de4:	4770      	bx	lr
 8004de6:	bf00      	nop

08004de8 <__retarget_lock_release_recursive>:
 8004de8:	4770      	bx	lr
 8004dea:	bf00      	nop

08004dec <malloc>:
 8004dec:	4b02      	ldr	r3, [pc, #8]	; (8004df8 <malloc+0xc>)
 8004dee:	4601      	mov	r1, r0
 8004df0:	6818      	ldr	r0, [r3, #0]
 8004df2:	f000 b80b 	b.w	8004e0c <_malloc_r>
 8004df6:	bf00      	nop
 8004df8:	10000000 	.word	0x10000000

08004dfc <free>:
 8004dfc:	4b02      	ldr	r3, [pc, #8]	; (8004e08 <free+0xc>)
 8004dfe:	4601      	mov	r1, r0
 8004e00:	6818      	ldr	r0, [r3, #0]
 8004e02:	f003 bcb1 	b.w	8008768 <_free_r>
 8004e06:	bf00      	nop
 8004e08:	10000000 	.word	0x10000000

08004e0c <_malloc_r>:
 8004e0c:	e92d 4ff0 	stmdb	sp!, {r4, r5, r6, r7, r8, r9, sl, fp, lr}
 8004e10:	f101 060b 	add.w	r6, r1, #11
 8004e14:	2e16      	cmp	r6, #22
 8004e16:	b083      	sub	sp, #12
 8004e18:	4604      	mov	r4, r0
 8004e1a:	d824      	bhi.n	8004e66 <_malloc_r+0x5a>
 8004e1c:	2910      	cmp	r1, #16
 8004e1e:	f200 80ba 	bhi.w	8004f96 <_malloc_r+0x18a>
 8004e22:	f000 fba5 	bl	8005570 <__malloc_lock>
 8004e26:	2610      	movs	r6, #16
 8004e28:	2218      	movs	r2, #24
 8004e2a:	2002      	movs	r0, #2
 8004e2c:	4fb5      	ldr	r7, [pc, #724]	; (8005104 <_malloc_r+0x2f8>)
 8004e2e:	443a      	add	r2, r7
 8004e30:	f1a2 0108 	sub.w	r1, r2, #8
 8004e34:	6853      	ldr	r3, [r2, #4]
 8004e36:	428b      	cmp	r3, r1
 8004e38:	f000 80ba 	beq.w	8004fb0 <_malloc_r+0x1a4>
 8004e3c:	685a      	ldr	r2, [r3, #4]
 8004e3e:	68d9      	ldr	r1, [r3, #12]
 8004e40:	f022 0203 	bic.w	r2, r2, #3
 8004e44:	441a      	add	r2, r3
 8004e46:	689d      	ldr	r5, [r3, #8]
 8004e48:	60e9      	str	r1, [r5, #12]
 8004e4a:	608d      	str	r5, [r1, #8]
 8004e4c:	6851      	ldr	r1, [r2, #4]
 8004e4e:	f041 0101 	orr.w	r1, r1, #1
 8004e52:	4620      	mov	r0, r4
 8004e54:	6051      	str	r1, [r2, #4]
 8004e56:	f103 0508 	add.w	r5, r3, #8
 8004e5a:	f000 fb8f 	bl	800557c <__malloc_unlock>
 8004e5e:	4628      	mov	r0, r5
 8004e60:	b003      	add	sp, #12
 8004e62:	e8bd 8ff0 	ldmia.w	sp!, {r4, r5, r6, r7, r8, r9, sl, fp, pc}
 8004e66:	f036 0607 	bics.w	r6, r6, #7
 8004e6a:	f100 8094 	bmi.w	8004f96 <_malloc_r+0x18a>
 8004e6e:	42b1      	cmp	r1, r6
 8004e70:	f200 8091 	bhi.w	8004f96 <_malloc_r+0x18a>
 8004e74:	f000 fb7c 	bl	8005570 <__malloc_lock>
 8004e78:	f5b6 7ffc 	cmp.w	r6, #504	; 0x1f8
 8004e7c:	f0c0 819a 	bcc.w	80051b4 <_malloc_r+0x3a8>
 8004e80:	0a73      	lsrs	r3, r6, #9
 8004e82:	f000 808f 	beq.w	8004fa4 <_malloc_r+0x198>
 8004e86:	2b04      	cmp	r3, #4
 8004e88:	f200 816f 	bhi.w	800516a <_malloc_r+0x35e>
 8004e8c:	09b3      	lsrs	r3, r6, #6
 8004e8e:	f103 0039 	add.w	r0, r3, #57	; 0x39
 8004e92:	f103 0c38 	add.w	ip, r3, #56	; 0x38
 8004e96:	00c3      	lsls	r3, r0, #3
 8004e98:	4f9a      	ldr	r7, [pc, #616]	; (8005104 <_malloc_r+0x2f8>)
 8004e9a:	443b      	add	r3, r7
 8004e9c:	f1a3 0508 	sub.w	r5, r3, #8
 8004ea0:	685b      	ldr	r3, [r3, #4]
 8004ea2:	429d      	cmp	r5, r3
 8004ea4:	d106      	bne.n	8004eb4 <_malloc_r+0xa8>
 8004ea6:	e00c      	b.n	8004ec2 <_malloc_r+0xb6>
 8004ea8:	2900      	cmp	r1, #0
 8004eaa:	f280 8127 	bge.w	80050fc <_malloc_r+0x2f0>
 8004eae:	68db      	ldr	r3, [r3, #12]
 8004eb0:	429d      	cmp	r5, r3
 8004eb2:	d006      	beq.n	8004ec2 <_malloc_r+0xb6>
 8004eb4:	685a      	ldr	r2, [r3, #4]
 8004eb6:	f022 0203 	bic.w	r2, r2, #3
 8004eba:	1b91      	subs	r1, r2, r6
 8004ebc:	290f      	cmp	r1, #15
 8004ebe:	ddf3      	ble.n	8004ea8 <_malloc_r+0x9c>
 8004ec0:	4660      	mov	r0, ip
 8004ec2:	693d      	ldr	r5, [r7, #16]
 8004ec4:	f8df c240 	ldr.w	ip, [pc, #576]	; 8005108 <_malloc_r+0x2fc>
 8004ec8:	4565      	cmp	r5, ip
 8004eca:	d07c      	beq.n	8004fc6 <_malloc_r+0x1ba>
 8004ecc:	686a      	ldr	r2, [r5, #4]
 8004ece:	f022 0203 	bic.w	r2, r2, #3
 8004ed2:	1b93      	subs	r3, r2, r6
 8004ed4:	2b0f      	cmp	r3, #15
 8004ed6:	f300 817b 	bgt.w	80051d0 <_malloc_r+0x3c4>
 8004eda:	2b00      	cmp	r3, #0
 8004edc:	e9c7 cc04 	strd	ip, ip, [r7, #16]
 8004ee0:	f280 816c 	bge.w	80051bc <_malloc_r+0x3b0>
 8004ee4:	f5b2 7f00 	cmp.w	r2, #512	; 0x200
 8004ee8:	f080 811a 	bcs.w	8005120 <_malloc_r+0x314>
 8004eec:	08d3      	lsrs	r3, r2, #3
 8004eee:	6879      	ldr	r1, [r7, #4]
 8004ef0:	3301      	adds	r3, #1
 8004ef2:	ea4f 1e52 	mov.w	lr, r2, lsr #5
 8004ef6:	2201      	movs	r2, #1
 8004ef8:	fa02 f20e 	lsl.w	r2, r2, lr
 8004efc:	430a      	orrs	r2, r1
 8004efe:	f857 e033 	ldr.w	lr, [r7, r3, lsl #3]
 8004f02:	f8c5 e008 	str.w	lr, [r5, #8]
 8004f06:	eb07 01c3 	add.w	r1, r7, r3, lsl #3
 8004f0a:	3908      	subs	r1, #8
 8004f0c:	60e9      	str	r1, [r5, #12]
 8004f0e:	607a      	str	r2, [r7, #4]
 8004f10:	f847 5033 	str.w	r5, [r7, r3, lsl #3]
 8004f14:	f8ce 500c 	str.w	r5, [lr, #12]
 8004f18:	1083      	asrs	r3, r0, #2
 8004f1a:	2101      	movs	r1, #1
 8004f1c:	4099      	lsls	r1, r3
 8004f1e:	4291      	cmp	r1, r2
 8004f20:	d857      	bhi.n	8004fd2 <_malloc_r+0x1c6>
 8004f22:	4211      	tst	r1, r2
 8004f24:	d106      	bne.n	8004f34 <_malloc_r+0x128>
 8004f26:	f020 0003 	bic.w	r0, r0, #3
 8004f2a:	0049      	lsls	r1, r1, #1
 8004f2c:	4211      	tst	r1, r2
 8004f2e:	f100 0004 	add.w	r0, r0, #4
 8004f32:	d0fa      	beq.n	8004f2a <_malloc_r+0x11e>
 8004f34:	eb07 09c0 	add.w	r9, r7, r0, lsl #3
 8004f38:	464d      	mov	r5, r9
 8004f3a:	4686      	mov	lr, r0
 8004f3c:	f8d5 800c 	ldr.w	r8, [r5, #12]
 8004f40:	4545      	cmp	r5, r8
 8004f42:	d108      	bne.n	8004f56 <_malloc_r+0x14a>
 8004f44:	e11d      	b.n	8005182 <_malloc_r+0x376>
 8004f46:	2b00      	cmp	r3, #0
 8004f48:	f280 8124 	bge.w	8005194 <_malloc_r+0x388>
 8004f4c:	f8d8 800c 	ldr.w	r8, [r8, #12]
 8004f50:	4545      	cmp	r5, r8
 8004f52:	f000 8116 	beq.w	8005182 <_malloc_r+0x376>
 8004f56:	f8d8 2004 	ldr.w	r2, [r8, #4]
 8004f5a:	f022 0203 	bic.w	r2, r2, #3
 8004f5e:	1b93      	subs	r3, r2, r6
 8004f60:	2b0f      	cmp	r3, #15
 8004f62:	ddf0      	ble.n	8004f46 <_malloc_r+0x13a>
 8004f64:	4620      	mov	r0, r4
 8004f66:	e9d8 5402 	ldrd	r5, r4, [r8, #8]
 8004f6a:	eb08 0106 	add.w	r1, r8, r6
 8004f6e:	f046 0601 	orr.w	r6, r6, #1
 8004f72:	f8c8 6004 	str.w	r6, [r8, #4]
 8004f76:	60ec      	str	r4, [r5, #12]
 8004f78:	60a5      	str	r5, [r4, #8]
 8004f7a:	f043 0401 	orr.w	r4, r3, #1
 8004f7e:	e9c7 1104 	strd	r1, r1, [r7, #16]
 8004f82:	e9c1 cc02 	strd	ip, ip, [r1, #8]
 8004f86:	604c      	str	r4, [r1, #4]
 8004f88:	f848 3002 	str.w	r3, [r8, r2]
 8004f8c:	f000 faf6 	bl	800557c <__malloc_unlock>
 8004f90:	f108 0508 	add.w	r5, r8, #8
 8004f94:	e002      	b.n	8004f9c <_malloc_r+0x190>
 8004f96:	230c      	movs	r3, #12
 8004f98:	6023      	str	r3, [r4, #0]
 8004f9a:	2500      	movs	r5, #0
 8004f9c:	4628      	mov	r0, r5
 8004f9e:	b003      	add	sp, #12
 8004fa0:	e8bd 8ff0 	ldmia.w	sp!, {r4, r5, r6, r7, r8, r9, sl, fp, pc}
 8004fa4:	f44f 7300 	mov.w	r3, #512	; 0x200
 8004fa8:	2040      	movs	r0, #64	; 0x40
 8004faa:	f04f 0c3f 	mov.w	ip, #63	; 0x3f
 8004fae:	e773      	b.n	8004e98 <_malloc_r+0x8c>
 8004fb0:	68d3      	ldr	r3, [r2, #12]
 8004fb2:	429a      	cmp	r2, r3
 8004fb4:	bf08      	it	eq
 8004fb6:	3002      	addeq	r0, #2
 8004fb8:	f47f af40 	bne.w	8004e3c <_malloc_r+0x30>
 8004fbc:	693d      	ldr	r5, [r7, #16]
 8004fbe:	f8df c148 	ldr.w	ip, [pc, #328]	; 8005108 <_malloc_r+0x2fc>
 8004fc2:	4565      	cmp	r5, ip
 8004fc4:	d182      	bne.n	8004ecc <_malloc_r+0xc0>
 8004fc6:	687a      	ldr	r2, [r7, #4]
 8004fc8:	1083      	asrs	r3, r0, #2
 8004fca:	2101      	movs	r1, #1
 8004fcc:	4099      	lsls	r1, r3
 8004fce:	4291      	cmp	r1, r2
 8004fd0:	d9a7      	bls.n	8004f22 <_malloc_r+0x116>
 8004fd2:	68bd      	ldr	r5, [r7, #8]
 8004fd4:	686b      	ldr	r3, [r5, #4]
 8004fd6:	f023 0903 	bic.w	r9, r3, #3
 8004fda:	454e      	cmp	r6, r9
 8004fdc:	d803      	bhi.n	8004fe6 <_malloc_r+0x1da>
 8004fde:	eba9 0306 	sub.w	r3, r9, r6
 8004fe2:	2b0f      	cmp	r3, #15
 8004fe4:	dc7a      	bgt.n	80050dc <_malloc_r+0x2d0>
 8004fe6:	f8df b124 	ldr.w	fp, [pc, #292]	; 800510c <_malloc_r+0x300>
 8004fea:	4b49      	ldr	r3, [pc, #292]	; (8005110 <_malloc_r+0x304>)
 8004fec:	f8db 2000 	ldr.w	r2, [fp]
 8004ff0:	681b      	ldr	r3, [r3, #0]
 8004ff2:	3201      	adds	r2, #1
 8004ff4:	4433      	add	r3, r6
 8004ff6:	eb05 0a09 	add.w	sl, r5, r9
 8004ffa:	f000 8133 	beq.w	8005264 <_malloc_r+0x458>
 8004ffe:	f503 5380 	add.w	r3, r3, #4096	; 0x1000
 8005002:	330f      	adds	r3, #15
 8005004:	f423 687f 	bic.w	r8, r3, #4080	; 0xff0
 8005008:	f028 080f 	bic.w	r8, r8, #15
 800500c:	4641      	mov	r1, r8
 800500e:	4620      	mov	r0, r4
 8005010:	f000 fb24 	bl	800565c <_sbrk_r>
 8005014:	1c41      	adds	r1, r0, #1
 8005016:	4602      	mov	r2, r0
 8005018:	f000 80f3 	beq.w	8005202 <_malloc_r+0x3f6>
 800501c:	4582      	cmp	sl, r0
 800501e:	f200 80ee 	bhi.w	80051fe <_malloc_r+0x3f2>
 8005022:	4b3c      	ldr	r3, [pc, #240]	; (8005114 <_malloc_r+0x308>)
 8005024:	6819      	ldr	r1, [r3, #0]
 8005026:	4441      	add	r1, r8
 8005028:	6019      	str	r1, [r3, #0]
 800502a:	4608      	mov	r0, r1
 800502c:	f000 814e 	beq.w	80052cc <_malloc_r+0x4c0>
 8005030:	f8db 1000 	ldr.w	r1, [fp]
 8005034:	9301      	str	r3, [sp, #4]
 8005036:	3101      	adds	r1, #1
 8005038:	bf1b      	ittet	ne
 800503a:	eba2 0a0a 	subne.w	sl, r2, sl
 800503e:	4450      	addne	r0, sl
 8005040:	f8cb 2000 	streq.w	r2, [fp]
 8005044:	6018      	strne	r0, [r3, #0]
 8005046:	f012 0b07 	ands.w	fp, r2, #7
 800504a:	f000 8117 	beq.w	800527c <_malloc_r+0x470>
 800504e:	f1cb 0108 	rsb	r1, fp, #8
 8005052:	440a      	add	r2, r1
 8005054:	f5cb 5180 	rsb	r1, fp, #4096	; 0x1000
 8005058:	4490      	add	r8, r2
 800505a:	3108      	adds	r1, #8
 800505c:	eba1 0108 	sub.w	r1, r1, r8
 8005060:	f3c1 0a0b 	ubfx	sl, r1, #0, #12
 8005064:	4651      	mov	r1, sl
 8005066:	4620      	mov	r0, r4
 8005068:	9200      	str	r2, [sp, #0]
 800506a:	f000 faf7 	bl	800565c <_sbrk_r>
 800506e:	1c42      	adds	r2, r0, #1
 8005070:	e9dd 2300 	ldrd	r2, r3, [sp]
 8005074:	f000 814f 	beq.w	8005316 <_malloc_r+0x50a>
 8005078:	1a80      	subs	r0, r0, r2
 800507a:	eb00 080a 	add.w	r8, r0, sl
 800507e:	6819      	ldr	r1, [r3, #0]
 8005080:	60ba      	str	r2, [r7, #8]
 8005082:	f048 0001 	orr.w	r0, r8, #1
 8005086:	4451      	add	r1, sl
 8005088:	42bd      	cmp	r5, r7
 800508a:	6050      	str	r0, [r2, #4]
 800508c:	6019      	str	r1, [r3, #0]
 800508e:	f000 8129 	beq.w	80052e4 <_malloc_r+0x4d8>
 8005092:	f1b9 0f0f 	cmp.w	r9, #15
 8005096:	f240 8127 	bls.w	80052e8 <_malloc_r+0x4dc>
 800509a:	6868      	ldr	r0, [r5, #4]
 800509c:	f1a9 0c0c 	sub.w	ip, r9, #12
 80050a0:	f02c 0c07 	bic.w	ip, ip, #7
 80050a4:	f000 0001 	and.w	r0, r0, #1
 80050a8:	ea40 000c 	orr.w	r0, r0, ip
 80050ac:	6068      	str	r0, [r5, #4]
 80050ae:	f04f 0e05 	mov.w	lr, #5
 80050b2:	eb05 000c 	add.w	r0, r5, ip
 80050b6:	f1bc 0f0f 	cmp.w	ip, #15
 80050ba:	e9c0 ee01 	strd	lr, lr, [r0, #4]
 80050be:	f200 8132 	bhi.w	8005326 <_malloc_r+0x51a>
 80050c2:	6850      	ldr	r0, [r2, #4]
 80050c4:	4615      	mov	r5, r2
 80050c6:	4b14      	ldr	r3, [pc, #80]	; (8005118 <_malloc_r+0x30c>)
 80050c8:	681a      	ldr	r2, [r3, #0]
 80050ca:	428a      	cmp	r2, r1
 80050cc:	bf38      	it	cc
 80050ce:	6019      	strcc	r1, [r3, #0]
 80050d0:	4b12      	ldr	r3, [pc, #72]	; (800511c <_malloc_r+0x310>)
 80050d2:	681a      	ldr	r2, [r3, #0]
 80050d4:	428a      	cmp	r2, r1
 80050d6:	bf38      	it	cc
 80050d8:	6019      	strcc	r1, [r3, #0]
 80050da:	e094      	b.n	8005206 <_malloc_r+0x3fa>
 80050dc:	19aa      	adds	r2, r5, r6
 80050de:	f043 0301 	orr.w	r3, r3, #1
 80050e2:	f046 0601 	orr.w	r6, r6, #1
 80050e6:	606e      	str	r6, [r5, #4]
 80050e8:	4620      	mov	r0, r4
 80050ea:	60ba      	str	r2, [r7, #8]
 80050ec:	6053      	str	r3, [r2, #4]
 80050ee:	f000 fa45 	bl	800557c <__malloc_unlock>
 80050f2:	3508      	adds	r5, #8
 80050f4:	4628      	mov	r0, r5
 80050f6:	b003      	add	sp, #12
 80050f8:	e8bd 8ff0 	ldmia.w	sp!, {r4, r5, r6, r7, r8, r9, sl, fp, pc}
 80050fc:	68d9      	ldr	r1, [r3, #12]
 80050fe:	441a      	add	r2, r3
 8005100:	e6a1      	b.n	8004e46 <_malloc_r+0x3a>
 8005102:	bf00      	nop
 8005104:	10000430 	.word	0x10000430
 8005108:	10000438 	.word	0x10000438
 800510c:	10000838 	.word	0x10000838
 8005110:	10001a4c 	.word	0x10001a4c
 8005114:	10001a1c 	.word	0x10001a1c
 8005118:	10001a44 	.word	0x10001a44
 800511c:	10001a48 	.word	0x10001a48
 8005120:	f5b2 6f20 	cmp.w	r2, #2560	; 0xa00
 8005124:	ea4f 2352 	mov.w	r3, r2, lsr #9
 8005128:	d363      	bcc.n	80051f2 <_malloc_r+0x3e6>
 800512a:	2b14      	cmp	r3, #20
 800512c:	f200 80b7 	bhi.w	800529e <_malloc_r+0x492>
 8005130:	f103 015c 	add.w	r1, r3, #92	; 0x5c
 8005134:	00c9      	lsls	r1, r1, #3
 8005136:	335b      	adds	r3, #91	; 0x5b
 8005138:	eb07 0e01 	add.w	lr, r7, r1
 800513c:	5879      	ldr	r1, [r7, r1]
 800513e:	f1ae 0e08 	sub.w	lr, lr, #8
 8005142:	458e      	cmp	lr, r1
 8005144:	f000 8091 	beq.w	800526a <_malloc_r+0x45e>
 8005148:	684b      	ldr	r3, [r1, #4]
 800514a:	f023 0303 	bic.w	r3, r3, #3
 800514e:	4293      	cmp	r3, r2
 8005150:	d902      	bls.n	8005158 <_malloc_r+0x34c>
 8005152:	6889      	ldr	r1, [r1, #8]
 8005154:	458e      	cmp	lr, r1
 8005156:	d1f7      	bne.n	8005148 <_malloc_r+0x33c>
 8005158:	f8d1 e00c 	ldr.w	lr, [r1, #12]
 800515c:	687a      	ldr	r2, [r7, #4]
 800515e:	e9c5 1e02 	strd	r1, lr, [r5, #8]
 8005162:	f8ce 5008 	str.w	r5, [lr, #8]
 8005166:	60cd      	str	r5, [r1, #12]
 8005168:	e6d6      	b.n	8004f18 <_malloc_r+0x10c>
 800516a:	2b14      	cmp	r3, #20
 800516c:	d959      	bls.n	8005222 <_malloc_r+0x416>
 800516e:	2b54      	cmp	r3, #84	; 0x54
 8005170:	f200 809d 	bhi.w	80052ae <_malloc_r+0x4a2>
 8005174:	0b33      	lsrs	r3, r6, #12
 8005176:	f103 006f 	add.w	r0, r3, #111	; 0x6f
 800517a:	f103 0c6e 	add.w	ip, r3, #110	; 0x6e
 800517e:	00c3      	lsls	r3, r0, #3
 8005180:	e68a      	b.n	8004e98 <_malloc_r+0x8c>
 8005182:	f10e 0e01 	add.w	lr, lr, #1
 8005186:	f01e 0f03 	tst.w	lr, #3
 800518a:	f105 0508 	add.w	r5, r5, #8
 800518e:	f47f aed5 	bne.w	8004f3c <_malloc_r+0x130>
 8005192:	e051      	b.n	8005238 <_malloc_r+0x42c>
 8005194:	4442      	add	r2, r8
 8005196:	4645      	mov	r5, r8
 8005198:	6853      	ldr	r3, [r2, #4]
 800519a:	f8d8 100c 	ldr.w	r1, [r8, #12]
 800519e:	f043 0301 	orr.w	r3, r3, #1
 80051a2:	6053      	str	r3, [r2, #4]
 80051a4:	f855 3f08 	ldr.w	r3, [r5, #8]!
 80051a8:	4620      	mov	r0, r4
 80051aa:	60d9      	str	r1, [r3, #12]
 80051ac:	608b      	str	r3, [r1, #8]
 80051ae:	f000 f9e5 	bl	800557c <__malloc_unlock>
 80051b2:	e6f3      	b.n	8004f9c <_malloc_r+0x190>
 80051b4:	08f0      	lsrs	r0, r6, #3
 80051b6:	f106 0208 	add.w	r2, r6, #8
 80051ba:	e637      	b.n	8004e2c <_malloc_r+0x20>
 80051bc:	442a      	add	r2, r5
 80051be:	4620      	mov	r0, r4
 80051c0:	6853      	ldr	r3, [r2, #4]
 80051c2:	f043 0301 	orr.w	r3, r3, #1
 80051c6:	6053      	str	r3, [r2, #4]
 80051c8:	3508      	adds	r5, #8
 80051ca:	f000 f9d7 	bl	800557c <__malloc_unlock>
 80051ce:	e6e5      	b.n	8004f9c <_malloc_r+0x190>
 80051d0:	19a9      	adds	r1, r5, r6
 80051d2:	4620      	mov	r0, r4
 80051d4:	f046 0601 	orr.w	r6, r6, #1
 80051d8:	f043 0401 	orr.w	r4, r3, #1
 80051dc:	606e      	str	r6, [r5, #4]
 80051de:	e9c7 1104 	strd	r1, r1, [r7, #16]
 80051e2:	e9c1 cc02 	strd	ip, ip, [r1, #8]
 80051e6:	604c      	str	r4, [r1, #4]
 80051e8:	50ab      	str	r3, [r5, r2]
 80051ea:	f000 f9c7 	bl	800557c <__malloc_unlock>
 80051ee:	3508      	adds	r5, #8
 80051f0:	e6d4      	b.n	8004f9c <_malloc_r+0x190>
 80051f2:	0993      	lsrs	r3, r2, #6
 80051f4:	f103 0139 	add.w	r1, r3, #57	; 0x39
 80051f8:	00c9      	lsls	r1, r1, #3
 80051fa:	3338      	adds	r3, #56	; 0x38
 80051fc:	e79c      	b.n	8005138 <_malloc_r+0x32c>
 80051fe:	42bd      	cmp	r5, r7
 8005200:	d05f      	beq.n	80052c2 <_malloc_r+0x4b6>
 8005202:	68bd      	ldr	r5, [r7, #8]
 8005204:	6868      	ldr	r0, [r5, #4]
 8005206:	f020 0803 	bic.w	r8, r0, #3
 800520a:	4546      	cmp	r6, r8
 800520c:	eba8 0306 	sub.w	r3, r8, r6
 8005210:	d802      	bhi.n	8005218 <_malloc_r+0x40c>
 8005212:	2b0f      	cmp	r3, #15
 8005214:	f73f af62 	bgt.w	80050dc <_malloc_r+0x2d0>
 8005218:	4620      	mov	r0, r4
 800521a:	f000 f9af 	bl	800557c <__malloc_unlock>
 800521e:	2500      	movs	r5, #0
 8005220:	e6bc      	b.n	8004f9c <_malloc_r+0x190>
 8005222:	f103 005c 	add.w	r0, r3, #92	; 0x5c
 8005226:	f103 0c5b 	add.w	ip, r3, #91	; 0x5b
 800522a:	00c3      	lsls	r3, r0, #3
 800522c:	e634      	b.n	8004e98 <_malloc_r+0x8c>
 800522e:	f859 3908 	ldr.w	r3, [r9], #-8
 8005232:	454b      	cmp	r3, r9
 8005234:	f040 8096 	bne.w	8005364 <_malloc_r+0x558>
 8005238:	f010 0f03 	tst.w	r0, #3
 800523c:	f100 30ff 	add.w	r0, r0, #4294967295
 8005240:	d1f5      	bne.n	800522e <_malloc_r+0x422>
 8005242:	687b      	ldr	r3, [r7, #4]
 8005244:	ea23 0301 	bic.w	r3, r3, r1
 8005248:	607b      	str	r3, [r7, #4]
 800524a:	0049      	lsls	r1, r1, #1
 800524c:	4299      	cmp	r1, r3
 800524e:	f63f aec0 	bhi.w	8004fd2 <_malloc_r+0x1c6>
 8005252:	b919      	cbnz	r1, 800525c <_malloc_r+0x450>
 8005254:	e6bd      	b.n	8004fd2 <_malloc_r+0x1c6>
 8005256:	0049      	lsls	r1, r1, #1
 8005258:	f10e 0e04 	add.w	lr, lr, #4
 800525c:	4219      	tst	r1, r3
 800525e:	d0fa      	beq.n	8005256 <_malloc_r+0x44a>
 8005260:	4670      	mov	r0, lr
 8005262:	e667      	b.n	8004f34 <_malloc_r+0x128>
 8005264:	f103 0810 	add.w	r8, r3, #16
 8005268:	e6d0      	b.n	800500c <_malloc_r+0x200>
 800526a:	109a      	asrs	r2, r3, #2
 800526c:	f04f 0801 	mov.w	r8, #1
 8005270:	687b      	ldr	r3, [r7, #4]
 8005272:	fa08 f202 	lsl.w	r2, r8, r2
 8005276:	431a      	orrs	r2, r3
 8005278:	607a      	str	r2, [r7, #4]
 800527a:	e770      	b.n	800515e <_malloc_r+0x352>
 800527c:	eb02 0108 	add.w	r1, r2, r8
 8005280:	4249      	negs	r1, r1
 8005282:	f3c1 0a0b 	ubfx	sl, r1, #0, #12
 8005286:	4651      	mov	r1, sl
 8005288:	4620      	mov	r0, r4
 800528a:	9200      	str	r2, [sp, #0]
 800528c:	f000 f9e6 	bl	800565c <_sbrk_r>
 8005290:	1c43      	adds	r3, r0, #1
 8005292:	e9dd 2300 	ldrd	r2, r3, [sp]
 8005296:	f47f aeef 	bne.w	8005078 <_malloc_r+0x26c>
 800529a:	46da      	mov	sl, fp
 800529c:	e6ef      	b.n	800507e <_malloc_r+0x272>
 800529e:	2b54      	cmp	r3, #84	; 0x54
 80052a0:	d825      	bhi.n	80052ee <_malloc_r+0x4e2>
 80052a2:	0b13      	lsrs	r3, r2, #12
 80052a4:	f103 016f 	add.w	r1, r3, #111	; 0x6f
 80052a8:	00c9      	lsls	r1, r1, #3
 80052aa:	336e      	adds	r3, #110	; 0x6e
 80052ac:	e744      	b.n	8005138 <_malloc_r+0x32c>
 80052ae:	f5b3 7faa 	cmp.w	r3, #340	; 0x154
 80052b2:	d825      	bhi.n	8005300 <_malloc_r+0x4f4>
 80052b4:	0bf3      	lsrs	r3, r6, #15
 80052b6:	f103 0078 	add.w	r0, r3, #120	; 0x78
 80052ba:	f103 0c77 	add.w	ip, r3, #119	; 0x77
 80052be:	00c3      	lsls	r3, r0, #3
 80052c0:	e5ea      	b.n	8004e98 <_malloc_r+0x8c>
 80052c2:	4b29      	ldr	r3, [pc, #164]	; (8005368 <_malloc_r+0x55c>)
 80052c4:	6818      	ldr	r0, [r3, #0]
 80052c6:	4440      	add	r0, r8
 80052c8:	6018      	str	r0, [r3, #0]
 80052ca:	e6b1      	b.n	8005030 <_malloc_r+0x224>
 80052cc:	f3ca 0c0b 	ubfx	ip, sl, #0, #12
 80052d0:	f1bc 0f00 	cmp.w	ip, #0
 80052d4:	f47f aeac 	bne.w	8005030 <_malloc_r+0x224>
 80052d8:	68bd      	ldr	r5, [r7, #8]
 80052da:	44c8      	add	r8, r9
 80052dc:	f048 0001 	orr.w	r0, r8, #1
 80052e0:	6068      	str	r0, [r5, #4]
 80052e2:	e6f0      	b.n	80050c6 <_malloc_r+0x2ba>
 80052e4:	4615      	mov	r5, r2
 80052e6:	e6ee      	b.n	80050c6 <_malloc_r+0x2ba>
 80052e8:	2301      	movs	r3, #1
 80052ea:	6053      	str	r3, [r2, #4]
 80052ec:	e794      	b.n	8005218 <_malloc_r+0x40c>
 80052ee:	f5b3 7faa 	cmp.w	r3, #340	; 0x154
 80052f2:	d823      	bhi.n	800533c <_malloc_r+0x530>
 80052f4:	0bd3      	lsrs	r3, r2, #15
 80052f6:	f103 0178 	add.w	r1, r3, #120	; 0x78
 80052fa:	00c9      	lsls	r1, r1, #3
 80052fc:	3377      	adds	r3, #119	; 0x77
 80052fe:	e71b      	b.n	8005138 <_malloc_r+0x32c>
 8005300:	f240 5254 	movw	r2, #1364	; 0x554
 8005304:	4293      	cmp	r3, r2
 8005306:	d823      	bhi.n	8005350 <_malloc_r+0x544>
 8005308:	0cb3      	lsrs	r3, r6, #18
 800530a:	f103 007d 	add.w	r0, r3, #125	; 0x7d
 800530e:	f103 0c7c 	add.w	ip, r3, #124	; 0x7c
 8005312:	00c3      	lsls	r3, r0, #3
 8005314:	e5c0      	b.n	8004e98 <_malloc_r+0x8c>
 8005316:	f1ab 0b08 	sub.w	fp, fp, #8
 800531a:	44d8      	add	r8, fp
 800531c:	eba8 0802 	sub.w	r8, r8, r2
 8005320:	f04f 0a00 	mov.w	sl, #0
 8005324:	e6ab      	b.n	800507e <_malloc_r+0x272>
 8005326:	f105 0108 	add.w	r1, r5, #8
 800532a:	4620      	mov	r0, r4
 800532c:	9300      	str	r3, [sp, #0]
 800532e:	f003 fa1b 	bl	8008768 <_free_r>
 8005332:	68bd      	ldr	r5, [r7, #8]
 8005334:	9b00      	ldr	r3, [sp, #0]
 8005336:	6868      	ldr	r0, [r5, #4]
 8005338:	6819      	ldr	r1, [r3, #0]
 800533a:	e6c4      	b.n	80050c6 <_malloc_r+0x2ba>
 800533c:	f240 5154 	movw	r1, #1364	; 0x554
 8005340:	428b      	cmp	r3, r1
 8005342:	d80b      	bhi.n	800535c <_malloc_r+0x550>
 8005344:	0c93      	lsrs	r3, r2, #18
 8005346:	f103 017d 	add.w	r1, r3, #125	; 0x7d
 800534a:	00c9      	lsls	r1, r1, #3
 800534c:	337c      	adds	r3, #124	; 0x7c
 800534e:	e6f3      	b.n	8005138 <_malloc_r+0x32c>
 8005350:	f44f 737e 	mov.w	r3, #1016	; 0x3f8
 8005354:	207f      	movs	r0, #127	; 0x7f
 8005356:	f04f 0c7e 	mov.w	ip, #126	; 0x7e
 800535a:	e59d      	b.n	8004e98 <_malloc_r+0x8c>
 800535c:	f44f 717e 	mov.w	r1, #1016	; 0x3f8
 8005360:	237e      	movs	r3, #126	; 0x7e
 8005362:	e6e9      	b.n	8005138 <_malloc_r+0x32c>
 8005364:	687b      	ldr	r3, [r7, #4]
 8005366:	e770      	b.n	800524a <_malloc_r+0x43e>
 8005368:	10001a1c 	.word	0x10001a1c

0800536c <memcmp>:
 800536c:	2a03      	cmp	r2, #3
 800536e:	b510      	push	{r4, lr}
 8005370:	d917      	bls.n	80053a2 <memcmp+0x36>
 8005372:	ea40 0c01 	orr.w	ip, r0, r1
 8005376:	f01c 0f03 	tst.w	ip, #3
 800537a:	4604      	mov	r4, r0
 800537c:	460b      	mov	r3, r1
 800537e:	d123      	bne.n	80053c8 <memcmp+0x5c>
 8005380:	4619      	mov	r1, r3
 8005382:	4620      	mov	r0, r4
 8005384:	f8d1 e000 	ldr.w	lr, [r1]
 8005388:	f8d0 c000 	ldr.w	ip, [r0]
 800538c:	45f4      	cmp	ip, lr
 800538e:	f104 0404 	add.w	r4, r4, #4
 8005392:	f103 0304 	add.w	r3, r3, #4
 8005396:	d117      	bne.n	80053c8 <memcmp+0x5c>
 8005398:	3a04      	subs	r2, #4
 800539a:	2a03      	cmp	r2, #3
 800539c:	4620      	mov	r0, r4
 800539e:	4619      	mov	r1, r3
 80053a0:	d8ee      	bhi.n	8005380 <memcmp+0x14>
 80053a2:	1e54      	subs	r4, r2, #1
 80053a4:	b1a2      	cbz	r2, 80053d0 <memcmp+0x64>
 80053a6:	f100 3cff 	add.w	ip, r0, #4294967295
 80053aa:	3901      	subs	r1, #1
 80053ac:	e001      	b.n	80053b2 <memcmp+0x46>
 80053ae:	18c3      	adds	r3, r0, r3
 80053b0:	d00c      	beq.n	80053cc <memcmp+0x60>
 80053b2:	f81c ef01 	ldrb.w	lr, [ip, #1]!
 80053b6:	f811 2f01 	ldrb.w	r2, [r1, #1]!
 80053ba:	4596      	cmp	lr, r2
 80053bc:	eba4 030c 	sub.w	r3, r4, ip
 80053c0:	d0f5      	beq.n	80053ae <memcmp+0x42>
 80053c2:	ebae 0002 	sub.w	r0, lr, r2
 80053c6:	bd10      	pop	{r4, pc}
 80053c8:	1e54      	subs	r4, r2, #1
 80053ca:	e7ec      	b.n	80053a6 <memcmp+0x3a>
 80053cc:	4618      	mov	r0, r3
 80053ce:	bd10      	pop	{r4, pc}
 80053d0:	4610      	mov	r0, r2
 80053d2:	bd10      	pop	{r4, pc}

080053d4 <memmove>:
 80053d4:	4288      	cmp	r0, r1
 80053d6:	d90d      	bls.n	80053f4 <memmove+0x20>
 80053d8:	188b      	adds	r3, r1, r2
 80053da:	4283      	cmp	r3, r0
 80053dc:	d90a      	bls.n	80053f4 <memmove+0x20>
 80053de:	eb00 0c02 	add.w	ip, r0, r2
 80053e2:	b1ba      	cbz	r2, 8005414 <memmove+0x40>
 80053e4:	4662      	mov	r2, ip
 80053e6:	f813 cd01 	ldrb.w	ip, [r3, #-1]!
 80053ea:	f802 cd01 	strb.w	ip, [r2, #-1]!
 80053ee:	4299      	cmp	r1, r3
 80053f0:	d1f9      	bne.n	80053e6 <memmove+0x12>
 80053f2:	4770      	bx	lr
 80053f4:	2a0f      	cmp	r2, #15
 80053f6:	d80e      	bhi.n	8005416 <memmove+0x42>
 80053f8:	4603      	mov	r3, r0
 80053fa:	f102 3cff 	add.w	ip, r2, #4294967295
 80053fe:	b14a      	cbz	r2, 8005414 <memmove+0x40>
 8005400:	f10c 0c01 	add.w	ip, ip, #1
 8005404:	3b01      	subs	r3, #1
 8005406:	448c      	add	ip, r1
 8005408:	f811 2b01 	ldrb.w	r2, [r1], #1
 800540c:	f803 2f01 	strb.w	r2, [r3, #1]!
 8005410:	4561      	cmp	r1, ip
 8005412:	d1f9      	bne.n	8005408 <memmove+0x34>
 8005414:	4770      	bx	lr
 8005416:	ea40 0301 	orr.w	r3, r0, r1
 800541a:	079b      	lsls	r3, r3, #30
 800541c:	d150      	bne.n	80054c0 <memmove+0xec>
 800541e:	f1a2 0310 	sub.w	r3, r2, #16
 8005422:	b570      	push	{r4, r5, r6, lr}
 8005424:	f101 0c20 	add.w	ip, r1, #32
 8005428:	f023 050f 	bic.w	r5, r3, #15
 800542c:	f101 0e10 	add.w	lr, r1, #16
 8005430:	f100 0410 	add.w	r4, r0, #16
 8005434:	44ac      	add	ip, r5
 8005436:	091b      	lsrs	r3, r3, #4
 8005438:	f85e 5c10 	ldr.w	r5, [lr, #-16]
 800543c:	f844 5c10 	str.w	r5, [r4, #-16]
 8005440:	f85e 5c0c 	ldr.w	r5, [lr, #-12]
 8005444:	f844 5c0c 	str.w	r5, [r4, #-12]
 8005448:	f85e 5c08 	ldr.w	r5, [lr, #-8]
 800544c:	f844 5c08 	str.w	r5, [r4, #-8]
 8005450:	f85e 5c04 	ldr.w	r5, [lr, #-4]
 8005454:	f844 5c04 	str.w	r5, [r4, #-4]
 8005458:	f10e 0e10 	add.w	lr, lr, #16
 800545c:	45e6      	cmp	lr, ip
 800545e:	f104 0410 	add.w	r4, r4, #16
 8005462:	d1e9      	bne.n	8005438 <memmove+0x64>
 8005464:	3301      	adds	r3, #1
 8005466:	f012 0f0c 	tst.w	r2, #12
 800546a:	eb01 1103 	add.w	r1, r1, r3, lsl #4
 800546e:	f002 040f 	and.w	r4, r2, #15
 8005472:	eb00 1303 	add.w	r3, r0, r3, lsl #4
 8005476:	d027      	beq.n	80054c8 <memmove+0xf4>
 8005478:	3c04      	subs	r4, #4
 800547a:	f024 0603 	bic.w	r6, r4, #3
 800547e:	ea4f 0c94 	mov.w	ip, r4, lsr #2
 8005482:	441e      	add	r6, r3
 8005484:	1f1c      	subs	r4, r3, #4
 8005486:	468e      	mov	lr, r1
 8005488:	f85e 5b04 	ldr.w	r5, [lr], #4
 800548c:	f844 5f04 	str.w	r5, [r4, #4]!
 8005490:	42b4      	cmp	r4, r6
 8005492:	d1f9      	bne.n	8005488 <memmove+0xb4>
 8005494:	f10c 0401 	add.w	r4, ip, #1
 8005498:	f002 0203 	and.w	r2, r2, #3
 800549c:	eb03 0384 	add.w	r3, r3, r4, lsl #2
 80054a0:	eb01 0184 	add.w	r1, r1, r4, lsl #2
 80054a4:	f102 3cff 	add.w	ip, r2, #4294967295
 80054a8:	b14a      	cbz	r2, 80054be <memmove+0xea>
 80054aa:	f10c 0c01 	add.w	ip, ip, #1
 80054ae:	3b01      	subs	r3, #1
 80054b0:	448c      	add	ip, r1
 80054b2:	f811 2b01 	ldrb.w	r2, [r1], #1
 80054b6:	f803 2f01 	strb.w	r2, [r3, #1]!
 80054ba:	4561      	cmp	r1, ip
 80054bc:	d1f9      	bne.n	80054b2 <memmove+0xde>
 80054be:	bd70      	pop	{r4, r5, r6, pc}
 80054c0:	f102 3cff 	add.w	ip, r2, #4294967295
 80054c4:	4603      	mov	r3, r0
 80054c6:	e79b      	b.n	8005400 <memmove+0x2c>
 80054c8:	4622      	mov	r2, r4
 80054ca:	e7eb      	b.n	80054a4 <memmove+0xd0>

080054cc <memset>:
 80054cc:	0783      	lsls	r3, r0, #30
 80054ce:	b530      	push	{r4, r5, lr}
 80054d0:	d048      	beq.n	8005564 <memset+0x98>
 80054d2:	1e54      	subs	r4, r2, #1
 80054d4:	2a00      	cmp	r2, #0
 80054d6:	d03f      	beq.n	8005558 <memset+0x8c>
 80054d8:	b2ca      	uxtb	r2, r1
 80054da:	4603      	mov	r3, r0
 80054dc:	e001      	b.n	80054e2 <memset+0x16>
 80054de:	3c01      	subs	r4, #1
 80054e0:	d33a      	bcc.n	8005558 <memset+0x8c>
 80054e2:	f803 2b01 	strb.w	r2, [r3], #1
 80054e6:	079d      	lsls	r5, r3, #30
 80054e8:	d1f9      	bne.n	80054de <memset+0x12>
 80054ea:	2c03      	cmp	r4, #3
 80054ec:	d92d      	bls.n	800554a <memset+0x7e>
 80054ee:	b2cd      	uxtb	r5, r1
 80054f0:	ea45 2505 	orr.w	r5, r5, r5, lsl #8
 80054f4:	2c0f      	cmp	r4, #15
 80054f6:	ea45 4505 	orr.w	r5, r5, r5, lsl #16
 80054fa:	d936      	bls.n	800556a <memset+0x9e>
 80054fc:	f1a4 0210 	sub.w	r2, r4, #16
 8005500:	f022 0c0f 	bic.w	ip, r2, #15
 8005504:	f103 0e20 	add.w	lr, r3, #32
 8005508:	44e6      	add	lr, ip
 800550a:	ea4f 1c12 	mov.w	ip, r2, lsr #4
 800550e:	f103 0210 	add.w	r2, r3, #16
 8005512:	e942 5504 	strd	r5, r5, [r2, #-16]
 8005516:	e942 5502 	strd	r5, r5, [r2, #-8]
 800551a:	3210      	adds	r2, #16
 800551c:	4572      	cmp	r2, lr
 800551e:	d1f8      	bne.n	8005512 <memset+0x46>
 8005520:	f10c 0201 	add.w	r2, ip, #1
 8005524:	f014 0f0c 	tst.w	r4, #12
 8005528:	eb03 1202 	add.w	r2, r3, r2, lsl #4
 800552c:	f004 0c0f 	and.w	ip, r4, #15
 8005530:	d013      	beq.n	800555a <memset+0x8e>
 8005532:	f1ac 0304 	sub.w	r3, ip, #4
 8005536:	f023 0303 	bic.w	r3, r3, #3
 800553a:	3304      	adds	r3, #4
 800553c:	4413      	add	r3, r2
 800553e:	f842 5b04 	str.w	r5, [r2], #4
 8005542:	4293      	cmp	r3, r2
 8005544:	d1fb      	bne.n	800553e <memset+0x72>
 8005546:	f00c 0403 	and.w	r4, ip, #3
 800554a:	b12c      	cbz	r4, 8005558 <memset+0x8c>
 800554c:	b2ca      	uxtb	r2, r1
 800554e:	441c      	add	r4, r3
 8005550:	f803 2b01 	strb.w	r2, [r3], #1
 8005554:	429c      	cmp	r4, r3
 8005556:	d1fb      	bne.n	8005550 <memset+0x84>
 8005558:	bd30      	pop	{r4, r5, pc}
 800555a:	4664      	mov	r4, ip
 800555c:	4613      	mov	r3, r2
 800555e:	2c00      	cmp	r4, #0
 8005560:	d1f4      	bne.n	800554c <memset+0x80>
 8005562:	e7f9      	b.n	8005558 <memset+0x8c>
 8005564:	4603      	mov	r3, r0
 8005566:	4614      	mov	r4, r2
 8005568:	e7bf      	b.n	80054ea <memset+0x1e>
 800556a:	461a      	mov	r2, r3
 800556c:	46a4      	mov	ip, r4
 800556e:	e7e0      	b.n	8005532 <memset+0x66>

08005570 <__malloc_lock>:
 8005570:	4801      	ldr	r0, [pc, #4]	; (8005578 <__malloc_lock+0x8>)
 8005572:	f7ff bc37 	b.w	8004de4 <__retarget_lock_acquire_recursive>
 8005576:	bf00      	nop
 8005578:	10001a10 	.word	0x10001a10

0800557c <__malloc_unlock>:
 800557c:	4801      	ldr	r0, [pc, #4]	; (8005584 <__malloc_unlock+0x8>)
 800557e:	f7ff bc33 	b.w	8004de8 <__retarget_lock_release_recursive>
 8005582:	bf00      	nop
 8005584:	10001a10 	.word	0x10001a10

08005588 <printf>:
 8005588:	b40f      	push	{r0, r1, r2, r3}
 800558a:	b500      	push	{lr}
 800558c:	4907      	ldr	r1, [pc, #28]	; (80055ac <printf+0x24>)
 800558e:	b083      	sub	sp, #12
 8005590:	ab04      	add	r3, sp, #16
 8005592:	6808      	ldr	r0, [r1, #0]
 8005594:	f853 2b04 	ldr.w	r2, [r3], #4
 8005598:	6881      	ldr	r1, [r0, #8]
 800559a:	9301      	str	r3, [sp, #4]
 800559c:	f000 f8b6 	bl	800570c <_vfprintf_r>
 80055a0:	b003      	add	sp, #12
 80055a2:	f85d eb04 	ldr.w	lr, [sp], #4
 80055a6:	b004      	add	sp, #16
 80055a8:	4770      	bx	lr
 80055aa:	bf00      	nop
 80055ac:	10000000 	.word	0x10000000

080055b0 <_puts_r>:
 80055b0:	b570      	push	{r4, r5, r6, lr}
 80055b2:	4605      	mov	r5, r0
 80055b4:	b088      	sub	sp, #32
 80055b6:	4608      	mov	r0, r1
 80055b8:	460c      	mov	r4, r1
 80055ba:	f7fa fec1 	bl	8000340 <strlen>
 80055be:	4e22      	ldr	r6, [pc, #136]	; (8005648 <_puts_r+0x98>)
 80055c0:	6baa      	ldr	r2, [r5, #56]	; 0x38
 80055c2:	9005      	str	r0, [sp, #20]
 80055c4:	2101      	movs	r1, #1
 80055c6:	1843      	adds	r3, r0, r1
 80055c8:	e9cd 6106 	strd	r6, r1, [sp, #24]
 80055cc:	a804      	add	r0, sp, #16
 80055ce:	2102      	movs	r1, #2
 80055d0:	9404      	str	r4, [sp, #16]
 80055d2:	9303      	str	r3, [sp, #12]
 80055d4:	68ac      	ldr	r4, [r5, #8]
 80055d6:	9001      	str	r0, [sp, #4]
 80055d8:	9102      	str	r1, [sp, #8]
 80055da:	b322      	cbz	r2, 8005626 <_puts_r+0x76>
 80055dc:	6e63      	ldr	r3, [r4, #100]	; 0x64
 80055de:	f013 0f01 	tst.w	r3, #1
 80055e2:	f9b4 300c 	ldrsh.w	r3, [r4, #12]
 80055e6:	b29a      	uxth	r2, r3
 80055e8:	d101      	bne.n	80055ee <_puts_r+0x3e>
 80055ea:	0598      	lsls	r0, r3, #22
 80055ec:	d525      	bpl.n	800563a <_puts_r+0x8a>
 80055ee:	0491      	lsls	r1, r2, #18
 80055f0:	d406      	bmi.n	8005600 <_puts_r+0x50>
 80055f2:	6e62      	ldr	r2, [r4, #100]	; 0x64
 80055f4:	f443 5300 	orr.w	r3, r3, #8192	; 0x2000
 80055f8:	f422 5200 	bic.w	r2, r2, #8192	; 0x2000
 80055fc:	81a3      	strh	r3, [r4, #12]
 80055fe:	6662      	str	r2, [r4, #100]	; 0x64
 8005600:	4628      	mov	r0, r5
 8005602:	aa01      	add	r2, sp, #4
 8005604:	4621      	mov	r1, r4
 8005606:	f003 f9b5 	bl	8008974 <__sfvwrite_r>
 800560a:	6e63      	ldr	r3, [r4, #100]	; 0x64
 800560c:	2800      	cmp	r0, #0
 800560e:	bf14      	ite	ne
 8005610:	f04f 35ff 	movne.w	r5, #4294967295
 8005614:	250a      	moveq	r5, #10
 8005616:	07da      	lsls	r2, r3, #31
 8005618:	d402      	bmi.n	8005620 <_puts_r+0x70>
 800561a:	89a3      	ldrh	r3, [r4, #12]
 800561c:	059b      	lsls	r3, r3, #22
 800561e:	d506      	bpl.n	800562e <_puts_r+0x7e>
 8005620:	4628      	mov	r0, r5
 8005622:	b008      	add	sp, #32
 8005624:	bd70      	pop	{r4, r5, r6, pc}
 8005626:	4628      	mov	r0, r5
 8005628:	f7ff fafe 	bl	8004c28 <__sinit>
 800562c:	e7d6      	b.n	80055dc <_puts_r+0x2c>
 800562e:	6da0      	ldr	r0, [r4, #88]	; 0x58
 8005630:	f7ff fbda 	bl	8004de8 <__retarget_lock_release_recursive>
 8005634:	4628      	mov	r0, r5
 8005636:	b008      	add	sp, #32
 8005638:	bd70      	pop	{r4, r5, r6, pc}
 800563a:	6da0      	ldr	r0, [r4, #88]	; 0x58
 800563c:	f7ff fbd2 	bl	8004de4 <__retarget_lock_acquire_recursive>
 8005640:	f9b4 300c 	ldrsh.w	r3, [r4, #12]
 8005644:	b29a      	uxth	r2, r3
 8005646:	e7d2      	b.n	80055ee <_puts_r+0x3e>
 8005648:	0800b43c 	.word	0x0800b43c

0800564c <puts>:
 800564c:	4b02      	ldr	r3, [pc, #8]	; (8005658 <puts+0xc>)
 800564e:	4601      	mov	r1, r0
 8005650:	6818      	ldr	r0, [r3, #0]
 8005652:	f7ff bfad 	b.w	80055b0 <_puts_r>
 8005656:	bf00      	nop
 8005658:	10000000 	.word	0x10000000

0800565c <_sbrk_r>:
 800565c:	b538      	push	{r3, r4, r5, lr}
 800565e:	4d07      	ldr	r5, [pc, #28]	; (800567c <_sbrk_r+0x20>)
 8005660:	2200      	movs	r2, #0
 8005662:	4604      	mov	r4, r0
 8005664:	4608      	mov	r0, r1
 8005666:	602a      	str	r2, [r5, #0]
 8005668:	f7ff fa28 	bl	8004abc <_sbrk>
 800566c:	1c43      	adds	r3, r0, #1
 800566e:	d000      	beq.n	8005672 <_sbrk_r+0x16>
 8005670:	bd38      	pop	{r3, r4, r5, pc}
 8005672:	682b      	ldr	r3, [r5, #0]
 8005674:	2b00      	cmp	r3, #0
 8005676:	d0fb      	beq.n	8005670 <_sbrk_r+0x14>
 8005678:	6023      	str	r3, [r4, #0]
 800567a:	bd38      	pop	{r3, r4, r5, pc}
 800567c:	10001a50 	.word	0x10001a50

08005680 <__sread>:
 8005680:	b510      	push	{r4, lr}
 8005682:	460c      	mov	r4, r1
 8005684:	f9b1 100e 	ldrsh.w	r1, [r1, #14]
 8005688:	f003 ff1c 	bl	80094c4 <_read_r>
 800568c:	2800      	cmp	r0, #0
 800568e:	db03      	blt.n	8005698 <__sread+0x18>
 8005690:	6d23      	ldr	r3, [r4, #80]	; 0x50
 8005692:	4403      	add	r3, r0
 8005694:	6523      	str	r3, [r4, #80]	; 0x50
 8005696:	bd10      	pop	{r4, pc}
 8005698:	89a3      	ldrh	r3, [r4, #12]
 800569a:	f423 5380 	bic.w	r3, r3, #4096	; 0x1000
 800569e:	81a3      	strh	r3, [r4, #12]
 80056a0:	bd10      	pop	{r4, pc}
 80056a2:	bf00      	nop

080056a4 <__swrite>:
 80056a4:	e92d 41f0 	stmdb	sp!, {r4, r5, r6, r7, r8, lr}
 80056a8:	460c      	mov	r4, r1
 80056aa:	f9b1 100c 	ldrsh.w	r1, [r1, #12]
 80056ae:	461f      	mov	r7, r3
 80056b0:	05cb      	lsls	r3, r1, #23
 80056b2:	4605      	mov	r5, r0
 80056b4:	4616      	mov	r6, r2
 80056b6:	d40b      	bmi.n	80056d0 <__swrite+0x2c>
 80056b8:	f421 5180 	bic.w	r1, r1, #4096	; 0x1000
 80056bc:	81a1      	strh	r1, [r4, #12]
 80056be:	463b      	mov	r3, r7
 80056c0:	f9b4 100e 	ldrsh.w	r1, [r4, #14]
 80056c4:	4632      	mov	r2, r6
 80056c6:	4628      	mov	r0, r5
 80056c8:	e8bd 41f0 	ldmia.w	sp!, {r4, r5, r6, r7, r8, lr}
 80056cc:	f001 bdc8 	b.w	8007260 <_write_r>
 80056d0:	f9b4 100e 	ldrsh.w	r1, [r4, #14]
 80056d4:	2302      	movs	r3, #2
 80056d6:	2200      	movs	r2, #0
 80056d8:	f003 fac4 	bl	8008c64 <_lseek_r>
 80056dc:	f9b4 100c 	ldrsh.w	r1, [r4, #12]
 80056e0:	e7ea      	b.n	80056b8 <__swrite+0x14>
 80056e2:	bf00      	nop

080056e4 <__sseek>:
 80056e4:	b510      	push	{r4, lr}
 80056e6:	460c      	mov	r4, r1
 80056e8:	f9b1 100e 	ldrsh.w	r1, [r1, #14]
 80056ec:	f003 faba 	bl	8008c64 <_lseek_r>
 80056f0:	89a3      	ldrh	r3, [r4, #12]
 80056f2:	1c42      	adds	r2, r0, #1
 80056f4:	bf0e      	itee	eq
 80056f6:	f423 5380 	biceq.w	r3, r3, #4096	; 0x1000
 80056fa:	f443 5380 	orrne.w	r3, r3, #4096	; 0x1000
 80056fe:	6520      	strne	r0, [r4, #80]	; 0x50
 8005700:	81a3      	strh	r3, [r4, #12]
 8005702:	bd10      	pop	{r4, pc}

08005704 <__sclose>:
 8005704:	f9b1 100e 	ldrsh.w	r1, [r1, #14]
 8005708:	f001 be9c 	b.w	8007444 <_close_r>

0800570c <_vfprintf_r>:
 800570c:	e92d 4ff0 	stmdb	sp!, {r4, r5, r6, r7, r8, r9, sl, fp, lr}
 8005710:	b0d5      	sub	sp, #340	; 0x154
 8005712:	461c      	mov	r4, r3
 8005714:	9107      	str	r1, [sp, #28]
 8005716:	4691      	mov	r9, r2
 8005718:	4605      	mov	r5, r0
 800571a:	9009      	str	r0, [sp, #36]	; 0x24
 800571c:	f003 fa9e 	bl	8008c5c <_localeconv_r>
 8005720:	6802      	ldr	r2, [r0, #0]
 8005722:	9217      	str	r2, [sp, #92]	; 0x5c
 8005724:	4610      	mov	r0, r2
 8005726:	940e      	str	r4, [sp, #56]	; 0x38
 8005728:	f7fa fe0a 	bl	8000340 <strlen>
 800572c:	9016      	str	r0, [sp, #88]	; 0x58
 800572e:	b11d      	cbz	r5, 8005738 <_vfprintf_r+0x2c>
 8005730:	6bab      	ldr	r3, [r5, #56]	; 0x38
 8005732:	2b00      	cmp	r3, #0
 8005734:	f000 822a 	beq.w	8005b8c <_vfprintf_r+0x480>
 8005738:	9a07      	ldr	r2, [sp, #28]
 800573a:	6e53      	ldr	r3, [r2, #100]	; 0x64
 800573c:	07dd      	lsls	r5, r3, #31
 800573e:	f140 8138 	bpl.w	80059b2 <_vfprintf_r+0x2a6>
 8005742:	f9b2 200c 	ldrsh.w	r2, [r2, #12]
 8005746:	b291      	uxth	r1, r2
 8005748:	048f      	lsls	r7, r1, #18
 800574a:	d409      	bmi.n	8005760 <_vfprintf_r+0x54>
 800574c:	9b07      	ldr	r3, [sp, #28]
 800574e:	f442 5200 	orr.w	r2, r2, #8192	; 0x2000
 8005752:	819a      	strh	r2, [r3, #12]
 8005754:	b291      	uxth	r1, r2
 8005756:	461a      	mov	r2, r3
 8005758:	6e5b      	ldr	r3, [r3, #100]	; 0x64
 800575a:	f423 5300 	bic.w	r3, r3, #8192	; 0x2000
 800575e:	6653      	str	r3, [r2, #100]	; 0x64
 8005760:	070e      	lsls	r6, r1, #28
 8005762:	f140 80cb 	bpl.w	80058fc <_vfprintf_r+0x1f0>
 8005766:	9b07      	ldr	r3, [sp, #28]
 8005768:	691b      	ldr	r3, [r3, #16]
 800576a:	2b00      	cmp	r3, #0
 800576c:	f000 80c6 	beq.w	80058fc <_vfprintf_r+0x1f0>
 8005770:	f001 031a 	and.w	r3, r1, #26
 8005774:	2b0a      	cmp	r3, #10
 8005776:	f000 80cf 	beq.w	8005918 <_vfprintf_r+0x20c>
 800577a:	2400      	movs	r4, #0
 800577c:	ab2b      	add	r3, sp, #172	; 0xac
 800577e:	464d      	mov	r5, r9
 8005780:	e9cd 4429 	strd	r4, r4, [sp, #164]	; 0xa4
 8005784:	e9cd 4419 	strd	r4, r4, [sp, #100]	; 0x64
 8005788:	e9cd 441b 	strd	r4, r4, [sp, #108]	; 0x6c
 800578c:	9412      	str	r4, [sp, #72]	; 0x48
 800578e:	9328      	str	r3, [sp, #160]	; 0xa0
 8005790:	4698      	mov	r8, r3
 8005792:	9418      	str	r4, [sp, #96]	; 0x60
 8005794:	2300      	movs	r3, #0
 8005796:	940b      	str	r4, [sp, #44]	; 0x2c
 8005798:	2400      	movs	r4, #0
 800579a:	e9cd 3414 	strd	r3, r4, [sp, #80]	; 0x50
 800579e:	782b      	ldrb	r3, [r5, #0]
 80057a0:	2b00      	cmp	r3, #0
 80057a2:	f000 819d 	beq.w	8005ae0 <_vfprintf_r+0x3d4>
 80057a6:	46aa      	mov	sl, r5
 80057a8:	e004      	b.n	80057b4 <_vfprintf_r+0xa8>
 80057aa:	f81a 3f01 	ldrb.w	r3, [sl, #1]!
 80057ae:	2b00      	cmp	r3, #0
 80057b0:	f000 80c7 	beq.w	8005942 <_vfprintf_r+0x236>
 80057b4:	2b25      	cmp	r3, #37	; 0x25
 80057b6:	d1f8      	bne.n	80057aa <_vfprintf_r+0x9e>
 80057b8:	ebba 0605 	subs.w	r6, sl, r5
 80057bc:	f040 80c5 	bne.w	800594a <_vfprintf_r+0x23e>
 80057c0:	f89a 3000 	ldrb.w	r3, [sl]
 80057c4:	2b00      	cmp	r3, #0
 80057c6:	f000 818b 	beq.w	8005ae0 <_vfprintf_r+0x3d4>
 80057ca:	2300      	movs	r3, #0
 80057cc:	f04f 32ff 	mov.w	r2, #4294967295
 80057d0:	f89a 6001 	ldrb.w	r6, [sl, #1]
 80057d4:	f88d 3083 	strb.w	r3, [sp, #131]	; 0x83
 80057d8:	930a      	str	r3, [sp, #40]	; 0x28
 80057da:	f10a 0a01 	add.w	sl, sl, #1
 80057de:	9208      	str	r2, [sp, #32]
 80057e0:	461f      	mov	r7, r3
 80057e2:	242b      	movs	r4, #43	; 0x2b
 80057e4:	f04f 0920 	mov.w	r9, #32
 80057e8:	f10a 0a01 	add.w	sl, sl, #1
 80057ec:	f1a6 0320 	sub.w	r3, r6, #32
 80057f0:	2b5a      	cmp	r3, #90	; 0x5a
 80057f2:	f200 80ed 	bhi.w	80059d0 <_vfprintf_r+0x2c4>
 80057f6:	e8df f013 	tbh	[pc, r3, lsl #1]
 80057fa:	02eb      	.short	0x02eb
 80057fc:	00eb00eb 	.word	0x00eb00eb
 8005800:	00eb02e6 	.word	0x00eb02e6
 8005804:	00eb00eb 	.word	0x00eb00eb
 8005808:	00eb006a 	.word	0x00eb006a
 800580c:	025c00eb 	.word	0x025c00eb
 8005810:	00eb0280 	.word	0x00eb0280
 8005814:	028a0267 	.word	0x028a0267
 8005818:	028500eb 	.word	0x028500eb
 800581c:	005b005b 	.word	0x005b005b
 8005820:	005b005b 	.word	0x005b005b
 8005824:	005b005b 	.word	0x005b005b
 8005828:	005b005b 	.word	0x005b005b
 800582c:	00eb005b 	.word	0x00eb005b
 8005830:	00eb00eb 	.word	0x00eb00eb
 8005834:	00eb00eb 	.word	0x00eb00eb
 8005838:	00eb00eb 	.word	0x00eb00eb
 800583c:	00eb017a 	.word	0x00eb017a
 8005840:	01d201f8 	.word	0x01d201f8
 8005844:	017a017a 	.word	0x017a017a
 8005848:	00eb017a 	.word	0x00eb017a
 800584c:	00eb00eb 	.word	0x00eb00eb
 8005850:	02e100eb 	.word	0x02e100eb
 8005854:	00eb00eb 	.word	0x00eb00eb
 8005858:	00eb022d 	.word	0x00eb022d
 800585c:	00eb00eb 	.word	0x00eb00eb
 8005860:	00eb0202 	.word	0x00eb0202
 8005864:	00eb02a4 	.word	0x00eb02a4
 8005868:	078300eb 	.word	0x078300eb
 800586c:	00eb00eb 	.word	0x00eb00eb
 8005870:	00eb00eb 	.word	0x00eb00eb
 8005874:	00eb00eb 	.word	0x00eb00eb
 8005878:	00eb00eb 	.word	0x00eb00eb
 800587c:	00eb017a 	.word	0x00eb017a
 8005880:	01d401f8 	.word	0x01d401f8
 8005884:	017a017a 	.word	0x017a017a
 8005888:	02c7017a 	.word	0x02c7017a
 800588c:	01cd01d4 	.word	0x01cd01d4
 8005890:	02d400eb 	.word	0x02d400eb
 8005894:	026c00eb 	.word	0x026c00eb
 8005898:	02b5022f 	.word	0x02b5022f
 800589c:	00eb01cd 	.word	0x00eb01cd
 80058a0:	007e0202 	.word	0x007e0202
 80058a4:	00eb0780 	.word	0x00eb0780
 80058a8:	076100eb 	.word	0x076100eb
 80058ac:	007e00eb 	.word	0x007e00eb
 80058b0:	f1a6 0330 	sub.w	r3, r6, #48	; 0x30
 80058b4:	2200      	movs	r2, #0
 80058b6:	f81a 6b01 	ldrb.w	r6, [sl], #1
 80058ba:	eb02 0282 	add.w	r2, r2, r2, lsl #2
 80058be:	eb03 0242 	add.w	r2, r3, r2, lsl #1
 80058c2:	f1a6 0330 	sub.w	r3, r6, #48	; 0x30
 80058c6:	2b09      	cmp	r3, #9
 80058c8:	d9f5      	bls.n	80058b6 <_vfprintf_r+0x1aa>
 80058ca:	920a      	str	r2, [sp, #40]	; 0x28
 80058cc:	e78e      	b.n	80057ec <_vfprintf_r+0xe0>
 80058ce:	f8dd b024 	ldr.w	fp, [sp, #36]	; 0x24
 80058d2:	4658      	mov	r0, fp
 80058d4:	f003 f9c2 	bl	8008c5c <_localeconv_r>
 80058d8:	6843      	ldr	r3, [r0, #4]
 80058da:	931b      	str	r3, [sp, #108]	; 0x6c
 80058dc:	4618      	mov	r0, r3
 80058de:	f7fa fd2f 	bl	8000340 <strlen>
 80058e2:	901c      	str	r0, [sp, #112]	; 0x70
 80058e4:	4606      	mov	r6, r0
 80058e6:	4658      	mov	r0, fp
 80058e8:	f003 f9b8 	bl	8008c5c <_localeconv_r>
 80058ec:	6883      	ldr	r3, [r0, #8]
 80058ee:	9319      	str	r3, [sp, #100]	; 0x64
 80058f0:	2e00      	cmp	r6, #0
 80058f2:	f040 86cd 	bne.w	8006690 <_vfprintf_r+0xf84>
 80058f6:	f89a 6000 	ldrb.w	r6, [sl]
 80058fa:	e775      	b.n	80057e8 <_vfprintf_r+0xdc>
 80058fc:	9d07      	ldr	r5, [sp, #28]
 80058fe:	9809      	ldr	r0, [sp, #36]	; 0x24
 8005900:	4629      	mov	r1, r5
 8005902:	f001 fcc3 	bl	800728c <__swsetup_r>
 8005906:	2800      	cmp	r0, #0
 8005908:	f041 831c 	bne.w	8006f44 <_vfprintf_r+0x1838>
 800590c:	89a9      	ldrh	r1, [r5, #12]
 800590e:	f001 031a 	and.w	r3, r1, #26
 8005912:	2b0a      	cmp	r3, #10
 8005914:	f47f af31 	bne.w	800577a <_vfprintf_r+0x6e>
 8005918:	9a07      	ldr	r2, [sp, #28]
 800591a:	f9b2 300e 	ldrsh.w	r3, [r2, #14]
 800591e:	2b00      	cmp	r3, #0
 8005920:	f6ff af2b 	blt.w	800577a <_vfprintf_r+0x6e>
 8005924:	6e53      	ldr	r3, [r2, #100]	; 0x64
 8005926:	07d8      	lsls	r0, r3, #31
 8005928:	d402      	bmi.n	8005930 <_vfprintf_r+0x224>
 800592a:	0589      	lsls	r1, r1, #22
 800592c:	f141 813b 	bpl.w	8006ba6 <_vfprintf_r+0x149a>
 8005930:	9907      	ldr	r1, [sp, #28]
 8005932:	9809      	ldr	r0, [sp, #36]	; 0x24
 8005934:	4623      	mov	r3, r4
 8005936:	464a      	mov	r2, r9
 8005938:	b055      	add	sp, #340	; 0x154
 800593a:	e8bd 4ff0 	ldmia.w	sp!, {r4, r5, r6, r7, r8, r9, sl, fp, lr}
 800593e:	f001 bc4f 	b.w	80071e0 <__sbprintf>
 8005942:	ebba 0605 	subs.w	r6, sl, r5
 8005946:	f000 80cb 	beq.w	8005ae0 <_vfprintf_r+0x3d4>
 800594a:	9b2a      	ldr	r3, [sp, #168]	; 0xa8
 800594c:	4433      	add	r3, r6
 800594e:	932a      	str	r3, [sp, #168]	; 0xa8
 8005950:	9b29      	ldr	r3, [sp, #164]	; 0xa4
 8005952:	3301      	adds	r3, #1
 8005954:	2b07      	cmp	r3, #7
 8005956:	e9c8 5600 	strd	r5, r6, [r8]
 800595a:	9329      	str	r3, [sp, #164]	; 0xa4
 800595c:	dc05      	bgt.n	800596a <_vfprintf_r+0x25e>
 800595e:	f108 0808 	add.w	r8, r8, #8
 8005962:	9b0b      	ldr	r3, [sp, #44]	; 0x2c
 8005964:	4433      	add	r3, r6
 8005966:	930b      	str	r3, [sp, #44]	; 0x2c
 8005968:	e72a      	b.n	80057c0 <_vfprintf_r+0xb4>
 800596a:	9907      	ldr	r1, [sp, #28]
 800596c:	9809      	ldr	r0, [sp, #36]	; 0x24
 800596e:	aa28      	add	r2, sp, #160	; 0xa0
 8005970:	f004 f850 	bl	8009a14 <__sprint_r>
 8005974:	b980      	cbnz	r0, 8005998 <_vfprintf_r+0x28c>
 8005976:	f10d 08ac 	add.w	r8, sp, #172	; 0xac
 800597a:	e7f2      	b.n	8005962 <_vfprintf_r+0x256>
 800597c:	9907      	ldr	r1, [sp, #28]
 800597e:	9809      	ldr	r0, [sp, #36]	; 0x24
 8005980:	aa28      	add	r2, sp, #160	; 0xa0
 8005982:	f004 f847 	bl	8009a14 <__sprint_r>
 8005986:	2800      	cmp	r0, #0
 8005988:	f000 809b 	beq.w	8005ac2 <_vfprintf_r+0x3b6>
 800598c:	9b0d      	ldr	r3, [sp, #52]	; 0x34
 800598e:	b11b      	cbz	r3, 8005998 <_vfprintf_r+0x28c>
 8005990:	9809      	ldr	r0, [sp, #36]	; 0x24
 8005992:	4619      	mov	r1, r3
 8005994:	f002 fee8 	bl	8008768 <_free_r>
 8005998:	9a07      	ldr	r2, [sp, #28]
 800599a:	6e53      	ldr	r3, [r2, #100]	; 0x64
 800599c:	07d9      	lsls	r1, r3, #31
 800599e:	f140 80ea 	bpl.w	8005b76 <_vfprintf_r+0x46a>
 80059a2:	8993      	ldrh	r3, [r2, #12]
 80059a4:	065b      	lsls	r3, r3, #25
 80059a6:	f101 82d9 	bmi.w	8006f5c <_vfprintf_r+0x1850>
 80059aa:	980b      	ldr	r0, [sp, #44]	; 0x2c
 80059ac:	b055      	add	sp, #340	; 0x154
 80059ae:	e8bd 8ff0 	ldmia.w	sp!, {r4, r5, r6, r7, r8, r9, sl, fp, pc}
 80059b2:	9b07      	ldr	r3, [sp, #28]
 80059b4:	f9b3 200c 	ldrsh.w	r2, [r3, #12]
 80059b8:	0590      	lsls	r0, r2, #22
 80059ba:	b291      	uxth	r1, r2
 80059bc:	f53f aec4 	bmi.w	8005748 <_vfprintf_r+0x3c>
 80059c0:	461d      	mov	r5, r3
 80059c2:	6d98      	ldr	r0, [r3, #88]	; 0x58
 80059c4:	f7ff fa0e 	bl	8004de4 <__retarget_lock_acquire_recursive>
 80059c8:	f9b5 200c 	ldrsh.w	r2, [r5, #12]
 80059cc:	b291      	uxth	r1, r2
 80059ce:	e6bb      	b.n	8005748 <_vfprintf_r+0x3c>
 80059d0:	2e00      	cmp	r6, #0
 80059d2:	f000 8085 	beq.w	8005ae0 <_vfprintf_r+0x3d4>
 80059d6:	2200      	movs	r2, #0
 80059d8:	f88d 60ec 	strb.w	r6, [sp, #236]	; 0xec
 80059dc:	f88d 2083 	strb.w	r2, [sp, #131]	; 0x83
 80059e0:	2301      	movs	r3, #1
 80059e2:	e9cd 320c 	strd	r3, r2, [sp, #48]	; 0x30
 80059e6:	9306      	str	r3, [sp, #24]
 80059e8:	9208      	str	r2, [sp, #32]
 80059ea:	920f      	str	r2, [sp, #60]	; 0x3c
 80059ec:	9213      	str	r2, [sp, #76]	; 0x4c
 80059ee:	9210      	str	r2, [sp, #64]	; 0x40
 80059f0:	ad3b      	add	r5, sp, #236	; 0xec
 80059f2:	f017 0302 	ands.w	r3, r7, #2
 80059f6:	d002      	beq.n	80059fe <_vfprintf_r+0x2f2>
 80059f8:	9906      	ldr	r1, [sp, #24]
 80059fa:	3102      	adds	r1, #2
 80059fc:	9106      	str	r1, [sp, #24]
 80059fe:	f017 0b84 	ands.w	fp, r7, #132	; 0x84
 8005a02:	d107      	bne.n	8005a14 <_vfprintf_r+0x308>
 8005a04:	990a      	ldr	r1, [sp, #40]	; 0x28
 8005a06:	9806      	ldr	r0, [sp, #24]
 8005a08:	eba1 0900 	sub.w	r9, r1, r0
 8005a0c:	f1b9 0f00 	cmp.w	r9, #0
 8005a10:	f300 8370 	bgt.w	80060f4 <_vfprintf_r+0x9e8>
 8005a14:	9c2a      	ldr	r4, [sp, #168]	; 0xa8
 8005a16:	b18a      	cbz	r2, 8005a3c <_vfprintf_r+0x330>
 8005a18:	9a29      	ldr	r2, [sp, #164]	; 0xa4
 8005a1a:	f10d 0183 	add.w	r1, sp, #131	; 0x83
 8005a1e:	3201      	adds	r2, #1
 8005a20:	3401      	adds	r4, #1
 8005a22:	f8c8 1000 	str.w	r1, [r8]
 8005a26:	2a07      	cmp	r2, #7
 8005a28:	f04f 0101 	mov.w	r1, #1
 8005a2c:	942a      	str	r4, [sp, #168]	; 0xa8
 8005a2e:	9229      	str	r2, [sp, #164]	; 0xa4
 8005a30:	f8c8 1004 	str.w	r1, [r8, #4]
 8005a34:	f300 83b6 	bgt.w	80061a4 <_vfprintf_r+0xa98>
 8005a38:	f108 0808 	add.w	r8, r8, #8
 8005a3c:	b183      	cbz	r3, 8005a60 <_vfprintf_r+0x354>
 8005a3e:	9b29      	ldr	r3, [sp, #164]	; 0xa4
 8005a40:	aa21      	add	r2, sp, #132	; 0x84
 8005a42:	3301      	adds	r3, #1
 8005a44:	3402      	adds	r4, #2
 8005a46:	f8c8 2000 	str.w	r2, [r8]
 8005a4a:	2b07      	cmp	r3, #7
 8005a4c:	f04f 0202 	mov.w	r2, #2
 8005a50:	942a      	str	r4, [sp, #168]	; 0xa8
 8005a52:	9329      	str	r3, [sp, #164]	; 0xa4
 8005a54:	f8c8 2004 	str.w	r2, [r8, #4]
 8005a58:	f300 83b2 	bgt.w	80061c0 <_vfprintf_r+0xab4>
 8005a5c:	f108 0808 	add.w	r8, r8, #8
 8005a60:	f1bb 0f80 	cmp.w	fp, #128	; 0x80
 8005a64:	f000 8269 	beq.w	8005f3a <_vfprintf_r+0x82e>
 8005a68:	9b08      	ldr	r3, [sp, #32]
 8005a6a:	9a0c      	ldr	r2, [sp, #48]	; 0x30
 8005a6c:	eba3 0b02 	sub.w	fp, r3, r2
 8005a70:	f1bb 0f00 	cmp.w	fp, #0
 8005a74:	f300 82aa 	bgt.w	8005fcc <_vfprintf_r+0x8c0>
 8005a78:	05fb      	lsls	r3, r7, #23
 8005a7a:	f100 8200 	bmi.w	8005e7e <_vfprintf_r+0x772>
 8005a7e:	9b0c      	ldr	r3, [sp, #48]	; 0x30
 8005a80:	f8c8 3004 	str.w	r3, [r8, #4]
 8005a84:	441c      	add	r4, r3
 8005a86:	9b29      	ldr	r3, [sp, #164]	; 0xa4
 8005a88:	f8c8 5000 	str.w	r5, [r8]
 8005a8c:	3301      	adds	r3, #1
 8005a8e:	2b07      	cmp	r3, #7
 8005a90:	942a      	str	r4, [sp, #168]	; 0xa8
 8005a92:	9329      	str	r3, [sp, #164]	; 0xa4
 8005a94:	f300 8322 	bgt.w	80060dc <_vfprintf_r+0x9d0>
 8005a98:	f108 0808 	add.w	r8, r8, #8
 8005a9c:	0778      	lsls	r0, r7, #29
 8005a9e:	d505      	bpl.n	8005aac <_vfprintf_r+0x3a0>
 8005aa0:	9b0a      	ldr	r3, [sp, #40]	; 0x28
 8005aa2:	9a06      	ldr	r2, [sp, #24]
 8005aa4:	1a9d      	subs	r5, r3, r2
 8005aa6:	2d00      	cmp	r5, #0
 8005aa8:	f300 8396 	bgt.w	80061d8 <_vfprintf_r+0xacc>
 8005aac:	e9dd 230a 	ldrd	r2, r3, [sp, #40]	; 0x28
 8005ab0:	9906      	ldr	r1, [sp, #24]
 8005ab2:	428a      	cmp	r2, r1
 8005ab4:	bfac      	ite	ge
 8005ab6:	189b      	addge	r3, r3, r2
 8005ab8:	185b      	addlt	r3, r3, r1
 8005aba:	930b      	str	r3, [sp, #44]	; 0x2c
 8005abc:	2c00      	cmp	r4, #0
 8005abe:	f47f af5d 	bne.w	800597c <_vfprintf_r+0x270>
 8005ac2:	2300      	movs	r3, #0
 8005ac4:	9329      	str	r3, [sp, #164]	; 0xa4
 8005ac6:	9b0d      	ldr	r3, [sp, #52]	; 0x34
 8005ac8:	b11b      	cbz	r3, 8005ad2 <_vfprintf_r+0x3c6>
 8005aca:	990d      	ldr	r1, [sp, #52]	; 0x34
 8005acc:	9809      	ldr	r0, [sp, #36]	; 0x24
 8005ace:	f002 fe4b 	bl	8008768 <_free_r>
 8005ad2:	f10d 08ac 	add.w	r8, sp, #172	; 0xac
 8005ad6:	4655      	mov	r5, sl
 8005ad8:	782b      	ldrb	r3, [r5, #0]
 8005ada:	2b00      	cmp	r3, #0
 8005adc:	f47f ae63 	bne.w	80057a6 <_vfprintf_r+0x9a>
 8005ae0:	9b2a      	ldr	r3, [sp, #168]	; 0xa8
 8005ae2:	2b00      	cmp	r3, #0
 8005ae4:	f041 81d3 	bne.w	8006e8e <_vfprintf_r+0x1782>
 8005ae8:	2300      	movs	r3, #0
 8005aea:	9329      	str	r3, [sp, #164]	; 0xa4
 8005aec:	e754      	b.n	8005998 <_vfprintf_r+0x28c>
 8005aee:	9b0e      	ldr	r3, [sp, #56]	; 0x38
 8005af0:	3307      	adds	r3, #7
 8005af2:	f023 0207 	bic.w	r2, r3, #7
 8005af6:	e8f2 3402 	ldrd	r3, r4, [r2], #8
 8005afa:	e9cd 3414 	strd	r3, r4, [sp, #80]	; 0x50
 8005afe:	e9dd 3414 	ldrd	r3, r4, [sp, #80]	; 0x50
 8005b02:	f024 4400 	bic.w	r4, r4, #2147483648	; 0x80000000
 8005b06:	920e      	str	r2, [sp, #56]	; 0x38
 8005b08:	4699      	mov	r9, r3
 8005b0a:	4618      	mov	r0, r3
 8005b0c:	4621      	mov	r1, r4
 8005b0e:	4bb5      	ldr	r3, [pc, #724]	; (8005de4 <_vfprintf_r+0x6d8>)
 8005b10:	f04f 32ff 	mov.w	r2, #4294967295
 8005b14:	f7fb f92a 	bl	8000d6c <__aeabi_dcmpun>
 8005b18:	2800      	cmp	r0, #0
 8005b1a:	f040 84ef 	bne.w	80064fc <_vfprintf_r+0xdf0>
 8005b1e:	4bb1      	ldr	r3, [pc, #708]	; (8005de4 <_vfprintf_r+0x6d8>)
 8005b20:	4648      	mov	r0, r9
 8005b22:	4621      	mov	r1, r4
 8005b24:	f04f 32ff 	mov.w	r2, #4294967295
 8005b28:	f7fb f902 	bl	8000d30 <__aeabi_dcmple>
 8005b2c:	2800      	cmp	r0, #0
 8005b2e:	f040 84e5 	bne.w	80064fc <_vfprintf_r+0xdf0>
 8005b32:	e9dd 0114 	ldrd	r0, r1, [sp, #80]	; 0x50
 8005b36:	2200      	movs	r2, #0
 8005b38:	2300      	movs	r3, #0
 8005b3a:	f7fb f8ef 	bl	8000d1c <__aeabi_dcmplt>
 8005b3e:	2800      	cmp	r0, #0
 8005b40:	f040 8767 	bne.w	8006a12 <_vfprintf_r+0x1306>
 8005b44:	f89d 2083 	ldrb.w	r2, [sp, #131]	; 0x83
 8005b48:	4da7      	ldr	r5, [pc, #668]	; (8005de8 <_vfprintf_r+0x6dc>)
 8005b4a:	4ba8      	ldr	r3, [pc, #672]	; (8005dec <_vfprintf_r+0x6e0>)
 8005b4c:	f027 0780 	bic.w	r7, r7, #128	; 0x80
 8005b50:	2103      	movs	r1, #3
 8005b52:	2e47      	cmp	r6, #71	; 0x47
 8005b54:	bfc8      	it	gt
 8005b56:	461d      	movgt	r5, r3
 8005b58:	2300      	movs	r3, #0
 8005b5a:	930d      	str	r3, [sp, #52]	; 0x34
 8005b5c:	9106      	str	r1, [sp, #24]
 8005b5e:	910c      	str	r1, [sp, #48]	; 0x30
 8005b60:	9308      	str	r3, [sp, #32]
 8005b62:	930f      	str	r3, [sp, #60]	; 0x3c
 8005b64:	9313      	str	r3, [sp, #76]	; 0x4c
 8005b66:	9310      	str	r3, [sp, #64]	; 0x40
 8005b68:	2a00      	cmp	r2, #0
 8005b6a:	f43f af42 	beq.w	80059f2 <_vfprintf_r+0x2e6>
 8005b6e:	9b06      	ldr	r3, [sp, #24]
 8005b70:	3301      	adds	r3, #1
 8005b72:	9306      	str	r3, [sp, #24]
 8005b74:	e73d      	b.n	80059f2 <_vfprintf_r+0x2e6>
 8005b76:	9b07      	ldr	r3, [sp, #28]
 8005b78:	899b      	ldrh	r3, [r3, #12]
 8005b7a:	059a      	lsls	r2, r3, #22
 8005b7c:	f53f af12 	bmi.w	80059a4 <_vfprintf_r+0x298>
 8005b80:	9c07      	ldr	r4, [sp, #28]
 8005b82:	6da0      	ldr	r0, [r4, #88]	; 0x58
 8005b84:	f7ff f930 	bl	8004de8 <__retarget_lock_release_recursive>
 8005b88:	89a3      	ldrh	r3, [r4, #12]
 8005b8a:	e70b      	b.n	80059a4 <_vfprintf_r+0x298>
 8005b8c:	9809      	ldr	r0, [sp, #36]	; 0x24
 8005b8e:	f7ff f84b 	bl	8004c28 <__sinit>
 8005b92:	e5d1      	b.n	8005738 <_vfprintf_r+0x2c>
 8005b94:	f89a 6000 	ldrb.w	r6, [sl]
 8005b98:	f047 0720 	orr.w	r7, r7, #32
 8005b9c:	e624      	b.n	80057e8 <_vfprintf_r+0xdc>
 8005b9e:	f047 0710 	orr.w	r7, r7, #16
 8005ba2:	06ba      	lsls	r2, r7, #26
 8005ba4:	9b0e      	ldr	r3, [sp, #56]	; 0x38
 8005ba6:	f140 843b 	bpl.w	8006420 <_vfprintf_r+0xd14>
 8005baa:	3307      	adds	r3, #7
 8005bac:	f023 0307 	bic.w	r3, r3, #7
 8005bb0:	461a      	mov	r2, r3
 8005bb2:	685b      	ldr	r3, [r3, #4]
 8005bb4:	f852 4b08 	ldr.w	r4, [r2], #8
 8005bb8:	920e      	str	r2, [sp, #56]	; 0x38
 8005bba:	4699      	mov	r9, r3
 8005bbc:	2b00      	cmp	r3, #0
 8005bbe:	f2c0 844c 	blt.w	800645a <_vfprintf_r+0xd4e>
 8005bc2:	9b08      	ldr	r3, [sp, #32]
 8005bc4:	3301      	adds	r3, #1
 8005bc6:	f000 82d8 	beq.w	800617a <_vfprintf_r+0xa6e>
 8005bca:	ea54 0309 	orrs.w	r3, r4, r9
 8005bce:	f027 0b80 	bic.w	fp, r7, #128	; 0x80
 8005bd2:	f040 82d3 	bne.w	800617c <_vfprintf_r+0xa70>
 8005bd6:	9b08      	ldr	r3, [sp, #32]
 8005bd8:	2b00      	cmp	r3, #0
 8005bda:	f040 82d4 	bne.w	8006186 <_vfprintf_r+0xa7a>
 8005bde:	465f      	mov	r7, fp
 8005be0:	2300      	movs	r3, #0
 8005be2:	9308      	str	r3, [sp, #32]
 8005be4:	930c      	str	r3, [sp, #48]	; 0x30
 8005be6:	ad54      	add	r5, sp, #336	; 0x150
 8005be8:	e11d      	b.n	8005e26 <_vfprintf_r+0x71a>
 8005bea:	9b0e      	ldr	r3, [sp, #56]	; 0x38
 8005bec:	2200      	movs	r2, #0
 8005bee:	f853 1b04 	ldr.w	r1, [r3], #4
 8005bf2:	f88d 2083 	strb.w	r2, [sp, #131]	; 0x83
 8005bf6:	f88d 10ec 	strb.w	r1, [sp, #236]	; 0xec
 8005bfa:	930e      	str	r3, [sp, #56]	; 0x38
 8005bfc:	e6f0      	b.n	80059e0 <_vfprintf_r+0x2d4>
 8005bfe:	9c0e      	ldr	r4, [sp, #56]	; 0x38
 8005c00:	9b08      	ldr	r3, [sp, #32]
 8005c02:	f854 5b04 	ldr.w	r5, [r4], #4
 8005c06:	f04f 0900 	mov.w	r9, #0
 8005c0a:	f88d 9083 	strb.w	r9, [sp, #131]	; 0x83
 8005c0e:	2d00      	cmp	r5, #0
 8005c10:	f000 8593 	beq.w	800673a <_vfprintf_r+0x102e>
 8005c14:	1c5a      	adds	r2, r3, #1
 8005c16:	f000 8651 	beq.w	80068bc <_vfprintf_r+0x11b0>
 8005c1a:	461a      	mov	r2, r3
 8005c1c:	4649      	mov	r1, r9
 8005c1e:	4628      	mov	r0, r5
 8005c20:	f7fa fbfe 	bl	8000420 <memchr>
 8005c24:	900d      	str	r0, [sp, #52]	; 0x34
 8005c26:	2800      	cmp	r0, #0
 8005c28:	f001 810e 	beq.w	8006e48 <_vfprintf_r+0x173c>
 8005c2c:	9b0d      	ldr	r3, [sp, #52]	; 0x34
 8005c2e:	f8cd 9020 	str.w	r9, [sp, #32]
 8005c32:	1b5b      	subs	r3, r3, r5
 8005c34:	930c      	str	r3, [sp, #48]	; 0x30
 8005c36:	940e      	str	r4, [sp, #56]	; 0x38
 8005c38:	ea23 73e3 	bic.w	r3, r3, r3, asr #31
 8005c3c:	f89d 2083 	ldrb.w	r2, [sp, #131]	; 0x83
 8005c40:	9306      	str	r3, [sp, #24]
 8005c42:	f8cd 9034 	str.w	r9, [sp, #52]	; 0x34
 8005c46:	f8cd 903c 	str.w	r9, [sp, #60]	; 0x3c
 8005c4a:	f8cd 904c 	str.w	r9, [sp, #76]	; 0x4c
 8005c4e:	f8cd 9040 	str.w	r9, [sp, #64]	; 0x40
 8005c52:	e789      	b.n	8005b68 <_vfprintf_r+0x45c>
 8005c54:	f047 0710 	orr.w	r7, r7, #16
 8005c58:	f017 0920 	ands.w	r9, r7, #32
 8005c5c:	f000 83d2 	beq.w	8006404 <_vfprintf_r+0xcf8>
 8005c60:	9b0e      	ldr	r3, [sp, #56]	; 0x38
 8005c62:	3307      	adds	r3, #7
 8005c64:	f023 0307 	bic.w	r3, r3, #7
 8005c68:	f8d3 9004 	ldr.w	r9, [r3, #4]
 8005c6c:	f853 4b08 	ldr.w	r4, [r3], #8
 8005c70:	930e      	str	r3, [sp, #56]	; 0x38
 8005c72:	f427 6b80 	bic.w	fp, r7, #1024	; 0x400
 8005c76:	2300      	movs	r3, #0
 8005c78:	2200      	movs	r2, #0
 8005c7a:	f88d 2083 	strb.w	r2, [sp, #131]	; 0x83
 8005c7e:	9a08      	ldr	r2, [sp, #32]
 8005c80:	1c51      	adds	r1, r2, #1
 8005c82:	f000 80b8 	beq.w	8005df6 <_vfprintf_r+0x6ea>
 8005c86:	ea54 0109 	orrs.w	r1, r4, r9
 8005c8a:	f02b 0780 	bic.w	r7, fp, #128	; 0x80
 8005c8e:	f040 80b1 	bne.w	8005df4 <_vfprintf_r+0x6e8>
 8005c92:	2a00      	cmp	r2, #0
 8005c94:	f040 85f6 	bne.w	8006884 <_vfprintf_r+0x1178>
 8005c98:	2b00      	cmp	r3, #0
 8005c9a:	d1a1      	bne.n	8005be0 <_vfprintf_r+0x4d4>
 8005c9c:	f01b 0301 	ands.w	r3, fp, #1
 8005ca0:	930c      	str	r3, [sp, #48]	; 0x30
 8005ca2:	f000 8414 	beq.w	80064ce <_vfprintf_r+0xdc2>
 8005ca6:	2330      	movs	r3, #48	; 0x30
 8005ca8:	f88d 314f 	strb.w	r3, [sp, #335]	; 0x14f
 8005cac:	f20d 154f 	addw	r5, sp, #335	; 0x14f
 8005cb0:	e0b9      	b.n	8005e26 <_vfprintf_r+0x71a>
 8005cb2:	9b0e      	ldr	r3, [sp, #56]	; 0x38
 8005cb4:	f853 2b04 	ldr.w	r2, [r3], #4
 8005cb8:	920a      	str	r2, [sp, #40]	; 0x28
 8005cba:	2a00      	cmp	r2, #0
 8005cbc:	f280 83da 	bge.w	8006474 <_vfprintf_r+0xd68>
 8005cc0:	9a0a      	ldr	r2, [sp, #40]	; 0x28
 8005cc2:	930e      	str	r3, [sp, #56]	; 0x38
 8005cc4:	4252      	negs	r2, r2
 8005cc6:	920a      	str	r2, [sp, #40]	; 0x28
 8005cc8:	f89a 6000 	ldrb.w	r6, [sl]
 8005ccc:	f047 0704 	orr.w	r7, r7, #4
 8005cd0:	e58a      	b.n	80057e8 <_vfprintf_r+0xdc>
 8005cd2:	06bd      	lsls	r5, r7, #26
 8005cd4:	f100 84d1 	bmi.w	800667a <_vfprintf_r+0xf6e>
 8005cd8:	06fc      	lsls	r4, r7, #27
 8005cda:	f100 85d8 	bmi.w	800688e <_vfprintf_r+0x1182>
 8005cde:	0678      	lsls	r0, r7, #25
 8005ce0:	f100 86a5 	bmi.w	8006a2e <_vfprintf_r+0x1322>
 8005ce4:	05b9      	lsls	r1, r7, #22
 8005ce6:	f140 85d2 	bpl.w	800688e <_vfprintf_r+0x1182>
 8005cea:	9b0e      	ldr	r3, [sp, #56]	; 0x38
 8005cec:	990b      	ldr	r1, [sp, #44]	; 0x2c
 8005cee:	f853 2b04 	ldr.w	r2, [r3], #4
 8005cf2:	930e      	str	r3, [sp, #56]	; 0x38
 8005cf4:	7011      	strb	r1, [r2, #0]
 8005cf6:	4655      	mov	r5, sl
 8005cf8:	e6ee      	b.n	8005ad8 <_vfprintf_r+0x3cc>
 8005cfa:	f89a 6000 	ldrb.w	r6, [sl]
 8005cfe:	f88d 4083 	strb.w	r4, [sp, #131]	; 0x83
 8005d02:	e571      	b.n	80057e8 <_vfprintf_r+0xdc>
 8005d04:	f89a 6000 	ldrb.w	r6, [sl]
 8005d08:	f047 0780 	orr.w	r7, r7, #128	; 0x80
 8005d0c:	e56c      	b.n	80057e8 <_vfprintf_r+0xdc>
 8005d0e:	4652      	mov	r2, sl
 8005d10:	f812 6b01 	ldrb.w	r6, [r2], #1
 8005d14:	2e2a      	cmp	r6, #42	; 0x2a
 8005d16:	f001 823f 	beq.w	8007198 <_vfprintf_r+0x1a8c>
 8005d1a:	f1a6 0330 	sub.w	r3, r6, #48	; 0x30
 8005d1e:	2b09      	cmp	r3, #9
 8005d20:	4692      	mov	sl, r2
 8005d22:	bf98      	it	ls
 8005d24:	2200      	movls	r2, #0
 8005d26:	f201 80bc 	bhi.w	8006ea2 <_vfprintf_r+0x1796>
 8005d2a:	f81a 6b01 	ldrb.w	r6, [sl], #1
 8005d2e:	eb02 0282 	add.w	r2, r2, r2, lsl #2
 8005d32:	eb03 0242 	add.w	r2, r3, r2, lsl #1
 8005d36:	f1a6 0330 	sub.w	r3, r6, #48	; 0x30
 8005d3a:	2b09      	cmp	r3, #9
 8005d3c:	d9f5      	bls.n	8005d2a <_vfprintf_r+0x61e>
 8005d3e:	9208      	str	r2, [sp, #32]
 8005d40:	e554      	b.n	80057ec <_vfprintf_r+0xe0>
 8005d42:	f047 0b10 	orr.w	fp, r7, #16
 8005d46:	f01b 0920 	ands.w	r9, fp, #32
 8005d4a:	f000 8376 	beq.w	800643a <_vfprintf_r+0xd2e>
 8005d4e:	9b0e      	ldr	r3, [sp, #56]	; 0x38
 8005d50:	3307      	adds	r3, #7
 8005d52:	f023 0307 	bic.w	r3, r3, #7
 8005d56:	f8d3 9004 	ldr.w	r9, [r3, #4]
 8005d5a:	f853 4b08 	ldr.w	r4, [r3], #8
 8005d5e:	930e      	str	r3, [sp, #56]	; 0x38
 8005d60:	2301      	movs	r3, #1
 8005d62:	e789      	b.n	8005c78 <_vfprintf_r+0x56c>
 8005d64:	9b0e      	ldr	r3, [sp, #56]	; 0x38
 8005d66:	f853 4b04 	ldr.w	r4, [r3], #4
 8005d6a:	930e      	str	r3, [sp, #56]	; 0x38
 8005d6c:	2330      	movs	r3, #48	; 0x30
 8005d6e:	2678      	movs	r6, #120	; 0x78
 8005d70:	f88d 3084 	strb.w	r3, [sp, #132]	; 0x84
 8005d74:	4b1e      	ldr	r3, [pc, #120]	; (8005df0 <_vfprintf_r+0x6e4>)
 8005d76:	9318      	str	r3, [sp, #96]	; 0x60
 8005d78:	f047 0b02 	orr.w	fp, r7, #2
 8005d7c:	f88d 6085 	strb.w	r6, [sp, #133]	; 0x85
 8005d80:	f04f 0900 	mov.w	r9, #0
 8005d84:	2302      	movs	r3, #2
 8005d86:	e777      	b.n	8005c78 <_vfprintf_r+0x56c>
 8005d88:	f89a 6000 	ldrb.w	r6, [sl]
 8005d8c:	2e68      	cmp	r6, #104	; 0x68
 8005d8e:	bf03      	ittte	eq
 8005d90:	f89a 6001 	ldrbeq.w	r6, [sl, #1]
 8005d94:	f447 7700 	orreq.w	r7, r7, #512	; 0x200
 8005d98:	f10a 0a01 	addeq.w	sl, sl, #1
 8005d9c:	f047 0740 	orrne.w	r7, r7, #64	; 0x40
 8005da0:	e522      	b.n	80057e8 <_vfprintf_r+0xdc>
 8005da2:	f89a 6000 	ldrb.w	r6, [sl]
 8005da6:	2e6c      	cmp	r6, #108	; 0x6c
 8005da8:	bf03      	ittte	eq
 8005daa:	f89a 6001 	ldrbeq.w	r6, [sl, #1]
 8005dae:	f047 0720 	orreq.w	r7, r7, #32
 8005db2:	f10a 0a01 	addeq.w	sl, sl, #1
 8005db6:	f047 0710 	orrne.w	r7, r7, #16
 8005dba:	e515      	b.n	80057e8 <_vfprintf_r+0xdc>
 8005dbc:	f89a 6000 	ldrb.w	r6, [sl]
 8005dc0:	f047 0708 	orr.w	r7, r7, #8
 8005dc4:	e510      	b.n	80057e8 <_vfprintf_r+0xdc>
 8005dc6:	f89a 6000 	ldrb.w	r6, [sl]
 8005dca:	f047 0701 	orr.w	r7, r7, #1
 8005dce:	e50b      	b.n	80057e8 <_vfprintf_r+0xdc>
 8005dd0:	f89d 3083 	ldrb.w	r3, [sp, #131]	; 0x83
 8005dd4:	2b00      	cmp	r3, #0
 8005dd6:	f47f ad8e 	bne.w	80058f6 <_vfprintf_r+0x1ea>
 8005dda:	f89a 6000 	ldrb.w	r6, [sl]
 8005dde:	f88d 9083 	strb.w	r9, [sp, #131]	; 0x83
 8005de2:	e501      	b.n	80057e8 <_vfprintf_r+0xdc>
 8005de4:	7fefffff 	.word	0x7fefffff
 8005de8:	0800b440 	.word	0x0800b440
 8005dec:	0800b444 	.word	0x0800b444
 8005df0:	0800b450 	.word	0x0800b450
 8005df4:	46bb      	mov	fp, r7
 8005df6:	2b01      	cmp	r3, #1
 8005df8:	f000 81c0 	beq.w	800617c <_vfprintf_r+0xa70>
 8005dfc:	2b02      	cmp	r3, #2
 8005dfe:	ad54      	add	r5, sp, #336	; 0x150
 8005e00:	d120      	bne.n	8005e44 <_vfprintf_r+0x738>
 8005e02:	9a18      	ldr	r2, [sp, #96]	; 0x60
 8005e04:	f004 030f 	and.w	r3, r4, #15
 8005e08:	0924      	lsrs	r4, r4, #4
 8005e0a:	5cd3      	ldrb	r3, [r2, r3]
 8005e0c:	f805 3d01 	strb.w	r3, [r5, #-1]!
 8005e10:	ea44 7409 	orr.w	r4, r4, r9, lsl #28
 8005e14:	ea4f 1919 	mov.w	r9, r9, lsr #4
 8005e18:	ea54 0309 	orrs.w	r3, r4, r9
 8005e1c:	d1f2      	bne.n	8005e04 <_vfprintf_r+0x6f8>
 8005e1e:	ab54      	add	r3, sp, #336	; 0x150
 8005e20:	1b5b      	subs	r3, r3, r5
 8005e22:	465f      	mov	r7, fp
 8005e24:	930c      	str	r3, [sp, #48]	; 0x30
 8005e26:	9908      	ldr	r1, [sp, #32]
 8005e28:	980c      	ldr	r0, [sp, #48]	; 0x30
 8005e2a:	f89d 2083 	ldrb.w	r2, [sp, #131]	; 0x83
 8005e2e:	4281      	cmp	r1, r0
 8005e30:	f04f 0300 	mov.w	r3, #0
 8005e34:	bfb8      	it	lt
 8005e36:	4601      	movlt	r1, r0
 8005e38:	930d      	str	r3, [sp, #52]	; 0x34
 8005e3a:	9106      	str	r1, [sp, #24]
 8005e3c:	930f      	str	r3, [sp, #60]	; 0x3c
 8005e3e:	9313      	str	r3, [sp, #76]	; 0x4c
 8005e40:	9310      	str	r3, [sp, #64]	; 0x40
 8005e42:	e691      	b.n	8005b68 <_vfprintf_r+0x45c>
 8005e44:	f004 0307 	and.w	r3, r4, #7
 8005e48:	08e4      	lsrs	r4, r4, #3
 8005e4a:	ea44 7449 	orr.w	r4, r4, r9, lsl #29
 8005e4e:	ea4f 09d9 	mov.w	r9, r9, lsr #3
 8005e52:	3330      	adds	r3, #48	; 0x30
 8005e54:	ea54 0109 	orrs.w	r1, r4, r9
 8005e58:	462a      	mov	r2, r5
 8005e5a:	f805 3d01 	strb.w	r3, [r5, #-1]!
 8005e5e:	d1f1      	bne.n	8005e44 <_vfprintf_r+0x738>
 8005e60:	f01b 0f01 	tst.w	fp, #1
 8005e64:	d0db      	beq.n	8005e1e <_vfprintf_r+0x712>
 8005e66:	2b30      	cmp	r3, #48	; 0x30
 8005e68:	d0d9      	beq.n	8005e1e <_vfprintf_r+0x712>
 8005e6a:	2330      	movs	r3, #48	; 0x30
 8005e6c:	3a02      	subs	r2, #2
 8005e6e:	f805 3c01 	strb.w	r3, [r5, #-1]
 8005e72:	ab54      	add	r3, sp, #336	; 0x150
 8005e74:	1a9b      	subs	r3, r3, r2
 8005e76:	465f      	mov	r7, fp
 8005e78:	930c      	str	r3, [sp, #48]	; 0x30
 8005e7a:	4615      	mov	r5, r2
 8005e7c:	e7d3      	b.n	8005e26 <_vfprintf_r+0x71a>
 8005e7e:	2e65      	cmp	r6, #101	; 0x65
 8005e80:	f340 80e6 	ble.w	8006050 <_vfprintf_r+0x944>
 8005e84:	e9dd 0114 	ldrd	r0, r1, [sp, #80]	; 0x50
 8005e88:	2200      	movs	r2, #0
 8005e8a:	2300      	movs	r3, #0
 8005e8c:	f7fa ff3c 	bl	8000d08 <__aeabi_dcmpeq>
 8005e90:	2800      	cmp	r0, #0
 8005e92:	f000 81dc 	beq.w	800624e <_vfprintf_r+0xb42>
 8005e96:	9b29      	ldr	r3, [sp, #164]	; 0xa4
 8005e98:	4abf      	ldr	r2, [pc, #764]	; (8006198 <_vfprintf_r+0xa8c>)
 8005e9a:	f8c8 2000 	str.w	r2, [r8]
 8005e9e:	3301      	adds	r3, #1
 8005ea0:	3401      	adds	r4, #1
 8005ea2:	2201      	movs	r2, #1
 8005ea4:	2b07      	cmp	r3, #7
 8005ea6:	942a      	str	r4, [sp, #168]	; 0xa8
 8005ea8:	9329      	str	r3, [sp, #164]	; 0xa4
 8005eaa:	f8c8 2004 	str.w	r2, [r8, #4]
 8005eae:	f300 84cc 	bgt.w	800684a <_vfprintf_r+0x113e>
 8005eb2:	f108 0808 	add.w	r8, r8, #8
 8005eb6:	9b22      	ldr	r3, [sp, #136]	; 0x88
 8005eb8:	9a12      	ldr	r2, [sp, #72]	; 0x48
 8005eba:	4293      	cmp	r3, r2
 8005ebc:	f280 82d6 	bge.w	800646c <_vfprintf_r+0xd60>
 8005ec0:	9b16      	ldr	r3, [sp, #88]	; 0x58
 8005ec2:	9a17      	ldr	r2, [sp, #92]	; 0x5c
 8005ec4:	441c      	add	r4, r3
 8005ec6:	e9c8 2300 	strd	r2, r3, [r8]
 8005eca:	9b29      	ldr	r3, [sp, #164]	; 0xa4
 8005ecc:	942a      	str	r4, [sp, #168]	; 0xa8
 8005ece:	3301      	adds	r3, #1
 8005ed0:	2b07      	cmp	r3, #7
 8005ed2:	9329      	str	r3, [sp, #164]	; 0xa4
 8005ed4:	f300 8424 	bgt.w	8006720 <_vfprintf_r+0x1014>
 8005ed8:	f108 0808 	add.w	r8, r8, #8
 8005edc:	9b12      	ldr	r3, [sp, #72]	; 0x48
 8005ede:	1e5d      	subs	r5, r3, #1
 8005ee0:	2d00      	cmp	r5, #0
 8005ee2:	f77f addb 	ble.w	8005a9c <_vfprintf_r+0x390>
 8005ee6:	2d10      	cmp	r5, #16
 8005ee8:	9b29      	ldr	r3, [sp, #164]	; 0xa4
 8005eea:	f8df 92b0 	ldr.w	r9, [pc, #688]	; 800619c <_vfprintf_r+0xa90>
 8005eee:	f340 84bd 	ble.w	800686c <_vfprintf_r+0x1160>
 8005ef2:	4649      	mov	r1, r9
 8005ef4:	4622      	mov	r2, r4
 8005ef6:	46b9      	mov	r9, r7
 8005ef8:	f8dd b024 	ldr.w	fp, [sp, #36]	; 0x24
 8005efc:	9c07      	ldr	r4, [sp, #28]
 8005efe:	2610      	movs	r6, #16
 8005f00:	460f      	mov	r7, r1
 8005f02:	e005      	b.n	8005f10 <_vfprintf_r+0x804>
 8005f04:	f108 0808 	add.w	r8, r8, #8
 8005f08:	3d10      	subs	r5, #16
 8005f0a:	2d10      	cmp	r5, #16
 8005f0c:	f340 84aa 	ble.w	8006864 <_vfprintf_r+0x1158>
 8005f10:	3301      	adds	r3, #1
 8005f12:	3210      	adds	r2, #16
 8005f14:	2b07      	cmp	r3, #7
 8005f16:	e9c8 7600 	strd	r7, r6, [r8]
 8005f1a:	e9cd 3229 	strd	r3, r2, [sp, #164]	; 0xa4
 8005f1e:	ddf1      	ble.n	8005f04 <_vfprintf_r+0x7f8>
 8005f20:	aa28      	add	r2, sp, #160	; 0xa0
 8005f22:	4621      	mov	r1, r4
 8005f24:	4658      	mov	r0, fp
 8005f26:	f003 fd75 	bl	8009a14 <__sprint_r>
 8005f2a:	2800      	cmp	r0, #0
 8005f2c:	f47f ad2e 	bne.w	800598c <_vfprintf_r+0x280>
 8005f30:	e9dd 3229 	ldrd	r3, r2, [sp, #164]	; 0xa4
 8005f34:	f10d 08ac 	add.w	r8, sp, #172	; 0xac
 8005f38:	e7e6      	b.n	8005f08 <_vfprintf_r+0x7fc>
 8005f3a:	9b0a      	ldr	r3, [sp, #40]	; 0x28
 8005f3c:	9a06      	ldr	r2, [sp, #24]
 8005f3e:	eba3 0b02 	sub.w	fp, r3, r2
 8005f42:	f1bb 0f00 	cmp.w	fp, #0
 8005f46:	f77f ad8f 	ble.w	8005a68 <_vfprintf_r+0x35c>
 8005f4a:	f1bb 0f10 	cmp.w	fp, #16
 8005f4e:	9a29      	ldr	r2, [sp, #164]	; 0xa4
 8005f50:	f8df 9248 	ldr.w	r9, [pc, #584]	; 800619c <_vfprintf_r+0xa90>
 8005f54:	dd2c      	ble.n	8005fb0 <_vfprintf_r+0x8a4>
 8005f56:	961d      	str	r6, [sp, #116]	; 0x74
 8005f58:	4621      	mov	r1, r4
 8005f5a:	464e      	mov	r6, r9
 8005f5c:	9c07      	ldr	r4, [sp, #28]
 8005f5e:	f8dd 9024 	ldr.w	r9, [sp, #36]	; 0x24
 8005f62:	2310      	movs	r3, #16
 8005f64:	e006      	b.n	8005f74 <_vfprintf_r+0x868>
 8005f66:	f1ab 0b10 	sub.w	fp, fp, #16
 8005f6a:	f1bb 0f10 	cmp.w	fp, #16
 8005f6e:	f108 0808 	add.w	r8, r8, #8
 8005f72:	dd1a      	ble.n	8005faa <_vfprintf_r+0x89e>
 8005f74:	3201      	adds	r2, #1
 8005f76:	3110      	adds	r1, #16
 8005f78:	2a07      	cmp	r2, #7
 8005f7a:	e9c8 6300 	strd	r6, r3, [r8]
 8005f7e:	e9cd 2129 	strd	r2, r1, [sp, #164]	; 0xa4
 8005f82:	ddf0      	ble.n	8005f66 <_vfprintf_r+0x85a>
 8005f84:	aa28      	add	r2, sp, #160	; 0xa0
 8005f86:	4621      	mov	r1, r4
 8005f88:	4648      	mov	r0, r9
 8005f8a:	f10d 08ac 	add.w	r8, sp, #172	; 0xac
 8005f8e:	f003 fd41 	bl	8009a14 <__sprint_r>
 8005f92:	2800      	cmp	r0, #0
 8005f94:	f47f acfa 	bne.w	800598c <_vfprintf_r+0x280>
 8005f98:	f1ab 0b10 	sub.w	fp, fp, #16
 8005f9c:	f1bb 0f10 	cmp.w	fp, #16
 8005fa0:	e9dd 2129 	ldrd	r2, r1, [sp, #164]	; 0xa4
 8005fa4:	f04f 0310 	mov.w	r3, #16
 8005fa8:	dce4      	bgt.n	8005f74 <_vfprintf_r+0x868>
 8005faa:	46b1      	mov	r9, r6
 8005fac:	9e1d      	ldr	r6, [sp, #116]	; 0x74
 8005fae:	460c      	mov	r4, r1
 8005fb0:	3201      	adds	r2, #1
 8005fb2:	445c      	add	r4, fp
 8005fb4:	2a07      	cmp	r2, #7
 8005fb6:	e9cd 2429 	strd	r2, r4, [sp, #164]	; 0xa4
 8005fba:	f8c8 9000 	str.w	r9, [r8]
 8005fbe:	f8c8 b004 	str.w	fp, [r8, #4]
 8005fc2:	f300 83a0 	bgt.w	8006706 <_vfprintf_r+0xffa>
 8005fc6:	f108 0808 	add.w	r8, r8, #8
 8005fca:	e54d      	b.n	8005a68 <_vfprintf_r+0x35c>
 8005fcc:	f1bb 0f10 	cmp.w	fp, #16
 8005fd0:	9a29      	ldr	r2, [sp, #164]	; 0xa4
 8005fd2:	f8df 91c8 	ldr.w	r9, [pc, #456]	; 800619c <_vfprintf_r+0xa90>
 8005fd6:	dd2d      	ble.n	8006034 <_vfprintf_r+0x928>
 8005fd8:	4620      	mov	r0, r4
 8005fda:	4641      	mov	r1, r8
 8005fdc:	464c      	mov	r4, r9
 8005fde:	46a8      	mov	r8, r5
 8005fe0:	f8dd 9024 	ldr.w	r9, [sp, #36]	; 0x24
 8005fe4:	9d07      	ldr	r5, [sp, #28]
 8005fe6:	2310      	movs	r3, #16
 8005fe8:	e006      	b.n	8005ff8 <_vfprintf_r+0x8ec>
 8005fea:	f1ab 0b10 	sub.w	fp, fp, #16
 8005fee:	f1bb 0f10 	cmp.w	fp, #16
 8005ff2:	f101 0108 	add.w	r1, r1, #8
 8005ff6:	dd19      	ble.n	800602c <_vfprintf_r+0x920>
 8005ff8:	3201      	adds	r2, #1
 8005ffa:	3010      	adds	r0, #16
 8005ffc:	2a07      	cmp	r2, #7
 8005ffe:	e9c1 4300 	strd	r4, r3, [r1]
 8006002:	e9cd 2029 	strd	r2, r0, [sp, #164]	; 0xa4
 8006006:	ddf0      	ble.n	8005fea <_vfprintf_r+0x8de>
 8006008:	aa28      	add	r2, sp, #160	; 0xa0
 800600a:	4629      	mov	r1, r5
 800600c:	4648      	mov	r0, r9
 800600e:	f003 fd01 	bl	8009a14 <__sprint_r>
 8006012:	2800      	cmp	r0, #0
 8006014:	f47f acba 	bne.w	800598c <_vfprintf_r+0x280>
 8006018:	f1ab 0b10 	sub.w	fp, fp, #16
 800601c:	f1bb 0f10 	cmp.w	fp, #16
 8006020:	e9dd 2029 	ldrd	r2, r0, [sp, #164]	; 0xa4
 8006024:	a92b      	add	r1, sp, #172	; 0xac
 8006026:	f04f 0310 	mov.w	r3, #16
 800602a:	dce5      	bgt.n	8005ff8 <_vfprintf_r+0x8ec>
 800602c:	4645      	mov	r5, r8
 800602e:	46a1      	mov	r9, r4
 8006030:	4688      	mov	r8, r1
 8006032:	4604      	mov	r4, r0
 8006034:	3201      	adds	r2, #1
 8006036:	445c      	add	r4, fp
 8006038:	2a07      	cmp	r2, #7
 800603a:	e9cd 2429 	strd	r2, r4, [sp, #164]	; 0xa4
 800603e:	f8c8 9000 	str.w	r9, [r8]
 8006042:	f8c8 b004 	str.w	fp, [r8, #4]
 8006046:	f300 81d0 	bgt.w	80063ea <_vfprintf_r+0xcde>
 800604a:	f108 0808 	add.w	r8, r8, #8
 800604e:	e513      	b.n	8005a78 <_vfprintf_r+0x36c>
 8006050:	9b12      	ldr	r3, [sp, #72]	; 0x48
 8006052:	2b01      	cmp	r3, #1
 8006054:	f340 8180 	ble.w	8006358 <_vfprintf_r+0xc4c>
 8006058:	9e29      	ldr	r6, [sp, #164]	; 0xa4
 800605a:	f8c8 5000 	str.w	r5, [r8]
 800605e:	3601      	adds	r6, #1
 8006060:	3401      	adds	r4, #1
 8006062:	2301      	movs	r3, #1
 8006064:	2e07      	cmp	r6, #7
 8006066:	942a      	str	r4, [sp, #168]	; 0xa8
 8006068:	9629      	str	r6, [sp, #164]	; 0xa4
 800606a:	f8c8 3004 	str.w	r3, [r8, #4]
 800606e:	f300 837c 	bgt.w	800676a <_vfprintf_r+0x105e>
 8006072:	f108 0808 	add.w	r8, r8, #8
 8006076:	9b16      	ldr	r3, [sp, #88]	; 0x58
 8006078:	9a17      	ldr	r2, [sp, #92]	; 0x5c
 800607a:	3601      	adds	r6, #1
 800607c:	441c      	add	r4, r3
 800607e:	2e07      	cmp	r6, #7
 8006080:	e9c8 2300 	strd	r2, r3, [r8]
 8006084:	e9cd 6429 	strd	r6, r4, [sp, #164]	; 0xa4
 8006088:	f300 837c 	bgt.w	8006784 <_vfprintf_r+0x1078>
 800608c:	f108 0808 	add.w	r8, r8, #8
 8006090:	e9dd 0114 	ldrd	r0, r1, [sp, #80]	; 0x50
 8006094:	2200      	movs	r2, #0
 8006096:	2300      	movs	r3, #0
 8006098:	f7fa fe36 	bl	8000d08 <__aeabi_dcmpeq>
 800609c:	2800      	cmp	r0, #0
 800609e:	f040 8178 	bne.w	8006392 <_vfprintf_r+0xc86>
 80060a2:	9b12      	ldr	r3, [sp, #72]	; 0x48
 80060a4:	3601      	adds	r6, #1
 80060a6:	3b01      	subs	r3, #1
 80060a8:	3501      	adds	r5, #1
 80060aa:	441c      	add	r4, r3
 80060ac:	2e07      	cmp	r6, #7
 80060ae:	f8c8 5000 	str.w	r5, [r8]
 80060b2:	9629      	str	r6, [sp, #164]	; 0xa4
 80060b4:	f8c8 3004 	str.w	r3, [r8, #4]
 80060b8:	942a      	str	r4, [sp, #168]	; 0xa8
 80060ba:	f300 815d 	bgt.w	8006378 <_vfprintf_r+0xc6c>
 80060be:	f108 0808 	add.w	r8, r8, #8
 80060c2:	9b1a      	ldr	r3, [sp, #104]	; 0x68
 80060c4:	f8c8 3004 	str.w	r3, [r8, #4]
 80060c8:	3601      	adds	r6, #1
 80060ca:	441c      	add	r4, r3
 80060cc:	2e07      	cmp	r6, #7
 80060ce:	ab24      	add	r3, sp, #144	; 0x90
 80060d0:	e9cd 6429 	strd	r6, r4, [sp, #164]	; 0xa4
 80060d4:	f8c8 3000 	str.w	r3, [r8]
 80060d8:	f77f acde 	ble.w	8005a98 <_vfprintf_r+0x38c>
 80060dc:	9907      	ldr	r1, [sp, #28]
 80060de:	9809      	ldr	r0, [sp, #36]	; 0x24
 80060e0:	aa28      	add	r2, sp, #160	; 0xa0
 80060e2:	f003 fc97 	bl	8009a14 <__sprint_r>
 80060e6:	2800      	cmp	r0, #0
 80060e8:	f47f ac50 	bne.w	800598c <_vfprintf_r+0x280>
 80060ec:	9c2a      	ldr	r4, [sp, #168]	; 0xa8
 80060ee:	f10d 08ac 	add.w	r8, sp, #172	; 0xac
 80060f2:	e4d3      	b.n	8005a9c <_vfprintf_r+0x390>
 80060f4:	f1b9 0f10 	cmp.w	r9, #16
 80060f8:	e9dd 2129 	ldrd	r2, r1, [sp, #164]	; 0xa4
 80060fc:	dd2b      	ble.n	8006156 <_vfprintf_r+0xa4a>
 80060fe:	e9cd 3b1d 	strd	r3, fp, [sp, #116]	; 0x74
 8006102:	961f      	str	r6, [sp, #124]	; 0x7c
 8006104:	f8dd b024 	ldr.w	fp, [sp, #36]	; 0x24
 8006108:	464e      	mov	r6, r9
 800610a:	2410      	movs	r4, #16
 800610c:	46a9      	mov	r9, r5
 800610e:	9d07      	ldr	r5, [sp, #28]
 8006110:	e004      	b.n	800611c <_vfprintf_r+0xa10>
 8006112:	3e10      	subs	r6, #16
 8006114:	2e10      	cmp	r6, #16
 8006116:	f108 0808 	add.w	r8, r8, #8
 800611a:	dd17      	ble.n	800614c <_vfprintf_r+0xa40>
 800611c:	3201      	adds	r2, #1
 800611e:	4b20      	ldr	r3, [pc, #128]	; (80061a0 <_vfprintf_r+0xa94>)
 8006120:	3110      	adds	r1, #16
 8006122:	2a07      	cmp	r2, #7
 8006124:	e9c8 3400 	strd	r3, r4, [r8]
 8006128:	e9cd 2129 	strd	r2, r1, [sp, #164]	; 0xa4
 800612c:	ddf1      	ble.n	8006112 <_vfprintf_r+0xa06>
 800612e:	aa28      	add	r2, sp, #160	; 0xa0
 8006130:	4629      	mov	r1, r5
 8006132:	4658      	mov	r0, fp
 8006134:	f10d 08ac 	add.w	r8, sp, #172	; 0xac
 8006138:	f003 fc6c 	bl	8009a14 <__sprint_r>
 800613c:	2800      	cmp	r0, #0
 800613e:	f47f ac25 	bne.w	800598c <_vfprintf_r+0x280>
 8006142:	3e10      	subs	r6, #16
 8006144:	2e10      	cmp	r6, #16
 8006146:	e9dd 2129 	ldrd	r2, r1, [sp, #164]	; 0xa4
 800614a:	dce7      	bgt.n	800611c <_vfprintf_r+0xa10>
 800614c:	e9dd 3b1d 	ldrd	r3, fp, [sp, #116]	; 0x74
 8006150:	464d      	mov	r5, r9
 8006152:	46b1      	mov	r9, r6
 8006154:	9e1f      	ldr	r6, [sp, #124]	; 0x7c
 8006156:	f8c8 9004 	str.w	r9, [r8, #4]
 800615a:	3201      	adds	r2, #1
 800615c:	eb09 0401 	add.w	r4, r9, r1
 8006160:	2a07      	cmp	r2, #7
 8006162:	490f      	ldr	r1, [pc, #60]	; (80061a0 <_vfprintf_r+0xa94>)
 8006164:	f8c8 1000 	str.w	r1, [r8]
 8006168:	e9cd 2429 	strd	r2, r4, [sp, #164]	; 0xa4
 800616c:	f300 8351 	bgt.w	8006812 <_vfprintf_r+0x1106>
 8006170:	f89d 2083 	ldrb.w	r2, [sp, #131]	; 0x83
 8006174:	f108 0808 	add.w	r8, r8, #8
 8006178:	e44d      	b.n	8005a16 <_vfprintf_r+0x30a>
 800617a:	46bb      	mov	fp, r7
 800617c:	2c0a      	cmp	r4, #10
 800617e:	f179 0300 	sbcs.w	r3, r9, #0
 8006182:	f080 830c 	bcs.w	800679e <_vfprintf_r+0x1092>
 8006186:	3430      	adds	r4, #48	; 0x30
 8006188:	2301      	movs	r3, #1
 800618a:	f88d 414f 	strb.w	r4, [sp, #335]	; 0x14f
 800618e:	465f      	mov	r7, fp
 8006190:	930c      	str	r3, [sp, #48]	; 0x30
 8006192:	f20d 154f 	addw	r5, sp, #335	; 0x14f
 8006196:	e646      	b.n	8005e26 <_vfprintf_r+0x71a>
 8006198:	0800b480 	.word	0x0800b480
 800619c:	0800b494 	.word	0x0800b494
 80061a0:	0800b484 	.word	0x0800b484
 80061a4:	9907      	ldr	r1, [sp, #28]
 80061a6:	9809      	ldr	r0, [sp, #36]	; 0x24
 80061a8:	931d      	str	r3, [sp, #116]	; 0x74
 80061aa:	aa28      	add	r2, sp, #160	; 0xa0
 80061ac:	f003 fc32 	bl	8009a14 <__sprint_r>
 80061b0:	2800      	cmp	r0, #0
 80061b2:	f47f abeb 	bne.w	800598c <_vfprintf_r+0x280>
 80061b6:	9c2a      	ldr	r4, [sp, #168]	; 0xa8
 80061b8:	9b1d      	ldr	r3, [sp, #116]	; 0x74
 80061ba:	f10d 08ac 	add.w	r8, sp, #172	; 0xac
 80061be:	e43d      	b.n	8005a3c <_vfprintf_r+0x330>
 80061c0:	9907      	ldr	r1, [sp, #28]
 80061c2:	9809      	ldr	r0, [sp, #36]	; 0x24
 80061c4:	aa28      	add	r2, sp, #160	; 0xa0
 80061c6:	f003 fc25 	bl	8009a14 <__sprint_r>
 80061ca:	2800      	cmp	r0, #0
 80061cc:	f47f abde 	bne.w	800598c <_vfprintf_r+0x280>
 80061d0:	9c2a      	ldr	r4, [sp, #168]	; 0xa8
 80061d2:	f10d 08ac 	add.w	r8, sp, #172	; 0xac
 80061d6:	e443      	b.n	8005a60 <_vfprintf_r+0x354>
 80061d8:	2d10      	cmp	r5, #16
 80061da:	9b29      	ldr	r3, [sp, #164]	; 0xa4
 80061dc:	dd21      	ble.n	8006222 <_vfprintf_r+0xb16>
 80061de:	9f09      	ldr	r7, [sp, #36]	; 0x24
 80061e0:	f8dd 901c 	ldr.w	r9, [sp, #28]
 80061e4:	2610      	movs	r6, #16
 80061e6:	e004      	b.n	80061f2 <_vfprintf_r+0xae6>
 80061e8:	3d10      	subs	r5, #16
 80061ea:	2d10      	cmp	r5, #16
 80061ec:	f108 0808 	add.w	r8, r8, #8
 80061f0:	dd17      	ble.n	8006222 <_vfprintf_r+0xb16>
 80061f2:	3301      	adds	r3, #1
 80061f4:	4abb      	ldr	r2, [pc, #748]	; (80064e4 <_vfprintf_r+0xdd8>)
 80061f6:	3410      	adds	r4, #16
 80061f8:	2b07      	cmp	r3, #7
 80061fa:	e9c8 2600 	strd	r2, r6, [r8]
 80061fe:	e9cd 3429 	strd	r3, r4, [sp, #164]	; 0xa4
 8006202:	ddf1      	ble.n	80061e8 <_vfprintf_r+0xadc>
 8006204:	aa28      	add	r2, sp, #160	; 0xa0
 8006206:	4649      	mov	r1, r9
 8006208:	4638      	mov	r0, r7
 800620a:	f10d 08ac 	add.w	r8, sp, #172	; 0xac
 800620e:	f003 fc01 	bl	8009a14 <__sprint_r>
 8006212:	2800      	cmp	r0, #0
 8006214:	f47f abba 	bne.w	800598c <_vfprintf_r+0x280>
 8006218:	3d10      	subs	r5, #16
 800621a:	2d10      	cmp	r5, #16
 800621c:	e9dd 3429 	ldrd	r3, r4, [sp, #164]	; 0xa4
 8006220:	dce7      	bgt.n	80061f2 <_vfprintf_r+0xae6>
 8006222:	3301      	adds	r3, #1
 8006224:	4aaf      	ldr	r2, [pc, #700]	; (80064e4 <_vfprintf_r+0xdd8>)
 8006226:	f8c8 5004 	str.w	r5, [r8, #4]
 800622a:	442c      	add	r4, r5
 800622c:	2b07      	cmp	r3, #7
 800622e:	e9cd 3429 	strd	r3, r4, [sp, #164]	; 0xa4
 8006232:	f8c8 2000 	str.w	r2, [r8]
 8006236:	f77f ac39 	ble.w	8005aac <_vfprintf_r+0x3a0>
 800623a:	9907      	ldr	r1, [sp, #28]
 800623c:	9809      	ldr	r0, [sp, #36]	; 0x24
 800623e:	aa28      	add	r2, sp, #160	; 0xa0
 8006240:	f003 fbe8 	bl	8009a14 <__sprint_r>
 8006244:	2800      	cmp	r0, #0
 8006246:	f47f aba1 	bne.w	800598c <_vfprintf_r+0x280>
 800624a:	9c2a      	ldr	r4, [sp, #168]	; 0xa8
 800624c:	e42e      	b.n	8005aac <_vfprintf_r+0x3a0>
 800624e:	9922      	ldr	r1, [sp, #136]	; 0x88
 8006250:	2900      	cmp	r1, #0
 8006252:	f340 8114 	ble.w	800647e <_vfprintf_r+0xd72>
 8006256:	f8dd 9040 	ldr.w	r9, [sp, #64]	; 0x40
 800625a:	9b12      	ldr	r3, [sp, #72]	; 0x48
 800625c:	4599      	cmp	r9, r3
 800625e:	bfa8      	it	ge
 8006260:	4699      	movge	r9, r3
 8006262:	f1b9 0f00 	cmp.w	r9, #0
 8006266:	dd0b      	ble.n	8006280 <_vfprintf_r+0xb74>
 8006268:	9b29      	ldr	r3, [sp, #164]	; 0xa4
 800626a:	3301      	adds	r3, #1
 800626c:	444c      	add	r4, r9
 800626e:	2b07      	cmp	r3, #7
 8006270:	e9c8 5900 	strd	r5, r9, [r8]
 8006274:	942a      	str	r4, [sp, #168]	; 0xa8
 8006276:	9329      	str	r3, [sp, #164]	; 0xa4
 8006278:	f300 859a 	bgt.w	8006db0 <_vfprintf_r+0x16a4>
 800627c:	f108 0808 	add.w	r8, r8, #8
 8006280:	9e10      	ldr	r6, [sp, #64]	; 0x40
 8006282:	f1b9 0f00 	cmp.w	r9, #0
 8006286:	bfa8      	it	ge
 8006288:	eba6 0609 	subge.w	r6, r6, r9
 800628c:	2e00      	cmp	r6, #0
 800628e:	f300 8346 	bgt.w	800691e <_vfprintf_r+0x1212>
 8006292:	f8dd b040 	ldr.w	fp, [sp, #64]	; 0x40
 8006296:	0579      	lsls	r1, r7, #21
 8006298:	44ab      	add	fp, r5
 800629a:	f100 84ce 	bmi.w	8006c3a <_vfprintf_r+0x152e>
 800629e:	9b22      	ldr	r3, [sp, #136]	; 0x88
 80062a0:	9a12      	ldr	r2, [sp, #72]	; 0x48
 80062a2:	4293      	cmp	r3, r2
 80062a4:	db02      	blt.n	80062ac <_vfprintf_r+0xba0>
 80062a6:	07fa      	lsls	r2, r7, #31
 80062a8:	f140 83b8 	bpl.w	8006a1c <_vfprintf_r+0x1310>
 80062ac:	9a16      	ldr	r2, [sp, #88]	; 0x58
 80062ae:	9917      	ldr	r1, [sp, #92]	; 0x5c
 80062b0:	4414      	add	r4, r2
 80062b2:	e9c8 1200 	strd	r1, r2, [r8]
 80062b6:	9a29      	ldr	r2, [sp, #164]	; 0xa4
 80062b8:	942a      	str	r4, [sp, #168]	; 0xa8
 80062ba:	3201      	adds	r2, #1
 80062bc:	2a07      	cmp	r2, #7
 80062be:	9229      	str	r2, [sp, #164]	; 0xa4
 80062c0:	f300 8583 	bgt.w	8006dca <_vfprintf_r+0x16be>
 80062c4:	f108 0808 	add.w	r8, r8, #8
 80062c8:	9a12      	ldr	r2, [sp, #72]	; 0x48
 80062ca:	18ae      	adds	r6, r5, r2
 80062cc:	eba6 060b 	sub.w	r6, r6, fp
 80062d0:	1ad5      	subs	r5, r2, r3
 80062d2:	42ae      	cmp	r6, r5
 80062d4:	bfa8      	it	ge
 80062d6:	462e      	movge	r6, r5
 80062d8:	2e00      	cmp	r6, #0
 80062da:	dd0d      	ble.n	80062f8 <_vfprintf_r+0xbec>
 80062dc:	9b29      	ldr	r3, [sp, #164]	; 0xa4
 80062de:	f8c8 b000 	str.w	fp, [r8]
 80062e2:	3301      	adds	r3, #1
 80062e4:	4434      	add	r4, r6
 80062e6:	2b07      	cmp	r3, #7
 80062e8:	f8c8 6004 	str.w	r6, [r8, #4]
 80062ec:	942a      	str	r4, [sp, #168]	; 0xa8
 80062ee:	9329      	str	r3, [sp, #164]	; 0xa4
 80062f0:	f300 85f1 	bgt.w	8006ed6 <_vfprintf_r+0x17ca>
 80062f4:	f108 0808 	add.w	r8, r8, #8
 80062f8:	2e00      	cmp	r6, #0
 80062fa:	bfa8      	it	ge
 80062fc:	1bad      	subge	r5, r5, r6
 80062fe:	2d00      	cmp	r5, #0
 8006300:	f77f abcc 	ble.w	8005a9c <_vfprintf_r+0x390>
 8006304:	2d10      	cmp	r5, #16
 8006306:	9b29      	ldr	r3, [sp, #164]	; 0xa4
 8006308:	f8df 91dc 	ldr.w	r9, [pc, #476]	; 80064e8 <_vfprintf_r+0xddc>
 800630c:	f340 82ae 	ble.w	800686c <_vfprintf_r+0x1160>
 8006310:	4649      	mov	r1, r9
 8006312:	4622      	mov	r2, r4
 8006314:	46b9      	mov	r9, r7
 8006316:	f8dd b024 	ldr.w	fp, [sp, #36]	; 0x24
 800631a:	9c07      	ldr	r4, [sp, #28]
 800631c:	2610      	movs	r6, #16
 800631e:	460f      	mov	r7, r1
 8006320:	e005      	b.n	800632e <_vfprintf_r+0xc22>
 8006322:	f108 0808 	add.w	r8, r8, #8
 8006326:	3d10      	subs	r5, #16
 8006328:	2d10      	cmp	r5, #16
 800632a:	f340 829b 	ble.w	8006864 <_vfprintf_r+0x1158>
 800632e:	3301      	adds	r3, #1
 8006330:	3210      	adds	r2, #16
 8006332:	2b07      	cmp	r3, #7
 8006334:	e9c8 7600 	strd	r7, r6, [r8]
 8006338:	e9cd 3229 	strd	r3, r2, [sp, #164]	; 0xa4
 800633c:	ddf1      	ble.n	8006322 <_vfprintf_r+0xc16>
 800633e:	aa28      	add	r2, sp, #160	; 0xa0
 8006340:	4621      	mov	r1, r4
 8006342:	4658      	mov	r0, fp
 8006344:	f003 fb66 	bl	8009a14 <__sprint_r>
 8006348:	2800      	cmp	r0, #0
 800634a:	f47f ab1f 	bne.w	800598c <_vfprintf_r+0x280>
 800634e:	e9dd 3229 	ldrd	r3, r2, [sp, #164]	; 0xa4
 8006352:	f10d 08ac 	add.w	r8, sp, #172	; 0xac
 8006356:	e7e6      	b.n	8006326 <_vfprintf_r+0xc1a>
 8006358:	07fe      	lsls	r6, r7, #31
 800635a:	f53f ae7d 	bmi.w	8006058 <_vfprintf_r+0x94c>
 800635e:	9e29      	ldr	r6, [sp, #164]	; 0xa4
 8006360:	f8c8 5000 	str.w	r5, [r8]
 8006364:	3601      	adds	r6, #1
 8006366:	3401      	adds	r4, #1
 8006368:	2301      	movs	r3, #1
 800636a:	2e07      	cmp	r6, #7
 800636c:	942a      	str	r4, [sp, #168]	; 0xa8
 800636e:	9629      	str	r6, [sp, #164]	; 0xa4
 8006370:	f8c8 3004 	str.w	r3, [r8, #4]
 8006374:	f77f aea3 	ble.w	80060be <_vfprintf_r+0x9b2>
 8006378:	9907      	ldr	r1, [sp, #28]
 800637a:	9809      	ldr	r0, [sp, #36]	; 0x24
 800637c:	aa28      	add	r2, sp, #160	; 0xa0
 800637e:	f003 fb49 	bl	8009a14 <__sprint_r>
 8006382:	2800      	cmp	r0, #0
 8006384:	f47f ab02 	bne.w	800598c <_vfprintf_r+0x280>
 8006388:	e9dd 6429 	ldrd	r6, r4, [sp, #164]	; 0xa4
 800638c:	f10d 08ac 	add.w	r8, sp, #172	; 0xac
 8006390:	e697      	b.n	80060c2 <_vfprintf_r+0x9b6>
 8006392:	9b12      	ldr	r3, [sp, #72]	; 0x48
 8006394:	1e5d      	subs	r5, r3, #1
 8006396:	2d00      	cmp	r5, #0
 8006398:	f77f ae93 	ble.w	80060c2 <_vfprintf_r+0x9b6>
 800639c:	2d10      	cmp	r5, #16
 800639e:	f8df 9148 	ldr.w	r9, [pc, #328]	; 80064e8 <_vfprintf_r+0xddc>
 80063a2:	f340 827f 	ble.w	80068a4 <_vfprintf_r+0x1198>
 80063a6:	4622      	mov	r2, r4
 80063a8:	9708      	str	r7, [sp, #32]
 80063aa:	9c09      	ldr	r4, [sp, #36]	; 0x24
 80063ac:	9f07      	ldr	r7, [sp, #28]
 80063ae:	f04f 0b10 	mov.w	fp, #16
 80063b2:	e005      	b.n	80063c0 <_vfprintf_r+0xcb4>
 80063b4:	f108 0808 	add.w	r8, r8, #8
 80063b8:	3d10      	subs	r5, #16
 80063ba:	2d10      	cmp	r5, #16
 80063bc:	f340 8270 	ble.w	80068a0 <_vfprintf_r+0x1194>
 80063c0:	3601      	adds	r6, #1
 80063c2:	3210      	adds	r2, #16
 80063c4:	2e07      	cmp	r6, #7
 80063c6:	e9c8 9b00 	strd	r9, fp, [r8]
 80063ca:	e9cd 6229 	strd	r6, r2, [sp, #164]	; 0xa4
 80063ce:	ddf1      	ble.n	80063b4 <_vfprintf_r+0xca8>
 80063d0:	aa28      	add	r2, sp, #160	; 0xa0
 80063d2:	4639      	mov	r1, r7
 80063d4:	4620      	mov	r0, r4
 80063d6:	f003 fb1d 	bl	8009a14 <__sprint_r>
 80063da:	2800      	cmp	r0, #0
 80063dc:	f47f aad6 	bne.w	800598c <_vfprintf_r+0x280>
 80063e0:	e9dd 6229 	ldrd	r6, r2, [sp, #164]	; 0xa4
 80063e4:	f10d 08ac 	add.w	r8, sp, #172	; 0xac
 80063e8:	e7e6      	b.n	80063b8 <_vfprintf_r+0xcac>
 80063ea:	9907      	ldr	r1, [sp, #28]
 80063ec:	9809      	ldr	r0, [sp, #36]	; 0x24
 80063ee:	aa28      	add	r2, sp, #160	; 0xa0
 80063f0:	f003 fb10 	bl	8009a14 <__sprint_r>
 80063f4:	2800      	cmp	r0, #0
 80063f6:	f47f aac9 	bne.w	800598c <_vfprintf_r+0x280>
 80063fa:	9c2a      	ldr	r4, [sp, #168]	; 0xa8
 80063fc:	f10d 08ac 	add.w	r8, sp, #172	; 0xac
 8006400:	f7ff bb3a 	b.w	8005a78 <_vfprintf_r+0x36c>
 8006404:	f017 0310 	ands.w	r3, r7, #16
 8006408:	d172      	bne.n	80064f0 <_vfprintf_r+0xde4>
 800640a:	f017 0240 	ands.w	r2, r7, #64	; 0x40
 800640e:	f000 82bd 	beq.w	800698c <_vfprintf_r+0x1280>
 8006412:	9a0e      	ldr	r2, [sp, #56]	; 0x38
 8006414:	f852 4b04 	ldr.w	r4, [r2], #4
 8006418:	920e      	str	r2, [sp, #56]	; 0x38
 800641a:	4699      	mov	r9, r3
 800641c:	b2a4      	uxth	r4, r4
 800641e:	e428      	b.n	8005c72 <_vfprintf_r+0x566>
 8006420:	f853 4b04 	ldr.w	r4, [r3], #4
 8006424:	930e      	str	r3, [sp, #56]	; 0x38
 8006426:	06fb      	lsls	r3, r7, #27
 8006428:	d456      	bmi.n	80064d8 <_vfprintf_r+0xdcc>
 800642a:	067d      	lsls	r5, r7, #25
 800642c:	d551      	bpl.n	80064d2 <_vfprintf_r+0xdc6>
 800642e:	f344 39c0 	sbfx	r9, r4, #15, #1
 8006432:	464b      	mov	r3, r9
 8006434:	b224      	sxth	r4, r4
 8006436:	f7ff bbc1 	b.w	8005bbc <_vfprintf_r+0x4b0>
 800643a:	f01b 0310 	ands.w	r3, fp, #16
 800643e:	f040 8136 	bne.w	80066ae <_vfprintf_r+0xfa2>
 8006442:	f01b 0240 	ands.w	r2, fp, #64	; 0x40
 8006446:	f000 8292 	beq.w	800696e <_vfprintf_r+0x1262>
 800644a:	9a0e      	ldr	r2, [sp, #56]	; 0x38
 800644c:	f852 4b04 	ldr.w	r4, [r2], #4
 8006450:	920e      	str	r2, [sp, #56]	; 0x38
 8006452:	4699      	mov	r9, r3
 8006454:	b2a4      	uxth	r4, r4
 8006456:	2301      	movs	r3, #1
 8006458:	e40e      	b.n	8005c78 <_vfprintf_r+0x56c>
 800645a:	232d      	movs	r3, #45	; 0x2d
 800645c:	4264      	negs	r4, r4
 800645e:	f88d 3083 	strb.w	r3, [sp, #131]	; 0x83
 8006462:	eb69 0949 	sbc.w	r9, r9, r9, lsl #1
 8006466:	46bb      	mov	fp, r7
 8006468:	2301      	movs	r3, #1
 800646a:	e408      	b.n	8005c7e <_vfprintf_r+0x572>
 800646c:	07f8      	lsls	r0, r7, #31
 800646e:	f57f ab15 	bpl.w	8005a9c <_vfprintf_r+0x390>
 8006472:	e525      	b.n	8005ec0 <_vfprintf_r+0x7b4>
 8006474:	f89a 6000 	ldrb.w	r6, [sl]
 8006478:	930e      	str	r3, [sp, #56]	; 0x38
 800647a:	f7ff b9b5 	b.w	80057e8 <_vfprintf_r+0xdc>
 800647e:	9b29      	ldr	r3, [sp, #164]	; 0xa4
 8006480:	4a1a      	ldr	r2, [pc, #104]	; (80064ec <_vfprintf_r+0xde0>)
 8006482:	f8c8 2000 	str.w	r2, [r8]
 8006486:	3301      	adds	r3, #1
 8006488:	3401      	adds	r4, #1
 800648a:	2201      	movs	r2, #1
 800648c:	2b07      	cmp	r3, #7
 800648e:	942a      	str	r4, [sp, #168]	; 0xa8
 8006490:	9329      	str	r3, [sp, #164]	; 0xa4
 8006492:	f8c8 2004 	str.w	r2, [r8, #4]
 8006496:	f300 8470 	bgt.w	8006d7a <_vfprintf_r+0x166e>
 800649a:	f108 0808 	add.w	r8, r8, #8
 800649e:	2900      	cmp	r1, #0
 80064a0:	f040 821e 	bne.w	80068e0 <_vfprintf_r+0x11d4>
 80064a4:	9a12      	ldr	r2, [sp, #72]	; 0x48
 80064a6:	f007 0301 	and.w	r3, r7, #1
 80064aa:	4313      	orrs	r3, r2
 80064ac:	f43f aaf6 	beq.w	8005a9c <_vfprintf_r+0x390>
 80064b0:	9b16      	ldr	r3, [sp, #88]	; 0x58
 80064b2:	9917      	ldr	r1, [sp, #92]	; 0x5c
 80064b4:	18e2      	adds	r2, r4, r3
 80064b6:	e9c8 1300 	strd	r1, r3, [r8]
 80064ba:	9b29      	ldr	r3, [sp, #164]	; 0xa4
 80064bc:	922a      	str	r2, [sp, #168]	; 0xa8
 80064be:	3301      	adds	r3, #1
 80064c0:	2b07      	cmp	r3, #7
 80064c2:	9329      	str	r3, [sp, #164]	; 0xa4
 80064c4:	f300 8361 	bgt.w	8006b8a <_vfprintf_r+0x147e>
 80064c8:	f108 0808 	add.w	r8, r8, #8
 80064cc:	e219      	b.n	8006902 <_vfprintf_r+0x11f6>
 80064ce:	ad54      	add	r5, sp, #336	; 0x150
 80064d0:	e4a9      	b.n	8005e26 <_vfprintf_r+0x71a>
 80064d2:	05b8      	lsls	r0, r7, #22
 80064d4:	f100 82b4 	bmi.w	8006a40 <_vfprintf_r+0x1334>
 80064d8:	ea4f 79e4 	mov.w	r9, r4, asr #31
 80064dc:	464b      	mov	r3, r9
 80064de:	f7ff bb6d 	b.w	8005bbc <_vfprintf_r+0x4b0>
 80064e2:	bf00      	nop
 80064e4:	0800b484 	.word	0x0800b484
 80064e8:	0800b494 	.word	0x0800b494
 80064ec:	0800b480 	.word	0x0800b480
 80064f0:	9b0e      	ldr	r3, [sp, #56]	; 0x38
 80064f2:	f853 4b04 	ldr.w	r4, [r3], #4
 80064f6:	930e      	str	r3, [sp, #56]	; 0x38
 80064f8:	f7ff bbbb 	b.w	8005c72 <_vfprintf_r+0x566>
 80064fc:	e9dd 0114 	ldrd	r0, r1, [sp, #80]	; 0x50
 8006500:	4602      	mov	r2, r0
 8006502:	460b      	mov	r3, r1
 8006504:	f7fa fc32 	bl	8000d6c <__aeabi_dcmpun>
 8006508:	2800      	cmp	r0, #0
 800650a:	f040 85a0 	bne.w	800704e <_vfprintf_r+0x1942>
 800650e:	2e61      	cmp	r6, #97	; 0x61
 8006510:	f000 8550 	beq.w	8006fb4 <_vfprintf_r+0x18a8>
 8006514:	2e41      	cmp	r6, #65	; 0x41
 8006516:	f000 8299 	beq.w	8006a4c <_vfprintf_r+0x1340>
 800651a:	9b08      	ldr	r3, [sp, #32]
 800651c:	3301      	adds	r3, #1
 800651e:	f026 0320 	bic.w	r3, r6, #32
 8006522:	9306      	str	r3, [sp, #24]
 8006524:	f000 858f 	beq.w	8007046 <_vfprintf_r+0x193a>
 8006528:	2b47      	cmp	r3, #71	; 0x47
 800652a:	f000 8579 	beq.w	8007020 <_vfprintf_r+0x1914>
 800652e:	e9dd 1214 	ldrd	r1, r2, [sp, #80]	; 0x50
 8006532:	f447 7380 	orr.w	r3, r7, #256	; 0x100
 8006536:	930f      	str	r3, [sp, #60]	; 0x3c
 8006538:	4613      	mov	r3, r2
 800653a:	2b00      	cmp	r3, #0
 800653c:	f2c0 85ed 	blt.w	800711a <_vfprintf_r+0x1a0e>
 8006540:	930c      	str	r3, [sp, #48]	; 0x30
 8006542:	2300      	movs	r3, #0
 8006544:	931d      	str	r3, [sp, #116]	; 0x74
 8006546:	468b      	mov	fp, r1
 8006548:	930d      	str	r3, [sp, #52]	; 0x34
 800654a:	9b06      	ldr	r3, [sp, #24]
 800654c:	2b46      	cmp	r3, #70	; 0x46
 800654e:	f000 844a 	beq.w	8006de6 <_vfprintf_r+0x16da>
 8006552:	2b45      	cmp	r3, #69	; 0x45
 8006554:	f000 854f 	beq.w	8006ff6 <_vfprintf_r+0x18ea>
 8006558:	9908      	ldr	r1, [sp, #32]
 800655a:	9101      	str	r1, [sp, #4]
 800655c:	a926      	add	r1, sp, #152	; 0x98
 800655e:	9104      	str	r1, [sp, #16]
 8006560:	a923      	add	r1, sp, #140	; 0x8c
 8006562:	9103      	str	r1, [sp, #12]
 8006564:	a922      	add	r1, sp, #136	; 0x88
 8006566:	9102      	str	r1, [sp, #8]
 8006568:	2102      	movs	r1, #2
 800656a:	9b0c      	ldr	r3, [sp, #48]	; 0x30
 800656c:	9809      	ldr	r0, [sp, #36]	; 0x24
 800656e:	9100      	str	r1, [sp, #0]
 8006570:	465a      	mov	r2, fp
 8006572:	f001 f80d 	bl	8007590 <_dtoa_r>
 8006576:	9b06      	ldr	r3, [sp, #24]
 8006578:	2b47      	cmp	r3, #71	; 0x47
 800657a:	4605      	mov	r5, r0
 800657c:	f040 861c 	bne.w	80071b8 <_vfprintf_r+0x1aac>
 8006580:	f017 0f01 	tst.w	r7, #1
 8006584:	46b9      	mov	r9, r7
 8006586:	9f0f      	ldr	r7, [sp, #60]	; 0x3c
 8006588:	f040 84d9 	bne.w	8006f3e <_vfprintf_r+0x1832>
 800658c:	9b26      	ldr	r3, [sp, #152]	; 0x98
 800658e:	1b5b      	subs	r3, r3, r5
 8006590:	9312      	str	r3, [sp, #72]	; 0x48
 8006592:	9b06      	ldr	r3, [sp, #24]
 8006594:	2b47      	cmp	r3, #71	; 0x47
 8006596:	f000 8318 	beq.w	8006bca <_vfprintf_r+0x14be>
 800659a:	9b06      	ldr	r3, [sp, #24]
 800659c:	2b46      	cmp	r3, #70	; 0x46
 800659e:	f000 845f 	beq.w	8006e60 <_vfprintf_r+0x1754>
 80065a2:	9b22      	ldr	r3, [sp, #136]	; 0x88
 80065a4:	9310      	str	r3, [sp, #64]	; 0x40
 80065a6:	9b10      	ldr	r3, [sp, #64]	; 0x40
 80065a8:	9a06      	ldr	r2, [sp, #24]
 80065aa:	3b01      	subs	r3, #1
 80065ac:	2a41      	cmp	r2, #65	; 0x41
 80065ae:	9322      	str	r3, [sp, #136]	; 0x88
 80065b0:	f000 85aa 	beq.w	8007108 <_vfprintf_r+0x19fc>
 80065b4:	b2f2      	uxtb	r2, r6
 80065b6:	2100      	movs	r1, #0
 80065b8:	2b00      	cmp	r3, #0
 80065ba:	bfb8      	it	lt
 80065bc:	9b10      	ldrlt	r3, [sp, #64]	; 0x40
 80065be:	f88d 2090 	strb.w	r2, [sp, #144]	; 0x90
 80065c2:	bfba      	itte	lt
 80065c4:	f1c3 0301 	rsblt	r3, r3, #1
 80065c8:	222d      	movlt	r2, #45	; 0x2d
 80065ca:	222b      	movge	r2, #43	; 0x2b
 80065cc:	2b09      	cmp	r3, #9
 80065ce:	f88d 2091 	strb.w	r2, [sp, #145]	; 0x91
 80065d2:	f340 8563 	ble.w	800709c <_vfprintf_r+0x1990>
 80065d6:	f10d 049f 	add.w	r4, sp, #159	; 0x9f
 80065da:	4fbd      	ldr	r7, [pc, #756]	; (80068d0 <_vfprintf_r+0x11c4>)
 80065dc:	4622      	mov	r2, r4
 80065de:	4610      	mov	r0, r2
 80065e0:	fb87 2103 	smull	r2, r1, r7, r3
 80065e4:	17da      	asrs	r2, r3, #31
 80065e6:	ebc2 02a1 	rsb	r2, r2, r1, asr #2
 80065ea:	eb02 0182 	add.w	r1, r2, r2, lsl #2
 80065ee:	eba3 0141 	sub.w	r1, r3, r1, lsl #1
 80065f2:	3130      	adds	r1, #48	; 0x30
 80065f4:	f800 1c01 	strb.w	r1, [r0, #-1]
 80065f8:	4619      	mov	r1, r3
 80065fa:	2963      	cmp	r1, #99	; 0x63
 80065fc:	4613      	mov	r3, r2
 80065fe:	f100 32ff 	add.w	r2, r0, #4294967295
 8006602:	dcec      	bgt.n	80065de <_vfprintf_r+0xed2>
 8006604:	3330      	adds	r3, #48	; 0x30
 8006606:	b2d9      	uxtb	r1, r3
 8006608:	1e83      	subs	r3, r0, #2
 800660a:	429c      	cmp	r4, r3
 800660c:	f802 1c01 	strb.w	r1, [r2, #-1]
 8006610:	f240 85ce 	bls.w	80071b0 <_vfprintf_r+0x1aa4>
 8006614:	4613      	mov	r3, r2
 8006616:	f10d 0292 	add.w	r2, sp, #146	; 0x92
 800661a:	e001      	b.n	8006620 <_vfprintf_r+0xf14>
 800661c:	f813 1b01 	ldrb.w	r1, [r3], #1
 8006620:	f802 1b01 	strb.w	r1, [r2], #1
 8006624:	429c      	cmp	r4, r3
 8006626:	d1f9      	bne.n	800661c <_vfprintf_r+0xf10>
 8006628:	f10d 03a1 	add.w	r3, sp, #161	; 0xa1
 800662c:	f10d 0292 	add.w	r2, sp, #146	; 0x92
 8006630:	1a1b      	subs	r3, r3, r0
 8006632:	4413      	add	r3, r2
 8006634:	aa24      	add	r2, sp, #144	; 0x90
 8006636:	1a9b      	subs	r3, r3, r2
 8006638:	931a      	str	r3, [sp, #104]	; 0x68
 800663a:	9b12      	ldr	r3, [sp, #72]	; 0x48
 800663c:	9a1a      	ldr	r2, [sp, #104]	; 0x68
 800663e:	2b01      	cmp	r3, #1
 8006640:	441a      	add	r2, r3
 8006642:	920c      	str	r2, [sp, #48]	; 0x30
 8006644:	f340 8572 	ble.w	800712c <_vfprintf_r+0x1a20>
 8006648:	9b0c      	ldr	r3, [sp, #48]	; 0x30
 800664a:	9a16      	ldr	r2, [sp, #88]	; 0x58
 800664c:	4413      	add	r3, r2
 800664e:	930c      	str	r3, [sp, #48]	; 0x30
 8006650:	9a0c      	ldr	r2, [sp, #48]	; 0x30
 8006652:	2300      	movs	r3, #0
 8006654:	f429 6780 	bic.w	r7, r9, #1024	; 0x400
 8006658:	ea22 72e2 	bic.w	r2, r2, r2, asr #31
 800665c:	f447 7780 	orr.w	r7, r7, #256	; 0x100
 8006660:	930f      	str	r3, [sp, #60]	; 0x3c
 8006662:	9206      	str	r2, [sp, #24]
 8006664:	9313      	str	r3, [sp, #76]	; 0x4c
 8006666:	9310      	str	r3, [sp, #64]	; 0x40
 8006668:	9b1d      	ldr	r3, [sp, #116]	; 0x74
 800666a:	2b00      	cmp	r3, #0
 800666c:	f040 82de 	bne.w	8006c2c <_vfprintf_r+0x1520>
 8006670:	f89d 2083 	ldrb.w	r2, [sp, #131]	; 0x83
 8006674:	9308      	str	r3, [sp, #32]
 8006676:	f7ff ba77 	b.w	8005b68 <_vfprintf_r+0x45c>
 800667a:	9b0e      	ldr	r3, [sp, #56]	; 0x38
 800667c:	980b      	ldr	r0, [sp, #44]	; 0x2c
 800667e:	f853 1b04 	ldr.w	r1, [r3], #4
 8006682:	930e      	str	r3, [sp, #56]	; 0x38
 8006684:	17c2      	asrs	r2, r0, #31
 8006686:	e9c1 0200 	strd	r0, r2, [r1]
 800668a:	4655      	mov	r5, sl
 800668c:	f7ff ba24 	b.w	8005ad8 <_vfprintf_r+0x3cc>
 8006690:	9b19      	ldr	r3, [sp, #100]	; 0x64
 8006692:	2b00      	cmp	r3, #0
 8006694:	f43f a92f 	beq.w	80058f6 <_vfprintf_r+0x1ea>
 8006698:	9b19      	ldr	r3, [sp, #100]	; 0x64
 800669a:	781b      	ldrb	r3, [r3, #0]
 800669c:	2b00      	cmp	r3, #0
 800669e:	f43f a92a 	beq.w	80058f6 <_vfprintf_r+0x1ea>
 80066a2:	f89a 6000 	ldrb.w	r6, [sl]
 80066a6:	f447 6780 	orr.w	r7, r7, #1024	; 0x400
 80066aa:	f7ff b89d 	b.w	80057e8 <_vfprintf_r+0xdc>
 80066ae:	9b0e      	ldr	r3, [sp, #56]	; 0x38
 80066b0:	f853 4b04 	ldr.w	r4, [r3], #4
 80066b4:	930e      	str	r3, [sp, #56]	; 0x38
 80066b6:	2301      	movs	r3, #1
 80066b8:	f7ff bade 	b.w	8005c78 <_vfprintf_r+0x56c>
 80066bc:	4b85      	ldr	r3, [pc, #532]	; (80068d4 <_vfprintf_r+0x11c8>)
 80066be:	9318      	str	r3, [sp, #96]	; 0x60
 80066c0:	f017 0920 	ands.w	r9, r7, #32
 80066c4:	d049      	beq.n	800675a <_vfprintf_r+0x104e>
 80066c6:	9b0e      	ldr	r3, [sp, #56]	; 0x38
 80066c8:	3307      	adds	r3, #7
 80066ca:	f023 0307 	bic.w	r3, r3, #7
 80066ce:	f8d3 9004 	ldr.w	r9, [r3, #4]
 80066d2:	f853 4b08 	ldr.w	r4, [r3], #8
 80066d6:	930e      	str	r3, [sp, #56]	; 0x38
 80066d8:	07f8      	lsls	r0, r7, #31
 80066da:	d509      	bpl.n	80066f0 <_vfprintf_r+0xfe4>
 80066dc:	ea54 0309 	orrs.w	r3, r4, r9
 80066e0:	d006      	beq.n	80066f0 <_vfprintf_r+0xfe4>
 80066e2:	2330      	movs	r3, #48	; 0x30
 80066e4:	f88d 6085 	strb.w	r6, [sp, #133]	; 0x85
 80066e8:	f047 0702 	orr.w	r7, r7, #2
 80066ec:	f88d 3084 	strb.w	r3, [sp, #132]	; 0x84
 80066f0:	f427 6b80 	bic.w	fp, r7, #1024	; 0x400
 80066f4:	2302      	movs	r3, #2
 80066f6:	f7ff babf 	b.w	8005c78 <_vfprintf_r+0x56c>
 80066fa:	46bb      	mov	fp, r7
 80066fc:	f7ff bb23 	b.w	8005d46 <_vfprintf_r+0x63a>
 8006700:	4b75      	ldr	r3, [pc, #468]	; (80068d8 <_vfprintf_r+0x11cc>)
 8006702:	9318      	str	r3, [sp, #96]	; 0x60
 8006704:	e7dc      	b.n	80066c0 <_vfprintf_r+0xfb4>
 8006706:	9907      	ldr	r1, [sp, #28]
 8006708:	9809      	ldr	r0, [sp, #36]	; 0x24
 800670a:	aa28      	add	r2, sp, #160	; 0xa0
 800670c:	f003 f982 	bl	8009a14 <__sprint_r>
 8006710:	2800      	cmp	r0, #0
 8006712:	f47f a93b 	bne.w	800598c <_vfprintf_r+0x280>
 8006716:	9c2a      	ldr	r4, [sp, #168]	; 0xa8
 8006718:	f10d 08ac 	add.w	r8, sp, #172	; 0xac
 800671c:	f7ff b9a4 	b.w	8005a68 <_vfprintf_r+0x35c>
 8006720:	9907      	ldr	r1, [sp, #28]
 8006722:	9809      	ldr	r0, [sp, #36]	; 0x24
 8006724:	aa28      	add	r2, sp, #160	; 0xa0
 8006726:	f003 f975 	bl	8009a14 <__sprint_r>
 800672a:	2800      	cmp	r0, #0
 800672c:	f47f a92e 	bne.w	800598c <_vfprintf_r+0x280>
 8006730:	9c2a      	ldr	r4, [sp, #168]	; 0xa8
 8006732:	f10d 08ac 	add.w	r8, sp, #172	; 0xac
 8006736:	f7ff bbd1 	b.w	8005edc <_vfprintf_r+0x7d0>
 800673a:	2b06      	cmp	r3, #6
 800673c:	4629      	mov	r1, r5
 800673e:	bf28      	it	cs
 8006740:	2306      	movcs	r3, #6
 8006742:	9508      	str	r5, [sp, #32]
 8006744:	950d      	str	r5, [sp, #52]	; 0x34
 8006746:	462a      	mov	r2, r5
 8006748:	9306      	str	r3, [sp, #24]
 800674a:	4d64      	ldr	r5, [pc, #400]	; (80068dc <_vfprintf_r+0x11d0>)
 800674c:	940e      	str	r4, [sp, #56]	; 0x38
 800674e:	930c      	str	r3, [sp, #48]	; 0x30
 8006750:	910f      	str	r1, [sp, #60]	; 0x3c
 8006752:	9113      	str	r1, [sp, #76]	; 0x4c
 8006754:	9110      	str	r1, [sp, #64]	; 0x40
 8006756:	f7ff ba07 	b.w	8005b68 <_vfprintf_r+0x45c>
 800675a:	f017 0310 	ands.w	r3, r7, #16
 800675e:	d069      	beq.n	8006834 <_vfprintf_r+0x1128>
 8006760:	9b0e      	ldr	r3, [sp, #56]	; 0x38
 8006762:	f853 4b04 	ldr.w	r4, [r3], #4
 8006766:	930e      	str	r3, [sp, #56]	; 0x38
 8006768:	e7b6      	b.n	80066d8 <_vfprintf_r+0xfcc>
 800676a:	9907      	ldr	r1, [sp, #28]
 800676c:	9809      	ldr	r0, [sp, #36]	; 0x24
 800676e:	aa28      	add	r2, sp, #160	; 0xa0
 8006770:	f003 f950 	bl	8009a14 <__sprint_r>
 8006774:	2800      	cmp	r0, #0
 8006776:	f47f a909 	bne.w	800598c <_vfprintf_r+0x280>
 800677a:	e9dd 6429 	ldrd	r6, r4, [sp, #164]	; 0xa4
 800677e:	f10d 08ac 	add.w	r8, sp, #172	; 0xac
 8006782:	e478      	b.n	8006076 <_vfprintf_r+0x96a>
 8006784:	9907      	ldr	r1, [sp, #28]
 8006786:	9809      	ldr	r0, [sp, #36]	; 0x24
 8006788:	aa28      	add	r2, sp, #160	; 0xa0
 800678a:	f003 f943 	bl	8009a14 <__sprint_r>
 800678e:	2800      	cmp	r0, #0
 8006790:	f47f a8fc 	bne.w	800598c <_vfprintf_r+0x280>
 8006794:	e9dd 6429 	ldrd	r6, r4, [sp, #164]	; 0xa4
 8006798:	f10d 08ac 	add.w	r8, sp, #172	; 0xac
 800679c:	e478      	b.n	8006090 <_vfprintf_r+0x984>
 800679e:	f40b 6380 	and.w	r3, fp, #1024	; 0x400
 80067a2:	2200      	movs	r2, #0
 80067a4:	e9cd a80c 	strd	sl, r8, [sp, #48]	; 0x30
 80067a8:	9606      	str	r6, [sp, #24]
 80067aa:	f8dd 8064 	ldr.w	r8, [sp, #100]	; 0x64
 80067ae:	af54      	add	r7, sp, #336	; 0x150
 80067b0:	4616      	mov	r6, r2
 80067b2:	469a      	mov	sl, r3
 80067b4:	e00c      	b.n	80067d0 <_vfprintf_r+0x10c4>
 80067b6:	2300      	movs	r3, #0
 80067b8:	4620      	mov	r0, r4
 80067ba:	4649      	mov	r1, r9
 80067bc:	220a      	movs	r2, #10
 80067be:	f7fa fb13 	bl	8000de8 <__aeabi_uldivmod>
 80067c2:	2c0a      	cmp	r4, #10
 80067c4:	f179 0300 	sbcs.w	r3, r9, #0
 80067c8:	d31b      	bcc.n	8006802 <_vfprintf_r+0x10f6>
 80067ca:	4604      	mov	r4, r0
 80067cc:	4689      	mov	r9, r1
 80067ce:	462f      	mov	r7, r5
 80067d0:	4620      	mov	r0, r4
 80067d2:	220a      	movs	r2, #10
 80067d4:	2300      	movs	r3, #0
 80067d6:	4649      	mov	r1, r9
 80067d8:	f7fa fb06 	bl	8000de8 <__aeabi_uldivmod>
 80067dc:	3230      	adds	r2, #48	; 0x30
 80067de:	1e7d      	subs	r5, r7, #1
 80067e0:	3601      	adds	r6, #1
 80067e2:	f807 2c01 	strb.w	r2, [r7, #-1]
 80067e6:	f1ba 0f00 	cmp.w	sl, #0
 80067ea:	d0e4      	beq.n	80067b6 <_vfprintf_r+0x10aa>
 80067ec:	f898 3000 	ldrb.w	r3, [r8]
 80067f0:	429e      	cmp	r6, r3
 80067f2:	d1e0      	bne.n	80067b6 <_vfprintf_r+0x10aa>
 80067f4:	2eff      	cmp	r6, #255	; 0xff
 80067f6:	d0de      	beq.n	80067b6 <_vfprintf_r+0x10aa>
 80067f8:	2c0a      	cmp	r4, #10
 80067fa:	f179 0300 	sbcs.w	r3, r9, #0
 80067fe:	f080 80f4 	bcs.w	80069ea <_vfprintf_r+0x12de>
 8006802:	f8cd 8064 	str.w	r8, [sp, #100]	; 0x64
 8006806:	9612      	str	r6, [sp, #72]	; 0x48
 8006808:	e9dd a80c 	ldrd	sl, r8, [sp, #48]	; 0x30
 800680c:	9e06      	ldr	r6, [sp, #24]
 800680e:	f7ff bb06 	b.w	8005e1e <_vfprintf_r+0x712>
 8006812:	9907      	ldr	r1, [sp, #28]
 8006814:	9809      	ldr	r0, [sp, #36]	; 0x24
 8006816:	931d      	str	r3, [sp, #116]	; 0x74
 8006818:	aa28      	add	r2, sp, #160	; 0xa0
 800681a:	f003 f8fb 	bl	8009a14 <__sprint_r>
 800681e:	2800      	cmp	r0, #0
 8006820:	f47f a8b4 	bne.w	800598c <_vfprintf_r+0x280>
 8006824:	f89d 2083 	ldrb.w	r2, [sp, #131]	; 0x83
 8006828:	9c2a      	ldr	r4, [sp, #168]	; 0xa8
 800682a:	9b1d      	ldr	r3, [sp, #116]	; 0x74
 800682c:	f10d 08ac 	add.w	r8, sp, #172	; 0xac
 8006830:	f7ff b8f1 	b.w	8005a16 <_vfprintf_r+0x30a>
 8006834:	f017 0240 	ands.w	r2, r7, #64	; 0x40
 8006838:	f000 80b6 	beq.w	80069a8 <_vfprintf_r+0x129c>
 800683c:	9a0e      	ldr	r2, [sp, #56]	; 0x38
 800683e:	f852 4b04 	ldr.w	r4, [r2], #4
 8006842:	920e      	str	r2, [sp, #56]	; 0x38
 8006844:	4699      	mov	r9, r3
 8006846:	b2a4      	uxth	r4, r4
 8006848:	e746      	b.n	80066d8 <_vfprintf_r+0xfcc>
 800684a:	9907      	ldr	r1, [sp, #28]
 800684c:	9809      	ldr	r0, [sp, #36]	; 0x24
 800684e:	aa28      	add	r2, sp, #160	; 0xa0
 8006850:	f003 f8e0 	bl	8009a14 <__sprint_r>
 8006854:	2800      	cmp	r0, #0
 8006856:	f47f a899 	bne.w	800598c <_vfprintf_r+0x280>
 800685a:	9c2a      	ldr	r4, [sp, #168]	; 0xa8
 800685c:	f10d 08ac 	add.w	r8, sp, #172	; 0xac
 8006860:	f7ff bb29 	b.w	8005eb6 <_vfprintf_r+0x7aa>
 8006864:	4614      	mov	r4, r2
 8006866:	463a      	mov	r2, r7
 8006868:	464f      	mov	r7, r9
 800686a:	4691      	mov	r9, r2
 800686c:	3301      	adds	r3, #1
 800686e:	442c      	add	r4, r5
 8006870:	2b07      	cmp	r3, #7
 8006872:	f8c8 9000 	str.w	r9, [r8]
 8006876:	f8c8 5004 	str.w	r5, [r8, #4]
 800687a:	e9cd 3429 	strd	r3, r4, [sp, #164]	; 0xa4
 800687e:	f77f a90b 	ble.w	8005a98 <_vfprintf_r+0x38c>
 8006882:	e42b      	b.n	80060dc <_vfprintf_r+0x9d0>
 8006884:	2b01      	cmp	r3, #1
 8006886:	46bb      	mov	fp, r7
 8006888:	f47f aab8 	bne.w	8005dfc <_vfprintf_r+0x6f0>
 800688c:	e47b      	b.n	8006186 <_vfprintf_r+0xa7a>
 800688e:	9b0e      	ldr	r3, [sp, #56]	; 0x38
 8006890:	990b      	ldr	r1, [sp, #44]	; 0x2c
 8006892:	f853 2b04 	ldr.w	r2, [r3], #4
 8006896:	4655      	mov	r5, sl
 8006898:	6011      	str	r1, [r2, #0]
 800689a:	930e      	str	r3, [sp, #56]	; 0x38
 800689c:	f7ff b91c 	b.w	8005ad8 <_vfprintf_r+0x3cc>
 80068a0:	9f08      	ldr	r7, [sp, #32]
 80068a2:	4614      	mov	r4, r2
 80068a4:	3601      	adds	r6, #1
 80068a6:	442c      	add	r4, r5
 80068a8:	2e07      	cmp	r6, #7
 80068aa:	e9cd 6429 	strd	r6, r4, [sp, #164]	; 0xa4
 80068ae:	f8c8 9000 	str.w	r9, [r8]
 80068b2:	f8c8 5004 	str.w	r5, [r8, #4]
 80068b6:	f77f ac02 	ble.w	80060be <_vfprintf_r+0x9b2>
 80068ba:	e55d      	b.n	8006378 <_vfprintf_r+0xc6c>
 80068bc:	4628      	mov	r0, r5
 80068be:	f8cd 9020 	str.w	r9, [sp, #32]
 80068c2:	940e      	str	r4, [sp, #56]	; 0x38
 80068c4:	f7f9 fd3c 	bl	8000340 <strlen>
 80068c8:	4603      	mov	r3, r0
 80068ca:	900c      	str	r0, [sp, #48]	; 0x30
 80068cc:	f7ff b9b4 	b.w	8005c38 <_vfprintf_r+0x52c>
 80068d0:	66666667 	.word	0x66666667
 80068d4:	0800b450 	.word	0x0800b450
 80068d8:	0800b464 	.word	0x0800b464
 80068dc:	0800b478 	.word	0x0800b478
 80068e0:	9b16      	ldr	r3, [sp, #88]	; 0x58
 80068e2:	9817      	ldr	r0, [sp, #92]	; 0x5c
 80068e4:	18e2      	adds	r2, r4, r3
 80068e6:	e9c8 0300 	strd	r0, r3, [r8]
 80068ea:	9b29      	ldr	r3, [sp, #164]	; 0xa4
 80068ec:	922a      	str	r2, [sp, #168]	; 0xa8
 80068ee:	3301      	adds	r3, #1
 80068f0:	2b07      	cmp	r3, #7
 80068f2:	9329      	str	r3, [sp, #164]	; 0xa4
 80068f4:	f300 8149 	bgt.w	8006b8a <_vfprintf_r+0x147e>
 80068f8:	f108 0808 	add.w	r8, r8, #8
 80068fc:	2900      	cmp	r1, #0
 80068fe:	f2c0 82fa 	blt.w	8006ef6 <_vfprintf_r+0x17ea>
 8006902:	9912      	ldr	r1, [sp, #72]	; 0x48
 8006904:	f8c8 5000 	str.w	r5, [r8]
 8006908:	3301      	adds	r3, #1
 800690a:	188c      	adds	r4, r1, r2
 800690c:	2b07      	cmp	r3, #7
 800690e:	e9cd 3429 	strd	r3, r4, [sp, #164]	; 0xa4
 8006912:	f8c8 1004 	str.w	r1, [r8, #4]
 8006916:	f77f a8bf 	ble.w	8005a98 <_vfprintf_r+0x38c>
 800691a:	f7ff bbdf 	b.w	80060dc <_vfprintf_r+0x9d0>
 800691e:	2e10      	cmp	r6, #16
 8006920:	9b29      	ldr	r3, [sp, #164]	; 0xa4
 8006922:	f8df 92c0 	ldr.w	r9, [pc, #704]	; 8006be4 <_vfprintf_r+0x14d8>
 8006926:	dd52      	ble.n	80069ce <_vfprintf_r+0x12c2>
 8006928:	4648      	mov	r0, r9
 800692a:	4621      	mov	r1, r4
 800692c:	4642      	mov	r2, r8
 800692e:	46b9      	mov	r9, r7
 8006930:	46a8      	mov	r8, r5
 8006932:	9c09      	ldr	r4, [sp, #36]	; 0x24
 8006934:	9d07      	ldr	r5, [sp, #28]
 8006936:	f04f 0b10 	mov.w	fp, #16
 800693a:	4607      	mov	r7, r0
 800693c:	e003      	b.n	8006946 <_vfprintf_r+0x123a>
 800693e:	3208      	adds	r2, #8
 8006940:	3e10      	subs	r6, #16
 8006942:	2e10      	cmp	r6, #16
 8006944:	dd3d      	ble.n	80069c2 <_vfprintf_r+0x12b6>
 8006946:	3301      	adds	r3, #1
 8006948:	3110      	adds	r1, #16
 800694a:	2b07      	cmp	r3, #7
 800694c:	e9c2 7b00 	strd	r7, fp, [r2]
 8006950:	e9cd 3129 	strd	r3, r1, [sp, #164]	; 0xa4
 8006954:	ddf3      	ble.n	800693e <_vfprintf_r+0x1232>
 8006956:	aa28      	add	r2, sp, #160	; 0xa0
 8006958:	4629      	mov	r1, r5
 800695a:	4620      	mov	r0, r4
 800695c:	f003 f85a 	bl	8009a14 <__sprint_r>
 8006960:	2800      	cmp	r0, #0
 8006962:	f47f a813 	bne.w	800598c <_vfprintf_r+0x280>
 8006966:	e9dd 3129 	ldrd	r3, r1, [sp, #164]	; 0xa4
 800696a:	aa2b      	add	r2, sp, #172	; 0xac
 800696c:	e7e8      	b.n	8006940 <_vfprintf_r+0x1234>
 800696e:	9b0e      	ldr	r3, [sp, #56]	; 0x38
 8006970:	f41b 7900 	ands.w	r9, fp, #512	; 0x200
 8006974:	bf14      	ite	ne
 8006976:	f853 4b04 	ldrne.w	r4, [r3], #4
 800697a:	f853 4b04 	ldreq.w	r4, [r3], #4
 800697e:	930e      	str	r3, [sp, #56]	; 0x38
 8006980:	bf1c      	itt	ne
 8006982:	4691      	movne	r9, r2
 8006984:	b2e4      	uxtbne	r4, r4
 8006986:	2301      	movs	r3, #1
 8006988:	f7ff b976 	b.w	8005c78 <_vfprintf_r+0x56c>
 800698c:	9b0e      	ldr	r3, [sp, #56]	; 0x38
 800698e:	f417 7900 	ands.w	r9, r7, #512	; 0x200
 8006992:	bf14      	ite	ne
 8006994:	f853 4b04 	ldrne.w	r4, [r3], #4
 8006998:	f853 4b04 	ldreq.w	r4, [r3], #4
 800699c:	930e      	str	r3, [sp, #56]	; 0x38
 800699e:	bf1c      	itt	ne
 80069a0:	4691      	movne	r9, r2
 80069a2:	b2e4      	uxtbne	r4, r4
 80069a4:	f7ff b965 	b.w	8005c72 <_vfprintf_r+0x566>
 80069a8:	9b0e      	ldr	r3, [sp, #56]	; 0x38
 80069aa:	f417 7900 	ands.w	r9, r7, #512	; 0x200
 80069ae:	bf14      	ite	ne
 80069b0:	f853 4b04 	ldrne.w	r4, [r3], #4
 80069b4:	f853 4b04 	ldreq.w	r4, [r3], #4
 80069b8:	930e      	str	r3, [sp, #56]	; 0x38
 80069ba:	bf1c      	itt	ne
 80069bc:	4691      	movne	r9, r2
 80069be:	b2e4      	uxtbne	r4, r4
 80069c0:	e68a      	b.n	80066d8 <_vfprintf_r+0xfcc>
 80069c2:	4645      	mov	r5, r8
 80069c4:	4690      	mov	r8, r2
 80069c6:	463a      	mov	r2, r7
 80069c8:	460c      	mov	r4, r1
 80069ca:	464f      	mov	r7, r9
 80069cc:	4691      	mov	r9, r2
 80069ce:	3301      	adds	r3, #1
 80069d0:	4434      	add	r4, r6
 80069d2:	2b07      	cmp	r3, #7
 80069d4:	e9cd 3429 	strd	r3, r4, [sp, #164]	; 0xa4
 80069d8:	f8c8 9000 	str.w	r9, [r8]
 80069dc:	f8c8 6004 	str.w	r6, [r8, #4]
 80069e0:	f300 80e6 	bgt.w	8006bb0 <_vfprintf_r+0x14a4>
 80069e4:	f108 0808 	add.w	r8, r8, #8
 80069e8:	e453      	b.n	8006292 <_vfprintf_r+0xb86>
 80069ea:	9b1c      	ldr	r3, [sp, #112]	; 0x70
 80069ec:	991b      	ldr	r1, [sp, #108]	; 0x6c
 80069ee:	1aed      	subs	r5, r5, r3
 80069f0:	461a      	mov	r2, r3
 80069f2:	4628      	mov	r0, r5
 80069f4:	f002 ffa0 	bl	8009938 <strncpy>
 80069f8:	f898 3001 	ldrb.w	r3, [r8, #1]
 80069fc:	b10b      	cbz	r3, 8006a02 <_vfprintf_r+0x12f6>
 80069fe:	f108 0801 	add.w	r8, r8, #1
 8006a02:	4620      	mov	r0, r4
 8006a04:	4649      	mov	r1, r9
 8006a06:	220a      	movs	r2, #10
 8006a08:	2300      	movs	r3, #0
 8006a0a:	2600      	movs	r6, #0
 8006a0c:	f7fa f9ec 	bl	8000de8 <__aeabi_uldivmod>
 8006a10:	e6db      	b.n	80067ca <_vfprintf_r+0x10be>
 8006a12:	222d      	movs	r2, #45	; 0x2d
 8006a14:	f88d 2083 	strb.w	r2, [sp, #131]	; 0x83
 8006a18:	f7ff b896 	b.w	8005b48 <_vfprintf_r+0x43c>
 8006a1c:	9a12      	ldr	r2, [sp, #72]	; 0x48
 8006a1e:	18ae      	adds	r6, r5, r2
 8006a20:	eba6 060b 	sub.w	r6, r6, fp
 8006a24:	1ad5      	subs	r5, r2, r3
 8006a26:	42ae      	cmp	r6, r5
 8006a28:	bfa8      	it	ge
 8006a2a:	462e      	movge	r6, r5
 8006a2c:	e464      	b.n	80062f8 <_vfprintf_r+0xbec>
 8006a2e:	9b0e      	ldr	r3, [sp, #56]	; 0x38
 8006a30:	990b      	ldr	r1, [sp, #44]	; 0x2c
 8006a32:	f853 2b04 	ldr.w	r2, [r3], #4
 8006a36:	930e      	str	r3, [sp, #56]	; 0x38
 8006a38:	8011      	strh	r1, [r2, #0]
 8006a3a:	4655      	mov	r5, sl
 8006a3c:	f7ff b84c 	b.w	8005ad8 <_vfprintf_r+0x3cc>
 8006a40:	f344 19c0 	sbfx	r9, r4, #7, #1
 8006a44:	464b      	mov	r3, r9
 8006a46:	b264      	sxtb	r4, r4
 8006a48:	f7ff b8b8 	b.w	8005bbc <_vfprintf_r+0x4b0>
 8006a4c:	2330      	movs	r3, #48	; 0x30
 8006a4e:	f88d 3084 	strb.w	r3, [sp, #132]	; 0x84
 8006a52:	2358      	movs	r3, #88	; 0x58
 8006a54:	f88d 3085 	strb.w	r3, [sp, #133]	; 0x85
 8006a58:	9b08      	ldr	r3, [sp, #32]
 8006a5a:	2b63      	cmp	r3, #99	; 0x63
 8006a5c:	f047 0402 	orr.w	r4, r7, #2
 8006a60:	f300 829b 	bgt.w	8006f9a <_vfprintf_r+0x188e>
 8006a64:	2300      	movs	r3, #0
 8006a66:	930d      	str	r3, [sp, #52]	; 0x34
 8006a68:	ad3b      	add	r5, sp, #236	; 0xec
 8006a6a:	e9dd 1214 	ldrd	r1, r2, [sp, #80]	; 0x50
 8006a6e:	f447 7381 	orr.w	r3, r7, #258	; 0x102
 8006a72:	930f      	str	r3, [sp, #60]	; 0x3c
 8006a74:	4613      	mov	r3, r2
 8006a76:	2b00      	cmp	r3, #0
 8006a78:	4627      	mov	r7, r4
 8006a7a:	f2c0 8220 	blt.w	8006ebe <_vfprintf_r+0x17b2>
 8006a7e:	930c      	str	r3, [sp, #48]	; 0x30
 8006a80:	f026 0320 	bic.w	r3, r6, #32
 8006a84:	9306      	str	r3, [sp, #24]
 8006a86:	2300      	movs	r3, #0
 8006a88:	468b      	mov	fp, r1
 8006a8a:	931d      	str	r3, [sp, #116]	; 0x74
 8006a8c:	2e61      	cmp	r6, #97	; 0x61
 8006a8e:	f000 82ed 	beq.w	800706c <_vfprintf_r+0x1960>
 8006a92:	2e41      	cmp	r6, #65	; 0x41
 8006a94:	f47f ad59 	bne.w	800654a <_vfprintf_r+0xe3e>
 8006a98:	aa22      	add	r2, sp, #136	; 0x88
 8006a9a:	990c      	ldr	r1, [sp, #48]	; 0x30
 8006a9c:	4658      	mov	r0, fp
 8006a9e:	f002 ff13 	bl	80098c8 <frexp>
 8006aa2:	2200      	movs	r2, #0
 8006aa4:	f04f 537f 	mov.w	r3, #1069547520	; 0x3fc00000
 8006aa8:	f7f9 fec6 	bl	8000838 <__aeabi_dmul>
 8006aac:	4602      	mov	r2, r0
 8006aae:	460b      	mov	r3, r1
 8006ab0:	e9cd 2310 	strd	r2, r3, [sp, #64]	; 0x40
 8006ab4:	2200      	movs	r2, #0
 8006ab6:	2300      	movs	r3, #0
 8006ab8:	f7fa f926 	bl	8000d08 <__aeabi_dcmpeq>
 8006abc:	b108      	cbz	r0, 8006ac2 <_vfprintf_r+0x13b6>
 8006abe:	2301      	movs	r3, #1
 8006ac0:	9322      	str	r3, [sp, #136]	; 0x88
 8006ac2:	4b49      	ldr	r3, [pc, #292]	; (8006be8 <_vfprintf_r+0x14dc>)
 8006ac4:	930c      	str	r3, [sp, #48]	; 0x30
 8006ac6:	9b08      	ldr	r3, [sp, #32]
 8006ac8:	e9cd a612 	strd	sl, r6, [sp, #72]	; 0x48
 8006acc:	e9cd 781e 	strd	r7, r8, [sp, #120]	; 0x78
 8006ad0:	f8dd a030 	ldr.w	sl, [sp, #48]	; 0x30
 8006ad4:	e9dd 6710 	ldrd	r6, r7, [sp, #64]	; 0x40
 8006ad8:	f103 39ff 	add.w	r9, r3, #4294967295
 8006adc:	46ab      	mov	fp, r5
 8006ade:	9510      	str	r5, [sp, #64]	; 0x40
 8006ae0:	e006      	b.n	8006af0 <_vfprintf_r+0x13e4>
 8006ae2:	2200      	movs	r2, #0
 8006ae4:	2300      	movs	r3, #0
 8006ae6:	f109 39ff 	add.w	r9, r9, #4294967295
 8006aea:	f7fa f90d 	bl	8000d08 <__aeabi_dcmpeq>
 8006aee:	b9e8      	cbnz	r0, 8006b2c <_vfprintf_r+0x1420>
 8006af0:	4b3e      	ldr	r3, [pc, #248]	; (8006bec <_vfprintf_r+0x14e0>)
 8006af2:	2200      	movs	r2, #0
 8006af4:	4630      	mov	r0, r6
 8006af6:	4639      	mov	r1, r7
 8006af8:	f7f9 fe9e 	bl	8000838 <__aeabi_dmul>
 8006afc:	460f      	mov	r7, r1
 8006afe:	4606      	mov	r6, r0
 8006b00:	f7fa f94a 	bl	8000d98 <__aeabi_d2iz>
 8006b04:	4604      	mov	r4, r0
 8006b06:	f7f9 fe2d 	bl	8000764 <__aeabi_i2d>
 8006b0a:	460b      	mov	r3, r1
 8006b0c:	4602      	mov	r2, r0
 8006b0e:	4639      	mov	r1, r7
 8006b10:	4630      	mov	r0, r6
 8006b12:	f7f9 fcd9 	bl	80004c8 <__aeabi_dsub>
 8006b16:	f81a 3004 	ldrb.w	r3, [sl, r4]
 8006b1a:	f1b9 3fff 	cmp.w	r9, #4294967295
 8006b1e:	46d8      	mov	r8, fp
 8006b20:	464d      	mov	r5, r9
 8006b22:	f80b 3b01 	strb.w	r3, [fp], #1
 8006b26:	4606      	mov	r6, r0
 8006b28:	460f      	mov	r7, r1
 8006b2a:	d1da      	bne.n	8006ae2 <_vfprintf_r+0x13d6>
 8006b2c:	4630      	mov	r0, r6
 8006b2e:	4639      	mov	r1, r7
 8006b30:	4b2f      	ldr	r3, [pc, #188]	; (8006bf0 <_vfprintf_r+0x14e4>)
 8006b32:	f8dd a048 	ldr.w	sl, [sp, #72]	; 0x48
 8006b36:	9e13      	ldr	r6, [sp, #76]	; 0x4c
 8006b38:	f8cd 8048 	str.w	r8, [sp, #72]	; 0x48
 8006b3c:	2200      	movs	r2, #0
 8006b3e:	46a9      	mov	r9, r5
 8006b40:	f8dd 807c 	ldr.w	r8, [sp, #124]	; 0x7c
 8006b44:	9d10      	ldr	r5, [sp, #64]	; 0x40
 8006b46:	9f1e      	ldr	r7, [sp, #120]	; 0x78
 8006b48:	e9cd 0110 	strd	r0, r1, [sp, #64]	; 0x40
 8006b4c:	f7fa f904 	bl	8000d58 <__aeabi_dcmpgt>
 8006b50:	2800      	cmp	r0, #0
 8006b52:	f040 8234 	bne.w	8006fbe <_vfprintf_r+0x18b2>
 8006b56:	e9dd 0110 	ldrd	r0, r1, [sp, #64]	; 0x40
 8006b5a:	4b25      	ldr	r3, [pc, #148]	; (8006bf0 <_vfprintf_r+0x14e4>)
 8006b5c:	2200      	movs	r2, #0
 8006b5e:	f7fa f8d3 	bl	8000d08 <__aeabi_dcmpeq>
 8006b62:	b110      	cbz	r0, 8006b6a <_vfprintf_r+0x145e>
 8006b64:	07e1      	lsls	r1, r4, #31
 8006b66:	f100 822a 	bmi.w	8006fbe <_vfprintf_r+0x18b2>
 8006b6a:	464b      	mov	r3, r9
 8006b6c:	2b00      	cmp	r3, #0
 8006b6e:	db06      	blt.n	8006b7e <_vfprintf_r+0x1472>
 8006b70:	3301      	adds	r3, #1
 8006b72:	445b      	add	r3, fp
 8006b74:	2230      	movs	r2, #48	; 0x30
 8006b76:	f80b 2b01 	strb.w	r2, [fp], #1
 8006b7a:	455b      	cmp	r3, fp
 8006b7c:	d1fb      	bne.n	8006b76 <_vfprintf_r+0x146a>
 8006b7e:	ebab 0305 	sub.w	r3, fp, r5
 8006b82:	46b9      	mov	r9, r7
 8006b84:	9312      	str	r3, [sp, #72]	; 0x48
 8006b86:	9f0f      	ldr	r7, [sp, #60]	; 0x3c
 8006b88:	e503      	b.n	8006592 <_vfprintf_r+0xe86>
 8006b8a:	9907      	ldr	r1, [sp, #28]
 8006b8c:	9809      	ldr	r0, [sp, #36]	; 0x24
 8006b8e:	aa28      	add	r2, sp, #160	; 0xa0
 8006b90:	f002 ff40 	bl	8009a14 <__sprint_r>
 8006b94:	2800      	cmp	r0, #0
 8006b96:	f47e aef9 	bne.w	800598c <_vfprintf_r+0x280>
 8006b9a:	e9dd 3229 	ldrd	r3, r2, [sp, #164]	; 0xa4
 8006b9e:	9922      	ldr	r1, [sp, #136]	; 0x88
 8006ba0:	f10d 08ac 	add.w	r8, sp, #172	; 0xac
 8006ba4:	e6aa      	b.n	80068fc <_vfprintf_r+0x11f0>
 8006ba6:	6d90      	ldr	r0, [r2, #88]	; 0x58
 8006ba8:	f7fe f91e 	bl	8004de8 <__retarget_lock_release_recursive>
 8006bac:	f7fe bec0 	b.w	8005930 <_vfprintf_r+0x224>
 8006bb0:	9907      	ldr	r1, [sp, #28]
 8006bb2:	9809      	ldr	r0, [sp, #36]	; 0x24
 8006bb4:	aa28      	add	r2, sp, #160	; 0xa0
 8006bb6:	f002 ff2d 	bl	8009a14 <__sprint_r>
 8006bba:	2800      	cmp	r0, #0
 8006bbc:	f47e aee6 	bne.w	800598c <_vfprintf_r+0x280>
 8006bc0:	9c2a      	ldr	r4, [sp, #168]	; 0xa8
 8006bc2:	f10d 08ac 	add.w	r8, sp, #172	; 0xac
 8006bc6:	f7ff bb64 	b.w	8006292 <_vfprintf_r+0xb86>
 8006bca:	9b22      	ldr	r3, [sp, #136]	; 0x88
 8006bcc:	9310      	str	r3, [sp, #64]	; 0x40
 8006bce:	1cda      	adds	r2, r3, #3
 8006bd0:	db02      	blt.n	8006bd8 <_vfprintf_r+0x14cc>
 8006bd2:	9a08      	ldr	r2, [sp, #32]
 8006bd4:	4293      	cmp	r3, r2
 8006bd6:	dd0d      	ble.n	8006bf4 <_vfprintf_r+0x14e8>
 8006bd8:	3e02      	subs	r6, #2
 8006bda:	f026 0320 	bic.w	r3, r6, #32
 8006bde:	9306      	str	r3, [sp, #24]
 8006be0:	e4e1      	b.n	80065a6 <_vfprintf_r+0xe9a>
 8006be2:	bf00      	nop
 8006be4:	0800b494 	.word	0x0800b494
 8006be8:	0800b464 	.word	0x0800b464
 8006bec:	40300000 	.word	0x40300000
 8006bf0:	3fe00000 	.word	0x3fe00000
 8006bf4:	9b10      	ldr	r3, [sp, #64]	; 0x40
 8006bf6:	9a12      	ldr	r2, [sp, #72]	; 0x48
 8006bf8:	4293      	cmp	r3, r2
 8006bfa:	f2c0 8156 	blt.w	8006eaa <_vfprintf_r+0x179e>
 8006bfe:	f019 0f01 	tst.w	r9, #1
 8006c02:	f000 8287 	beq.w	8007114 <_vfprintf_r+0x1a08>
 8006c06:	9a16      	ldr	r2, [sp, #88]	; 0x58
 8006c08:	4413      	add	r3, r2
 8006c0a:	930c      	str	r3, [sp, #48]	; 0x30
 8006c0c:	f419 6f80 	tst.w	r9, #1024	; 0x400
 8006c10:	d003      	beq.n	8006c1a <_vfprintf_r+0x150e>
 8006c12:	9b10      	ldr	r3, [sp, #64]	; 0x40
 8006c14:	2b00      	cmp	r3, #0
 8006c16:	f300 8250 	bgt.w	80070ba <_vfprintf_r+0x19ae>
 8006c1a:	9b0c      	ldr	r3, [sp, #48]	; 0x30
 8006c1c:	ea23 73e3 	bic.w	r3, r3, r3, asr #31
 8006c20:	9306      	str	r3, [sp, #24]
 8006c22:	2667      	movs	r6, #103	; 0x67
 8006c24:	2300      	movs	r3, #0
 8006c26:	930f      	str	r3, [sp, #60]	; 0x3c
 8006c28:	9313      	str	r3, [sp, #76]	; 0x4c
 8006c2a:	e51d      	b.n	8006668 <_vfprintf_r+0xf5c>
 8006c2c:	222d      	movs	r2, #45	; 0x2d
 8006c2e:	2300      	movs	r3, #0
 8006c30:	f88d 2083 	strb.w	r2, [sp, #131]	; 0x83
 8006c34:	9308      	str	r3, [sp, #32]
 8006c36:	f7fe bf9a 	b.w	8005b6e <_vfprintf_r+0x462>
 8006c3a:	9b12      	ldr	r3, [sp, #72]	; 0x48
 8006c3c:	f8cd a030 	str.w	sl, [sp, #48]	; 0x30
 8006c40:	4642      	mov	r2, r8
 8006c42:	f8dd 804c 	ldr.w	r8, [sp, #76]	; 0x4c
 8006c46:	9710      	str	r7, [sp, #64]	; 0x40
 8006c48:	18eb      	adds	r3, r5, r3
 8006c4a:	9308      	str	r3, [sp, #32]
 8006c4c:	465e      	mov	r6, fp
 8006c4e:	9f19      	ldr	r7, [sp, #100]	; 0x64
 8006c50:	f8dd 9070 	ldr.w	r9, [sp, #112]	; 0x70
 8006c54:	f8dd a024 	ldr.w	sl, [sp, #36]	; 0x24
 8006c58:	f8dd b01c 	ldr.w	fp, [sp, #28]
 8006c5c:	9b0f      	ldr	r3, [sp, #60]	; 0x3c
 8006c5e:	9513      	str	r5, [sp, #76]	; 0x4c
 8006c60:	4621      	mov	r1, r4
 8006c62:	f1b8 0f00 	cmp.w	r8, #0
 8006c66:	d02e      	beq.n	8006cc6 <_vfprintf_r+0x15ba>
 8006c68:	2b00      	cmp	r3, #0
 8006c6a:	d16b      	bne.n	8006d44 <_vfprintf_r+0x1638>
 8006c6c:	3f01      	subs	r7, #1
 8006c6e:	f108 38ff 	add.w	r8, r8, #4294967295
 8006c72:	9b1b      	ldr	r3, [sp, #108]	; 0x6c
 8006c74:	e9c2 3900 	strd	r3, r9, [r2]
 8006c78:	9b29      	ldr	r3, [sp, #164]	; 0xa4
 8006c7a:	3301      	adds	r3, #1
 8006c7c:	4449      	add	r1, r9
 8006c7e:	2b07      	cmp	r3, #7
 8006c80:	912a      	str	r1, [sp, #168]	; 0xa8
 8006c82:	9329      	str	r3, [sp, #164]	; 0xa4
 8006c84:	dc62      	bgt.n	8006d4c <_vfprintf_r+0x1640>
 8006c86:	3208      	adds	r2, #8
 8006c88:	9b08      	ldr	r3, [sp, #32]
 8006c8a:	7838      	ldrb	r0, [r7, #0]
 8006c8c:	1b9b      	subs	r3, r3, r6
 8006c8e:	4283      	cmp	r3, r0
 8006c90:	bfa8      	it	ge
 8006c92:	4603      	movge	r3, r0
 8006c94:	2b00      	cmp	r3, #0
 8006c96:	461c      	mov	r4, r3
 8006c98:	dd0a      	ble.n	8006cb0 <_vfprintf_r+0x15a4>
 8006c9a:	9829      	ldr	r0, [sp, #164]	; 0xa4
 8006c9c:	3001      	adds	r0, #1
 8006c9e:	4419      	add	r1, r3
 8006ca0:	2807      	cmp	r0, #7
 8006ca2:	e9c2 6300 	strd	r6, r3, [r2]
 8006ca6:	912a      	str	r1, [sp, #168]	; 0xa8
 8006ca8:	9029      	str	r0, [sp, #164]	; 0xa4
 8006caa:	dc5a      	bgt.n	8006d62 <_vfprintf_r+0x1656>
 8006cac:	7838      	ldrb	r0, [r7, #0]
 8006cae:	3208      	adds	r2, #8
 8006cb0:	2c00      	cmp	r4, #0
 8006cb2:	bfac      	ite	ge
 8006cb4:	1b05      	subge	r5, r0, r4
 8006cb6:	4605      	movlt	r5, r0
 8006cb8:	2d00      	cmp	r5, #0
 8006cba:	dc15      	bgt.n	8006ce8 <_vfprintf_r+0x15dc>
 8006cbc:	4406      	add	r6, r0
 8006cbe:	9b0f      	ldr	r3, [sp, #60]	; 0x3c
 8006cc0:	f1b8 0f00 	cmp.w	r8, #0
 8006cc4:	d1d0      	bne.n	8006c68 <_vfprintf_r+0x155c>
 8006cc6:	2b00      	cmp	r3, #0
 8006cc8:	d13c      	bne.n	8006d44 <_vfprintf_r+0x1638>
 8006cca:	e9dd 3512 	ldrd	r3, r5, [sp, #72]	; 0x48
 8006cce:	18eb      	adds	r3, r5, r3
 8006cd0:	429e      	cmp	r6, r3
 8006cd2:	9719      	str	r7, [sp, #100]	; 0x64
 8006cd4:	46b3      	mov	fp, r6
 8006cd6:	f8dd a030 	ldr.w	sl, [sp, #48]	; 0x30
 8006cda:	9f10      	ldr	r7, [sp, #64]	; 0x40
 8006cdc:	460c      	mov	r4, r1
 8006cde:	4690      	mov	r8, r2
 8006ce0:	bf28      	it	cs
 8006ce2:	469b      	movcs	fp, r3
 8006ce4:	f7ff badb 	b.w	800629e <_vfprintf_r+0xb92>
 8006ce8:	2d10      	cmp	r5, #16
 8006cea:	9829      	ldr	r0, [sp, #164]	; 0xa4
 8006cec:	dd1d      	ble.n	8006d2a <_vfprintf_r+0x161e>
 8006cee:	2410      	movs	r4, #16
 8006cf0:	e004      	b.n	8006cfc <_vfprintf_r+0x15f0>
 8006cf2:	3d10      	subs	r5, #16
 8006cf4:	2d10      	cmp	r5, #16
 8006cf6:	f102 0208 	add.w	r2, r2, #8
 8006cfa:	dd16      	ble.n	8006d2a <_vfprintf_r+0x161e>
 8006cfc:	3001      	adds	r0, #1
 8006cfe:	4bac      	ldr	r3, [pc, #688]	; (8006fb0 <_vfprintf_r+0x18a4>)
 8006d00:	3110      	adds	r1, #16
 8006d02:	2807      	cmp	r0, #7
 8006d04:	e9c2 3400 	strd	r3, r4, [r2]
 8006d08:	e9cd 0129 	strd	r0, r1, [sp, #164]	; 0xa4
 8006d0c:	ddf1      	ble.n	8006cf2 <_vfprintf_r+0x15e6>
 8006d0e:	aa28      	add	r2, sp, #160	; 0xa0
 8006d10:	4659      	mov	r1, fp
 8006d12:	4650      	mov	r0, sl
 8006d14:	f002 fe7e 	bl	8009a14 <__sprint_r>
 8006d18:	2800      	cmp	r0, #0
 8006d1a:	f47e ae37 	bne.w	800598c <_vfprintf_r+0x280>
 8006d1e:	3d10      	subs	r5, #16
 8006d20:	2d10      	cmp	r5, #16
 8006d22:	e9dd 0129 	ldrd	r0, r1, [sp, #164]	; 0xa4
 8006d26:	aa2b      	add	r2, sp, #172	; 0xac
 8006d28:	dce8      	bgt.n	8006cfc <_vfprintf_r+0x15f0>
 8006d2a:	3001      	adds	r0, #1
 8006d2c:	4ba0      	ldr	r3, [pc, #640]	; (8006fb0 <_vfprintf_r+0x18a4>)
 8006d2e:	6055      	str	r5, [r2, #4]
 8006d30:	4429      	add	r1, r5
 8006d32:	2807      	cmp	r0, #7
 8006d34:	e9cd 0129 	strd	r0, r1, [sp, #164]	; 0xa4
 8006d38:	6013      	str	r3, [r2, #0]
 8006d3a:	dc2c      	bgt.n	8006d96 <_vfprintf_r+0x168a>
 8006d3c:	7838      	ldrb	r0, [r7, #0]
 8006d3e:	3208      	adds	r2, #8
 8006d40:	4406      	add	r6, r0
 8006d42:	e7bc      	b.n	8006cbe <_vfprintf_r+0x15b2>
 8006d44:	9b0f      	ldr	r3, [sp, #60]	; 0x3c
 8006d46:	3b01      	subs	r3, #1
 8006d48:	930f      	str	r3, [sp, #60]	; 0x3c
 8006d4a:	e792      	b.n	8006c72 <_vfprintf_r+0x1566>
 8006d4c:	aa28      	add	r2, sp, #160	; 0xa0
 8006d4e:	4659      	mov	r1, fp
 8006d50:	4650      	mov	r0, sl
 8006d52:	f002 fe5f 	bl	8009a14 <__sprint_r>
 8006d56:	2800      	cmp	r0, #0
 8006d58:	f47e ae18 	bne.w	800598c <_vfprintf_r+0x280>
 8006d5c:	992a      	ldr	r1, [sp, #168]	; 0xa8
 8006d5e:	aa2b      	add	r2, sp, #172	; 0xac
 8006d60:	e792      	b.n	8006c88 <_vfprintf_r+0x157c>
 8006d62:	aa28      	add	r2, sp, #160	; 0xa0
 8006d64:	4659      	mov	r1, fp
 8006d66:	4650      	mov	r0, sl
 8006d68:	f002 fe54 	bl	8009a14 <__sprint_r>
 8006d6c:	2800      	cmp	r0, #0
 8006d6e:	f47e ae0d 	bne.w	800598c <_vfprintf_r+0x280>
 8006d72:	7838      	ldrb	r0, [r7, #0]
 8006d74:	992a      	ldr	r1, [sp, #168]	; 0xa8
 8006d76:	aa2b      	add	r2, sp, #172	; 0xac
 8006d78:	e79a      	b.n	8006cb0 <_vfprintf_r+0x15a4>
 8006d7a:	9907      	ldr	r1, [sp, #28]
 8006d7c:	9809      	ldr	r0, [sp, #36]	; 0x24
 8006d7e:	aa28      	add	r2, sp, #160	; 0xa0
 8006d80:	f002 fe48 	bl	8009a14 <__sprint_r>
 8006d84:	2800      	cmp	r0, #0
 8006d86:	f47e ae01 	bne.w	800598c <_vfprintf_r+0x280>
 8006d8a:	9922      	ldr	r1, [sp, #136]	; 0x88
 8006d8c:	9c2a      	ldr	r4, [sp, #168]	; 0xa8
 8006d8e:	f10d 08ac 	add.w	r8, sp, #172	; 0xac
 8006d92:	f7ff bb84 	b.w	800649e <_vfprintf_r+0xd92>
 8006d96:	aa28      	add	r2, sp, #160	; 0xa0
 8006d98:	4659      	mov	r1, fp
 8006d9a:	4650      	mov	r0, sl
 8006d9c:	f002 fe3a 	bl	8009a14 <__sprint_r>
 8006da0:	2800      	cmp	r0, #0
 8006da2:	f47e adf3 	bne.w	800598c <_vfprintf_r+0x280>
 8006da6:	7838      	ldrb	r0, [r7, #0]
 8006da8:	992a      	ldr	r1, [sp, #168]	; 0xa8
 8006daa:	aa2b      	add	r2, sp, #172	; 0xac
 8006dac:	4406      	add	r6, r0
 8006dae:	e786      	b.n	8006cbe <_vfprintf_r+0x15b2>
 8006db0:	9907      	ldr	r1, [sp, #28]
 8006db2:	9809      	ldr	r0, [sp, #36]	; 0x24
 8006db4:	aa28      	add	r2, sp, #160	; 0xa0
 8006db6:	f002 fe2d 	bl	8009a14 <__sprint_r>
 8006dba:	2800      	cmp	r0, #0
 8006dbc:	f47e ade6 	bne.w	800598c <_vfprintf_r+0x280>
 8006dc0:	9c2a      	ldr	r4, [sp, #168]	; 0xa8
 8006dc2:	f10d 08ac 	add.w	r8, sp, #172	; 0xac
 8006dc6:	f7ff ba5b 	b.w	8006280 <_vfprintf_r+0xb74>
 8006dca:	9907      	ldr	r1, [sp, #28]
 8006dcc:	9809      	ldr	r0, [sp, #36]	; 0x24
 8006dce:	aa28      	add	r2, sp, #160	; 0xa0
 8006dd0:	f002 fe20 	bl	8009a14 <__sprint_r>
 8006dd4:	2800      	cmp	r0, #0
 8006dd6:	f47e add9 	bne.w	800598c <_vfprintf_r+0x280>
 8006dda:	9b22      	ldr	r3, [sp, #136]	; 0x88
 8006ddc:	9c2a      	ldr	r4, [sp, #168]	; 0xa8
 8006dde:	f10d 08ac 	add.w	r8, sp, #172	; 0xac
 8006de2:	f7ff ba71 	b.w	80062c8 <_vfprintf_r+0xbbc>
 8006de6:	9908      	ldr	r1, [sp, #32]
 8006de8:	9101      	str	r1, [sp, #4]
 8006dea:	a926      	add	r1, sp, #152	; 0x98
 8006dec:	9104      	str	r1, [sp, #16]
 8006dee:	a923      	add	r1, sp, #140	; 0x8c
 8006df0:	9103      	str	r1, [sp, #12]
 8006df2:	a922      	add	r1, sp, #136	; 0x88
 8006df4:	9102      	str	r1, [sp, #8]
 8006df6:	2103      	movs	r1, #3
 8006df8:	9b0c      	ldr	r3, [sp, #48]	; 0x30
 8006dfa:	9809      	ldr	r0, [sp, #36]	; 0x24
 8006dfc:	9100      	str	r1, [sp, #0]
 8006dfe:	465a      	mov	r2, fp
 8006e00:	f000 fbc6 	bl	8007590 <_dtoa_r>
 8006e04:	7803      	ldrb	r3, [r0, #0]
 8006e06:	2b30      	cmp	r3, #48	; 0x30
 8006e08:	4605      	mov	r5, r0
 8006e0a:	f000 8195 	beq.w	8007138 <_vfprintf_r+0x1a2c>
 8006e0e:	9b22      	ldr	r3, [sp, #136]	; 0x88
 8006e10:	9a08      	ldr	r2, [sp, #32]
 8006e12:	46b9      	mov	r9, r7
 8006e14:	4413      	add	r3, r2
 8006e16:	9f0f      	ldr	r7, [sp, #60]	; 0x3c
 8006e18:	18ec      	adds	r4, r5, r3
 8006e1a:	990c      	ldr	r1, [sp, #48]	; 0x30
 8006e1c:	4658      	mov	r0, fp
 8006e1e:	2200      	movs	r2, #0
 8006e20:	2300      	movs	r3, #0
 8006e22:	f7f9 ff71 	bl	8000d08 <__aeabi_dcmpeq>
 8006e26:	b110      	cbz	r0, 8006e2e <_vfprintf_r+0x1722>
 8006e28:	4623      	mov	r3, r4
 8006e2a:	f7ff bbb0 	b.w	800658e <_vfprintf_r+0xe82>
 8006e2e:	9b26      	ldr	r3, [sp, #152]	; 0x98
 8006e30:	42a3      	cmp	r3, r4
 8006e32:	f4bf abac 	bcs.w	800658e <_vfprintf_r+0xe82>
 8006e36:	2130      	movs	r1, #48	; 0x30
 8006e38:	1c5a      	adds	r2, r3, #1
 8006e3a:	9226      	str	r2, [sp, #152]	; 0x98
 8006e3c:	7019      	strb	r1, [r3, #0]
 8006e3e:	9b26      	ldr	r3, [sp, #152]	; 0x98
 8006e40:	429c      	cmp	r4, r3
 8006e42:	d8f9      	bhi.n	8006e38 <_vfprintf_r+0x172c>
 8006e44:	f7ff bba3 	b.w	800658e <_vfprintf_r+0xe82>
 8006e48:	9b08      	ldr	r3, [sp, #32]
 8006e4a:	f89d 2083 	ldrb.w	r2, [sp, #131]	; 0x83
 8006e4e:	940e      	str	r4, [sp, #56]	; 0x38
 8006e50:	9306      	str	r3, [sp, #24]
 8006e52:	930c      	str	r3, [sp, #48]	; 0x30
 8006e54:	9008      	str	r0, [sp, #32]
 8006e56:	900f      	str	r0, [sp, #60]	; 0x3c
 8006e58:	9013      	str	r0, [sp, #76]	; 0x4c
 8006e5a:	9010      	str	r0, [sp, #64]	; 0x40
 8006e5c:	f7fe be84 	b.w	8005b68 <_vfprintf_r+0x45c>
 8006e60:	9a22      	ldr	r2, [sp, #136]	; 0x88
 8006e62:	9210      	str	r2, [sp, #64]	; 0x40
 8006e64:	2a00      	cmp	r2, #0
 8006e66:	f340 8181 	ble.w	800716c <_vfprintf_r+0x1a60>
 8006e6a:	9908      	ldr	r1, [sp, #32]
 8006e6c:	f009 0301 	and.w	r3, r9, #1
 8006e70:	430b      	orrs	r3, r1
 8006e72:	f040 8155 	bne.w	8007120 <_vfprintf_r+0x1a14>
 8006e76:	9b10      	ldr	r3, [sp, #64]	; 0x40
 8006e78:	930c      	str	r3, [sp, #48]	; 0x30
 8006e7a:	2666      	movs	r6, #102	; 0x66
 8006e7c:	f419 6f80 	tst.w	r9, #1024	; 0x400
 8006e80:	f040 811c 	bne.w	80070bc <_vfprintf_r+0x19b0>
 8006e84:	9b0c      	ldr	r3, [sp, #48]	; 0x30
 8006e86:	ea23 73e3 	bic.w	r3, r3, r3, asr #31
 8006e8a:	9306      	str	r3, [sp, #24]
 8006e8c:	e6ca      	b.n	8006c24 <_vfprintf_r+0x1518>
 8006e8e:	9907      	ldr	r1, [sp, #28]
 8006e90:	9809      	ldr	r0, [sp, #36]	; 0x24
 8006e92:	aa28      	add	r2, sp, #160	; 0xa0
 8006e94:	f002 fdbe 	bl	8009a14 <__sprint_r>
 8006e98:	2800      	cmp	r0, #0
 8006e9a:	f43e ae25 	beq.w	8005ae8 <_vfprintf_r+0x3dc>
 8006e9e:	f7fe bd7b 	b.w	8005998 <_vfprintf_r+0x28c>
 8006ea2:	2300      	movs	r3, #0
 8006ea4:	9308      	str	r3, [sp, #32]
 8006ea6:	f7fe bca1 	b.w	80057ec <_vfprintf_r+0xe0>
 8006eaa:	9b12      	ldr	r3, [sp, #72]	; 0x48
 8006eac:	9a16      	ldr	r2, [sp, #88]	; 0x58
 8006eae:	189a      	adds	r2, r3, r2
 8006eb0:	9b10      	ldr	r3, [sp, #64]	; 0x40
 8006eb2:	920c      	str	r2, [sp, #48]	; 0x30
 8006eb4:	2b00      	cmp	r3, #0
 8006eb6:	f340 814d 	ble.w	8007154 <_vfprintf_r+0x1a48>
 8006eba:	2667      	movs	r6, #103	; 0x67
 8006ebc:	e7de      	b.n	8006e7c <_vfprintf_r+0x1770>
 8006ebe:	f026 0320 	bic.w	r3, r6, #32
 8006ec2:	9306      	str	r3, [sp, #24]
 8006ec4:	e9dd 3414 	ldrd	r3, r4, [sp, #80]	; 0x50
 8006ec8:	469b      	mov	fp, r3
 8006eca:	f104 4300 	add.w	r3, r4, #2147483648	; 0x80000000
 8006ece:	930c      	str	r3, [sp, #48]	; 0x30
 8006ed0:	232d      	movs	r3, #45	; 0x2d
 8006ed2:	931d      	str	r3, [sp, #116]	; 0x74
 8006ed4:	e5da      	b.n	8006a8c <_vfprintf_r+0x1380>
 8006ed6:	9907      	ldr	r1, [sp, #28]
 8006ed8:	9809      	ldr	r0, [sp, #36]	; 0x24
 8006eda:	aa28      	add	r2, sp, #160	; 0xa0
 8006edc:	f002 fd9a 	bl	8009a14 <__sprint_r>
 8006ee0:	2800      	cmp	r0, #0
 8006ee2:	f47e ad53 	bne.w	800598c <_vfprintf_r+0x280>
 8006ee6:	9d22      	ldr	r5, [sp, #136]	; 0x88
 8006ee8:	9b12      	ldr	r3, [sp, #72]	; 0x48
 8006eea:	9c2a      	ldr	r4, [sp, #168]	; 0xa8
 8006eec:	1b5d      	subs	r5, r3, r5
 8006eee:	f10d 08ac 	add.w	r8, sp, #172	; 0xac
 8006ef2:	f7ff ba01 	b.w	80062f8 <_vfprintf_r+0xbec>
 8006ef6:	424e      	negs	r6, r1
 8006ef8:	3110      	adds	r1, #16
 8006efa:	f8df 90b4 	ldr.w	r9, [pc, #180]	; 8006fb0 <_vfprintf_r+0x18a4>
 8006efe:	da34      	bge.n	8006f6a <_vfprintf_r+0x185e>
 8006f00:	4641      	mov	r1, r8
 8006f02:	f8dd b024 	ldr.w	fp, [sp, #36]	; 0x24
 8006f06:	46a8      	mov	r8, r5
 8006f08:	2410      	movs	r4, #16
 8006f0a:	9d07      	ldr	r5, [sp, #28]
 8006f0c:	e003      	b.n	8006f16 <_vfprintf_r+0x180a>
 8006f0e:	3108      	adds	r1, #8
 8006f10:	3e10      	subs	r6, #16
 8006f12:	2e10      	cmp	r6, #16
 8006f14:	dd27      	ble.n	8006f66 <_vfprintf_r+0x185a>
 8006f16:	3301      	adds	r3, #1
 8006f18:	3210      	adds	r2, #16
 8006f1a:	2b07      	cmp	r3, #7
 8006f1c:	e9c1 9400 	strd	r9, r4, [r1]
 8006f20:	e9cd 3229 	strd	r3, r2, [sp, #164]	; 0xa4
 8006f24:	ddf3      	ble.n	8006f0e <_vfprintf_r+0x1802>
 8006f26:	aa28      	add	r2, sp, #160	; 0xa0
 8006f28:	4629      	mov	r1, r5
 8006f2a:	4658      	mov	r0, fp
 8006f2c:	f002 fd72 	bl	8009a14 <__sprint_r>
 8006f30:	2800      	cmp	r0, #0
 8006f32:	f47e ad2b 	bne.w	800598c <_vfprintf_r+0x280>
 8006f36:	e9dd 3229 	ldrd	r3, r2, [sp, #164]	; 0xa4
 8006f3a:	a92b      	add	r1, sp, #172	; 0xac
 8006f3c:	e7e8      	b.n	8006f10 <_vfprintf_r+0x1804>
 8006f3e:	9b08      	ldr	r3, [sp, #32]
 8006f40:	18ec      	adds	r4, r5, r3
 8006f42:	e76a      	b.n	8006e1a <_vfprintf_r+0x170e>
 8006f44:	9b07      	ldr	r3, [sp, #28]
 8006f46:	6e5b      	ldr	r3, [r3, #100]	; 0x64
 8006f48:	07dd      	lsls	r5, r3, #31
 8006f4a:	d407      	bmi.n	8006f5c <_vfprintf_r+0x1850>
 8006f4c:	9b07      	ldr	r3, [sp, #28]
 8006f4e:	899b      	ldrh	r3, [r3, #12]
 8006f50:	059c      	lsls	r4, r3, #22
 8006f52:	d403      	bmi.n	8006f5c <_vfprintf_r+0x1850>
 8006f54:	9b07      	ldr	r3, [sp, #28]
 8006f56:	6d98      	ldr	r0, [r3, #88]	; 0x58
 8006f58:	f7fd ff46 	bl	8004de8 <__retarget_lock_release_recursive>
 8006f5c:	f04f 33ff 	mov.w	r3, #4294967295
 8006f60:	930b      	str	r3, [sp, #44]	; 0x2c
 8006f62:	f7fe bd22 	b.w	80059aa <_vfprintf_r+0x29e>
 8006f66:	4645      	mov	r5, r8
 8006f68:	4688      	mov	r8, r1
 8006f6a:	3301      	adds	r3, #1
 8006f6c:	4432      	add	r2, r6
 8006f6e:	2b07      	cmp	r3, #7
 8006f70:	e9cd 3229 	strd	r3, r2, [sp, #164]	; 0xa4
 8006f74:	f8c8 9000 	str.w	r9, [r8]
 8006f78:	f8c8 6004 	str.w	r6, [r8, #4]
 8006f7c:	f77f aaa4 	ble.w	80064c8 <_vfprintf_r+0xdbc>
 8006f80:	9907      	ldr	r1, [sp, #28]
 8006f82:	9809      	ldr	r0, [sp, #36]	; 0x24
 8006f84:	aa28      	add	r2, sp, #160	; 0xa0
 8006f86:	f002 fd45 	bl	8009a14 <__sprint_r>
 8006f8a:	2800      	cmp	r0, #0
 8006f8c:	f47e acfe 	bne.w	800598c <_vfprintf_r+0x280>
 8006f90:	e9dd 3229 	ldrd	r3, r2, [sp, #164]	; 0xa4
 8006f94:	f10d 08ac 	add.w	r8, sp, #172	; 0xac
 8006f98:	e4b3      	b.n	8006902 <_vfprintf_r+0x11f6>
 8006f9a:	9809      	ldr	r0, [sp, #36]	; 0x24
 8006f9c:	1c59      	adds	r1, r3, #1
 8006f9e:	f7fd ff35 	bl	8004e0c <_malloc_r>
 8006fa2:	4605      	mov	r5, r0
 8006fa4:	2800      	cmp	r0, #0
 8006fa6:	f000 810d 	beq.w	80071c4 <_vfprintf_r+0x1ab8>
 8006faa:	900d      	str	r0, [sp, #52]	; 0x34
 8006fac:	e55d      	b.n	8006a6a <_vfprintf_r+0x135e>
 8006fae:	bf00      	nop
 8006fb0:	0800b494 	.word	0x0800b494
 8006fb4:	2330      	movs	r3, #48	; 0x30
 8006fb6:	f88d 3084 	strb.w	r3, [sp, #132]	; 0x84
 8006fba:	2378      	movs	r3, #120	; 0x78
 8006fbc:	e54a      	b.n	8006a54 <_vfprintf_r+0x1348>
 8006fbe:	9b12      	ldr	r3, [sp, #72]	; 0x48
 8006fc0:	9326      	str	r3, [sp, #152]	; 0x98
 8006fc2:	9b0c      	ldr	r3, [sp, #48]	; 0x30
 8006fc4:	f81b 2c01 	ldrb.w	r2, [fp, #-1]
 8006fc8:	7bd9      	ldrb	r1, [r3, #15]
 8006fca:	428a      	cmp	r2, r1
 8006fcc:	465b      	mov	r3, fp
 8006fce:	d109      	bne.n	8006fe4 <_vfprintf_r+0x18d8>
 8006fd0:	2030      	movs	r0, #48	; 0x30
 8006fd2:	f803 0c01 	strb.w	r0, [r3, #-1]
 8006fd6:	9b26      	ldr	r3, [sp, #152]	; 0x98
 8006fd8:	1e5a      	subs	r2, r3, #1
 8006fda:	9226      	str	r2, [sp, #152]	; 0x98
 8006fdc:	f813 2c01 	ldrb.w	r2, [r3, #-1]
 8006fe0:	4291      	cmp	r1, r2
 8006fe2:	d0f6      	beq.n	8006fd2 <_vfprintf_r+0x18c6>
 8006fe4:	2a39      	cmp	r2, #57	; 0x39
 8006fe6:	bf0b      	itete	eq
 8006fe8:	9a0c      	ldreq	r2, [sp, #48]	; 0x30
 8006fea:	3201      	addne	r2, #1
 8006fec:	7a92      	ldrbeq	r2, [r2, #10]
 8006fee:	b2d2      	uxtbne	r2, r2
 8006ff0:	f803 2c01 	strb.w	r2, [r3, #-1]
 8006ff4:	e5c3      	b.n	8006b7e <_vfprintf_r+0x1472>
 8006ff6:	9908      	ldr	r1, [sp, #32]
 8006ff8:	9b0c      	ldr	r3, [sp, #48]	; 0x30
 8006ffa:	9809      	ldr	r0, [sp, #36]	; 0x24
 8006ffc:	1c4c      	adds	r4, r1, #1
 8006ffe:	a926      	add	r1, sp, #152	; 0x98
 8007000:	9104      	str	r1, [sp, #16]
 8007002:	a923      	add	r1, sp, #140	; 0x8c
 8007004:	9103      	str	r1, [sp, #12]
 8007006:	a922      	add	r1, sp, #136	; 0x88
 8007008:	9102      	str	r1, [sp, #8]
 800700a:	2102      	movs	r1, #2
 800700c:	465a      	mov	r2, fp
 800700e:	9401      	str	r4, [sp, #4]
 8007010:	9100      	str	r1, [sp, #0]
 8007012:	f000 fabd 	bl	8007590 <_dtoa_r>
 8007016:	4605      	mov	r5, r0
 8007018:	46b9      	mov	r9, r7
 800701a:	442c      	add	r4, r5
 800701c:	9f0f      	ldr	r7, [sp, #60]	; 0x3c
 800701e:	e6fc      	b.n	8006e1a <_vfprintf_r+0x170e>
 8007020:	9b08      	ldr	r3, [sp, #32]
 8007022:	2b00      	cmp	r3, #0
 8007024:	bf08      	it	eq
 8007026:	2301      	moveq	r3, #1
 8007028:	9308      	str	r3, [sp, #32]
 800702a:	f447 7380 	orr.w	r3, r7, #256	; 0x100
 800702e:	930f      	str	r3, [sp, #60]	; 0x3c
 8007030:	9b15      	ldr	r3, [sp, #84]	; 0x54
 8007032:	2b00      	cmp	r3, #0
 8007034:	f2c0 80ae 	blt.w	8007194 <_vfprintf_r+0x1a88>
 8007038:	f8dd b050 	ldr.w	fp, [sp, #80]	; 0x50
 800703c:	901d      	str	r0, [sp, #116]	; 0x74
 800703e:	930c      	str	r3, [sp, #48]	; 0x30
 8007040:	900d      	str	r0, [sp, #52]	; 0x34
 8007042:	f7ff ba89 	b.w	8006558 <_vfprintf_r+0xe4c>
 8007046:	2306      	movs	r3, #6
 8007048:	9308      	str	r3, [sp, #32]
 800704a:	f7ff ba70 	b.w	800652e <_vfprintf_r+0xe22>
 800704e:	9b15      	ldr	r3, [sp, #84]	; 0x54
 8007050:	4d60      	ldr	r5, [pc, #384]	; (80071d4 <_vfprintf_r+0x1ac8>)
 8007052:	2b00      	cmp	r3, #0
 8007054:	bfb4      	ite	lt
 8007056:	222d      	movlt	r2, #45	; 0x2d
 8007058:	f89d 2083 	ldrbge.w	r2, [sp, #131]	; 0x83
 800705c:	4b5e      	ldr	r3, [pc, #376]	; (80071d8 <_vfprintf_r+0x1acc>)
 800705e:	bfb8      	it	lt
 8007060:	f88d 2083 	strblt.w	r2, [sp, #131]	; 0x83
 8007064:	f027 0780 	bic.w	r7, r7, #128	; 0x80
 8007068:	f7fe bd72 	b.w	8005b50 <_vfprintf_r+0x444>
 800706c:	aa22      	add	r2, sp, #136	; 0x88
 800706e:	990c      	ldr	r1, [sp, #48]	; 0x30
 8007070:	4658      	mov	r0, fp
 8007072:	f002 fc29 	bl	80098c8 <frexp>
 8007076:	2200      	movs	r2, #0
 8007078:	f04f 537f 	mov.w	r3, #1069547520	; 0x3fc00000
 800707c:	f7f9 fbdc 	bl	8000838 <__aeabi_dmul>
 8007080:	4602      	mov	r2, r0
 8007082:	460b      	mov	r3, r1
 8007084:	e9cd 2310 	strd	r2, r3, [sp, #64]	; 0x40
 8007088:	2200      	movs	r2, #0
 800708a:	2300      	movs	r3, #0
 800708c:	f7f9 fe3c 	bl	8000d08 <__aeabi_dcmpeq>
 8007090:	b108      	cbz	r0, 8007096 <_vfprintf_r+0x198a>
 8007092:	2301      	movs	r3, #1
 8007094:	9322      	str	r3, [sp, #136]	; 0x88
 8007096:	4b51      	ldr	r3, [pc, #324]	; (80071dc <_vfprintf_r+0x1ad0>)
 8007098:	930c      	str	r3, [sp, #48]	; 0x30
 800709a:	e514      	b.n	8006ac6 <_vfprintf_r+0x13ba>
 800709c:	2900      	cmp	r1, #0
 800709e:	d162      	bne.n	8007166 <_vfprintf_r+0x1a5a>
 80070a0:	2230      	movs	r2, #48	; 0x30
 80070a2:	f88d 2092 	strb.w	r2, [sp, #146]	; 0x92
 80070a6:	f10d 0293 	add.w	r2, sp, #147	; 0x93
 80070aa:	3330      	adds	r3, #48	; 0x30
 80070ac:	f802 3b01 	strb.w	r3, [r2], #1
 80070b0:	ab24      	add	r3, sp, #144	; 0x90
 80070b2:	1ad3      	subs	r3, r2, r3
 80070b4:	931a      	str	r3, [sp, #104]	; 0x68
 80070b6:	f7ff bac0 	b.w	800663a <_vfprintf_r+0xf2e>
 80070ba:	2667      	movs	r6, #103	; 0x67
 80070bc:	9919      	ldr	r1, [sp, #100]	; 0x64
 80070be:	780b      	ldrb	r3, [r1, #0]
 80070c0:	2bff      	cmp	r3, #255	; 0xff
 80070c2:	d07b      	beq.n	80071bc <_vfprintf_r+0x1ab0>
 80070c4:	2400      	movs	r4, #0
 80070c6:	9a10      	ldr	r2, [sp, #64]	; 0x40
 80070c8:	4620      	mov	r0, r4
 80070ca:	e003      	b.n	80070d4 <_vfprintf_r+0x19c8>
 80070cc:	3001      	adds	r0, #1
 80070ce:	3101      	adds	r1, #1
 80070d0:	2bff      	cmp	r3, #255	; 0xff
 80070d2:	d008      	beq.n	80070e6 <_vfprintf_r+0x19da>
 80070d4:	4293      	cmp	r3, r2
 80070d6:	da06      	bge.n	80070e6 <_vfprintf_r+0x19da>
 80070d8:	1ad2      	subs	r2, r2, r3
 80070da:	784b      	ldrb	r3, [r1, #1]
 80070dc:	2b00      	cmp	r3, #0
 80070de:	d1f5      	bne.n	80070cc <_vfprintf_r+0x19c0>
 80070e0:	780b      	ldrb	r3, [r1, #0]
 80070e2:	3401      	adds	r4, #1
 80070e4:	e7f4      	b.n	80070d0 <_vfprintf_r+0x19c4>
 80070e6:	9119      	str	r1, [sp, #100]	; 0x64
 80070e8:	9210      	str	r2, [sp, #64]	; 0x40
 80070ea:	9013      	str	r0, [sp, #76]	; 0x4c
 80070ec:	940f      	str	r4, [sp, #60]	; 0x3c
 80070ee:	9a0f      	ldr	r2, [sp, #60]	; 0x3c
 80070f0:	9b13      	ldr	r3, [sp, #76]	; 0x4c
 80070f2:	991c      	ldr	r1, [sp, #112]	; 0x70
 80070f4:	4413      	add	r3, r2
 80070f6:	9a0c      	ldr	r2, [sp, #48]	; 0x30
 80070f8:	fb01 2303 	mla	r3, r1, r3, r2
 80070fc:	930c      	str	r3, [sp, #48]	; 0x30
 80070fe:	ea23 73e3 	bic.w	r3, r3, r3, asr #31
 8007102:	9306      	str	r3, [sp, #24]
 8007104:	f7ff bab0 	b.w	8006668 <_vfprintf_r+0xf5c>
 8007108:	f106 020f 	add.w	r2, r6, #15
 800710c:	b2d2      	uxtb	r2, r2
 800710e:	2101      	movs	r1, #1
 8007110:	f7ff ba52 	b.w	80065b8 <_vfprintf_r+0xeac>
 8007114:	9b10      	ldr	r3, [sp, #64]	; 0x40
 8007116:	930c      	str	r3, [sp, #48]	; 0x30
 8007118:	e578      	b.n	8006c0c <_vfprintf_r+0x1500>
 800711a:	2300      	movs	r3, #0
 800711c:	930d      	str	r3, [sp, #52]	; 0x34
 800711e:	e6d1      	b.n	8006ec4 <_vfprintf_r+0x17b8>
 8007120:	9b16      	ldr	r3, [sp, #88]	; 0x58
 8007122:	18d3      	adds	r3, r2, r3
 8007124:	4419      	add	r1, r3
 8007126:	910c      	str	r1, [sp, #48]	; 0x30
 8007128:	2666      	movs	r6, #102	; 0x66
 800712a:	e6a7      	b.n	8006e7c <_vfprintf_r+0x1770>
 800712c:	f019 0f01 	tst.w	r9, #1
 8007130:	f43f aa8e 	beq.w	8006650 <_vfprintf_r+0xf44>
 8007134:	f7ff ba88 	b.w	8006648 <_vfprintf_r+0xf3c>
 8007138:	990c      	ldr	r1, [sp, #48]	; 0x30
 800713a:	4658      	mov	r0, fp
 800713c:	2200      	movs	r2, #0
 800713e:	2300      	movs	r3, #0
 8007140:	f7f9 fde2 	bl	8000d08 <__aeabi_dcmpeq>
 8007144:	2800      	cmp	r0, #0
 8007146:	f47f ae62 	bne.w	8006e0e <_vfprintf_r+0x1702>
 800714a:	9b08      	ldr	r3, [sp, #32]
 800714c:	f1c3 0301 	rsb	r3, r3, #1
 8007150:	9322      	str	r3, [sp, #136]	; 0x88
 8007152:	e65d      	b.n	8006e10 <_vfprintf_r+0x1704>
 8007154:	f1c3 0301 	rsb	r3, r3, #1
 8007158:	441a      	add	r2, r3
 800715a:	ea22 73e2 	bic.w	r3, r2, r2, asr #31
 800715e:	920c      	str	r2, [sp, #48]	; 0x30
 8007160:	9306      	str	r3, [sp, #24]
 8007162:	2667      	movs	r6, #103	; 0x67
 8007164:	e55e      	b.n	8006c24 <_vfprintf_r+0x1518>
 8007166:	f10d 0292 	add.w	r2, sp, #146	; 0x92
 800716a:	e79e      	b.n	80070aa <_vfprintf_r+0x199e>
 800716c:	9a08      	ldr	r2, [sp, #32]
 800716e:	f009 0901 	and.w	r9, r9, #1
 8007172:	ea59 0302 	orrs.w	r3, r9, r2
 8007176:	d104      	bne.n	8007182 <_vfprintf_r+0x1a76>
 8007178:	2301      	movs	r3, #1
 800717a:	9306      	str	r3, [sp, #24]
 800717c:	2666      	movs	r6, #102	; 0x66
 800717e:	930c      	str	r3, [sp, #48]	; 0x30
 8007180:	e550      	b.n	8006c24 <_vfprintf_r+0x1518>
 8007182:	9b16      	ldr	r3, [sp, #88]	; 0x58
 8007184:	3301      	adds	r3, #1
 8007186:	441a      	add	r2, r3
 8007188:	ea22 73e2 	bic.w	r3, r2, r2, asr #31
 800718c:	920c      	str	r2, [sp, #48]	; 0x30
 800718e:	9306      	str	r3, [sp, #24]
 8007190:	2666      	movs	r6, #102	; 0x66
 8007192:	e547      	b.n	8006c24 <_vfprintf_r+0x1518>
 8007194:	900d      	str	r0, [sp, #52]	; 0x34
 8007196:	e695      	b.n	8006ec4 <_vfprintf_r+0x17b8>
 8007198:	9b0e      	ldr	r3, [sp, #56]	; 0x38
 800719a:	f89a 6001 	ldrb.w	r6, [sl, #1]
 800719e:	4692      	mov	sl, r2
 80071a0:	f853 2b04 	ldr.w	r2, [r3], #4
 80071a4:	930e      	str	r3, [sp, #56]	; 0x38
 80071a6:	ea42 72e2 	orr.w	r2, r2, r2, asr #31
 80071aa:	9208      	str	r2, [sp, #32]
 80071ac:	f7fe bb1c 	b.w	80057e8 <_vfprintf_r+0xdc>
 80071b0:	2302      	movs	r3, #2
 80071b2:	931a      	str	r3, [sp, #104]	; 0x68
 80071b4:	f7ff ba41 	b.w	800663a <_vfprintf_r+0xf2e>
 80071b8:	9c08      	ldr	r4, [sp, #32]
 80071ba:	e72d      	b.n	8007018 <_vfprintf_r+0x190c>
 80071bc:	2300      	movs	r3, #0
 80071be:	930f      	str	r3, [sp, #60]	; 0x3c
 80071c0:	9313      	str	r3, [sp, #76]	; 0x4c
 80071c2:	e794      	b.n	80070ee <_vfprintf_r+0x19e2>
 80071c4:	9a07      	ldr	r2, [sp, #28]
 80071c6:	8993      	ldrh	r3, [r2, #12]
 80071c8:	f043 0340 	orr.w	r3, r3, #64	; 0x40
 80071cc:	8193      	strh	r3, [r2, #12]
 80071ce:	f7fe bbe3 	b.w	8005998 <_vfprintf_r+0x28c>
 80071d2:	bf00      	nop
 80071d4:	0800b448 	.word	0x0800b448
 80071d8:	0800b44c 	.word	0x0800b44c
 80071dc:	0800b450 	.word	0x0800b450

080071e0 <__sbprintf>:
 80071e0:	b5f0      	push	{r4, r5, r6, r7, lr}
 80071e2:	461f      	mov	r7, r3
 80071e4:	898b      	ldrh	r3, [r1, #12]
 80071e6:	f2ad 4d6c 	subw	sp, sp, #1132	; 0x46c
 80071ea:	f023 0302 	bic.w	r3, r3, #2
 80071ee:	f8ad 300c 	strh.w	r3, [sp, #12]
 80071f2:	6e4b      	ldr	r3, [r1, #100]	; 0x64
 80071f4:	9319      	str	r3, [sp, #100]	; 0x64
 80071f6:	89cb      	ldrh	r3, [r1, #14]
 80071f8:	f8ad 300e 	strh.w	r3, [sp, #14]
 80071fc:	69cb      	ldr	r3, [r1, #28]
 80071fe:	9307      	str	r3, [sp, #28]
 8007200:	6a4b      	ldr	r3, [r1, #36]	; 0x24
 8007202:	9309      	str	r3, [sp, #36]	; 0x24
 8007204:	ab1a      	add	r3, sp, #104	; 0x68
 8007206:	9300      	str	r3, [sp, #0]
 8007208:	9304      	str	r3, [sp, #16]
 800720a:	f44f 6380 	mov.w	r3, #1024	; 0x400
 800720e:	4615      	mov	r5, r2
 8007210:	4606      	mov	r6, r0
 8007212:	9302      	str	r3, [sp, #8]
 8007214:	9305      	str	r3, [sp, #20]
 8007216:	a816      	add	r0, sp, #88	; 0x58
 8007218:	2300      	movs	r3, #0
 800721a:	460c      	mov	r4, r1
 800721c:	9306      	str	r3, [sp, #24]
 800721e:	f7fd fddd 	bl	8004ddc <__retarget_lock_init_recursive>
 8007222:	462a      	mov	r2, r5
 8007224:	463b      	mov	r3, r7
 8007226:	4669      	mov	r1, sp
 8007228:	4630      	mov	r0, r6
 800722a:	f7fe fa6f 	bl	800570c <_vfprintf_r>
 800722e:	1e05      	subs	r5, r0, #0
 8007230:	db07      	blt.n	8007242 <__sbprintf+0x62>
 8007232:	4669      	mov	r1, sp
 8007234:	4630      	mov	r0, r6
 8007236:	f001 fa03 	bl	8008640 <_fflush_r>
 800723a:	2800      	cmp	r0, #0
 800723c:	bf18      	it	ne
 800723e:	f04f 35ff 	movne.w	r5, #4294967295
 8007242:	f8bd 300c 	ldrh.w	r3, [sp, #12]
 8007246:	065b      	lsls	r3, r3, #25
 8007248:	d503      	bpl.n	8007252 <__sbprintf+0x72>
 800724a:	89a3      	ldrh	r3, [r4, #12]
 800724c:	f043 0340 	orr.w	r3, r3, #64	; 0x40
 8007250:	81a3      	strh	r3, [r4, #12]
 8007252:	9816      	ldr	r0, [sp, #88]	; 0x58
 8007254:	f7fd fdc4 	bl	8004de0 <__retarget_lock_close_recursive>
 8007258:	4628      	mov	r0, r5
 800725a:	f20d 4d6c 	addw	sp, sp, #1132	; 0x46c
 800725e:	bdf0      	pop	{r4, r5, r6, r7, pc}

08007260 <_write_r>:
 8007260:	b538      	push	{r3, r4, r5, lr}
 8007262:	460c      	mov	r4, r1
 8007264:	4d08      	ldr	r5, [pc, #32]	; (8007288 <_write_r+0x28>)
 8007266:	4684      	mov	ip, r0
 8007268:	4611      	mov	r1, r2
 800726a:	4620      	mov	r0, r4
 800726c:	461a      	mov	r2, r3
 800726e:	2300      	movs	r3, #0
 8007270:	602b      	str	r3, [r5, #0]
 8007272:	4664      	mov	r4, ip
 8007274:	f003 fd32 	bl	800acdc <_write>
 8007278:	1c43      	adds	r3, r0, #1
 800727a:	d000      	beq.n	800727e <_write_r+0x1e>
 800727c:	bd38      	pop	{r3, r4, r5, pc}
 800727e:	682b      	ldr	r3, [r5, #0]
 8007280:	2b00      	cmp	r3, #0
 8007282:	d0fb      	beq.n	800727c <_write_r+0x1c>
 8007284:	6023      	str	r3, [r4, #0]
 8007286:	bd38      	pop	{r3, r4, r5, pc}
 8007288:	10001a50 	.word	0x10001a50

0800728c <__swsetup_r>:
 800728c:	b538      	push	{r3, r4, r5, lr}
 800728e:	4b33      	ldr	r3, [pc, #204]	; (800735c <__swsetup_r+0xd0>)
 8007290:	681b      	ldr	r3, [r3, #0]
 8007292:	4605      	mov	r5, r0
 8007294:	460c      	mov	r4, r1
 8007296:	b10b      	cbz	r3, 800729c <__swsetup_r+0x10>
 8007298:	6b9a      	ldr	r2, [r3, #56]	; 0x38
 800729a:	b312      	cbz	r2, 80072e2 <__swsetup_r+0x56>
 800729c:	f9b4 300c 	ldrsh.w	r3, [r4, #12]
 80072a0:	0718      	lsls	r0, r3, #28
 80072a2:	b29a      	uxth	r2, r3
 80072a4:	d525      	bpl.n	80072f2 <__swsetup_r+0x66>
 80072a6:	6921      	ldr	r1, [r4, #16]
 80072a8:	2900      	cmp	r1, #0
 80072aa:	d02d      	beq.n	8007308 <__swsetup_r+0x7c>
 80072ac:	f012 0001 	ands.w	r0, r2, #1
 80072b0:	d007      	beq.n	80072c2 <__swsetup_r+0x36>
 80072b2:	2000      	movs	r0, #0
 80072b4:	60a0      	str	r0, [r4, #8]
 80072b6:	6960      	ldr	r0, [r4, #20]
 80072b8:	4240      	negs	r0, r0
 80072ba:	61a0      	str	r0, [r4, #24]
 80072bc:	b139      	cbz	r1, 80072ce <__swsetup_r+0x42>
 80072be:	2000      	movs	r0, #0
 80072c0:	bd38      	pop	{r3, r4, r5, pc}
 80072c2:	0795      	lsls	r5, r2, #30
 80072c4:	bf58      	it	pl
 80072c6:	6960      	ldrpl	r0, [r4, #20]
 80072c8:	60a0      	str	r0, [r4, #8]
 80072ca:	2900      	cmp	r1, #0
 80072cc:	d1f7      	bne.n	80072be <__swsetup_r+0x32>
 80072ce:	0612      	lsls	r2, r2, #24
 80072d0:	bf58      	it	pl
 80072d2:	4608      	movpl	r0, r1
 80072d4:	d5f4      	bpl.n	80072c0 <__swsetup_r+0x34>
 80072d6:	f043 0340 	orr.w	r3, r3, #64	; 0x40
 80072da:	81a3      	strh	r3, [r4, #12]
 80072dc:	f04f 30ff 	mov.w	r0, #4294967295
 80072e0:	bd38      	pop	{r3, r4, r5, pc}
 80072e2:	4618      	mov	r0, r3
 80072e4:	f7fd fca0 	bl	8004c28 <__sinit>
 80072e8:	f9b4 300c 	ldrsh.w	r3, [r4, #12]
 80072ec:	0718      	lsls	r0, r3, #28
 80072ee:	b29a      	uxth	r2, r3
 80072f0:	d4d9      	bmi.n	80072a6 <__swsetup_r+0x1a>
 80072f2:	06d1      	lsls	r1, r2, #27
 80072f4:	d52a      	bpl.n	800734c <__swsetup_r+0xc0>
 80072f6:	0752      	lsls	r2, r2, #29
 80072f8:	d414      	bmi.n	8007324 <__swsetup_r+0x98>
 80072fa:	6921      	ldr	r1, [r4, #16]
 80072fc:	f043 0308 	orr.w	r3, r3, #8
 8007300:	81a3      	strh	r3, [r4, #12]
 8007302:	b29a      	uxth	r2, r3
 8007304:	2900      	cmp	r1, #0
 8007306:	d1d1      	bne.n	80072ac <__swsetup_r+0x20>
 8007308:	f402 7020 	and.w	r0, r2, #640	; 0x280
 800730c:	f5b0 7f00 	cmp.w	r0, #512	; 0x200
 8007310:	d0cc      	beq.n	80072ac <__swsetup_r+0x20>
 8007312:	4621      	mov	r1, r4
 8007314:	4628      	mov	r0, r5
 8007316:	f001 fcbb 	bl	8008c90 <__smakebuf_r>
 800731a:	f9b4 300c 	ldrsh.w	r3, [r4, #12]
 800731e:	6921      	ldr	r1, [r4, #16]
 8007320:	b29a      	uxth	r2, r3
 8007322:	e7c3      	b.n	80072ac <__swsetup_r+0x20>
 8007324:	6b21      	ldr	r1, [r4, #48]	; 0x30
 8007326:	b151      	cbz	r1, 800733e <__swsetup_r+0xb2>
 8007328:	f104 0240 	add.w	r2, r4, #64	; 0x40
 800732c:	4291      	cmp	r1, r2
 800732e:	d004      	beq.n	800733a <__swsetup_r+0xae>
 8007330:	4628      	mov	r0, r5
 8007332:	f001 fa19 	bl	8008768 <_free_r>
 8007336:	f9b4 300c 	ldrsh.w	r3, [r4, #12]
 800733a:	2200      	movs	r2, #0
 800733c:	6322      	str	r2, [r4, #48]	; 0x30
 800733e:	6921      	ldr	r1, [r4, #16]
 8007340:	2200      	movs	r2, #0
 8007342:	e9c4 1200 	strd	r1, r2, [r4]
 8007346:	f023 0324 	bic.w	r3, r3, #36	; 0x24
 800734a:	e7d7      	b.n	80072fc <__swsetup_r+0x70>
 800734c:	2209      	movs	r2, #9
 800734e:	f043 0340 	orr.w	r3, r3, #64	; 0x40
 8007352:	602a      	str	r2, [r5, #0]
 8007354:	f04f 30ff 	mov.w	r0, #4294967295
 8007358:	81a3      	strh	r3, [r4, #12]
 800735a:	bd38      	pop	{r3, r4, r5, pc}
 800735c:	10000000 	.word	0x10000000

08007360 <register_fini>:
 8007360:	4b02      	ldr	r3, [pc, #8]	; (800736c <register_fini+0xc>)
 8007362:	b113      	cbz	r3, 800736a <register_fini+0xa>
 8007364:	4802      	ldr	r0, [pc, #8]	; (8007370 <register_fini+0x10>)
 8007366:	f000 b867 	b.w	8007438 <atexit>
 800736a:	4770      	bx	lr
 800736c:	00000000 	.word	0x00000000
 8007370:	0800869d 	.word	0x0800869d

08007374 <__call_exitprocs>:
 8007374:	e92d 4ff0 	stmdb	sp!, {r4, r5, r6, r7, r8, r9, sl, fp, lr}
 8007378:	4b2d      	ldr	r3, [pc, #180]	; (8007430 <__call_exitprocs+0xbc>)
 800737a:	b083      	sub	sp, #12
 800737c:	4683      	mov	fp, r0
 800737e:	6818      	ldr	r0, [r3, #0]
 8007380:	f8cd b004 	str.w	fp, [sp, #4]
 8007384:	460f      	mov	r7, r1
 8007386:	f7fd fd2d 	bl	8004de4 <__retarget_lock_acquire_recursive>
 800738a:	4b2a      	ldr	r3, [pc, #168]	; (8007434 <__call_exitprocs+0xc0>)
 800738c:	f8d3 8000 	ldr.w	r8, [r3]
 8007390:	f8d8 6148 	ldr.w	r6, [r8, #328]	; 0x148
 8007394:	b19e      	cbz	r6, 80073be <__call_exitprocs+0x4a>
 8007396:	f04f 0901 	mov.w	r9, #1
 800739a:	f04f 0a00 	mov.w	sl, #0
 800739e:	6874      	ldr	r4, [r6, #4]
 80073a0:	1e65      	subs	r5, r4, #1
 80073a2:	d40c      	bmi.n	80073be <__call_exitprocs+0x4a>
 80073a4:	3401      	adds	r4, #1
 80073a6:	eb06 0484 	add.w	r4, r6, r4, lsl #2
 80073aa:	b17f      	cbz	r7, 80073cc <__call_exitprocs+0x58>
 80073ac:	f8d4 3100 	ldr.w	r3, [r4, #256]	; 0x100
 80073b0:	42bb      	cmp	r3, r7
 80073b2:	d00b      	beq.n	80073cc <__call_exitprocs+0x58>
 80073b4:	3d01      	subs	r5, #1
 80073b6:	1c6b      	adds	r3, r5, #1
 80073b8:	f1a4 0404 	sub.w	r4, r4, #4
 80073bc:	d1f5      	bne.n	80073aa <__call_exitprocs+0x36>
 80073be:	4b1c      	ldr	r3, [pc, #112]	; (8007430 <__call_exitprocs+0xbc>)
 80073c0:	6818      	ldr	r0, [r3, #0]
 80073c2:	b003      	add	sp, #12
 80073c4:	e8bd 4ff0 	ldmia.w	sp!, {r4, r5, r6, r7, r8, r9, sl, fp, lr}
 80073c8:	f7fd bd0e 	b.w	8004de8 <__retarget_lock_release_recursive>
 80073cc:	6873      	ldr	r3, [r6, #4]
 80073ce:	6822      	ldr	r2, [r4, #0]
 80073d0:	3b01      	subs	r3, #1
 80073d2:	42ab      	cmp	r3, r5
 80073d4:	bf0c      	ite	eq
 80073d6:	6075      	streq	r5, [r6, #4]
 80073d8:	f8c4 a000 	strne.w	sl, [r4]
 80073dc:	2a00      	cmp	r2, #0
 80073de:	d0e9      	beq.n	80073b4 <__call_exitprocs+0x40>
 80073e0:	f8d6 0188 	ldr.w	r0, [r6, #392]	; 0x188
 80073e4:	f8d6 b004 	ldr.w	fp, [r6, #4]
 80073e8:	fa09 f105 	lsl.w	r1, r9, r5
 80073ec:	4201      	tst	r1, r0
 80073ee:	d10b      	bne.n	8007408 <__call_exitprocs+0x94>
 80073f0:	4790      	blx	r2
 80073f2:	6872      	ldr	r2, [r6, #4]
 80073f4:	455a      	cmp	r2, fp
 80073f6:	d112      	bne.n	800741e <__call_exitprocs+0xaa>
 80073f8:	f8d8 3148 	ldr.w	r3, [r8, #328]	; 0x148
 80073fc:	42b3      	cmp	r3, r6
 80073fe:	d0d9      	beq.n	80073b4 <__call_exitprocs+0x40>
 8007400:	461e      	mov	r6, r3
 8007402:	2e00      	cmp	r6, #0
 8007404:	d1cb      	bne.n	800739e <__call_exitprocs+0x2a>
 8007406:	e7da      	b.n	80073be <__call_exitprocs+0x4a>
 8007408:	f8d6 018c 	ldr.w	r0, [r6, #396]	; 0x18c
 800740c:	4201      	tst	r1, r0
 800740e:	d10b      	bne.n	8007428 <__call_exitprocs+0xb4>
 8007410:	f8d4 1080 	ldr.w	r1, [r4, #128]	; 0x80
 8007414:	9801      	ldr	r0, [sp, #4]
 8007416:	4790      	blx	r2
 8007418:	6872      	ldr	r2, [r6, #4]
 800741a:	455a      	cmp	r2, fp
 800741c:	d0ec      	beq.n	80073f8 <__call_exitprocs+0x84>
 800741e:	f8d8 6148 	ldr.w	r6, [r8, #328]	; 0x148
 8007422:	2e00      	cmp	r6, #0
 8007424:	d1bb      	bne.n	800739e <__call_exitprocs+0x2a>
 8007426:	e7ca      	b.n	80073be <__call_exitprocs+0x4a>
 8007428:	f8d4 0080 	ldr.w	r0, [r4, #128]	; 0x80
 800742c:	4790      	blx	r2
 800742e:	e7e0      	b.n	80073f2 <__call_exitprocs+0x7e>
 8007430:	10000840 	.word	0x10000840
 8007434:	0800b438 	.word	0x0800b438

08007438 <atexit>:
 8007438:	2300      	movs	r3, #0
 800743a:	4601      	mov	r1, r0
 800743c:	461a      	mov	r2, r3
 800743e:	4618      	mov	r0, r3
 8007440:	f003 b9fc 	b.w	800a83c <__register_exitproc>

08007444 <_close_r>:
 8007444:	b538      	push	{r3, r4, r5, lr}
 8007446:	4d07      	ldr	r5, [pc, #28]	; (8007464 <_close_r+0x20>)
 8007448:	2200      	movs	r2, #0
 800744a:	4604      	mov	r4, r0
 800744c:	4608      	mov	r0, r1
 800744e:	602a      	str	r2, [r5, #0]
 8007450:	f003 fc0c 	bl	800ac6c <_close>
 8007454:	1c43      	adds	r3, r0, #1
 8007456:	d000      	beq.n	800745a <_close_r+0x16>
 8007458:	bd38      	pop	{r3, r4, r5, pc}
 800745a:	682b      	ldr	r3, [r5, #0]
 800745c:	2b00      	cmp	r3, #0
 800745e:	d0fb      	beq.n	8007458 <_close_r+0x14>
 8007460:	6023      	str	r3, [r4, #0]
 8007462:	bd38      	pop	{r3, r4, r5, pc}
 8007464:	10001a50 	.word	0x10001a50

08007468 <quorem>:
 8007468:	e92d 4ff0 	stmdb	sp!, {r4, r5, r6, r7, r8, r9, sl, fp, lr}
 800746c:	6903      	ldr	r3, [r0, #16]
 800746e:	690c      	ldr	r4, [r1, #16]
 8007470:	42a3      	cmp	r3, r4
 8007472:	b083      	sub	sp, #12
 8007474:	f2c0 8086 	blt.w	8007584 <quorem+0x11c>
 8007478:	3c01      	subs	r4, #1
 800747a:	f101 0514 	add.w	r5, r1, #20
 800747e:	00a3      	lsls	r3, r4, #2
 8007480:	f100 0814 	add.w	r8, r0, #20
 8007484:	9300      	str	r3, [sp, #0]
 8007486:	f855 3024 	ldr.w	r3, [r5, r4, lsl #2]
 800748a:	f858 2024 	ldr.w	r2, [r8, r4, lsl #2]
 800748e:	3301      	adds	r3, #1
 8007490:	468a      	mov	sl, r1
 8007492:	429a      	cmp	r2, r3
 8007494:	eb08 0184 	add.w	r1, r8, r4, lsl #2
 8007498:	4681      	mov	r9, r0
 800749a:	eb05 0784 	add.w	r7, r5, r4, lsl #2
 800749e:	9101      	str	r1, [sp, #4]
 80074a0:	fbb2 f6f3 	udiv	r6, r2, r3
 80074a4:	d338      	bcc.n	8007518 <quorem+0xb0>
 80074a6:	2300      	movs	r3, #0
 80074a8:	46ae      	mov	lr, r5
 80074aa:	4640      	mov	r0, r8
 80074ac:	469b      	mov	fp, r3
 80074ae:	f85e 1b04 	ldr.w	r1, [lr], #4
 80074b2:	6802      	ldr	r2, [r0, #0]
 80074b4:	fa1f fc81 	uxth.w	ip, r1
 80074b8:	fb06 330c 	mla	r3, r6, ip, r3
 80074bc:	0c09      	lsrs	r1, r1, #16
 80074be:	ea4f 4c13 	mov.w	ip, r3, lsr #16
 80074c2:	fb06 cc01 	mla	ip, r6, r1, ip
 80074c6:	b299      	uxth	r1, r3
 80074c8:	ebab 0101 	sub.w	r1, fp, r1
 80074cc:	fa1f f38c 	uxth.w	r3, ip
 80074d0:	fa11 f182 	uxtah	r1, r1, r2
 80074d4:	ebc3 4212 	rsb	r2, r3, r2, lsr #16
 80074d8:	eb02 4221 	add.w	r2, r2, r1, asr #16
 80074dc:	b289      	uxth	r1, r1
 80074de:	ea41 4102 	orr.w	r1, r1, r2, lsl #16
 80074e2:	4577      	cmp	r7, lr
 80074e4:	f840 1b04 	str.w	r1, [r0], #4
 80074e8:	ea4f 431c 	mov.w	r3, ip, lsr #16
 80074ec:	ea4f 4b22 	mov.w	fp, r2, asr #16
 80074f0:	d2dd      	bcs.n	80074ae <quorem+0x46>
 80074f2:	9b00      	ldr	r3, [sp, #0]
 80074f4:	f858 3003 	ldr.w	r3, [r8, r3]
 80074f8:	b973      	cbnz	r3, 8007518 <quorem+0xb0>
 80074fa:	9b01      	ldr	r3, [sp, #4]
 80074fc:	3b04      	subs	r3, #4
 80074fe:	4598      	cmp	r8, r3
 8007500:	d304      	bcc.n	800750c <quorem+0xa4>
 8007502:	e007      	b.n	8007514 <quorem+0xac>
 8007504:	4598      	cmp	r8, r3
 8007506:	f104 34ff 	add.w	r4, r4, #4294967295
 800750a:	d203      	bcs.n	8007514 <quorem+0xac>
 800750c:	f853 2904 	ldr.w	r2, [r3], #-4
 8007510:	2a00      	cmp	r2, #0
 8007512:	d0f7      	beq.n	8007504 <quorem+0x9c>
 8007514:	f8c9 4010 	str.w	r4, [r9, #16]
 8007518:	4651      	mov	r1, sl
 800751a:	4648      	mov	r0, r9
 800751c:	f001 feaa 	bl	8009274 <__mcmp>
 8007520:	2800      	cmp	r0, #0
 8007522:	db2b      	blt.n	800757c <quorem+0x114>
 8007524:	3601      	adds	r6, #1
 8007526:	4640      	mov	r0, r8
 8007528:	2300      	movs	r3, #0
 800752a:	f855 1b04 	ldr.w	r1, [r5], #4
 800752e:	f8d0 c000 	ldr.w	ip, [r0]
 8007532:	b28a      	uxth	r2, r1
 8007534:	1a9a      	subs	r2, r3, r2
 8007536:	0c0b      	lsrs	r3, r1, #16
 8007538:	fa12 f28c 	uxtah	r2, r2, ip
 800753c:	ebc3 431c 	rsb	r3, r3, ip, lsr #16
 8007540:	eb03 4322 	add.w	r3, r3, r2, asr #16
 8007544:	b292      	uxth	r2, r2
 8007546:	ea42 4203 	orr.w	r2, r2, r3, lsl #16
 800754a:	42af      	cmp	r7, r5
 800754c:	f840 2b04 	str.w	r2, [r0], #4
 8007550:	ea4f 4323 	mov.w	r3, r3, asr #16
 8007554:	d2e9      	bcs.n	800752a <quorem+0xc2>
 8007556:	f858 2024 	ldr.w	r2, [r8, r4, lsl #2]
 800755a:	eb08 0384 	add.w	r3, r8, r4, lsl #2
 800755e:	b96a      	cbnz	r2, 800757c <quorem+0x114>
 8007560:	3b04      	subs	r3, #4
 8007562:	4598      	cmp	r8, r3
 8007564:	d304      	bcc.n	8007570 <quorem+0x108>
 8007566:	e007      	b.n	8007578 <quorem+0x110>
 8007568:	4598      	cmp	r8, r3
 800756a:	f104 34ff 	add.w	r4, r4, #4294967295
 800756e:	d203      	bcs.n	8007578 <quorem+0x110>
 8007570:	f853 2904 	ldr.w	r2, [r3], #-4
 8007574:	2a00      	cmp	r2, #0
 8007576:	d0f7      	beq.n	8007568 <quorem+0x100>
 8007578:	f8c9 4010 	str.w	r4, [r9, #16]
 800757c:	4630      	mov	r0, r6
 800757e:	b003      	add	sp, #12
 8007580:	e8bd 8ff0 	ldmia.w	sp!, {r4, r5, r6, r7, r8, r9, sl, fp, pc}
 8007584:	2000      	movs	r0, #0
 8007586:	b003      	add	sp, #12
 8007588:	e8bd 8ff0 	ldmia.w	sp!, {r4, r5, r6, r7, r8, r9, sl, fp, pc}
 800758c:	0000      	movs	r0, r0
 800758e:	0000      	movs	r0, r0

08007590 <_dtoa_r>:
 8007590:	e92d 4ff0 	stmdb	sp!, {r4, r5, r6, r7, r8, r9, sl, fp, lr}
 8007594:	6c01      	ldr	r1, [r0, #64]	; 0x40
 8007596:	b099      	sub	sp, #100	; 0x64
 8007598:	4690      	mov	r8, r2
 800759a:	4699      	mov	r9, r3
 800759c:	e9cd 8904 	strd	r8, r9, [sp, #16]
 80075a0:	9d25      	ldr	r5, [sp, #148]	; 0x94
 80075a2:	4604      	mov	r4, r0
 80075a4:	b141      	cbz	r1, 80075b8 <_dtoa_r+0x28>
 80075a6:	6c42      	ldr	r2, [r0, #68]	; 0x44
 80075a8:	604a      	str	r2, [r1, #4]
 80075aa:	2301      	movs	r3, #1
 80075ac:	4093      	lsls	r3, r2
 80075ae:	608b      	str	r3, [r1, #8]
 80075b0:	f001 fc04 	bl	8008dbc <_Bfree>
 80075b4:	2300      	movs	r3, #0
 80075b6:	6423      	str	r3, [r4, #64]	; 0x40
 80075b8:	f1b9 0a00 	subs.w	sl, r9, #0
 80075bc:	bfb4      	ite	lt
 80075be:	2301      	movlt	r3, #1
 80075c0:	2300      	movge	r3, #0
 80075c2:	602b      	str	r3, [r5, #0]
 80075c4:	4b76      	ldr	r3, [pc, #472]	; (80077a0 <_dtoa_r+0x210>)
 80075c6:	bfbc      	itt	lt
 80075c8:	f02a 4a00 	biclt.w	sl, sl, #2147483648	; 0x80000000
 80075cc:	f8cd a014 	strlt.w	sl, [sp, #20]
 80075d0:	ea33 030a 	bics.w	r3, r3, sl
 80075d4:	f000 80aa 	beq.w	800772c <_dtoa_r+0x19c>
 80075d8:	e9dd 2304 	ldrd	r2, r3, [sp, #16]
 80075dc:	4610      	mov	r0, r2
 80075de:	4619      	mov	r1, r3
 80075e0:	2200      	movs	r2, #0
 80075e2:	2300      	movs	r3, #0
 80075e4:	e9cd 010a 	strd	r0, r1, [sp, #40]	; 0x28
 80075e8:	f7f9 fb8e 	bl	8000d08 <__aeabi_dcmpeq>
 80075ec:	4607      	mov	r7, r0
 80075ee:	b170      	cbz	r0, 800760e <_dtoa_r+0x7e>
 80075f0:	9a24      	ldr	r2, [sp, #144]	; 0x90
 80075f2:	2301      	movs	r3, #1
 80075f4:	6013      	str	r3, [r2, #0]
 80075f6:	9b26      	ldr	r3, [sp, #152]	; 0x98
 80075f8:	2b00      	cmp	r3, #0
 80075fa:	f000 82e4 	beq.w	8007bc6 <_dtoa_r+0x636>
 80075fe:	4869      	ldr	r0, [pc, #420]	; (80077a4 <_dtoa_r+0x214>)
 8007600:	6018      	str	r0, [r3, #0]
 8007602:	1e43      	subs	r3, r0, #1
 8007604:	9303      	str	r3, [sp, #12]
 8007606:	9803      	ldr	r0, [sp, #12]
 8007608:	b019      	add	sp, #100	; 0x64
 800760a:	e8bd 8ff0 	ldmia.w	sp!, {r4, r5, r6, r7, r8, r9, sl, fp, pc}
 800760e:	ab16      	add	r3, sp, #88	; 0x58
 8007610:	9301      	str	r3, [sp, #4]
 8007612:	ab17      	add	r3, sp, #92	; 0x5c
 8007614:	9300      	str	r3, [sp, #0]
 8007616:	4620      	mov	r0, r4
 8007618:	e9dd 230a 	ldrd	r2, r3, [sp, #40]	; 0x28
 800761c:	f001 fef0 	bl	8009400 <__d2b>
 8007620:	ea5f 561a 	movs.w	r6, sl, lsr #20
 8007624:	4605      	mov	r5, r0
 8007626:	f040 8097 	bne.w	8007758 <_dtoa_r+0x1c8>
 800762a:	e9dd 7616 	ldrd	r7, r6, [sp, #88]	; 0x58
 800762e:	443e      	add	r6, r7
 8007630:	f206 4032 	addw	r0, r6, #1074	; 0x432
 8007634:	2820      	cmp	r0, #32
 8007636:	f340 83b5 	ble.w	8007da4 <_dtoa_r+0x814>
 800763a:	f1c0 0040 	rsb	r0, r0, #64	; 0x40
 800763e:	fa0a fa00 	lsl.w	sl, sl, r0
 8007642:	f206 4012 	addw	r0, r6, #1042	; 0x412
 8007646:	fa28 f000 	lsr.w	r0, r8, r0
 800764a:	ea4a 0000 	orr.w	r0, sl, r0
 800764e:	f7f9 f879 	bl	8000744 <__aeabi_ui2d>
 8007652:	2301      	movs	r3, #1
 8007654:	3e01      	subs	r6, #1
 8007656:	f1a1 71f8 	sub.w	r1, r1, #32505856	; 0x1f00000
 800765a:	930f      	str	r3, [sp, #60]	; 0x3c
 800765c:	4b52      	ldr	r3, [pc, #328]	; (80077a8 <_dtoa_r+0x218>)
 800765e:	2200      	movs	r2, #0
 8007660:	f7f8 ff32 	bl	80004c8 <__aeabi_dsub>
 8007664:	a348      	add	r3, pc, #288	; (adr r3, 8007788 <_dtoa_r+0x1f8>)
 8007666:	e9d3 2300 	ldrd	r2, r3, [r3]
 800766a:	f7f9 f8e5 	bl	8000838 <__aeabi_dmul>
 800766e:	a348      	add	r3, pc, #288	; (adr r3, 8007790 <_dtoa_r+0x200>)
 8007670:	e9d3 2300 	ldrd	r2, r3, [r3]
 8007674:	f7f8 ff2a 	bl	80004cc <__adddf3>
 8007678:	4680      	mov	r8, r0
 800767a:	4630      	mov	r0, r6
 800767c:	4689      	mov	r9, r1
 800767e:	f7f9 f871 	bl	8000764 <__aeabi_i2d>
 8007682:	a345      	add	r3, pc, #276	; (adr r3, 8007798 <_dtoa_r+0x208>)
 8007684:	e9d3 2300 	ldrd	r2, r3, [r3]
 8007688:	f7f9 f8d6 	bl	8000838 <__aeabi_dmul>
 800768c:	4602      	mov	r2, r0
 800768e:	460b      	mov	r3, r1
 8007690:	4640      	mov	r0, r8
 8007692:	4649      	mov	r1, r9
 8007694:	f7f8 ff1a 	bl	80004cc <__adddf3>
 8007698:	4680      	mov	r8, r0
 800769a:	4689      	mov	r9, r1
 800769c:	f7f9 fb7c 	bl	8000d98 <__aeabi_d2iz>
 80076a0:	2200      	movs	r2, #0
 80076a2:	4683      	mov	fp, r0
 80076a4:	2300      	movs	r3, #0
 80076a6:	4640      	mov	r0, r8
 80076a8:	4649      	mov	r1, r9
 80076aa:	f7f9 fb37 	bl	8000d1c <__aeabi_dcmplt>
 80076ae:	2800      	cmp	r0, #0
 80076b0:	f040 827c 	bne.w	8007bac <_dtoa_r+0x61c>
 80076b4:	f1bb 0f16 	cmp.w	fp, #22
 80076b8:	f200 826b 	bhi.w	8007b92 <_dtoa_r+0x602>
 80076bc:	4b3b      	ldr	r3, [pc, #236]	; (80077ac <_dtoa_r+0x21c>)
 80076be:	eb03 03cb 	add.w	r3, r3, fp, lsl #3
 80076c2:	e9d3 2300 	ldrd	r2, r3, [r3]
 80076c6:	e9dd 010a 	ldrd	r0, r1, [sp, #40]	; 0x28
 80076ca:	f7f9 fb27 	bl	8000d1c <__aeabi_dcmplt>
 80076ce:	2800      	cmp	r0, #0
 80076d0:	d072      	beq.n	80077b8 <_dtoa_r+0x228>
 80076d2:	2300      	movs	r3, #0
 80076d4:	1bbe      	subs	r6, r7, r6
 80076d6:	930e      	str	r3, [sp, #56]	; 0x38
 80076d8:	1e73      	subs	r3, r6, #1
 80076da:	f10b 3bff 	add.w	fp, fp, #4294967295
 80076de:	9306      	str	r3, [sp, #24]
 80076e0:	f100 825e 	bmi.w	8007ba0 <_dtoa_r+0x610>
 80076e4:	2300      	movs	r3, #0
 80076e6:	9309      	str	r3, [sp, #36]	; 0x24
 80076e8:	f1bb 0f00 	cmp.w	fp, #0
 80076ec:	da6b      	bge.n	80077c6 <_dtoa_r+0x236>
 80076ee:	9b09      	ldr	r3, [sp, #36]	; 0x24
 80076f0:	f8cd b01c 	str.w	fp, [sp, #28]
 80076f4:	eba3 030b 	sub.w	r3, r3, fp
 80076f8:	9309      	str	r3, [sp, #36]	; 0x24
 80076fa:	f1cb 0300 	rsb	r3, fp, #0
 80076fe:	930d      	str	r3, [sp, #52]	; 0x34
 8007700:	9b22      	ldr	r3, [sp, #136]	; 0x88
 8007702:	2b09      	cmp	r3, #9
 8007704:	f04f 0b00 	mov.w	fp, #0
 8007708:	d866      	bhi.n	80077d8 <_dtoa_r+0x248>
 800770a:	2b05      	cmp	r3, #5
 800770c:	f340 8348 	ble.w	8007da0 <_dtoa_r+0x810>
 8007710:	3b04      	subs	r3, #4
 8007712:	9322      	str	r3, [sp, #136]	; 0x88
 8007714:	2600      	movs	r6, #0
 8007716:	9b22      	ldr	r3, [sp, #136]	; 0x88
 8007718:	3b02      	subs	r3, #2
 800771a:	2b03      	cmp	r3, #3
 800771c:	f200 8668 	bhi.w	80083f0 <_dtoa_r+0xe60>
 8007720:	e8df f013 	tbh	[pc, r3, lsl #1]
 8007724:	0459045c 	.word	0x0459045c
 8007728:	04330450 	.word	0x04330450
 800772c:	9a24      	ldr	r2, [sp, #144]	; 0x90
 800772e:	f242 730f 	movw	r3, #9999	; 0x270f
 8007732:	f3ca 0a13 	ubfx	sl, sl, #0, #20
 8007736:	6013      	str	r3, [r2, #0]
 8007738:	ea5a 0308 	orrs.w	r3, sl, r8
 800773c:	d11a      	bne.n	8007774 <_dtoa_r+0x1e4>
 800773e:	9b26      	ldr	r3, [sp, #152]	; 0x98
 8007740:	2b00      	cmp	r3, #0
 8007742:	f000 8664 	beq.w	800840e <_dtoa_r+0xe7e>
 8007746:	4b1a      	ldr	r3, [pc, #104]	; (80077b0 <_dtoa_r+0x220>)
 8007748:	9303      	str	r3, [sp, #12]
 800774a:	3308      	adds	r3, #8
 800774c:	9a26      	ldr	r2, [sp, #152]	; 0x98
 800774e:	9803      	ldr	r0, [sp, #12]
 8007750:	6013      	str	r3, [r2, #0]
 8007752:	b019      	add	sp, #100	; 0x64
 8007754:	e8bd 8ff0 	ldmia.w	sp!, {r4, r5, r6, r7, r8, r9, sl, fp, pc}
 8007758:	e9dd 120a 	ldrd	r1, r2, [sp, #40]	; 0x28
 800775c:	f3c2 0313 	ubfx	r3, r2, #0, #20
 8007760:	4608      	mov	r0, r1
 8007762:	f043 517f 	orr.w	r1, r3, #1069547520	; 0x3fc00000
 8007766:	970f      	str	r7, [sp, #60]	; 0x3c
 8007768:	f2a6 36ff 	subw	r6, r6, #1023	; 0x3ff
 800776c:	9f16      	ldr	r7, [sp, #88]	; 0x58
 800776e:	f441 1140 	orr.w	r1, r1, #3145728	; 0x300000
 8007772:	e773      	b.n	800765c <_dtoa_r+0xcc>
 8007774:	9b26      	ldr	r3, [sp, #152]	; 0x98
 8007776:	2b00      	cmp	r3, #0
 8007778:	f040 83ea 	bne.w	8007f50 <_dtoa_r+0x9c0>
 800777c:	4b0d      	ldr	r3, [pc, #52]	; (80077b4 <_dtoa_r+0x224>)
 800777e:	9303      	str	r3, [sp, #12]
 8007780:	e741      	b.n	8007606 <_dtoa_r+0x76>
 8007782:	bf00      	nop
 8007784:	f3af 8000 	nop.w
 8007788:	636f4361 	.word	0x636f4361
 800778c:	3fd287a7 	.word	0x3fd287a7
 8007790:	8b60c8b3 	.word	0x8b60c8b3
 8007794:	3fc68a28 	.word	0x3fc68a28
 8007798:	509f79fb 	.word	0x509f79fb
 800779c:	3fd34413 	.word	0x3fd34413
 80077a0:	7ff00000 	.word	0x7ff00000
 80077a4:	0800b481 	.word	0x0800b481
 80077a8:	3ff80000 	.word	0x3ff80000
 80077ac:	0800b5f0 	.word	0x0800b5f0
 80077b0:	0800b4a8 	.word	0x0800b4a8
 80077b4:	0800b4a4 	.word	0x0800b4a4
 80077b8:	1bbe      	subs	r6, r7, r6
 80077ba:	1e73      	subs	r3, r6, #1
 80077bc:	9306      	str	r3, [sp, #24]
 80077be:	f100 8485 	bmi.w	80080cc <_dtoa_r+0xb3c>
 80077c2:	900e      	str	r0, [sp, #56]	; 0x38
 80077c4:	9009      	str	r0, [sp, #36]	; 0x24
 80077c6:	9b06      	ldr	r3, [sp, #24]
 80077c8:	445b      	add	r3, fp
 80077ca:	e9cd 3b06 	strd	r3, fp, [sp, #24]
 80077ce:	2300      	movs	r3, #0
 80077d0:	930d      	str	r3, [sp, #52]	; 0x34
 80077d2:	9b22      	ldr	r3, [sp, #136]	; 0x88
 80077d4:	2b09      	cmp	r3, #9
 80077d6:	d998      	bls.n	800770a <_dtoa_r+0x17a>
 80077d8:	2300      	movs	r3, #0
 80077da:	e9cd 3322 	strd	r3, r3, [sp, #136]	; 0x88
 80077de:	2601      	movs	r6, #1
 80077e0:	f04f 33ff 	mov.w	r3, #4294967295
 80077e4:	960c      	str	r6, [sp, #48]	; 0x30
 80077e6:	9308      	str	r3, [sp, #32]
 80077e8:	9b08      	ldr	r3, [sp, #32]
 80077ea:	9312      	str	r3, [sp, #72]	; 0x48
 80077ec:	2100      	movs	r1, #0
 80077ee:	6461      	str	r1, [r4, #68]	; 0x44
 80077f0:	4620      	mov	r0, r4
 80077f2:	f001 fabd 	bl	8008d70 <_Balloc>
 80077f6:	9003      	str	r0, [sp, #12]
 80077f8:	2800      	cmp	r0, #0
 80077fa:	f000 8601 	beq.w	8008400 <_dtoa_r+0xe70>
 80077fe:	9b03      	ldr	r3, [sp, #12]
 8007800:	6423      	str	r3, [r4, #64]	; 0x40
 8007802:	9b08      	ldr	r3, [sp, #32]
 8007804:	2b0e      	cmp	r3, #14
 8007806:	f200 8113 	bhi.w	8007a30 <_dtoa_r+0x4a0>
 800780a:	2e00      	cmp	r6, #0
 800780c:	f000 8110 	beq.w	8007a30 <_dtoa_r+0x4a0>
 8007810:	9907      	ldr	r1, [sp, #28]
 8007812:	2900      	cmp	r1, #0
 8007814:	f340 845c 	ble.w	80080d0 <_dtoa_r+0xb40>
 8007818:	4bae      	ldr	r3, [pc, #696]	; (8007ad4 <_dtoa_r+0x544>)
 800781a:	f001 020f 	and.w	r2, r1, #15
 800781e:	eb03 03c2 	add.w	r3, r3, r2, lsl #3
 8007822:	ea4f 1821 	mov.w	r8, r1, asr #4
 8007826:	05c9      	lsls	r1, r1, #23
 8007828:	e9d3 6700 	ldrd	r6, r7, [r3]
 800782c:	f140 8414 	bpl.w	8008058 <_dtoa_r+0xac8>
 8007830:	4ba9      	ldr	r3, [pc, #676]	; (8007ad8 <_dtoa_r+0x548>)
 8007832:	e9dd 010a 	ldrd	r0, r1, [sp, #40]	; 0x28
 8007836:	e9d3 2308 	ldrd	r2, r3, [r3, #32]
 800783a:	f7f9 f927 	bl	8000a8c <__aeabi_ddiv>
 800783e:	e9cd 0110 	strd	r0, r1, [sp, #64]	; 0x40
 8007842:	f008 080f 	and.w	r8, r8, #15
 8007846:	f04f 0a03 	mov.w	sl, #3
 800784a:	f1b8 0f00 	cmp.w	r8, #0
 800784e:	d013      	beq.n	8007878 <_dtoa_r+0x2e8>
 8007850:	f8df 9284 	ldr.w	r9, [pc, #644]	; 8007ad8 <_dtoa_r+0x548>
 8007854:	f018 0f01 	tst.w	r8, #1
 8007858:	d009      	beq.n	800786e <_dtoa_r+0x2de>
 800785a:	4630      	mov	r0, r6
 800785c:	4639      	mov	r1, r7
 800785e:	e9d9 2300 	ldrd	r2, r3, [r9]
 8007862:	f7f8 ffe9 	bl	8000838 <__aeabi_dmul>
 8007866:	f10a 0a01 	add.w	sl, sl, #1
 800786a:	4606      	mov	r6, r0
 800786c:	460f      	mov	r7, r1
 800786e:	ea5f 0868 	movs.w	r8, r8, asr #1
 8007872:	f109 0908 	add.w	r9, r9, #8
 8007876:	d1ed      	bne.n	8007854 <_dtoa_r+0x2c4>
 8007878:	e9dd 0110 	ldrd	r0, r1, [sp, #64]	; 0x40
 800787c:	4632      	mov	r2, r6
 800787e:	463b      	mov	r3, r7
 8007880:	f7f9 f904 	bl	8000a8c <__aeabi_ddiv>
 8007884:	4680      	mov	r8, r0
 8007886:	4689      	mov	r9, r1
 8007888:	9b0e      	ldr	r3, [sp, #56]	; 0x38
 800788a:	b143      	cbz	r3, 800789e <_dtoa_r+0x30e>
 800788c:	4b93      	ldr	r3, [pc, #588]	; (8007adc <_dtoa_r+0x54c>)
 800788e:	2200      	movs	r2, #0
 8007890:	4640      	mov	r0, r8
 8007892:	4649      	mov	r1, r9
 8007894:	f7f9 fa42 	bl	8000d1c <__aeabi_dcmplt>
 8007898:	2800      	cmp	r0, #0
 800789a:	f040 8530 	bne.w	80082fe <_dtoa_r+0xd6e>
 800789e:	4650      	mov	r0, sl
 80078a0:	f7f8 ff60 	bl	8000764 <__aeabi_i2d>
 80078a4:	4642      	mov	r2, r8
 80078a6:	464b      	mov	r3, r9
 80078a8:	f7f8 ffc6 	bl	8000838 <__aeabi_dmul>
 80078ac:	4b8c      	ldr	r3, [pc, #560]	; (8007ae0 <_dtoa_r+0x550>)
 80078ae:	2200      	movs	r2, #0
 80078b0:	f7f8 fe0c 	bl	80004cc <__adddf3>
 80078b4:	f1a1 7350 	sub.w	r3, r1, #54525952	; 0x3400000
 80078b8:	e9cd 0110 	strd	r0, r1, [sp, #64]	; 0x40
 80078bc:	9311      	str	r3, [sp, #68]	; 0x44
 80078be:	9b08      	ldr	r3, [sp, #32]
 80078c0:	2b00      	cmp	r3, #0
 80078c2:	f000 8097 	beq.w	80079f4 <_dtoa_r+0x464>
 80078c6:	9b07      	ldr	r3, [sp, #28]
 80078c8:	9314      	str	r3, [sp, #80]	; 0x50
 80078ca:	9b08      	ldr	r3, [sp, #32]
 80078cc:	9313      	str	r3, [sp, #76]	; 0x4c
 80078ce:	9b0c      	ldr	r3, [sp, #48]	; 0x30
 80078d0:	2b00      	cmp	r3, #0
 80078d2:	f000 84a5 	beq.w	8008220 <_dtoa_r+0xc90>
 80078d6:	9a13      	ldr	r2, [sp, #76]	; 0x4c
 80078d8:	4b7e      	ldr	r3, [pc, #504]	; (8007ad4 <_dtoa_r+0x544>)
 80078da:	4982      	ldr	r1, [pc, #520]	; (8007ae4 <_dtoa_r+0x554>)
 80078dc:	9e03      	ldr	r6, [sp, #12]
 80078de:	eb03 03c2 	add.w	r3, r3, r2, lsl #3
 80078e2:	e953 2302 	ldrd	r2, r3, [r3, #-8]
 80078e6:	2000      	movs	r0, #0
 80078e8:	f7f9 f8d0 	bl	8000a8c <__aeabi_ddiv>
 80078ec:	e9dd 2310 	ldrd	r2, r3, [sp, #64]	; 0x40
 80078f0:	f7f8 fdea 	bl	80004c8 <__aeabi_dsub>
 80078f4:	e9cd 0110 	strd	r0, r1, [sp, #64]	; 0x40
 80078f8:	4649      	mov	r1, r9
 80078fa:	4640      	mov	r0, r8
 80078fc:	f7f9 fa4c 	bl	8000d98 <__aeabi_d2iz>
 8007900:	4607      	mov	r7, r0
 8007902:	f7f8 ff2f 	bl	8000764 <__aeabi_i2d>
 8007906:	4602      	mov	r2, r0
 8007908:	460b      	mov	r3, r1
 800790a:	4640      	mov	r0, r8
 800790c:	4649      	mov	r1, r9
 800790e:	f7f8 fddb 	bl	80004c8 <__aeabi_dsub>
 8007912:	3730      	adds	r7, #48	; 0x30
 8007914:	e9dd 2310 	ldrd	r2, r3, [sp, #64]	; 0x40
 8007918:	f806 7b01 	strb.w	r7, [r6], #1
 800791c:	4680      	mov	r8, r0
 800791e:	4689      	mov	r9, r1
 8007920:	f7f9 f9fc 	bl	8000d1c <__aeabi_dcmplt>
 8007924:	2800      	cmp	r0, #0
 8007926:	f040 8529 	bne.w	800837c <_dtoa_r+0xdec>
 800792a:	f8cd b054 	str.w	fp, [sp, #84]	; 0x54
 800792e:	2700      	movs	r7, #0
 8007930:	e9dd ab10 	ldrd	sl, fp, [sp, #64]	; 0x40
 8007934:	9510      	str	r5, [sp, #64]	; 0x40
 8007936:	9d13      	ldr	r5, [sp, #76]	; 0x4c
 8007938:	9413      	str	r4, [sp, #76]	; 0x4c
 800793a:	e02a      	b.n	8007992 <_dtoa_r+0x402>
 800793c:	3701      	adds	r7, #1
 800793e:	42af      	cmp	r7, r5
 8007940:	f280 852c 	bge.w	800839c <_dtoa_r+0xe0c>
 8007944:	4b68      	ldr	r3, [pc, #416]	; (8007ae8 <_dtoa_r+0x558>)
 8007946:	4650      	mov	r0, sl
 8007948:	4659      	mov	r1, fp
 800794a:	2200      	movs	r2, #0
 800794c:	f7f8 ff74 	bl	8000838 <__aeabi_dmul>
 8007950:	4b65      	ldr	r3, [pc, #404]	; (8007ae8 <_dtoa_r+0x558>)
 8007952:	2200      	movs	r2, #0
 8007954:	4682      	mov	sl, r0
 8007956:	468b      	mov	fp, r1
 8007958:	4640      	mov	r0, r8
 800795a:	4649      	mov	r1, r9
 800795c:	f7f8 ff6c 	bl	8000838 <__aeabi_dmul>
 8007960:	4689      	mov	r9, r1
 8007962:	4680      	mov	r8, r0
 8007964:	f7f9 fa18 	bl	8000d98 <__aeabi_d2iz>
 8007968:	4604      	mov	r4, r0
 800796a:	f7f8 fefb 	bl	8000764 <__aeabi_i2d>
 800796e:	4602      	mov	r2, r0
 8007970:	460b      	mov	r3, r1
 8007972:	4640      	mov	r0, r8
 8007974:	4649      	mov	r1, r9
 8007976:	f7f8 fda7 	bl	80004c8 <__aeabi_dsub>
 800797a:	3430      	adds	r4, #48	; 0x30
 800797c:	f806 4b01 	strb.w	r4, [r6], #1
 8007980:	4652      	mov	r2, sl
 8007982:	465b      	mov	r3, fp
 8007984:	4680      	mov	r8, r0
 8007986:	4689      	mov	r9, r1
 8007988:	f7f9 f9c8 	bl	8000d1c <__aeabi_dcmplt>
 800798c:	2800      	cmp	r0, #0
 800798e:	f040 84f3 	bne.w	8008378 <_dtoa_r+0xde8>
 8007992:	4642      	mov	r2, r8
 8007994:	464b      	mov	r3, r9
 8007996:	4951      	ldr	r1, [pc, #324]	; (8007adc <_dtoa_r+0x54c>)
 8007998:	2000      	movs	r0, #0
 800799a:	f7f8 fd95 	bl	80004c8 <__aeabi_dsub>
 800799e:	4652      	mov	r2, sl
 80079a0:	465b      	mov	r3, fp
 80079a2:	f7f9 f9bb 	bl	8000d1c <__aeabi_dcmplt>
 80079a6:	2800      	cmp	r0, #0
 80079a8:	d0c8      	beq.n	800793c <_dtoa_r+0x3ac>
 80079aa:	e9dd 4313 	ldrd	r4, r3, [sp, #76]	; 0x4c
 80079ae:	9d10      	ldr	r5, [sp, #64]	; 0x40
 80079b0:	9a03      	ldr	r2, [sp, #12]
 80079b2:	9307      	str	r3, [sp, #28]
 80079b4:	e002      	b.n	80079bc <_dtoa_r+0x42c>
 80079b6:	4296      	cmp	r6, r2
 80079b8:	f000 84c8 	beq.w	800834c <_dtoa_r+0xdbc>
 80079bc:	46b2      	mov	sl, r6
 80079be:	f816 3d01 	ldrb.w	r3, [r6, #-1]!
 80079c2:	2b39      	cmp	r3, #57	; 0x39
 80079c4:	d0f7      	beq.n	80079b6 <_dtoa_r+0x426>
 80079c6:	3301      	adds	r3, #1
 80079c8:	b2db      	uxtb	r3, r3
 80079ca:	7033      	strb	r3, [r6, #0]
 80079cc:	9b07      	ldr	r3, [sp, #28]
 80079ce:	3301      	adds	r3, #1
 80079d0:	9307      	str	r3, [sp, #28]
 80079d2:	e1c8      	b.n	8007d66 <_dtoa_r+0x7d6>
 80079d4:	4650      	mov	r0, sl
 80079d6:	f7f8 fec5 	bl	8000764 <__aeabi_i2d>
 80079da:	4642      	mov	r2, r8
 80079dc:	464b      	mov	r3, r9
 80079de:	f7f8 ff2b 	bl	8000838 <__aeabi_dmul>
 80079e2:	4b3f      	ldr	r3, [pc, #252]	; (8007ae0 <_dtoa_r+0x550>)
 80079e4:	2200      	movs	r2, #0
 80079e6:	f7f8 fd71 	bl	80004cc <__adddf3>
 80079ea:	f1a1 7350 	sub.w	r3, r1, #54525952	; 0x3400000
 80079ee:	e9cd 0110 	strd	r0, r1, [sp, #64]	; 0x40
 80079f2:	9311      	str	r3, [sp, #68]	; 0x44
 80079f4:	4b3d      	ldr	r3, [pc, #244]	; (8007aec <_dtoa_r+0x55c>)
 80079f6:	4640      	mov	r0, r8
 80079f8:	4649      	mov	r1, r9
 80079fa:	2200      	movs	r2, #0
 80079fc:	f7f8 fd64 	bl	80004c8 <__aeabi_dsub>
 8007a00:	e9dd 8910 	ldrd	r8, r9, [sp, #64]	; 0x40
 8007a04:	464b      	mov	r3, r9
 8007a06:	4642      	mov	r2, r8
 8007a08:	4606      	mov	r6, r0
 8007a0a:	460f      	mov	r7, r1
 8007a0c:	f7f9 f9a4 	bl	8000d58 <__aeabi_dcmpgt>
 8007a10:	4681      	mov	r9, r0
 8007a12:	2800      	cmp	r0, #0
 8007a14:	f040 84aa 	bne.w	800836c <_dtoa_r+0xddc>
 8007a18:	e9dd 0110 	ldrd	r0, r1, [sp, #64]	; 0x40
 8007a1c:	4602      	mov	r2, r0
 8007a1e:	f101 4300 	add.w	r3, r1, #2147483648	; 0x80000000
 8007a22:	4630      	mov	r0, r6
 8007a24:	4639      	mov	r1, r7
 8007a26:	f7f9 f979 	bl	8000d1c <__aeabi_dcmplt>
 8007a2a:	2800      	cmp	r0, #0
 8007a2c:	f040 8345 	bne.w	80080ba <_dtoa_r+0xb2a>
 8007a30:	9b17      	ldr	r3, [sp, #92]	; 0x5c
 8007a32:	2b00      	cmp	r3, #0
 8007a34:	f2c0 808c 	blt.w	8007b50 <_dtoa_r+0x5c0>
 8007a38:	9a07      	ldr	r2, [sp, #28]
 8007a3a:	2a0e      	cmp	r2, #14
 8007a3c:	f300 8088 	bgt.w	8007b50 <_dtoa_r+0x5c0>
 8007a40:	4b24      	ldr	r3, [pc, #144]	; (8007ad4 <_dtoa_r+0x544>)
 8007a42:	eb03 03c2 	add.w	r3, r3, r2, lsl #3
 8007a46:	e9d3 ab00 	ldrd	sl, fp, [r3]
 8007a4a:	9b23      	ldr	r3, [sp, #140]	; 0x8c
 8007a4c:	2b00      	cmp	r3, #0
 8007a4e:	da1b      	bge.n	8007a88 <_dtoa_r+0x4f8>
 8007a50:	9b08      	ldr	r3, [sp, #32]
 8007a52:	2b00      	cmp	r3, #0
 8007a54:	dc18      	bgt.n	8007a88 <_dtoa_r+0x4f8>
 8007a56:	f040 832e 	bne.w	80080b6 <_dtoa_r+0xb26>
 8007a5a:	4b24      	ldr	r3, [pc, #144]	; (8007aec <_dtoa_r+0x55c>)
 8007a5c:	2200      	movs	r2, #0
 8007a5e:	4650      	mov	r0, sl
 8007a60:	4659      	mov	r1, fp
 8007a62:	f7f8 fee9 	bl	8000838 <__aeabi_dmul>
 8007a66:	4602      	mov	r2, r0
 8007a68:	460b      	mov	r3, r1
 8007a6a:	e9dd 010a 	ldrd	r0, r1, [sp, #40]	; 0x28
 8007a6e:	f7f9 f95f 	bl	8000d30 <__aeabi_dcmple>
 8007a72:	f8dd 9020 	ldr.w	r9, [sp, #32]
 8007a76:	464e      	mov	r6, r9
 8007a78:	2800      	cmp	r0, #0
 8007a7a:	f000 82c7 	beq.w	800800c <_dtoa_r+0xa7c>
 8007a7e:	9b23      	ldr	r3, [sp, #140]	; 0x8c
 8007a80:	f8dd 800c 	ldr.w	r8, [sp, #12]
 8007a84:	43df      	mvns	r7, r3
 8007a86:	e2c9      	b.n	800801c <_dtoa_r+0xa8c>
 8007a88:	e9dd 780a 	ldrd	r7, r8, [sp, #40]	; 0x28
 8007a8c:	4652      	mov	r2, sl
 8007a8e:	465b      	mov	r3, fp
 8007a90:	4638      	mov	r0, r7
 8007a92:	4641      	mov	r1, r8
 8007a94:	f7f8 fffa 	bl	8000a8c <__aeabi_ddiv>
 8007a98:	f7f9 f97e 	bl	8000d98 <__aeabi_d2iz>
 8007a9c:	4681      	mov	r9, r0
 8007a9e:	9009      	str	r0, [sp, #36]	; 0x24
 8007aa0:	f7f8 fe60 	bl	8000764 <__aeabi_i2d>
 8007aa4:	4652      	mov	r2, sl
 8007aa6:	465b      	mov	r3, fp
 8007aa8:	f7f8 fec6 	bl	8000838 <__aeabi_dmul>
 8007aac:	9e03      	ldr	r6, [sp, #12]
 8007aae:	460b      	mov	r3, r1
 8007ab0:	4602      	mov	r2, r0
 8007ab2:	4641      	mov	r1, r8
 8007ab4:	4638      	mov	r0, r7
 8007ab6:	f7f8 fd07 	bl	80004c8 <__aeabi_dsub>
 8007aba:	f109 0330 	add.w	r3, r9, #48	; 0x30
 8007abe:	f806 3b01 	strb.w	r3, [r6], #1
 8007ac2:	9b08      	ldr	r3, [sp, #32]
 8007ac4:	2b01      	cmp	r3, #1
 8007ac6:	f000 835c 	beq.w	8008182 <_dtoa_r+0xbf2>
 8007aca:	9406      	str	r4, [sp, #24]
 8007acc:	2701      	movs	r7, #1
 8007ace:	9504      	str	r5, [sp, #16]
 8007ad0:	461c      	mov	r4, r3
 8007ad2:	e02a      	b.n	8007b2a <_dtoa_r+0x59a>
 8007ad4:	0800b5f0 	.word	0x0800b5f0
 8007ad8:	0800b5c8 	.word	0x0800b5c8
 8007adc:	3ff00000 	.word	0x3ff00000
 8007ae0:	401c0000 	.word	0x401c0000
 8007ae4:	3fe00000 	.word	0x3fe00000
 8007ae8:	40240000 	.word	0x40240000
 8007aec:	40140000 	.word	0x40140000
 8007af0:	4652      	mov	r2, sl
 8007af2:	465b      	mov	r3, fp
 8007af4:	4640      	mov	r0, r8
 8007af6:	4649      	mov	r1, r9
 8007af8:	f7f8 ffc8 	bl	8000a8c <__aeabi_ddiv>
 8007afc:	f7f9 f94c 	bl	8000d98 <__aeabi_d2iz>
 8007b00:	4605      	mov	r5, r0
 8007b02:	f7f8 fe2f 	bl	8000764 <__aeabi_i2d>
 8007b06:	4652      	mov	r2, sl
 8007b08:	465b      	mov	r3, fp
 8007b0a:	f7f8 fe95 	bl	8000838 <__aeabi_dmul>
 8007b0e:	3701      	adds	r7, #1
 8007b10:	460b      	mov	r3, r1
 8007b12:	4602      	mov	r2, r0
 8007b14:	4649      	mov	r1, r9
 8007b16:	4640      	mov	r0, r8
 8007b18:	f7f8 fcd6 	bl	80004c8 <__aeabi_dsub>
 8007b1c:	f105 0330 	add.w	r3, r5, #48	; 0x30
 8007b20:	42a7      	cmp	r7, r4
 8007b22:	f806 3b01 	strb.w	r3, [r6], #1
 8007b26:	f000 8329 	beq.w	800817c <_dtoa_r+0xbec>
 8007b2a:	4bac      	ldr	r3, [pc, #688]	; (8007ddc <_dtoa_r+0x84c>)
 8007b2c:	2200      	movs	r2, #0
 8007b2e:	f7f8 fe83 	bl	8000838 <__aeabi_dmul>
 8007b32:	2200      	movs	r2, #0
 8007b34:	2300      	movs	r3, #0
 8007b36:	4680      	mov	r8, r0
 8007b38:	4689      	mov	r9, r1
 8007b3a:	f7f9 f8e5 	bl	8000d08 <__aeabi_dcmpeq>
 8007b3e:	2800      	cmp	r0, #0
 8007b40:	d0d6      	beq.n	8007af0 <_dtoa_r+0x560>
 8007b42:	9d04      	ldr	r5, [sp, #16]
 8007b44:	9c06      	ldr	r4, [sp, #24]
 8007b46:	9b07      	ldr	r3, [sp, #28]
 8007b48:	3301      	adds	r3, #1
 8007b4a:	9307      	str	r3, [sp, #28]
 8007b4c:	46b2      	mov	sl, r6
 8007b4e:	e10a      	b.n	8007d66 <_dtoa_r+0x7d6>
 8007b50:	9a0c      	ldr	r2, [sp, #48]	; 0x30
 8007b52:	2a00      	cmp	r2, #0
 8007b54:	d03d      	beq.n	8007bd2 <_dtoa_r+0x642>
 8007b56:	9a22      	ldr	r2, [sp, #136]	; 0x88
 8007b58:	2a01      	cmp	r2, #1
 8007b5a:	f340 829c 	ble.w	8008096 <_dtoa_r+0xb06>
 8007b5e:	9b08      	ldr	r3, [sp, #32]
 8007b60:	f103 38ff 	add.w	r8, r3, #4294967295
 8007b64:	9b0d      	ldr	r3, [sp, #52]	; 0x34
 8007b66:	4543      	cmp	r3, r8
 8007b68:	f2c0 826d 	blt.w	8008046 <_dtoa_r+0xab6>
 8007b6c:	eba3 0808 	sub.w	r8, r3, r8
 8007b70:	9b08      	ldr	r3, [sp, #32]
 8007b72:	2b00      	cmp	r3, #0
 8007b74:	f2c0 833c 	blt.w	80081f0 <_dtoa_r+0xc60>
 8007b78:	9a06      	ldr	r2, [sp, #24]
 8007b7a:	441a      	add	r2, r3
 8007b7c:	9206      	str	r2, [sp, #24]
 8007b7e:	9a09      	ldr	r2, [sp, #36]	; 0x24
 8007b80:	4617      	mov	r7, r2
 8007b82:	441a      	add	r2, r3
 8007b84:	9209      	str	r2, [sp, #36]	; 0x24
 8007b86:	2101      	movs	r1, #1
 8007b88:	4620      	mov	r0, r4
 8007b8a:	f001 f9bf 	bl	8008f0c <__i2b>
 8007b8e:	4606      	mov	r6, r0
 8007b90:	e023      	b.n	8007bda <_dtoa_r+0x64a>
 8007b92:	2301      	movs	r3, #1
 8007b94:	1bbe      	subs	r6, r7, r6
 8007b96:	930e      	str	r3, [sp, #56]	; 0x38
 8007b98:	1e73      	subs	r3, r6, #1
 8007b9a:	9306      	str	r3, [sp, #24]
 8007b9c:	f57f ada2 	bpl.w	80076e4 <_dtoa_r+0x154>
 8007ba0:	f1c6 0301 	rsb	r3, r6, #1
 8007ba4:	9309      	str	r3, [sp, #36]	; 0x24
 8007ba6:	2300      	movs	r3, #0
 8007ba8:	9306      	str	r3, [sp, #24]
 8007baa:	e59d      	b.n	80076e8 <_dtoa_r+0x158>
 8007bac:	4658      	mov	r0, fp
 8007bae:	f7f8 fdd9 	bl	8000764 <__aeabi_i2d>
 8007bb2:	4642      	mov	r2, r8
 8007bb4:	464b      	mov	r3, r9
 8007bb6:	f7f9 f8a7 	bl	8000d08 <__aeabi_dcmpeq>
 8007bba:	2800      	cmp	r0, #0
 8007bbc:	f47f ad7a 	bne.w	80076b4 <_dtoa_r+0x124>
 8007bc0:	f10b 3bff 	add.w	fp, fp, #4294967295
 8007bc4:	e576      	b.n	80076b4 <_dtoa_r+0x124>
 8007bc6:	4b86      	ldr	r3, [pc, #536]	; (8007de0 <_dtoa_r+0x850>)
 8007bc8:	9303      	str	r3, [sp, #12]
 8007bca:	9803      	ldr	r0, [sp, #12]
 8007bcc:	b019      	add	sp, #100	; 0x64
 8007bce:	e8bd 8ff0 	ldmia.w	sp!, {r4, r5, r6, r7, r8, r9, sl, fp, pc}
 8007bd2:	f8dd 8034 	ldr.w	r8, [sp, #52]	; 0x34
 8007bd6:	9f09      	ldr	r7, [sp, #36]	; 0x24
 8007bd8:	9e0c      	ldr	r6, [sp, #48]	; 0x30
 8007bda:	2f00      	cmp	r7, #0
 8007bdc:	dd0c      	ble.n	8007bf8 <_dtoa_r+0x668>
 8007bde:	9906      	ldr	r1, [sp, #24]
 8007be0:	2900      	cmp	r1, #0
 8007be2:	460b      	mov	r3, r1
 8007be4:	dd08      	ble.n	8007bf8 <_dtoa_r+0x668>
 8007be6:	9a09      	ldr	r2, [sp, #36]	; 0x24
 8007be8:	42b9      	cmp	r1, r7
 8007bea:	bfa8      	it	ge
 8007bec:	463b      	movge	r3, r7
 8007bee:	1ad2      	subs	r2, r2, r3
 8007bf0:	1aff      	subs	r7, r7, r3
 8007bf2:	1acb      	subs	r3, r1, r3
 8007bf4:	9209      	str	r2, [sp, #36]	; 0x24
 8007bf6:	9306      	str	r3, [sp, #24]
 8007bf8:	9b0d      	ldr	r3, [sp, #52]	; 0x34
 8007bfa:	b1db      	cbz	r3, 8007c34 <_dtoa_r+0x6a4>
 8007bfc:	9b0c      	ldr	r3, [sp, #48]	; 0x30
 8007bfe:	2b00      	cmp	r3, #0
 8007c00:	f000 825d 	beq.w	80080be <_dtoa_r+0xb2e>
 8007c04:	f1b8 0f00 	cmp.w	r8, #0
 8007c08:	dd0f      	ble.n	8007c2a <_dtoa_r+0x69a>
 8007c0a:	4631      	mov	r1, r6
 8007c0c:	4642      	mov	r2, r8
 8007c0e:	4620      	mov	r0, r4
 8007c10:	f001 fa58 	bl	80090c4 <__pow5mult>
 8007c14:	462a      	mov	r2, r5
 8007c16:	4601      	mov	r1, r0
 8007c18:	4606      	mov	r6, r0
 8007c1a:	4620      	mov	r0, r4
 8007c1c:	f001 f9a4 	bl	8008f68 <__multiply>
 8007c20:	4629      	mov	r1, r5
 8007c22:	4605      	mov	r5, r0
 8007c24:	4620      	mov	r0, r4
 8007c26:	f001 f8c9 	bl	8008dbc <_Bfree>
 8007c2a:	9b0d      	ldr	r3, [sp, #52]	; 0x34
 8007c2c:	ebb3 0208 	subs.w	r2, r3, r8
 8007c30:	f040 82d8 	bne.w	80081e4 <_dtoa_r+0xc54>
 8007c34:	2101      	movs	r1, #1
 8007c36:	4620      	mov	r0, r4
 8007c38:	f001 f968 	bl	8008f0c <__i2b>
 8007c3c:	f1bb 0f00 	cmp.w	fp, #0
 8007c40:	4681      	mov	r9, r0
 8007c42:	f300 80b4 	bgt.w	8007dae <_dtoa_r+0x81e>
 8007c46:	9b22      	ldr	r3, [sp, #136]	; 0x88
 8007c48:	2b01      	cmp	r3, #1
 8007c4a:	f340 8186 	ble.w	8007f5a <_dtoa_r+0x9ca>
 8007c4e:	f04f 0a00 	mov.w	sl, #0
 8007c52:	2001      	movs	r0, #1
 8007c54:	f1bb 0f00 	cmp.w	fp, #0
 8007c58:	f040 80b5 	bne.w	8007dc6 <_dtoa_r+0x836>
 8007c5c:	9a06      	ldr	r2, [sp, #24]
 8007c5e:	4410      	add	r0, r2
 8007c60:	f010 001f 	ands.w	r0, r0, #31
 8007c64:	f000 8093 	beq.w	8007d8e <_dtoa_r+0x7fe>
 8007c68:	f1c0 0320 	rsb	r3, r0, #32
 8007c6c:	2b04      	cmp	r3, #4
 8007c6e:	f340 83d2 	ble.w	8008416 <_dtoa_r+0xe86>
 8007c72:	9b09      	ldr	r3, [sp, #36]	; 0x24
 8007c74:	f1c0 001c 	rsb	r0, r0, #28
 8007c78:	4403      	add	r3, r0
 8007c7a:	4402      	add	r2, r0
 8007c7c:	9309      	str	r3, [sp, #36]	; 0x24
 8007c7e:	4407      	add	r7, r0
 8007c80:	9206      	str	r2, [sp, #24]
 8007c82:	9b09      	ldr	r3, [sp, #36]	; 0x24
 8007c84:	2b00      	cmp	r3, #0
 8007c86:	dd05      	ble.n	8007c94 <_dtoa_r+0x704>
 8007c88:	4629      	mov	r1, r5
 8007c8a:	461a      	mov	r2, r3
 8007c8c:	4620      	mov	r0, r4
 8007c8e:	f001 fa79 	bl	8009184 <__lshift>
 8007c92:	4605      	mov	r5, r0
 8007c94:	9b06      	ldr	r3, [sp, #24]
 8007c96:	2b00      	cmp	r3, #0
 8007c98:	dd05      	ble.n	8007ca6 <_dtoa_r+0x716>
 8007c9a:	4649      	mov	r1, r9
 8007c9c:	461a      	mov	r2, r3
 8007c9e:	4620      	mov	r0, r4
 8007ca0:	f001 fa70 	bl	8009184 <__lshift>
 8007ca4:	4681      	mov	r9, r0
 8007ca6:	9b0e      	ldr	r3, [sp, #56]	; 0x38
 8007ca8:	2b00      	cmp	r3, #0
 8007caa:	f040 8136 	bne.w	8007f1a <_dtoa_r+0x98a>
 8007cae:	9b08      	ldr	r3, [sp, #32]
 8007cb0:	2b00      	cmp	r3, #0
 8007cb2:	f340 811d 	ble.w	8007ef0 <_dtoa_r+0x960>
 8007cb6:	9b0c      	ldr	r3, [sp, #48]	; 0x30
 8007cb8:	2b00      	cmp	r3, #0
 8007cba:	f040 80a0 	bne.w	8007dfe <_dtoa_r+0x86e>
 8007cbe:	9b07      	ldr	r3, [sp, #28]
 8007cc0:	3301      	adds	r3, #1
 8007cc2:	9307      	str	r3, [sp, #28]
 8007cc4:	f8dd 800c 	ldr.w	r8, [sp, #12]
 8007cc8:	f8dd a020 	ldr.w	sl, [sp, #32]
 8007ccc:	2701      	movs	r7, #1
 8007cce:	e007      	b.n	8007ce0 <_dtoa_r+0x750>
 8007cd0:	4629      	mov	r1, r5
 8007cd2:	2300      	movs	r3, #0
 8007cd4:	220a      	movs	r2, #10
 8007cd6:	4620      	mov	r0, r4
 8007cd8:	f001 f87a 	bl	8008dd0 <__multadd>
 8007cdc:	3701      	adds	r7, #1
 8007cde:	4605      	mov	r5, r0
 8007ce0:	4649      	mov	r1, r9
 8007ce2:	4628      	mov	r0, r5
 8007ce4:	f7ff fbc0 	bl	8007468 <quorem>
 8007ce8:	4557      	cmp	r7, sl
 8007cea:	f100 0330 	add.w	r3, r0, #48	; 0x30
 8007cee:	f808 3b01 	strb.w	r3, [r8], #1
 8007cf2:	dbed      	blt.n	8007cd0 <_dtoa_r+0x740>
 8007cf4:	9a08      	ldr	r2, [sp, #32]
 8007cf6:	2a00      	cmp	r2, #0
 8007cf8:	bfc8      	it	gt
 8007cfa:	4693      	movgt	fp, r2
 8007cfc:	9a03      	ldr	r2, [sp, #12]
 8007cfe:	bfd8      	it	le
 8007d00:	f04f 0b01 	movle.w	fp, #1
 8007d04:	4493      	add	fp, r2
 8007d06:	2700      	movs	r7, #0
 8007d08:	4629      	mov	r1, r5
 8007d0a:	2201      	movs	r2, #1
 8007d0c:	4620      	mov	r0, r4
 8007d0e:	9304      	str	r3, [sp, #16]
 8007d10:	f001 fa38 	bl	8009184 <__lshift>
 8007d14:	4649      	mov	r1, r9
 8007d16:	4605      	mov	r5, r0
 8007d18:	f001 faac 	bl	8009274 <__mcmp>
 8007d1c:	2800      	cmp	r0, #0
 8007d1e:	f340 81a8 	ble.w	8008072 <_dtoa_r+0xae2>
 8007d22:	f81b 3c01 	ldrb.w	r3, [fp, #-1]
 8007d26:	9a03      	ldr	r2, [sp, #12]
 8007d28:	f10b 3bff 	add.w	fp, fp, #4294967295
 8007d2c:	e004      	b.n	8007d38 <_dtoa_r+0x7a8>
 8007d2e:	455a      	cmp	r2, fp
 8007d30:	f000 81aa 	beq.w	8008088 <_dtoa_r+0xaf8>
 8007d34:	f81b 3d01 	ldrb.w	r3, [fp, #-1]!
 8007d38:	2b39      	cmp	r3, #57	; 0x39
 8007d3a:	f10b 0a01 	add.w	sl, fp, #1
 8007d3e:	d0f6      	beq.n	8007d2e <_dtoa_r+0x79e>
 8007d40:	3301      	adds	r3, #1
 8007d42:	f88b 3000 	strb.w	r3, [fp]
 8007d46:	4649      	mov	r1, r9
 8007d48:	4620      	mov	r0, r4
 8007d4a:	f001 f837 	bl	8008dbc <_Bfree>
 8007d4e:	b156      	cbz	r6, 8007d66 <_dtoa_r+0x7d6>
 8007d50:	b12f      	cbz	r7, 8007d5e <_dtoa_r+0x7ce>
 8007d52:	42b7      	cmp	r7, r6
 8007d54:	d003      	beq.n	8007d5e <_dtoa_r+0x7ce>
 8007d56:	4639      	mov	r1, r7
 8007d58:	4620      	mov	r0, r4
 8007d5a:	f001 f82f 	bl	8008dbc <_Bfree>
 8007d5e:	4631      	mov	r1, r6
 8007d60:	4620      	mov	r0, r4
 8007d62:	f001 f82b 	bl	8008dbc <_Bfree>
 8007d66:	4629      	mov	r1, r5
 8007d68:	4620      	mov	r0, r4
 8007d6a:	f001 f827 	bl	8008dbc <_Bfree>
 8007d6e:	2300      	movs	r3, #0
 8007d70:	f88a 3000 	strb.w	r3, [sl]
 8007d74:	9b24      	ldr	r3, [sp, #144]	; 0x90
 8007d76:	9a07      	ldr	r2, [sp, #28]
 8007d78:	601a      	str	r2, [r3, #0]
 8007d7a:	9b26      	ldr	r3, [sp, #152]	; 0x98
 8007d7c:	2b00      	cmp	r3, #0
 8007d7e:	f43f ac42 	beq.w	8007606 <_dtoa_r+0x76>
 8007d82:	9803      	ldr	r0, [sp, #12]
 8007d84:	f8c3 a000 	str.w	sl, [r3]
 8007d88:	b019      	add	sp, #100	; 0x64
 8007d8a:	e8bd 8ff0 	ldmia.w	sp!, {r4, r5, r6, r7, r8, r9, sl, fp, pc}
 8007d8e:	201c      	movs	r0, #28
 8007d90:	9b09      	ldr	r3, [sp, #36]	; 0x24
 8007d92:	4403      	add	r3, r0
 8007d94:	9309      	str	r3, [sp, #36]	; 0x24
 8007d96:	9b06      	ldr	r3, [sp, #24]
 8007d98:	4403      	add	r3, r0
 8007d9a:	4407      	add	r7, r0
 8007d9c:	9306      	str	r3, [sp, #24]
 8007d9e:	e770      	b.n	8007c82 <_dtoa_r+0x6f2>
 8007da0:	2601      	movs	r6, #1
 8007da2:	e4b8      	b.n	8007716 <_dtoa_r+0x186>
 8007da4:	f1c0 0020 	rsb	r0, r0, #32
 8007da8:	fa08 f000 	lsl.w	r0, r8, r0
 8007dac:	e44f      	b.n	800764e <_dtoa_r+0xbe>
 8007dae:	4601      	mov	r1, r0
 8007db0:	465a      	mov	r2, fp
 8007db2:	4620      	mov	r0, r4
 8007db4:	f001 f986 	bl	80090c4 <__pow5mult>
 8007db8:	9b22      	ldr	r3, [sp, #136]	; 0x88
 8007dba:	2b01      	cmp	r3, #1
 8007dbc:	4681      	mov	r9, r0
 8007dbe:	f340 81b3 	ble.w	8008128 <_dtoa_r+0xb98>
 8007dc2:	f04f 0a00 	mov.w	sl, #0
 8007dc6:	f8d9 3010 	ldr.w	r3, [r9, #16]
 8007dca:	eb09 0383 	add.w	r3, r9, r3, lsl #2
 8007dce:	6918      	ldr	r0, [r3, #16]
 8007dd0:	f001 f84e 	bl	8008e70 <__hi0bits>
 8007dd4:	f1c0 0020 	rsb	r0, r0, #32
 8007dd8:	e740      	b.n	8007c5c <_dtoa_r+0x6cc>
 8007dda:	bf00      	nop
 8007ddc:	40240000 	.word	0x40240000
 8007de0:	0800b480 	.word	0x0800b480
 8007de4:	4631      	mov	r1, r6
 8007de6:	2300      	movs	r3, #0
 8007de8:	220a      	movs	r2, #10
 8007dea:	4620      	mov	r0, r4
 8007dec:	f000 fff0 	bl	8008dd0 <__multadd>
 8007df0:	9b12      	ldr	r3, [sp, #72]	; 0x48
 8007df2:	2b00      	cmp	r3, #0
 8007df4:	4606      	mov	r6, r0
 8007df6:	f340 82e7 	ble.w	80083c8 <_dtoa_r+0xe38>
 8007dfa:	e9cd 8307 	strd	r8, r3, [sp, #28]
 8007dfe:	2f00      	cmp	r7, #0
 8007e00:	f300 811a 	bgt.w	8008038 <_dtoa_r+0xaa8>
 8007e04:	f1ba 0f00 	cmp.w	sl, #0
 8007e08:	f040 81d5 	bne.w	80081b6 <_dtoa_r+0xc26>
 8007e0c:	46b0      	mov	r8, r6
 8007e0e:	9b04      	ldr	r3, [sp, #16]
 8007e10:	9f03      	ldr	r7, [sp, #12]
 8007e12:	9908      	ldr	r1, [sp, #32]
 8007e14:	f003 0201 	and.w	r2, r3, #1
 8007e18:	1e7b      	subs	r3, r7, #1
 8007e1a:	4419      	add	r1, r3
 8007e1c:	9b22      	ldr	r3, [sp, #136]	; 0x88
 8007e1e:	920c      	str	r2, [sp, #48]	; 0x30
 8007e20:	4313      	orrs	r3, r2
 8007e22:	9109      	str	r1, [sp, #36]	; 0x24
 8007e24:	930a      	str	r3, [sp, #40]	; 0x28
 8007e26:	4649      	mov	r1, r9
 8007e28:	4628      	mov	r0, r5
 8007e2a:	f7ff fb1d 	bl	8007468 <quorem>
 8007e2e:	4631      	mov	r1, r6
 8007e30:	4683      	mov	fp, r0
 8007e32:	4628      	mov	r0, r5
 8007e34:	f001 fa1e 	bl	8009274 <__mcmp>
 8007e38:	4642      	mov	r2, r8
 8007e3a:	4649      	mov	r1, r9
 8007e3c:	4682      	mov	sl, r0
 8007e3e:	4620      	mov	r0, r4
 8007e40:	f001 fa38 	bl	80092b4 <__mdiff>
 8007e44:	68c2      	ldr	r2, [r0, #12]
 8007e46:	4601      	mov	r1, r0
 8007e48:	f10b 0330 	add.w	r3, fp, #48	; 0x30
 8007e4c:	2a00      	cmp	r2, #0
 8007e4e:	d142      	bne.n	8007ed6 <_dtoa_r+0x946>
 8007e50:	9006      	str	r0, [sp, #24]
 8007e52:	4628      	mov	r0, r5
 8007e54:	9308      	str	r3, [sp, #32]
 8007e56:	f001 fa0d 	bl	8009274 <__mcmp>
 8007e5a:	9906      	ldr	r1, [sp, #24]
 8007e5c:	9004      	str	r0, [sp, #16]
 8007e5e:	4620      	mov	r0, r4
 8007e60:	f000 ffac 	bl	8008dbc <_Bfree>
 8007e64:	9a04      	ldr	r2, [sp, #16]
 8007e66:	9b08      	ldr	r3, [sp, #32]
 8007e68:	b91a      	cbnz	r2, 8007e72 <_dtoa_r+0x8e2>
 8007e6a:	990a      	ldr	r1, [sp, #40]	; 0x28
 8007e6c:	2900      	cmp	r1, #0
 8007e6e:	f000 829b 	beq.w	80083a8 <_dtoa_r+0xe18>
 8007e72:	f1ba 0f00 	cmp.w	sl, #0
 8007e76:	f2c0 8163 	blt.w	8008140 <_dtoa_r+0xbb0>
 8007e7a:	9922      	ldr	r1, [sp, #136]	; 0x88
 8007e7c:	ea4a 0a01 	orr.w	sl, sl, r1
 8007e80:	990c      	ldr	r1, [sp, #48]	; 0x30
 8007e82:	ea51 010a 	orrs.w	r1, r1, sl
 8007e86:	f000 815b 	beq.w	8008140 <_dtoa_r+0xbb0>
 8007e8a:	2a00      	cmp	r2, #0
 8007e8c:	f300 81b4 	bgt.w	80081f8 <_dtoa_r+0xc68>
 8007e90:	9a09      	ldr	r2, [sp, #36]	; 0x24
 8007e92:	703b      	strb	r3, [r7, #0]
 8007e94:	f107 0a01 	add.w	sl, r7, #1
 8007e98:	4297      	cmp	r7, r2
 8007e9a:	46d3      	mov	fp, sl
 8007e9c:	f000 81b2 	beq.w	8008204 <_dtoa_r+0xc74>
 8007ea0:	4629      	mov	r1, r5
 8007ea2:	2300      	movs	r3, #0
 8007ea4:	220a      	movs	r2, #10
 8007ea6:	4620      	mov	r0, r4
 8007ea8:	f000 ff92 	bl	8008dd0 <__multadd>
 8007eac:	4546      	cmp	r6, r8
 8007eae:	4605      	mov	r5, r0
 8007eb0:	4631      	mov	r1, r6
 8007eb2:	f04f 0300 	mov.w	r3, #0
 8007eb6:	f04f 020a 	mov.w	r2, #10
 8007eba:	4620      	mov	r0, r4
 8007ebc:	d012      	beq.n	8007ee4 <_dtoa_r+0x954>
 8007ebe:	f000 ff87 	bl	8008dd0 <__multadd>
 8007ec2:	4641      	mov	r1, r8
 8007ec4:	4606      	mov	r6, r0
 8007ec6:	2300      	movs	r3, #0
 8007ec8:	220a      	movs	r2, #10
 8007eca:	4620      	mov	r0, r4
 8007ecc:	f000 ff80 	bl	8008dd0 <__multadd>
 8007ed0:	4657      	mov	r7, sl
 8007ed2:	4680      	mov	r8, r0
 8007ed4:	e7a7      	b.n	8007e26 <_dtoa_r+0x896>
 8007ed6:	4620      	mov	r0, r4
 8007ed8:	9304      	str	r3, [sp, #16]
 8007eda:	f000 ff6f 	bl	8008dbc <_Bfree>
 8007ede:	9b04      	ldr	r3, [sp, #16]
 8007ee0:	2201      	movs	r2, #1
 8007ee2:	e7c6      	b.n	8007e72 <_dtoa_r+0x8e2>
 8007ee4:	f000 ff74 	bl	8008dd0 <__multadd>
 8007ee8:	4657      	mov	r7, sl
 8007eea:	4606      	mov	r6, r0
 8007eec:	4680      	mov	r8, r0
 8007eee:	e79a      	b.n	8007e26 <_dtoa_r+0x896>
 8007ef0:	9b22      	ldr	r3, [sp, #136]	; 0x88
 8007ef2:	2b02      	cmp	r3, #2
 8007ef4:	dc79      	bgt.n	8007fea <_dtoa_r+0xa5a>
 8007ef6:	9b0c      	ldr	r3, [sp, #48]	; 0x30
 8007ef8:	2b00      	cmp	r3, #0
 8007efa:	d180      	bne.n	8007dfe <_dtoa_r+0x86e>
 8007efc:	9b07      	ldr	r3, [sp, #28]
 8007efe:	4649      	mov	r1, r9
 8007f00:	3301      	adds	r3, #1
 8007f02:	4628      	mov	r0, r5
 8007f04:	9307      	str	r3, [sp, #28]
 8007f06:	f7ff faaf 	bl	8007468 <quorem>
 8007f0a:	f8dd b00c 	ldr.w	fp, [sp, #12]
 8007f0e:	f100 0330 	add.w	r3, r0, #48	; 0x30
 8007f12:	f80b 3b01 	strb.w	r3, [fp], #1
 8007f16:	2700      	movs	r7, #0
 8007f18:	e6f6      	b.n	8007d08 <_dtoa_r+0x778>
 8007f1a:	4649      	mov	r1, r9
 8007f1c:	4628      	mov	r0, r5
 8007f1e:	f001 f9a9 	bl	8009274 <__mcmp>
 8007f22:	2800      	cmp	r0, #0
 8007f24:	f6bf aec3 	bge.w	8007cae <_dtoa_r+0x71e>
 8007f28:	4629      	mov	r1, r5
 8007f2a:	2300      	movs	r3, #0
 8007f2c:	220a      	movs	r2, #10
 8007f2e:	4620      	mov	r0, r4
 8007f30:	f000 ff4e 	bl	8008dd0 <__multadd>
 8007f34:	9b07      	ldr	r3, [sp, #28]
 8007f36:	f103 38ff 	add.w	r8, r3, #4294967295
 8007f3a:	9b0c      	ldr	r3, [sp, #48]	; 0x30
 8007f3c:	4605      	mov	r5, r0
 8007f3e:	2b00      	cmp	r3, #0
 8007f40:	f47f af50 	bne.w	8007de4 <_dtoa_r+0x854>
 8007f44:	9b12      	ldr	r3, [sp, #72]	; 0x48
 8007f46:	2b00      	cmp	r3, #0
 8007f48:	f340 8235 	ble.w	80083b6 <_dtoa_r+0xe26>
 8007f4c:	9308      	str	r3, [sp, #32]
 8007f4e:	e6b9      	b.n	8007cc4 <_dtoa_r+0x734>
 8007f50:	4baf      	ldr	r3, [pc, #700]	; (8008210 <_dtoa_r+0xc80>)
 8007f52:	9303      	str	r3, [sp, #12]
 8007f54:	3303      	adds	r3, #3
 8007f56:	f7ff bbf9 	b.w	800774c <_dtoa_r+0x1bc>
 8007f5a:	e9dd 1204 	ldrd	r1, r2, [sp, #16]
 8007f5e:	2900      	cmp	r1, #0
 8007f60:	f47f ae75 	bne.w	8007c4e <_dtoa_r+0x6be>
 8007f64:	f3c2 0313 	ubfx	r3, r2, #0, #20
 8007f68:	2b00      	cmp	r3, #0
 8007f6a:	f47f ae70 	bne.w	8007c4e <_dtoa_r+0x6be>
 8007f6e:	4ba9      	ldr	r3, [pc, #676]	; (8008214 <_dtoa_r+0xc84>)
 8007f70:	4013      	ands	r3, r2
 8007f72:	2b00      	cmp	r3, #0
 8007f74:	f000 81fe 	beq.w	8008374 <_dtoa_r+0xde4>
 8007f78:	9b09      	ldr	r3, [sp, #36]	; 0x24
 8007f7a:	3301      	adds	r3, #1
 8007f7c:	9309      	str	r3, [sp, #36]	; 0x24
 8007f7e:	9b06      	ldr	r3, [sp, #24]
 8007f80:	3301      	adds	r3, #1
 8007f82:	9306      	str	r3, [sp, #24]
 8007f84:	f04f 0a01 	mov.w	sl, #1
 8007f88:	e663      	b.n	8007c52 <_dtoa_r+0x6c2>
 8007f8a:	2301      	movs	r3, #1
 8007f8c:	930c      	str	r3, [sp, #48]	; 0x30
 8007f8e:	9b23      	ldr	r3, [sp, #140]	; 0x8c
 8007f90:	9a07      	ldr	r2, [sp, #28]
 8007f92:	4413      	add	r3, r2
 8007f94:	9312      	str	r3, [sp, #72]	; 0x48
 8007f96:	3301      	adds	r3, #1
 8007f98:	2b01      	cmp	r3, #1
 8007f9a:	461f      	mov	r7, r3
 8007f9c:	9308      	str	r3, [sp, #32]
 8007f9e:	bfb8      	it	lt
 8007fa0:	2701      	movlt	r7, #1
 8007fa2:	2100      	movs	r1, #0
 8007fa4:	2f17      	cmp	r7, #23
 8007fa6:	6461      	str	r1, [r4, #68]	; 0x44
 8007fa8:	f77f ac22 	ble.w	80077f0 <_dtoa_r+0x260>
 8007fac:	2201      	movs	r2, #1
 8007fae:	2304      	movs	r3, #4
 8007fb0:	005b      	lsls	r3, r3, #1
 8007fb2:	f103 0014 	add.w	r0, r3, #20
 8007fb6:	42b8      	cmp	r0, r7
 8007fb8:	4611      	mov	r1, r2
 8007fba:	f102 0201 	add.w	r2, r2, #1
 8007fbe:	d9f7      	bls.n	8007fb0 <_dtoa_r+0xa20>
 8007fc0:	6461      	str	r1, [r4, #68]	; 0x44
 8007fc2:	e415      	b.n	80077f0 <_dtoa_r+0x260>
 8007fc4:	2301      	movs	r3, #1
 8007fc6:	930c      	str	r3, [sp, #48]	; 0x30
 8007fc8:	9b23      	ldr	r3, [sp, #140]	; 0x8c
 8007fca:	2b00      	cmp	r3, #0
 8007fcc:	dd4c      	ble.n	8008068 <_dtoa_r+0xad8>
 8007fce:	9312      	str	r3, [sp, #72]	; 0x48
 8007fd0:	9308      	str	r3, [sp, #32]
 8007fd2:	461f      	mov	r7, r3
 8007fd4:	e7e5      	b.n	8007fa2 <_dtoa_r+0xa12>
 8007fd6:	2300      	movs	r3, #0
 8007fd8:	930c      	str	r3, [sp, #48]	; 0x30
 8007fda:	e7d8      	b.n	8007f8e <_dtoa_r+0x9fe>
 8007fdc:	2300      	movs	r3, #0
 8007fde:	930c      	str	r3, [sp, #48]	; 0x30
 8007fe0:	e7f2      	b.n	8007fc8 <_dtoa_r+0xa38>
 8007fe2:	9b12      	ldr	r3, [sp, #72]	; 0x48
 8007fe4:	f8cd 801c 	str.w	r8, [sp, #28]
 8007fe8:	9308      	str	r3, [sp, #32]
 8007fea:	9b08      	ldr	r3, [sp, #32]
 8007fec:	2b00      	cmp	r3, #0
 8007fee:	f47f ad46 	bne.w	8007a7e <_dtoa_r+0x4ee>
 8007ff2:	4649      	mov	r1, r9
 8007ff4:	2205      	movs	r2, #5
 8007ff6:	4620      	mov	r0, r4
 8007ff8:	f000 feea 	bl	8008dd0 <__multadd>
 8007ffc:	4601      	mov	r1, r0
 8007ffe:	4681      	mov	r9, r0
 8008000:	4628      	mov	r0, r5
 8008002:	f001 f937 	bl	8009274 <__mcmp>
 8008006:	2800      	cmp	r0, #0
 8008008:	f77f ad39 	ble.w	8007a7e <_dtoa_r+0x4ee>
 800800c:	9803      	ldr	r0, [sp, #12]
 800800e:	9f07      	ldr	r7, [sp, #28]
 8008010:	2331      	movs	r3, #49	; 0x31
 8008012:	4680      	mov	r8, r0
 8008014:	f800 3b01 	strb.w	r3, [r0], #1
 8008018:	3701      	adds	r7, #1
 800801a:	9003      	str	r0, [sp, #12]
 800801c:	4649      	mov	r1, r9
 800801e:	4620      	mov	r0, r4
 8008020:	f000 fecc 	bl	8008dbc <_Bfree>
 8008024:	1c7b      	adds	r3, r7, #1
 8008026:	f8dd a00c 	ldr.w	sl, [sp, #12]
 800802a:	9307      	str	r3, [sp, #28]
 800802c:	f8cd 800c 	str.w	r8, [sp, #12]
 8008030:	2e00      	cmp	r6, #0
 8008032:	f47f ae94 	bne.w	8007d5e <_dtoa_r+0x7ce>
 8008036:	e696      	b.n	8007d66 <_dtoa_r+0x7d6>
 8008038:	4631      	mov	r1, r6
 800803a:	463a      	mov	r2, r7
 800803c:	4620      	mov	r0, r4
 800803e:	f001 f8a1 	bl	8009184 <__lshift>
 8008042:	4606      	mov	r6, r0
 8008044:	e6de      	b.n	8007e04 <_dtoa_r+0x874>
 8008046:	9b0d      	ldr	r3, [sp, #52]	; 0x34
 8008048:	f8cd 8034 	str.w	r8, [sp, #52]	; 0x34
 800804c:	eba8 0303 	sub.w	r3, r8, r3
 8008050:	449b      	add	fp, r3
 8008052:	f04f 0800 	mov.w	r8, #0
 8008056:	e58b      	b.n	8007b70 <_dtoa_r+0x5e0>
 8008058:	e9dd 230a 	ldrd	r2, r3, [sp, #40]	; 0x28
 800805c:	f04f 0a02 	mov.w	sl, #2
 8008060:	e9cd 2310 	strd	r2, r3, [sp, #64]	; 0x40
 8008064:	f7ff bbf1 	b.w	800784a <_dtoa_r+0x2ba>
 8008068:	2301      	movs	r3, #1
 800806a:	9323      	str	r3, [sp, #140]	; 0x8c
 800806c:	9308      	str	r3, [sp, #32]
 800806e:	f7ff bbbb 	b.w	80077e8 <_dtoa_r+0x258>
 8008072:	d103      	bne.n	800807c <_dtoa_r+0xaec>
 8008074:	9b04      	ldr	r3, [sp, #16]
 8008076:	07db      	lsls	r3, r3, #31
 8008078:	f53f ae53 	bmi.w	8007d22 <_dtoa_r+0x792>
 800807c:	46da      	mov	sl, fp
 800807e:	f81b 3d01 	ldrb.w	r3, [fp, #-1]!
 8008082:	2b30      	cmp	r3, #48	; 0x30
 8008084:	d0fa      	beq.n	800807c <_dtoa_r+0xaec>
 8008086:	e65e      	b.n	8007d46 <_dtoa_r+0x7b6>
 8008088:	9b07      	ldr	r3, [sp, #28]
 800808a:	9a03      	ldr	r2, [sp, #12]
 800808c:	3301      	adds	r3, #1
 800808e:	9307      	str	r3, [sp, #28]
 8008090:	2331      	movs	r3, #49	; 0x31
 8008092:	7013      	strb	r3, [r2, #0]
 8008094:	e657      	b.n	8007d46 <_dtoa_r+0x7b6>
 8008096:	9a0f      	ldr	r2, [sp, #60]	; 0x3c
 8008098:	2a00      	cmp	r2, #0
 800809a:	f000 8126 	beq.w	80082ea <_dtoa_r+0xd5a>
 800809e:	f203 4333 	addw	r3, r3, #1075	; 0x433
 80080a2:	9a06      	ldr	r2, [sp, #24]
 80080a4:	f8dd 8034 	ldr.w	r8, [sp, #52]	; 0x34
 80080a8:	441a      	add	r2, r3
 80080aa:	9206      	str	r2, [sp, #24]
 80080ac:	9a09      	ldr	r2, [sp, #36]	; 0x24
 80080ae:	4617      	mov	r7, r2
 80080b0:	441a      	add	r2, r3
 80080b2:	9209      	str	r2, [sp, #36]	; 0x24
 80080b4:	e567      	b.n	8007b86 <_dtoa_r+0x5f6>
 80080b6:	f04f 0900 	mov.w	r9, #0
 80080ba:	464e      	mov	r6, r9
 80080bc:	e4df      	b.n	8007a7e <_dtoa_r+0x4ee>
 80080be:	4629      	mov	r1, r5
 80080c0:	9a0d      	ldr	r2, [sp, #52]	; 0x34
 80080c2:	4620      	mov	r0, r4
 80080c4:	f000 fffe 	bl	80090c4 <__pow5mult>
 80080c8:	4605      	mov	r5, r0
 80080ca:	e5b3      	b.n	8007c34 <_dtoa_r+0x6a4>
 80080cc:	900e      	str	r0, [sp, #56]	; 0x38
 80080ce:	e567      	b.n	8007ba0 <_dtoa_r+0x610>
 80080d0:	f000 810f 	beq.w	80082f2 <_dtoa_r+0xd62>
 80080d4:	9a07      	ldr	r2, [sp, #28]
 80080d6:	4b50      	ldr	r3, [pc, #320]	; (8008218 <_dtoa_r+0xc88>)
 80080d8:	4256      	negs	r6, r2
 80080da:	f006 020f 	and.w	r2, r6, #15
 80080de:	eb03 03c2 	add.w	r3, r3, r2, lsl #3
 80080e2:	e9d3 2300 	ldrd	r2, r3, [r3]
 80080e6:	e9dd 010a 	ldrd	r0, r1, [sp, #40]	; 0x28
 80080ea:	f7f8 fba5 	bl	8000838 <__aeabi_dmul>
 80080ee:	1136      	asrs	r6, r6, #4
 80080f0:	4680      	mov	r8, r0
 80080f2:	4689      	mov	r9, r1
 80080f4:	f000 8171 	beq.w	80083da <_dtoa_r+0xe4a>
 80080f8:	4f48      	ldr	r7, [pc, #288]	; (800821c <_dtoa_r+0xc8c>)
 80080fa:	2300      	movs	r3, #0
 80080fc:	f04f 0a02 	mov.w	sl, #2
 8008100:	07f2      	lsls	r2, r6, #31
 8008102:	d506      	bpl.n	8008112 <_dtoa_r+0xb82>
 8008104:	e9d7 2300 	ldrd	r2, r3, [r7]
 8008108:	f7f8 fb96 	bl	8000838 <__aeabi_dmul>
 800810c:	f10a 0a01 	add.w	sl, sl, #1
 8008110:	2301      	movs	r3, #1
 8008112:	1076      	asrs	r6, r6, #1
 8008114:	f107 0708 	add.w	r7, r7, #8
 8008118:	d1f2      	bne.n	8008100 <_dtoa_r+0xb70>
 800811a:	2b00      	cmp	r3, #0
 800811c:	f43f abb4 	beq.w	8007888 <_dtoa_r+0x2f8>
 8008120:	4680      	mov	r8, r0
 8008122:	4689      	mov	r9, r1
 8008124:	f7ff bbb0 	b.w	8007888 <_dtoa_r+0x2f8>
 8008128:	9b04      	ldr	r3, [sp, #16]
 800812a:	2b00      	cmp	r3, #0
 800812c:	f47f ae49 	bne.w	8007dc2 <_dtoa_r+0x832>
 8008130:	e9dd 1204 	ldrd	r1, r2, [sp, #16]
 8008134:	f3c2 0313 	ubfx	r3, r2, #0, #20
 8008138:	2b00      	cmp	r3, #0
 800813a:	f43f af18 	beq.w	8007f6e <_dtoa_r+0x9de>
 800813e:	e640      	b.n	8007dc2 <_dtoa_r+0x832>
 8008140:	2a00      	cmp	r2, #0
 8008142:	dd12      	ble.n	800816a <_dtoa_r+0xbda>
 8008144:	4629      	mov	r1, r5
 8008146:	2201      	movs	r2, #1
 8008148:	4620      	mov	r0, r4
 800814a:	9304      	str	r3, [sp, #16]
 800814c:	f001 f81a 	bl	8009184 <__lshift>
 8008150:	4649      	mov	r1, r9
 8008152:	4605      	mov	r5, r0
 8008154:	f001 f88e 	bl	8009274 <__mcmp>
 8008158:	2800      	cmp	r0, #0
 800815a:	9b04      	ldr	r3, [sp, #16]
 800815c:	f340 8118 	ble.w	8008390 <_dtoa_r+0xe00>
 8008160:	2b39      	cmp	r3, #57	; 0x39
 8008162:	f000 80f9 	beq.w	8008358 <_dtoa_r+0xdc8>
 8008166:	f10b 0331 	add.w	r3, fp, #49	; 0x31
 800816a:	46ba      	mov	sl, r7
 800816c:	f80a 3b01 	strb.w	r3, [sl], #1
 8008170:	9b07      	ldr	r3, [sp, #28]
 8008172:	3301      	adds	r3, #1
 8008174:	4637      	mov	r7, r6
 8008176:	9307      	str	r3, [sp, #28]
 8008178:	4646      	mov	r6, r8
 800817a:	e5e4      	b.n	8007d46 <_dtoa_r+0x7b6>
 800817c:	9509      	str	r5, [sp, #36]	; 0x24
 800817e:	9c06      	ldr	r4, [sp, #24]
 8008180:	9d04      	ldr	r5, [sp, #16]
 8008182:	4602      	mov	r2, r0
 8008184:	460b      	mov	r3, r1
 8008186:	f7f8 f9a1 	bl	80004cc <__adddf3>
 800818a:	4652      	mov	r2, sl
 800818c:	465b      	mov	r3, fp
 800818e:	4680      	mov	r8, r0
 8008190:	4689      	mov	r9, r1
 8008192:	f7f8 fde1 	bl	8000d58 <__aeabi_dcmpgt>
 8008196:	b960      	cbnz	r0, 80081b2 <_dtoa_r+0xc22>
 8008198:	4652      	mov	r2, sl
 800819a:	465b      	mov	r3, fp
 800819c:	4640      	mov	r0, r8
 800819e:	4649      	mov	r1, r9
 80081a0:	f7f8 fdb2 	bl	8000d08 <__aeabi_dcmpeq>
 80081a4:	2800      	cmp	r0, #0
 80081a6:	f43f acce 	beq.w	8007b46 <_dtoa_r+0x5b6>
 80081aa:	9b09      	ldr	r3, [sp, #36]	; 0x24
 80081ac:	07d9      	lsls	r1, r3, #31
 80081ae:	f57f acca 	bpl.w	8007b46 <_dtoa_r+0x5b6>
 80081b2:	9a03      	ldr	r2, [sp, #12]
 80081b4:	e402      	b.n	80079bc <_dtoa_r+0x42c>
 80081b6:	6871      	ldr	r1, [r6, #4]
 80081b8:	4620      	mov	r0, r4
 80081ba:	f000 fdd9 	bl	8008d70 <_Balloc>
 80081be:	4607      	mov	r7, r0
 80081c0:	2800      	cmp	r0, #0
 80081c2:	f000 810e 	beq.w	80083e2 <_dtoa_r+0xe52>
 80081c6:	6933      	ldr	r3, [r6, #16]
 80081c8:	3302      	adds	r3, #2
 80081ca:	009a      	lsls	r2, r3, #2
 80081cc:	f106 010c 	add.w	r1, r6, #12
 80081d0:	300c      	adds	r0, #12
 80081d2:	f7f8 f815 	bl	8000200 <memcpy>
 80081d6:	4639      	mov	r1, r7
 80081d8:	2201      	movs	r2, #1
 80081da:	4620      	mov	r0, r4
 80081dc:	f000 ffd2 	bl	8009184 <__lshift>
 80081e0:	4680      	mov	r8, r0
 80081e2:	e614      	b.n	8007e0e <_dtoa_r+0x87e>
 80081e4:	4629      	mov	r1, r5
 80081e6:	4620      	mov	r0, r4
 80081e8:	f000 ff6c 	bl	80090c4 <__pow5mult>
 80081ec:	4605      	mov	r5, r0
 80081ee:	e521      	b.n	8007c34 <_dtoa_r+0x6a4>
 80081f0:	e9dd 2308 	ldrd	r2, r3, [sp, #32]
 80081f4:	1a9f      	subs	r7, r3, r2
 80081f6:	e4c6      	b.n	8007b86 <_dtoa_r+0x5f6>
 80081f8:	2b39      	cmp	r3, #57	; 0x39
 80081fa:	f000 80ad 	beq.w	8008358 <_dtoa_r+0xdc8>
 80081fe:	46ba      	mov	sl, r7
 8008200:	3301      	adds	r3, #1
 8008202:	e7b3      	b.n	800816c <_dtoa_r+0xbdc>
 8008204:	9a07      	ldr	r2, [sp, #28]
 8008206:	3201      	adds	r2, #1
 8008208:	4637      	mov	r7, r6
 800820a:	9207      	str	r2, [sp, #28]
 800820c:	4646      	mov	r6, r8
 800820e:	e57b      	b.n	8007d08 <_dtoa_r+0x778>
 8008210:	0800b4a4 	.word	0x0800b4a4
 8008214:	7ff00000 	.word	0x7ff00000
 8008218:	0800b5f0 	.word	0x0800b5f0
 800821c:	0800b5c8 	.word	0x0800b5c8
 8008220:	f8dd a04c 	ldr.w	sl, [sp, #76]	; 0x4c
 8008224:	4984      	ldr	r1, [pc, #528]	; (8008438 <_dtoa_r+0xea8>)
 8008226:	eb01 01ca 	add.w	r1, r1, sl, lsl #3
 800822a:	e9dd 2310 	ldrd	r2, r3, [sp, #64]	; 0x40
 800822e:	e951 0102 	ldrd	r0, r1, [r1, #-8]
 8008232:	f7f8 fb01 	bl	8000838 <__aeabi_dmul>
 8008236:	e9cd 0110 	strd	r0, r1, [sp, #64]	; 0x40
 800823a:	4649      	mov	r1, r9
 800823c:	4640      	mov	r0, r8
 800823e:	f7f8 fdab 	bl	8000d98 <__aeabi_d2iz>
 8008242:	4606      	mov	r6, r0
 8008244:	f7f8 fa8e 	bl	8000764 <__aeabi_i2d>
 8008248:	460b      	mov	r3, r1
 800824a:	4602      	mov	r2, r0
 800824c:	4649      	mov	r1, r9
 800824e:	4640      	mov	r0, r8
 8008250:	f7f8 f93a 	bl	80004c8 <__aeabi_dsub>
 8008254:	9f03      	ldr	r7, [sp, #12]
 8008256:	4653      	mov	r3, sl
 8008258:	3630      	adds	r6, #48	; 0x30
 800825a:	2b01      	cmp	r3, #1
 800825c:	f807 6b01 	strb.w	r6, [r7], #1
 8008260:	4680      	mov	r8, r0
 8008262:	4689      	mov	r9, r1
 8008264:	f000 80ae 	beq.w	80083c4 <_dtoa_r+0xe34>
 8008268:	9e13      	ldr	r6, [sp, #76]	; 0x4c
 800826a:	9b03      	ldr	r3, [sp, #12]
 800826c:	441e      	add	r6, r3
 800826e:	4b73      	ldr	r3, [pc, #460]	; (800843c <_dtoa_r+0xeac>)
 8008270:	2200      	movs	r2, #0
 8008272:	4640      	mov	r0, r8
 8008274:	4649      	mov	r1, r9
 8008276:	f7f8 fadf 	bl	8000838 <__aeabi_dmul>
 800827a:	4689      	mov	r9, r1
 800827c:	4680      	mov	r8, r0
 800827e:	f7f8 fd8b 	bl	8000d98 <__aeabi_d2iz>
 8008282:	4682      	mov	sl, r0
 8008284:	f7f8 fa6e 	bl	8000764 <__aeabi_i2d>
 8008288:	f10a 0a30 	add.w	sl, sl, #48	; 0x30
 800828c:	4602      	mov	r2, r0
 800828e:	460b      	mov	r3, r1
 8008290:	4640      	mov	r0, r8
 8008292:	4649      	mov	r1, r9
 8008294:	f7f8 f918 	bl	80004c8 <__aeabi_dsub>
 8008298:	f807 ab01 	strb.w	sl, [r7], #1
 800829c:	42b7      	cmp	r7, r6
 800829e:	4680      	mov	r8, r0
 80082a0:	4689      	mov	r9, r1
 80082a2:	d1e4      	bne.n	800826e <_dtoa_r+0xcde>
 80082a4:	4b66      	ldr	r3, [pc, #408]	; (8008440 <_dtoa_r+0xeb0>)
 80082a6:	2200      	movs	r2, #0
 80082a8:	e9dd 0110 	ldrd	r0, r1, [sp, #64]	; 0x40
 80082ac:	f7f8 f90e 	bl	80004cc <__adddf3>
 80082b0:	4642      	mov	r2, r8
 80082b2:	464b      	mov	r3, r9
 80082b4:	f7f8 fd32 	bl	8000d1c <__aeabi_dcmplt>
 80082b8:	2800      	cmp	r0, #0
 80082ba:	d164      	bne.n	8008386 <_dtoa_r+0xdf6>
 80082bc:	e9dd 2310 	ldrd	r2, r3, [sp, #64]	; 0x40
 80082c0:	495f      	ldr	r1, [pc, #380]	; (8008440 <_dtoa_r+0xeb0>)
 80082c2:	2000      	movs	r0, #0
 80082c4:	f7f8 f900 	bl	80004c8 <__aeabi_dsub>
 80082c8:	4642      	mov	r2, r8
 80082ca:	464b      	mov	r3, r9
 80082cc:	f7f8 fd44 	bl	8000d58 <__aeabi_dcmpgt>
 80082d0:	2800      	cmp	r0, #0
 80082d2:	f43f abad 	beq.w	8007a30 <_dtoa_r+0x4a0>
 80082d6:	46b2      	mov	sl, r6
 80082d8:	3e01      	subs	r6, #1
 80082da:	f81a 3c01 	ldrb.w	r3, [sl, #-1]
 80082de:	2b30      	cmp	r3, #48	; 0x30
 80082e0:	d0f9      	beq.n	80082d6 <_dtoa_r+0xd46>
 80082e2:	9b14      	ldr	r3, [sp, #80]	; 0x50
 80082e4:	3301      	adds	r3, #1
 80082e6:	9307      	str	r3, [sp, #28]
 80082e8:	e53d      	b.n	8007d66 <_dtoa_r+0x7d6>
 80082ea:	9b16      	ldr	r3, [sp, #88]	; 0x58
 80082ec:	f1c3 0336 	rsb	r3, r3, #54	; 0x36
 80082f0:	e6d7      	b.n	80080a2 <_dtoa_r+0xb12>
 80082f2:	e9dd 890a 	ldrd	r8, r9, [sp, #40]	; 0x28
 80082f6:	f04f 0a02 	mov.w	sl, #2
 80082fa:	f7ff bac5 	b.w	8007888 <_dtoa_r+0x2f8>
 80082fe:	9b08      	ldr	r3, [sp, #32]
 8008300:	2b00      	cmp	r3, #0
 8008302:	f43f ab67 	beq.w	80079d4 <_dtoa_r+0x444>
 8008306:	9b12      	ldr	r3, [sp, #72]	; 0x48
 8008308:	2b00      	cmp	r3, #0
 800830a:	f77f ab91 	ble.w	8007a30 <_dtoa_r+0x4a0>
 800830e:	9a07      	ldr	r2, [sp, #28]
 8008310:	3a01      	subs	r2, #1
 8008312:	e9cd 3213 	strd	r3, r2, [sp, #76]	; 0x4c
 8008316:	4640      	mov	r0, r8
 8008318:	4b48      	ldr	r3, [pc, #288]	; (800843c <_dtoa_r+0xeac>)
 800831a:	2200      	movs	r2, #0
 800831c:	4649      	mov	r1, r9
 800831e:	f7f8 fa8b 	bl	8000838 <__aeabi_dmul>
 8008322:	4680      	mov	r8, r0
 8008324:	4689      	mov	r9, r1
 8008326:	f10a 0001 	add.w	r0, sl, #1
 800832a:	f7f8 fa1b 	bl	8000764 <__aeabi_i2d>
 800832e:	4642      	mov	r2, r8
 8008330:	464b      	mov	r3, r9
 8008332:	f7f8 fa81 	bl	8000838 <__aeabi_dmul>
 8008336:	4b43      	ldr	r3, [pc, #268]	; (8008444 <_dtoa_r+0xeb4>)
 8008338:	2200      	movs	r2, #0
 800833a:	f7f8 f8c7 	bl	80004cc <__adddf3>
 800833e:	f1a1 7350 	sub.w	r3, r1, #54525952	; 0x3400000
 8008342:	e9cd 0110 	strd	r0, r1, [sp, #64]	; 0x40
 8008346:	9311      	str	r3, [sp, #68]	; 0x44
 8008348:	f7ff bac1 	b.w	80078ce <_dtoa_r+0x33e>
 800834c:	9b07      	ldr	r3, [sp, #28]
 800834e:	3301      	adds	r3, #1
 8008350:	9307      	str	r3, [sp, #28]
 8008352:	2331      	movs	r3, #49	; 0x31
 8008354:	f7ff bb39 	b.w	80079ca <_dtoa_r+0x43a>
 8008358:	9b07      	ldr	r3, [sp, #28]
 800835a:	46bb      	mov	fp, r7
 800835c:	3301      	adds	r3, #1
 800835e:	9307      	str	r3, [sp, #28]
 8008360:	2339      	movs	r3, #57	; 0x39
 8008362:	4637      	mov	r7, r6
 8008364:	f80b 3b01 	strb.w	r3, [fp], #1
 8008368:	4646      	mov	r6, r8
 800836a:	e4dc      	b.n	8007d26 <_dtoa_r+0x796>
 800836c:	f04f 0900 	mov.w	r9, #0
 8008370:	464e      	mov	r6, r9
 8008372:	e64b      	b.n	800800c <_dtoa_r+0xa7c>
 8008374:	469a      	mov	sl, r3
 8008376:	e46c      	b.n	8007c52 <_dtoa_r+0x6c2>
 8008378:	9d10      	ldr	r5, [sp, #64]	; 0x40
 800837a:	9c13      	ldr	r4, [sp, #76]	; 0x4c
 800837c:	9b14      	ldr	r3, [sp, #80]	; 0x50
 800837e:	3301      	adds	r3, #1
 8008380:	9307      	str	r3, [sp, #28]
 8008382:	46b2      	mov	sl, r6
 8008384:	e4ef      	b.n	8007d66 <_dtoa_r+0x7d6>
 8008386:	9b14      	ldr	r3, [sp, #80]	; 0x50
 8008388:	9a03      	ldr	r2, [sp, #12]
 800838a:	9307      	str	r3, [sp, #28]
 800838c:	f7ff bb16 	b.w	80079bc <_dtoa_r+0x42c>
 8008390:	f47f aeeb 	bne.w	800816a <_dtoa_r+0xbda>
 8008394:	07da      	lsls	r2, r3, #31
 8008396:	f57f aee8 	bpl.w	800816a <_dtoa_r+0xbda>
 800839a:	e6e1      	b.n	8008160 <_dtoa_r+0xbd0>
 800839c:	f8dd b054 	ldr.w	fp, [sp, #84]	; 0x54
 80083a0:	9d10      	ldr	r5, [sp, #64]	; 0x40
 80083a2:	9c13      	ldr	r4, [sp, #76]	; 0x4c
 80083a4:	f7ff bb44 	b.w	8007a30 <_dtoa_r+0x4a0>
 80083a8:	2b39      	cmp	r3, #57	; 0x39
 80083aa:	d0d5      	beq.n	8008358 <_dtoa_r+0xdc8>
 80083ac:	f1ba 0f00 	cmp.w	sl, #0
 80083b0:	f73f aed9 	bgt.w	8008166 <_dtoa_r+0xbd6>
 80083b4:	e6d9      	b.n	800816a <_dtoa_r+0xbda>
 80083b6:	9b22      	ldr	r3, [sp, #136]	; 0x88
 80083b8:	2b02      	cmp	r3, #2
 80083ba:	f73f ae12 	bgt.w	8007fe2 <_dtoa_r+0xa52>
 80083be:	f8cd 801c 	str.w	r8, [sp, #28]
 80083c2:	e59b      	b.n	8007efc <_dtoa_r+0x96c>
 80083c4:	463e      	mov	r6, r7
 80083c6:	e76d      	b.n	80082a4 <_dtoa_r+0xd14>
 80083c8:	9b22      	ldr	r3, [sp, #136]	; 0x88
 80083ca:	2b02      	cmp	r3, #2
 80083cc:	f73f ae09 	bgt.w	8007fe2 <_dtoa_r+0xa52>
 80083d0:	9b12      	ldr	r3, [sp, #72]	; 0x48
 80083d2:	f8cd 801c 	str.w	r8, [sp, #28]
 80083d6:	9308      	str	r3, [sp, #32]
 80083d8:	e511      	b.n	8007dfe <_dtoa_r+0x86e>
 80083da:	f04f 0a02 	mov.w	sl, #2
 80083de:	f7ff ba53 	b.w	8007888 <_dtoa_r+0x2f8>
 80083e2:	4b19      	ldr	r3, [pc, #100]	; (8008448 <_dtoa_r+0xeb8>)
 80083e4:	4819      	ldr	r0, [pc, #100]	; (800844c <_dtoa_r+0xebc>)
 80083e6:	463a      	mov	r2, r7
 80083e8:	f240 21ea 	movw	r1, #746	; 0x2ea
 80083ec:	f002 fa6c 	bl	800a8c8 <__assert_func>
 80083f0:	2600      	movs	r6, #0
 80083f2:	6466      	str	r6, [r4, #68]	; 0x44
 80083f4:	4631      	mov	r1, r6
 80083f6:	4620      	mov	r0, r4
 80083f8:	f000 fcba 	bl	8008d70 <_Balloc>
 80083fc:	9003      	str	r0, [sp, #12]
 80083fe:	b978      	cbnz	r0, 8008420 <_dtoa_r+0xe90>
 8008400:	4b11      	ldr	r3, [pc, #68]	; (8008448 <_dtoa_r+0xeb8>)
 8008402:	4812      	ldr	r0, [pc, #72]	; (800844c <_dtoa_r+0xebc>)
 8008404:	2200      	movs	r2, #0
 8008406:	f44f 71d5 	mov.w	r1, #426	; 0x1aa
 800840a:	f002 fa5d 	bl	800a8c8 <__assert_func>
 800840e:	4b10      	ldr	r3, [pc, #64]	; (8008450 <_dtoa_r+0xec0>)
 8008410:	9303      	str	r3, [sp, #12]
 8008412:	f7ff b8f8 	b.w	8007606 <_dtoa_r+0x76>
 8008416:	f43f ac34 	beq.w	8007c82 <_dtoa_r+0x6f2>
 800841a:	f1c0 003c 	rsb	r0, r0, #60	; 0x3c
 800841e:	e4b7      	b.n	8007d90 <_dtoa_r+0x800>
 8008420:	9b03      	ldr	r3, [sp, #12]
 8008422:	6423      	str	r3, [r4, #64]	; 0x40
 8008424:	2201      	movs	r2, #1
 8008426:	f04f 33ff 	mov.w	r3, #4294967295
 800842a:	9623      	str	r6, [sp, #140]	; 0x8c
 800842c:	9312      	str	r3, [sp, #72]	; 0x48
 800842e:	920c      	str	r2, [sp, #48]	; 0x30
 8008430:	9308      	str	r3, [sp, #32]
 8008432:	f7ff bafd 	b.w	8007a30 <_dtoa_r+0x4a0>
 8008436:	bf00      	nop
 8008438:	0800b5f0 	.word	0x0800b5f0
 800843c:	40240000 	.word	0x40240000
 8008440:	3fe00000 	.word	0x3fe00000
 8008444:	401c0000 	.word	0x401c0000
 8008448:	0800b4b4 	.word	0x0800b4b4
 800844c:	0800b4c8 	.word	0x0800b4c8
 8008450:	0800b4a8 	.word	0x0800b4a8

08008454 <_fclose_r>:
 8008454:	b570      	push	{r4, r5, r6, lr}
 8008456:	2900      	cmp	r1, #0
 8008458:	d04b      	beq.n	80084f2 <_fclose_r+0x9e>
 800845a:	4606      	mov	r6, r0
 800845c:	460c      	mov	r4, r1
 800845e:	b110      	cbz	r0, 8008466 <_fclose_r+0x12>
 8008460:	6b83      	ldr	r3, [r0, #56]	; 0x38
 8008462:	2b00      	cmp	r3, #0
 8008464:	d048      	beq.n	80084f8 <_fclose_r+0xa4>
 8008466:	6e63      	ldr	r3, [r4, #100]	; 0x64
 8008468:	07d8      	lsls	r0, r3, #31
 800846a:	d534      	bpl.n	80084d6 <_fclose_r+0x82>
 800846c:	f9b4 300c 	ldrsh.w	r3, [r4, #12]
 8008470:	2b00      	cmp	r3, #0
 8008472:	d03e      	beq.n	80084f2 <_fclose_r+0x9e>
 8008474:	4621      	mov	r1, r4
 8008476:	4630      	mov	r0, r6
 8008478:	f000 f852 	bl	8008520 <__sflush_r>
 800847c:	6ae3      	ldr	r3, [r4, #44]	; 0x2c
 800847e:	4605      	mov	r5, r0
 8008480:	b133      	cbz	r3, 8008490 <_fclose_r+0x3c>
 8008482:	69e1      	ldr	r1, [r4, #28]
 8008484:	4630      	mov	r0, r6
 8008486:	4798      	blx	r3
 8008488:	2800      	cmp	r0, #0
 800848a:	bfb8      	it	lt
 800848c:	f04f 35ff 	movlt.w	r5, #4294967295
 8008490:	89a3      	ldrh	r3, [r4, #12]
 8008492:	061a      	lsls	r2, r3, #24
 8008494:	d43b      	bmi.n	800850e <_fclose_r+0xba>
 8008496:	6b21      	ldr	r1, [r4, #48]	; 0x30
 8008498:	b141      	cbz	r1, 80084ac <_fclose_r+0x58>
 800849a:	f104 0340 	add.w	r3, r4, #64	; 0x40
 800849e:	4299      	cmp	r1, r3
 80084a0:	d002      	beq.n	80084a8 <_fclose_r+0x54>
 80084a2:	4630      	mov	r0, r6
 80084a4:	f000 f960 	bl	8008768 <_free_r>
 80084a8:	2300      	movs	r3, #0
 80084aa:	6323      	str	r3, [r4, #48]	; 0x30
 80084ac:	6c61      	ldr	r1, [r4, #68]	; 0x44
 80084ae:	b121      	cbz	r1, 80084ba <_fclose_r+0x66>
 80084b0:	4630      	mov	r0, r6
 80084b2:	f000 f959 	bl	8008768 <_free_r>
 80084b6:	2300      	movs	r3, #0
 80084b8:	6463      	str	r3, [r4, #68]	; 0x44
 80084ba:	f7fc fc3b 	bl	8004d34 <__sfp_lock_acquire>
 80084be:	6e63      	ldr	r3, [r4, #100]	; 0x64
 80084c0:	2200      	movs	r2, #0
 80084c2:	07db      	lsls	r3, r3, #31
 80084c4:	81a2      	strh	r2, [r4, #12]
 80084c6:	d527      	bpl.n	8008518 <_fclose_r+0xc4>
 80084c8:	6da0      	ldr	r0, [r4, #88]	; 0x58
 80084ca:	f7fc fc89 	bl	8004de0 <__retarget_lock_close_recursive>
 80084ce:	f7fc fc37 	bl	8004d40 <__sfp_lock_release>
 80084d2:	4628      	mov	r0, r5
 80084d4:	bd70      	pop	{r4, r5, r6, pc}
 80084d6:	89a3      	ldrh	r3, [r4, #12]
 80084d8:	0599      	lsls	r1, r3, #22
 80084da:	d4cb      	bmi.n	8008474 <_fclose_r+0x20>
 80084dc:	6da0      	ldr	r0, [r4, #88]	; 0x58
 80084de:	f7fc fc81 	bl	8004de4 <__retarget_lock_acquire_recursive>
 80084e2:	f9b4 300c 	ldrsh.w	r3, [r4, #12]
 80084e6:	2b00      	cmp	r3, #0
 80084e8:	d1c4      	bne.n	8008474 <_fclose_r+0x20>
 80084ea:	6e65      	ldr	r5, [r4, #100]	; 0x64
 80084ec:	f015 0501 	ands.w	r5, r5, #1
 80084f0:	d008      	beq.n	8008504 <_fclose_r+0xb0>
 80084f2:	2500      	movs	r5, #0
 80084f4:	4628      	mov	r0, r5
 80084f6:	bd70      	pop	{r4, r5, r6, pc}
 80084f8:	f7fc fb96 	bl	8004c28 <__sinit>
 80084fc:	6e63      	ldr	r3, [r4, #100]	; 0x64
 80084fe:	07d8      	lsls	r0, r3, #31
 8008500:	d4b4      	bmi.n	800846c <_fclose_r+0x18>
 8008502:	e7e8      	b.n	80084d6 <_fclose_r+0x82>
 8008504:	6da0      	ldr	r0, [r4, #88]	; 0x58
 8008506:	f7fc fc6f 	bl	8004de8 <__retarget_lock_release_recursive>
 800850a:	4628      	mov	r0, r5
 800850c:	bd70      	pop	{r4, r5, r6, pc}
 800850e:	6921      	ldr	r1, [r4, #16]
 8008510:	4630      	mov	r0, r6
 8008512:	f000 f929 	bl	8008768 <_free_r>
 8008516:	e7be      	b.n	8008496 <_fclose_r+0x42>
 8008518:	6da0      	ldr	r0, [r4, #88]	; 0x58
 800851a:	f7fc fc65 	bl	8004de8 <__retarget_lock_release_recursive>
 800851e:	e7d3      	b.n	80084c8 <_fclose_r+0x74>

08008520 <__sflush_r>:
 8008520:	f9b1 200c 	ldrsh.w	r2, [r1, #12]
 8008524:	b5f8      	push	{r3, r4, r5, r6, r7, lr}
 8008526:	460c      	mov	r4, r1
 8008528:	0711      	lsls	r1, r2, #28
 800852a:	4607      	mov	r7, r0
 800852c:	d442      	bmi.n	80085b4 <__sflush_r+0x94>
 800852e:	6863      	ldr	r3, [r4, #4]
 8008530:	f442 6200 	orr.w	r2, r2, #2048	; 0x800
 8008534:	2b00      	cmp	r3, #0
 8008536:	81a2      	strh	r2, [r4, #12]
 8008538:	dd59      	ble.n	80085ee <__sflush_r+0xce>
 800853a:	6aa5      	ldr	r5, [r4, #40]	; 0x28
 800853c:	2d00      	cmp	r5, #0
 800853e:	d054      	beq.n	80085ea <__sflush_r+0xca>
 8008540:	2300      	movs	r3, #0
 8008542:	683e      	ldr	r6, [r7, #0]
 8008544:	603b      	str	r3, [r7, #0]
 8008546:	b293      	uxth	r3, r2
 8008548:	f412 5280 	ands.w	r2, r2, #4096	; 0x1000
 800854c:	d153      	bne.n	80085f6 <__sflush_r+0xd6>
 800854e:	69e1      	ldr	r1, [r4, #28]
 8008550:	2301      	movs	r3, #1
 8008552:	4638      	mov	r0, r7
 8008554:	47a8      	blx	r5
 8008556:	1c42      	adds	r2, r0, #1
 8008558:	d063      	beq.n	8008622 <__sflush_r+0x102>
 800855a:	89a3      	ldrh	r3, [r4, #12]
 800855c:	6aa5      	ldr	r5, [r4, #40]	; 0x28
 800855e:	075b      	lsls	r3, r3, #29
 8008560:	d505      	bpl.n	800856e <__sflush_r+0x4e>
 8008562:	6863      	ldr	r3, [r4, #4]
 8008564:	1ac0      	subs	r0, r0, r3
 8008566:	6b23      	ldr	r3, [r4, #48]	; 0x30
 8008568:	b10b      	cbz	r3, 800856e <__sflush_r+0x4e>
 800856a:	6be3      	ldr	r3, [r4, #60]	; 0x3c
 800856c:	1ac0      	subs	r0, r0, r3
 800856e:	69e1      	ldr	r1, [r4, #28]
 8008570:	4602      	mov	r2, r0
 8008572:	2300      	movs	r3, #0
 8008574:	4638      	mov	r0, r7
 8008576:	47a8      	blx	r5
 8008578:	1c41      	adds	r1, r0, #1
 800857a:	d13e      	bne.n	80085fa <__sflush_r+0xda>
 800857c:	683b      	ldr	r3, [r7, #0]
 800857e:	2b00      	cmp	r3, #0
 8008580:	d03b      	beq.n	80085fa <__sflush_r+0xda>
 8008582:	2b1d      	cmp	r3, #29
 8008584:	d001      	beq.n	800858a <__sflush_r+0x6a>
 8008586:	2b16      	cmp	r3, #22
 8008588:	d152      	bne.n	8008630 <__sflush_r+0x110>
 800858a:	89a3      	ldrh	r3, [r4, #12]
 800858c:	6922      	ldr	r2, [r4, #16]
 800858e:	6022      	str	r2, [r4, #0]
 8008590:	f423 6300 	bic.w	r3, r3, #2048	; 0x800
 8008594:	2100      	movs	r1, #0
 8008596:	6061      	str	r1, [r4, #4]
 8008598:	81a3      	strh	r3, [r4, #12]
 800859a:	6b21      	ldr	r1, [r4, #48]	; 0x30
 800859c:	603e      	str	r6, [r7, #0]
 800859e:	b321      	cbz	r1, 80085ea <__sflush_r+0xca>
 80085a0:	f104 0340 	add.w	r3, r4, #64	; 0x40
 80085a4:	4299      	cmp	r1, r3
 80085a6:	d002      	beq.n	80085ae <__sflush_r+0x8e>
 80085a8:	4638      	mov	r0, r7
 80085aa:	f000 f8dd 	bl	8008768 <_free_r>
 80085ae:	2000      	movs	r0, #0
 80085b0:	6320      	str	r0, [r4, #48]	; 0x30
 80085b2:	bdf8      	pop	{r3, r4, r5, r6, r7, pc}
 80085b4:	6926      	ldr	r6, [r4, #16]
 80085b6:	b1c6      	cbz	r6, 80085ea <__sflush_r+0xca>
 80085b8:	b293      	uxth	r3, r2
 80085ba:	6825      	ldr	r5, [r4, #0]
 80085bc:	6026      	str	r6, [r4, #0]
 80085be:	079a      	lsls	r2, r3, #30
 80085c0:	bf0c      	ite	eq
 80085c2:	6963      	ldreq	r3, [r4, #20]
 80085c4:	2300      	movne	r3, #0
 80085c6:	1bad      	subs	r5, r5, r6
 80085c8:	60a3      	str	r3, [r4, #8]
 80085ca:	e00c      	b.n	80085e6 <__sflush_r+0xc6>
 80085cc:	f8d4 c024 	ldr.w	ip, [r4, #36]	; 0x24
 80085d0:	69e1      	ldr	r1, [r4, #28]
 80085d2:	462b      	mov	r3, r5
 80085d4:	4632      	mov	r2, r6
 80085d6:	4638      	mov	r0, r7
 80085d8:	47e0      	blx	ip
 80085da:	f1b0 0c00 	subs.w	ip, r0, #0
 80085de:	eba5 050c 	sub.w	r5, r5, ip
 80085e2:	4466      	add	r6, ip
 80085e4:	dd16      	ble.n	8008614 <__sflush_r+0xf4>
 80085e6:	2d00      	cmp	r5, #0
 80085e8:	dcf0      	bgt.n	80085cc <__sflush_r+0xac>
 80085ea:	2000      	movs	r0, #0
 80085ec:	bdf8      	pop	{r3, r4, r5, r6, r7, pc}
 80085ee:	6be3      	ldr	r3, [r4, #60]	; 0x3c
 80085f0:	2b00      	cmp	r3, #0
 80085f2:	dca2      	bgt.n	800853a <__sflush_r+0x1a>
 80085f4:	e7f9      	b.n	80085ea <__sflush_r+0xca>
 80085f6:	6d20      	ldr	r0, [r4, #80]	; 0x50
 80085f8:	e7b1      	b.n	800855e <__sflush_r+0x3e>
 80085fa:	f9b4 300c 	ldrsh.w	r3, [r4, #12]
 80085fe:	6922      	ldr	r2, [r4, #16]
 8008600:	6022      	str	r2, [r4, #0]
 8008602:	f423 6300 	bic.w	r3, r3, #2048	; 0x800
 8008606:	81a3      	strh	r3, [r4, #12]
 8008608:	2200      	movs	r2, #0
 800860a:	04db      	lsls	r3, r3, #19
 800860c:	6062      	str	r2, [r4, #4]
 800860e:	d5c4      	bpl.n	800859a <__sflush_r+0x7a>
 8008610:	6520      	str	r0, [r4, #80]	; 0x50
 8008612:	e7c2      	b.n	800859a <__sflush_r+0x7a>
 8008614:	89a3      	ldrh	r3, [r4, #12]
 8008616:	f043 0340 	orr.w	r3, r3, #64	; 0x40
 800861a:	f04f 30ff 	mov.w	r0, #4294967295
 800861e:	81a3      	strh	r3, [r4, #12]
 8008620:	bdf8      	pop	{r3, r4, r5, r6, r7, pc}
 8008622:	683b      	ldr	r3, [r7, #0]
 8008624:	2b00      	cmp	r3, #0
 8008626:	d098      	beq.n	800855a <__sflush_r+0x3a>
 8008628:	2b1d      	cmp	r3, #29
 800862a:	d006      	beq.n	800863a <__sflush_r+0x11a>
 800862c:	2b16      	cmp	r3, #22
 800862e:	d004      	beq.n	800863a <__sflush_r+0x11a>
 8008630:	89a3      	ldrh	r3, [r4, #12]
 8008632:	f043 0340 	orr.w	r3, r3, #64	; 0x40
 8008636:	81a3      	strh	r3, [r4, #12]
 8008638:	bdf8      	pop	{r3, r4, r5, r6, r7, pc}
 800863a:	603e      	str	r6, [r7, #0]
 800863c:	e7d5      	b.n	80085ea <__sflush_r+0xca>
 800863e:	bf00      	nop

08008640 <_fflush_r>:
 8008640:	b538      	push	{r3, r4, r5, lr}
 8008642:	460c      	mov	r4, r1
 8008644:	4605      	mov	r5, r0
 8008646:	b108      	cbz	r0, 800864c <_fflush_r+0xc>
 8008648:	6b83      	ldr	r3, [r0, #56]	; 0x38
 800864a:	b1a3      	cbz	r3, 8008676 <_fflush_r+0x36>
 800864c:	f9b4 000c 	ldrsh.w	r0, [r4, #12]
 8008650:	b1b8      	cbz	r0, 8008682 <_fflush_r+0x42>
 8008652:	6e63      	ldr	r3, [r4, #100]	; 0x64
 8008654:	07db      	lsls	r3, r3, #31
 8008656:	d401      	bmi.n	800865c <_fflush_r+0x1c>
 8008658:	0581      	lsls	r1, r0, #22
 800865a:	d515      	bpl.n	8008688 <_fflush_r+0x48>
 800865c:	4628      	mov	r0, r5
 800865e:	4621      	mov	r1, r4
 8008660:	f7ff ff5e 	bl	8008520 <__sflush_r>
 8008664:	6e63      	ldr	r3, [r4, #100]	; 0x64
 8008666:	07da      	lsls	r2, r3, #31
 8008668:	4605      	mov	r5, r0
 800866a:	d402      	bmi.n	8008672 <_fflush_r+0x32>
 800866c:	89a3      	ldrh	r3, [r4, #12]
 800866e:	059b      	lsls	r3, r3, #22
 8008670:	d50e      	bpl.n	8008690 <_fflush_r+0x50>
 8008672:	4628      	mov	r0, r5
 8008674:	bd38      	pop	{r3, r4, r5, pc}
 8008676:	f7fc fad7 	bl	8004c28 <__sinit>
 800867a:	f9b4 000c 	ldrsh.w	r0, [r4, #12]
 800867e:	2800      	cmp	r0, #0
 8008680:	d1e7      	bne.n	8008652 <_fflush_r+0x12>
 8008682:	4605      	mov	r5, r0
 8008684:	4628      	mov	r0, r5
 8008686:	bd38      	pop	{r3, r4, r5, pc}
 8008688:	6da0      	ldr	r0, [r4, #88]	; 0x58
 800868a:	f7fc fbab 	bl	8004de4 <__retarget_lock_acquire_recursive>
 800868e:	e7e5      	b.n	800865c <_fflush_r+0x1c>
 8008690:	6da0      	ldr	r0, [r4, #88]	; 0x58
 8008692:	f7fc fba9 	bl	8004de8 <__retarget_lock_release_recursive>
 8008696:	4628      	mov	r0, r5
 8008698:	bd38      	pop	{r3, r4, r5, pc}
 800869a:	bf00      	nop

0800869c <__libc_fini_array>:
 800869c:	b538      	push	{r3, r4, r5, lr}
 800869e:	4b08      	ldr	r3, [pc, #32]	; (80086c0 <__libc_fini_array+0x24>)
 80086a0:	4d08      	ldr	r5, [pc, #32]	; (80086c4 <__libc_fini_array+0x28>)
 80086a2:	1b5b      	subs	r3, r3, r5
 80086a4:	109c      	asrs	r4, r3, #2
 80086a6:	d007      	beq.n	80086b8 <__libc_fini_array+0x1c>
 80086a8:	3b04      	subs	r3, #4
 80086aa:	441d      	add	r5, r3
 80086ac:	3c01      	subs	r4, #1
 80086ae:	f855 3904 	ldr.w	r3, [r5], #-4
 80086b2:	4798      	blx	r3
 80086b4:	2c00      	cmp	r4, #0
 80086b6:	d1f9      	bne.n	80086ac <__libc_fini_array+0x10>
 80086b8:	e8bd 4038 	ldmia.w	sp!, {r3, r4, r5, lr}
 80086bc:	f002 bb1e 	b.w	800acfc <_fini>
 80086c0:	0800b748 	.word	0x0800b748
 80086c4:	0800b744 	.word	0x0800b744

080086c8 <_malloc_trim_r>:
 80086c8:	b5f8      	push	{r3, r4, r5, r6, r7, lr}
 80086ca:	4f24      	ldr	r7, [pc, #144]	; (800875c <_malloc_trim_r+0x94>)
 80086cc:	460c      	mov	r4, r1
 80086ce:	4606      	mov	r6, r0
 80086d0:	f7fc ff4e 	bl	8005570 <__malloc_lock>
 80086d4:	68ba      	ldr	r2, [r7, #8]
 80086d6:	6855      	ldr	r5, [r2, #4]
 80086d8:	f5c4 637e 	rsb	r3, r4, #4064	; 0xfe0
 80086dc:	330f      	adds	r3, #15
 80086de:	f025 0503 	bic.w	r5, r5, #3
 80086e2:	442b      	add	r3, r5
 80086e4:	f423 637f 	bic.w	r3, r3, #4080	; 0xff0
 80086e8:	f023 030f 	bic.w	r3, r3, #15
 80086ec:	f5a3 5480 	sub.w	r4, r3, #4096	; 0x1000
 80086f0:	f5b4 5f80 	cmp.w	r4, #4096	; 0x1000
 80086f4:	db07      	blt.n	8008706 <_malloc_trim_r+0x3e>
 80086f6:	2100      	movs	r1, #0
 80086f8:	4630      	mov	r0, r6
 80086fa:	f7fc ffaf 	bl	800565c <_sbrk_r>
 80086fe:	68bb      	ldr	r3, [r7, #8]
 8008700:	442b      	add	r3, r5
 8008702:	4298      	cmp	r0, r3
 8008704:	d004      	beq.n	8008710 <_malloc_trim_r+0x48>
 8008706:	4630      	mov	r0, r6
 8008708:	f7fc ff38 	bl	800557c <__malloc_unlock>
 800870c:	2000      	movs	r0, #0
 800870e:	bdf8      	pop	{r3, r4, r5, r6, r7, pc}
 8008710:	4261      	negs	r1, r4
 8008712:	4630      	mov	r0, r6
 8008714:	f7fc ffa2 	bl	800565c <_sbrk_r>
 8008718:	3001      	adds	r0, #1
 800871a:	d00d      	beq.n	8008738 <_malloc_trim_r+0x70>
 800871c:	4a10      	ldr	r2, [pc, #64]	; (8008760 <_malloc_trim_r+0x98>)
 800871e:	68bb      	ldr	r3, [r7, #8]
 8008720:	1b2d      	subs	r5, r5, r4
 8008722:	f045 0501 	orr.w	r5, r5, #1
 8008726:	605d      	str	r5, [r3, #4]
 8008728:	6813      	ldr	r3, [r2, #0]
 800872a:	4630      	mov	r0, r6
 800872c:	1b1b      	subs	r3, r3, r4
 800872e:	6013      	str	r3, [r2, #0]
 8008730:	f7fc ff24 	bl	800557c <__malloc_unlock>
 8008734:	2001      	movs	r0, #1
 8008736:	bdf8      	pop	{r3, r4, r5, r6, r7, pc}
 8008738:	2100      	movs	r1, #0
 800873a:	4630      	mov	r0, r6
 800873c:	f7fc ff8e 	bl	800565c <_sbrk_r>
 8008740:	68ba      	ldr	r2, [r7, #8]
 8008742:	1a83      	subs	r3, r0, r2
 8008744:	2b0f      	cmp	r3, #15
 8008746:	ddde      	ble.n	8008706 <_malloc_trim_r+0x3e>
 8008748:	f043 0301 	orr.w	r3, r3, #1
 800874c:	6053      	str	r3, [r2, #4]
 800874e:	4b05      	ldr	r3, [pc, #20]	; (8008764 <_malloc_trim_r+0x9c>)
 8008750:	4903      	ldr	r1, [pc, #12]	; (8008760 <_malloc_trim_r+0x98>)
 8008752:	681b      	ldr	r3, [r3, #0]
 8008754:	1ac0      	subs	r0, r0, r3
 8008756:	6008      	str	r0, [r1, #0]
 8008758:	e7d5      	b.n	8008706 <_malloc_trim_r+0x3e>
 800875a:	bf00      	nop
 800875c:	10000430 	.word	0x10000430
 8008760:	10001a1c 	.word	0x10001a1c
 8008764:	10000838 	.word	0x10000838

08008768 <_free_r>:
 8008768:	2900      	cmp	r1, #0
 800876a:	d061      	beq.n	8008830 <_free_r+0xc8>
 800876c:	b5f8      	push	{r3, r4, r5, r6, r7, lr}
 800876e:	460c      	mov	r4, r1
 8008770:	4606      	mov	r6, r0
 8008772:	f7fc fefd 	bl	8005570 <__malloc_lock>
 8008776:	f854 2c04 	ldr.w	r2, [r4, #-4]
 800877a:	4f7b      	ldr	r7, [pc, #492]	; (8008968 <_free_r+0x200>)
 800877c:	f1a4 0508 	sub.w	r5, r4, #8
 8008780:	f022 0101 	bic.w	r1, r2, #1
 8008784:	eb05 0c01 	add.w	ip, r5, r1
 8008788:	68b8      	ldr	r0, [r7, #8]
 800878a:	f8dc 3004 	ldr.w	r3, [ip, #4]
 800878e:	4560      	cmp	r0, ip
 8008790:	f023 0303 	bic.w	r3, r3, #3
 8008794:	f000 808b 	beq.w	80088ae <_free_r+0x146>
 8008798:	07d2      	lsls	r2, r2, #31
 800879a:	f8cc 3004 	str.w	r3, [ip, #4]
 800879e:	d432      	bmi.n	8008806 <_free_r+0x9e>
 80087a0:	f854 2c08 	ldr.w	r2, [r4, #-8]
 80087a4:	1aad      	subs	r5, r5, r2
 80087a6:	4411      	add	r1, r2
 80087a8:	68aa      	ldr	r2, [r5, #8]
 80087aa:	f107 0008 	add.w	r0, r7, #8
 80087ae:	4282      	cmp	r2, r0
 80087b0:	d06a      	beq.n	8008888 <_free_r+0x120>
 80087b2:	eb0c 0403 	add.w	r4, ip, r3
 80087b6:	f8d4 e004 	ldr.w	lr, [r4, #4]
 80087ba:	68ec      	ldr	r4, [r5, #12]
 80087bc:	60d4      	str	r4, [r2, #12]
 80087be:	f01e 0f01 	tst.w	lr, #1
 80087c2:	60a2      	str	r2, [r4, #8]
 80087c4:	f000 8097 	beq.w	80088f6 <_free_r+0x18e>
 80087c8:	f041 0301 	orr.w	r3, r1, #1
 80087cc:	606b      	str	r3, [r5, #4]
 80087ce:	f8cc 1000 	str.w	r1, [ip]
 80087d2:	f5b1 7f00 	cmp.w	r1, #512	; 0x200
 80087d6:	d235      	bcs.n	8008844 <_free_r+0xdc>
 80087d8:	687a      	ldr	r2, [r7, #4]
 80087da:	08cb      	lsrs	r3, r1, #3
 80087dc:	0948      	lsrs	r0, r1, #5
 80087de:	2101      	movs	r1, #1
 80087e0:	3301      	adds	r3, #1
 80087e2:	4081      	lsls	r1, r0
 80087e4:	4311      	orrs	r1, r2
 80087e6:	6079      	str	r1, [r7, #4]
 80087e8:	eb07 02c3 	add.w	r2, r7, r3, lsl #3
 80087ec:	f857 1033 	ldr.w	r1, [r7, r3, lsl #3]
 80087f0:	3a08      	subs	r2, #8
 80087f2:	e9c5 1202 	strd	r1, r2, [r5, #8]
 80087f6:	f847 5033 	str.w	r5, [r7, r3, lsl #3]
 80087fa:	60cd      	str	r5, [r1, #12]
 80087fc:	4630      	mov	r0, r6
 80087fe:	e8bd 40f8 	ldmia.w	sp!, {r3, r4, r5, r6, r7, lr}
 8008802:	f7fc bebb 	b.w	800557c <__malloc_unlock>
 8008806:	eb0c 0203 	add.w	r2, ip, r3
 800880a:	6852      	ldr	r2, [r2, #4]
 800880c:	07d0      	lsls	r0, r2, #31
 800880e:	d410      	bmi.n	8008832 <_free_r+0xca>
 8008810:	4419      	add	r1, r3
 8008812:	f107 0008 	add.w	r0, r7, #8
 8008816:	f8dc 3008 	ldr.w	r3, [ip, #8]
 800881a:	4283      	cmp	r3, r0
 800881c:	d073      	beq.n	8008906 <_free_r+0x19e>
 800881e:	f8dc 200c 	ldr.w	r2, [ip, #12]
 8008822:	60da      	str	r2, [r3, #12]
 8008824:	6093      	str	r3, [r2, #8]
 8008826:	f041 0301 	orr.w	r3, r1, #1
 800882a:	606b      	str	r3, [r5, #4]
 800882c:	5069      	str	r1, [r5, r1]
 800882e:	e7d0      	b.n	80087d2 <_free_r+0x6a>
 8008830:	4770      	bx	lr
 8008832:	f041 0301 	orr.w	r3, r1, #1
 8008836:	f5b1 7f00 	cmp.w	r1, #512	; 0x200
 800883a:	f844 3c04 	str.w	r3, [r4, #-4]
 800883e:	f8cc 1000 	str.w	r1, [ip]
 8008842:	d3c9      	bcc.n	80087d8 <_free_r+0x70>
 8008844:	f5b1 6f20 	cmp.w	r1, #2560	; 0xa00
 8008848:	ea4f 2351 	mov.w	r3, r1, lsr #9
 800884c:	d248      	bcs.n	80088e0 <_free_r+0x178>
 800884e:	098b      	lsrs	r3, r1, #6
 8008850:	f103 0039 	add.w	r0, r3, #57	; 0x39
 8008854:	f103 0238 	add.w	r2, r3, #56	; 0x38
 8008858:	00c3      	lsls	r3, r0, #3
 800885a:	18f8      	adds	r0, r7, r3
 800885c:	58fb      	ldr	r3, [r7, r3]
 800885e:	3808      	subs	r0, #8
 8008860:	4298      	cmp	r0, r3
 8008862:	d059      	beq.n	8008918 <_free_r+0x1b0>
 8008864:	685a      	ldr	r2, [r3, #4]
 8008866:	f022 0203 	bic.w	r2, r2, #3
 800886a:	428a      	cmp	r2, r1
 800886c:	d902      	bls.n	8008874 <_free_r+0x10c>
 800886e:	689b      	ldr	r3, [r3, #8]
 8008870:	4298      	cmp	r0, r3
 8008872:	d1f7      	bne.n	8008864 <_free_r+0xfc>
 8008874:	68d8      	ldr	r0, [r3, #12]
 8008876:	e9c5 3002 	strd	r3, r0, [r5, #8]
 800887a:	6085      	str	r5, [r0, #8]
 800887c:	60dd      	str	r5, [r3, #12]
 800887e:	4630      	mov	r0, r6
 8008880:	e8bd 40f8 	ldmia.w	sp!, {r3, r4, r5, r6, r7, lr}
 8008884:	f7fc be7a 	b.w	800557c <__malloc_unlock>
 8008888:	eb0c 0203 	add.w	r2, ip, r3
 800888c:	6852      	ldr	r2, [r2, #4]
 800888e:	07d2      	lsls	r2, r2, #31
 8008890:	d463      	bmi.n	800895a <_free_r+0x1f2>
 8008892:	440b      	add	r3, r1
 8008894:	e9dc 1202 	ldrd	r1, r2, [ip, #8]
 8008898:	60ca      	str	r2, [r1, #12]
 800889a:	6091      	str	r1, [r2, #8]
 800889c:	f043 0201 	orr.w	r2, r3, #1
 80088a0:	606a      	str	r2, [r5, #4]
 80088a2:	4630      	mov	r0, r6
 80088a4:	50eb      	str	r3, [r5, r3]
 80088a6:	e8bd 40f8 	ldmia.w	sp!, {r3, r4, r5, r6, r7, lr}
 80088aa:	f7fc be67 	b.w	800557c <__malloc_unlock>
 80088ae:	440b      	add	r3, r1
 80088b0:	07d1      	lsls	r1, r2, #31
 80088b2:	d407      	bmi.n	80088c4 <_free_r+0x15c>
 80088b4:	f854 2c08 	ldr.w	r2, [r4, #-8]
 80088b8:	1aad      	subs	r5, r5, r2
 80088ba:	4413      	add	r3, r2
 80088bc:	e9d5 1202 	ldrd	r1, r2, [r5, #8]
 80088c0:	60ca      	str	r2, [r1, #12]
 80088c2:	6091      	str	r1, [r2, #8]
 80088c4:	f043 0201 	orr.w	r2, r3, #1
 80088c8:	606a      	str	r2, [r5, #4]
 80088ca:	4a28      	ldr	r2, [pc, #160]	; (800896c <_free_r+0x204>)
 80088cc:	60bd      	str	r5, [r7, #8]
 80088ce:	6812      	ldr	r2, [r2, #0]
 80088d0:	429a      	cmp	r2, r3
 80088d2:	d893      	bhi.n	80087fc <_free_r+0x94>
 80088d4:	4b26      	ldr	r3, [pc, #152]	; (8008970 <_free_r+0x208>)
 80088d6:	4630      	mov	r0, r6
 80088d8:	6819      	ldr	r1, [r3, #0]
 80088da:	f7ff fef5 	bl	80086c8 <_malloc_trim_r>
 80088de:	e78d      	b.n	80087fc <_free_r+0x94>
 80088e0:	2b14      	cmp	r3, #20
 80088e2:	d90a      	bls.n	80088fa <_free_r+0x192>
 80088e4:	2b54      	cmp	r3, #84	; 0x54
 80088e6:	d81f      	bhi.n	8008928 <_free_r+0x1c0>
 80088e8:	0b0b      	lsrs	r3, r1, #12
 80088ea:	f103 006f 	add.w	r0, r3, #111	; 0x6f
 80088ee:	f103 026e 	add.w	r2, r3, #110	; 0x6e
 80088f2:	00c3      	lsls	r3, r0, #3
 80088f4:	e7b1      	b.n	800885a <_free_r+0xf2>
 80088f6:	4419      	add	r1, r3
 80088f8:	e78d      	b.n	8008816 <_free_r+0xae>
 80088fa:	f103 005c 	add.w	r0, r3, #92	; 0x5c
 80088fe:	f103 025b 	add.w	r2, r3, #91	; 0x5b
 8008902:	00c3      	lsls	r3, r0, #3
 8008904:	e7a9      	b.n	800885a <_free_r+0xf2>
 8008906:	f041 0301 	orr.w	r3, r1, #1
 800890a:	e9c7 5504 	strd	r5, r5, [r7, #16]
 800890e:	e9c5 0002 	strd	r0, r0, [r5, #8]
 8008912:	606b      	str	r3, [r5, #4]
 8008914:	5069      	str	r1, [r5, r1]
 8008916:	e771      	b.n	80087fc <_free_r+0x94>
 8008918:	6879      	ldr	r1, [r7, #4]
 800891a:	1092      	asrs	r2, r2, #2
 800891c:	2401      	movs	r4, #1
 800891e:	fa04 f202 	lsl.w	r2, r4, r2
 8008922:	430a      	orrs	r2, r1
 8008924:	607a      	str	r2, [r7, #4]
 8008926:	e7a6      	b.n	8008876 <_free_r+0x10e>
 8008928:	f5b3 7faa 	cmp.w	r3, #340	; 0x154
 800892c:	d806      	bhi.n	800893c <_free_r+0x1d4>
 800892e:	0bcb      	lsrs	r3, r1, #15
 8008930:	f103 0078 	add.w	r0, r3, #120	; 0x78
 8008934:	f103 0277 	add.w	r2, r3, #119	; 0x77
 8008938:	00c3      	lsls	r3, r0, #3
 800893a:	e78e      	b.n	800885a <_free_r+0xf2>
 800893c:	f240 5254 	movw	r2, #1364	; 0x554
 8008940:	4293      	cmp	r3, r2
 8008942:	d806      	bhi.n	8008952 <_free_r+0x1ea>
 8008944:	0c8b      	lsrs	r3, r1, #18
 8008946:	f103 007d 	add.w	r0, r3, #125	; 0x7d
 800894a:	f103 027c 	add.w	r2, r3, #124	; 0x7c
 800894e:	00c3      	lsls	r3, r0, #3
 8008950:	e783      	b.n	800885a <_free_r+0xf2>
 8008952:	f44f 737e 	mov.w	r3, #1016	; 0x3f8
 8008956:	227e      	movs	r2, #126	; 0x7e
 8008958:	e77f      	b.n	800885a <_free_r+0xf2>
 800895a:	f041 0301 	orr.w	r3, r1, #1
 800895e:	606b      	str	r3, [r5, #4]
 8008960:	f8cc 1000 	str.w	r1, [ip]
 8008964:	e74a      	b.n	80087fc <_free_r+0x94>
 8008966:	bf00      	nop
 8008968:	10000430 	.word	0x10000430
 800896c:	1000083c 	.word	0x1000083c
 8008970:	10001a4c 	.word	0x10001a4c

08008974 <__sfvwrite_r>:
 8008974:	6893      	ldr	r3, [r2, #8]
 8008976:	2b00      	cmp	r3, #0
 8008978:	f000 8081 	beq.w	8008a7e <__sfvwrite_r+0x10a>
 800897c:	e92d 4ff0 	stmdb	sp!, {r4, r5, r6, r7, r8, r9, sl, fp, lr}
 8008980:	f9b1 300c 	ldrsh.w	r3, [r1, #12]
 8008984:	460c      	mov	r4, r1
 8008986:	0719      	lsls	r1, r3, #28
 8008988:	4680      	mov	r8, r0
 800898a:	b083      	sub	sp, #12
 800898c:	4617      	mov	r7, r2
 800898e:	b298      	uxth	r0, r3
 8008990:	d523      	bpl.n	80089da <__sfvwrite_r+0x66>
 8008992:	6923      	ldr	r3, [r4, #16]
 8008994:	b30b      	cbz	r3, 80089da <__sfvwrite_r+0x66>
 8008996:	f010 0302 	ands.w	r3, r0, #2
 800899a:	683d      	ldr	r5, [r7, #0]
 800899c:	d02b      	beq.n	80089f6 <__sfvwrite_r+0x82>
 800899e:	f04f 0a00 	mov.w	sl, #0
 80089a2:	f8df b2b4 	ldr.w	fp, [pc, #692]	; 8008c58 <__sfvwrite_r+0x2e4>
 80089a6:	4656      	mov	r6, sl
 80089a8:	455e      	cmp	r6, fp
 80089aa:	4633      	mov	r3, r6
 80089ac:	4652      	mov	r2, sl
 80089ae:	bf28      	it	cs
 80089b0:	465b      	movcs	r3, fp
 80089b2:	4640      	mov	r0, r8
 80089b4:	2e00      	cmp	r6, #0
 80089b6:	d04f      	beq.n	8008a58 <__sfvwrite_r+0xe4>
 80089b8:	69e1      	ldr	r1, [r4, #28]
 80089ba:	f8d4 c024 	ldr.w	ip, [r4, #36]	; 0x24
 80089be:	47e0      	blx	ip
 80089c0:	2800      	cmp	r0, #0
 80089c2:	dd52      	ble.n	8008a6a <__sfvwrite_r+0xf6>
 80089c4:	68bb      	ldr	r3, [r7, #8]
 80089c6:	1a1b      	subs	r3, r3, r0
 80089c8:	4482      	add	sl, r0
 80089ca:	1a36      	subs	r6, r6, r0
 80089cc:	60bb      	str	r3, [r7, #8]
 80089ce:	2b00      	cmp	r3, #0
 80089d0:	d1ea      	bne.n	80089a8 <__sfvwrite_r+0x34>
 80089d2:	2000      	movs	r0, #0
 80089d4:	b003      	add	sp, #12
 80089d6:	e8bd 8ff0 	ldmia.w	sp!, {r4, r5, r6, r7, r8, r9, sl, fp, pc}
 80089da:	4621      	mov	r1, r4
 80089dc:	4640      	mov	r0, r8
 80089de:	f7fe fc55 	bl	800728c <__swsetup_r>
 80089e2:	2800      	cmp	r0, #0
 80089e4:	f040 8134 	bne.w	8008c50 <__sfvwrite_r+0x2dc>
 80089e8:	f9b4 300c 	ldrsh.w	r3, [r4, #12]
 80089ec:	683d      	ldr	r5, [r7, #0]
 80089ee:	b298      	uxth	r0, r3
 80089f0:	f010 0302 	ands.w	r3, r0, #2
 80089f4:	d1d3      	bne.n	800899e <__sfvwrite_r+0x2a>
 80089f6:	f010 0901 	ands.w	r9, r0, #1
 80089fa:	d142      	bne.n	8008a82 <__sfvwrite_r+0x10e>
 80089fc:	464e      	mov	r6, r9
 80089fe:	b33e      	cbz	r6, 8008a50 <__sfvwrite_r+0xdc>
 8008a00:	0582      	lsls	r2, r0, #22
 8008a02:	f8d4 b008 	ldr.w	fp, [r4, #8]
 8008a06:	f140 8081 	bpl.w	8008b0c <__sfvwrite_r+0x198>
 8008a0a:	45b3      	cmp	fp, r6
 8008a0c:	465a      	mov	r2, fp
 8008a0e:	f200 80b1 	bhi.w	8008b74 <__sfvwrite_r+0x200>
 8008a12:	f410 6f90 	tst.w	r0, #1152	; 0x480
 8008a16:	f040 80be 	bne.w	8008b96 <__sfvwrite_r+0x222>
 8008a1a:	6820      	ldr	r0, [r4, #0]
 8008a1c:	9201      	str	r2, [sp, #4]
 8008a1e:	4649      	mov	r1, r9
 8008a20:	f7fc fcd8 	bl	80053d4 <memmove>
 8008a24:	68a3      	ldr	r3, [r4, #8]
 8008a26:	6821      	ldr	r1, [r4, #0]
 8008a28:	9a01      	ldr	r2, [sp, #4]
 8008a2a:	eba3 030b 	sub.w	r3, r3, fp
 8008a2e:	440a      	add	r2, r1
 8008a30:	46b2      	mov	sl, r6
 8008a32:	60a3      	str	r3, [r4, #8]
 8008a34:	6022      	str	r2, [r4, #0]
 8008a36:	2600      	movs	r6, #0
 8008a38:	68b8      	ldr	r0, [r7, #8]
 8008a3a:	eba0 000a 	sub.w	r0, r0, sl
 8008a3e:	44d1      	add	r9, sl
 8008a40:	60b8      	str	r0, [r7, #8]
 8008a42:	2800      	cmp	r0, #0
 8008a44:	d0c5      	beq.n	80089d2 <__sfvwrite_r+0x5e>
 8008a46:	f9b4 000c 	ldrsh.w	r0, [r4, #12]
 8008a4a:	b280      	uxth	r0, r0
 8008a4c:	2e00      	cmp	r6, #0
 8008a4e:	d1d7      	bne.n	8008a00 <__sfvwrite_r+0x8c>
 8008a50:	e9d5 9600 	ldrd	r9, r6, [r5]
 8008a54:	3508      	adds	r5, #8
 8008a56:	e7d2      	b.n	80089fe <__sfvwrite_r+0x8a>
 8008a58:	e9d5 a600 	ldrd	sl, r6, [r5]
 8008a5c:	3508      	adds	r5, #8
 8008a5e:	e7a3      	b.n	80089a8 <__sfvwrite_r+0x34>
 8008a60:	4621      	mov	r1, r4
 8008a62:	4640      	mov	r0, r8
 8008a64:	f7ff fdec 	bl	8008640 <_fflush_r>
 8008a68:	b380      	cbz	r0, 8008acc <__sfvwrite_r+0x158>
 8008a6a:	f9b4 300c 	ldrsh.w	r3, [r4, #12]
 8008a6e:	f043 0340 	orr.w	r3, r3, #64	; 0x40
 8008a72:	f04f 30ff 	mov.w	r0, #4294967295
 8008a76:	81a3      	strh	r3, [r4, #12]
 8008a78:	b003      	add	sp, #12
 8008a7a:	e8bd 8ff0 	ldmia.w	sp!, {r4, r5, r6, r7, r8, r9, sl, fp, pc}
 8008a7e:	2000      	movs	r0, #0
 8008a80:	4770      	bx	lr
 8008a82:	461e      	mov	r6, r3
 8008a84:	46aa      	mov	sl, r5
 8008a86:	4699      	mov	r9, r3
 8008a88:	4618      	mov	r0, r3
 8008a8a:	461d      	mov	r5, r3
 8008a8c:	b356      	cbz	r6, 8008ae4 <__sfvwrite_r+0x170>
 8008a8e:	b388      	cbz	r0, 8008af4 <__sfvwrite_r+0x180>
 8008a90:	464a      	mov	r2, r9
 8008a92:	e9d4 1304 	ldrd	r1, r3, [r4, #16]
 8008a96:	6820      	ldr	r0, [r4, #0]
 8008a98:	42b2      	cmp	r2, r6
 8008a9a:	bf28      	it	cs
 8008a9c:	4632      	movcs	r2, r6
 8008a9e:	4288      	cmp	r0, r1
 8008aa0:	d905      	bls.n	8008aae <__sfvwrite_r+0x13a>
 8008aa2:	68a1      	ldr	r1, [r4, #8]
 8008aa4:	eb03 0b01 	add.w	fp, r3, r1
 8008aa8:	455a      	cmp	r2, fp
 8008aaa:	f300 80a7 	bgt.w	8008bfc <__sfvwrite_r+0x288>
 8008aae:	4293      	cmp	r3, r2
 8008ab0:	dc64      	bgt.n	8008b7c <__sfvwrite_r+0x208>
 8008ab2:	69e1      	ldr	r1, [r4, #28]
 8008ab4:	f8d4 c024 	ldr.w	ip, [r4, #36]	; 0x24
 8008ab8:	462a      	mov	r2, r5
 8008aba:	4640      	mov	r0, r8
 8008abc:	47e0      	blx	ip
 8008abe:	f1b0 0b00 	subs.w	fp, r0, #0
 8008ac2:	ddd2      	ble.n	8008a6a <__sfvwrite_r+0xf6>
 8008ac4:	ebb9 090b 	subs.w	r9, r9, fp
 8008ac8:	d0ca      	beq.n	8008a60 <__sfvwrite_r+0xec>
 8008aca:	2001      	movs	r0, #1
 8008acc:	68bb      	ldr	r3, [r7, #8]
 8008ace:	eba3 030b 	sub.w	r3, r3, fp
 8008ad2:	445d      	add	r5, fp
 8008ad4:	eba6 060b 	sub.w	r6, r6, fp
 8008ad8:	60bb      	str	r3, [r7, #8]
 8008ada:	2b00      	cmp	r3, #0
 8008adc:	f43f af79 	beq.w	80089d2 <__sfvwrite_r+0x5e>
 8008ae0:	2e00      	cmp	r6, #0
 8008ae2:	d1d4      	bne.n	8008a8e <__sfvwrite_r+0x11a>
 8008ae4:	f10a 0308 	add.w	r3, sl, #8
 8008ae8:	e953 5602 	ldrd	r5, r6, [r3, #-8]
 8008aec:	469a      	mov	sl, r3
 8008aee:	3308      	adds	r3, #8
 8008af0:	2e00      	cmp	r6, #0
 8008af2:	d0f9      	beq.n	8008ae8 <__sfvwrite_r+0x174>
 8008af4:	4632      	mov	r2, r6
 8008af6:	210a      	movs	r1, #10
 8008af8:	4628      	mov	r0, r5
 8008afa:	f7f7 fc91 	bl	8000420 <memchr>
 8008afe:	2800      	cmp	r0, #0
 8008b00:	f000 809d 	beq.w	8008c3e <__sfvwrite_r+0x2ca>
 8008b04:	3001      	adds	r0, #1
 8008b06:	eba0 0905 	sub.w	r9, r0, r5
 8008b0a:	e7c1      	b.n	8008a90 <__sfvwrite_r+0x11c>
 8008b0c:	6820      	ldr	r0, [r4, #0]
 8008b0e:	6923      	ldr	r3, [r4, #16]
 8008b10:	4298      	cmp	r0, r3
 8008b12:	d817      	bhi.n	8008b44 <__sfvwrite_r+0x1d0>
 8008b14:	6963      	ldr	r3, [r4, #20]
 8008b16:	42b3      	cmp	r3, r6
 8008b18:	d814      	bhi.n	8008b44 <__sfvwrite_r+0x1d0>
 8008b1a:	f06f 4200 	mvn.w	r2, #2147483648	; 0x80000000
 8008b1e:	42b2      	cmp	r2, r6
 8008b20:	bf28      	it	cs
 8008b22:	4632      	movcs	r2, r6
 8008b24:	69e1      	ldr	r1, [r4, #28]
 8008b26:	fb92 f2f3 	sdiv	r2, r2, r3
 8008b2a:	f8d4 c024 	ldr.w	ip, [r4, #36]	; 0x24
 8008b2e:	fb02 f303 	mul.w	r3, r2, r3
 8008b32:	4640      	mov	r0, r8
 8008b34:	464a      	mov	r2, r9
 8008b36:	47e0      	blx	ip
 8008b38:	f1b0 0a00 	subs.w	sl, r0, #0
 8008b3c:	dd95      	ble.n	8008a6a <__sfvwrite_r+0xf6>
 8008b3e:	eba6 060a 	sub.w	r6, r6, sl
 8008b42:	e779      	b.n	8008a38 <__sfvwrite_r+0xc4>
 8008b44:	45b3      	cmp	fp, r6
 8008b46:	46da      	mov	sl, fp
 8008b48:	bf28      	it	cs
 8008b4a:	46b2      	movcs	sl, r6
 8008b4c:	4652      	mov	r2, sl
 8008b4e:	4649      	mov	r1, r9
 8008b50:	f7fc fc40 	bl	80053d4 <memmove>
 8008b54:	68a3      	ldr	r3, [r4, #8]
 8008b56:	6822      	ldr	r2, [r4, #0]
 8008b58:	eba3 030a 	sub.w	r3, r3, sl
 8008b5c:	4452      	add	r2, sl
 8008b5e:	60a3      	str	r3, [r4, #8]
 8008b60:	6022      	str	r2, [r4, #0]
 8008b62:	2b00      	cmp	r3, #0
 8008b64:	d1eb      	bne.n	8008b3e <__sfvwrite_r+0x1ca>
 8008b66:	4621      	mov	r1, r4
 8008b68:	4640      	mov	r0, r8
 8008b6a:	f7ff fd69 	bl	8008640 <_fflush_r>
 8008b6e:	2800      	cmp	r0, #0
 8008b70:	d0e5      	beq.n	8008b3e <__sfvwrite_r+0x1ca>
 8008b72:	e77a      	b.n	8008a6a <__sfvwrite_r+0xf6>
 8008b74:	6820      	ldr	r0, [r4, #0]
 8008b76:	46b3      	mov	fp, r6
 8008b78:	4632      	mov	r2, r6
 8008b7a:	e74f      	b.n	8008a1c <__sfvwrite_r+0xa8>
 8008b7c:	4629      	mov	r1, r5
 8008b7e:	9201      	str	r2, [sp, #4]
 8008b80:	f7fc fc28 	bl	80053d4 <memmove>
 8008b84:	9a01      	ldr	r2, [sp, #4]
 8008b86:	68a3      	ldr	r3, [r4, #8]
 8008b88:	1a9b      	subs	r3, r3, r2
 8008b8a:	60a3      	str	r3, [r4, #8]
 8008b8c:	6823      	ldr	r3, [r4, #0]
 8008b8e:	4413      	add	r3, r2
 8008b90:	6023      	str	r3, [r4, #0]
 8008b92:	4693      	mov	fp, r2
 8008b94:	e796      	b.n	8008ac4 <__sfvwrite_r+0x150>
 8008b96:	6823      	ldr	r3, [r4, #0]
 8008b98:	6921      	ldr	r1, [r4, #16]
 8008b9a:	eba3 0b01 	sub.w	fp, r3, r1
 8008b9e:	6963      	ldr	r3, [r4, #20]
 8008ba0:	eb03 0a43 	add.w	sl, r3, r3, lsl #1
 8008ba4:	eb0a 7ada 	add.w	sl, sl, sl, lsr #31
 8008ba8:	f10b 0301 	add.w	r3, fp, #1
 8008bac:	ea4f 0a6a 	mov.w	sl, sl, asr #1
 8008bb0:	4433      	add	r3, r6
 8008bb2:	4553      	cmp	r3, sl
 8008bb4:	4652      	mov	r2, sl
 8008bb6:	bf84      	itt	hi
 8008bb8:	469a      	movhi	sl, r3
 8008bba:	4652      	movhi	r2, sl
 8008bbc:	0543      	lsls	r3, r0, #21
 8008bbe:	d52c      	bpl.n	8008c1a <__sfvwrite_r+0x2a6>
 8008bc0:	4611      	mov	r1, r2
 8008bc2:	4640      	mov	r0, r8
 8008bc4:	f7fc f922 	bl	8004e0c <_malloc_r>
 8008bc8:	2800      	cmp	r0, #0
 8008bca:	d03b      	beq.n	8008c44 <__sfvwrite_r+0x2d0>
 8008bcc:	465a      	mov	r2, fp
 8008bce:	6921      	ldr	r1, [r4, #16]
 8008bd0:	9001      	str	r0, [sp, #4]
 8008bd2:	f7f7 fb15 	bl	8000200 <memcpy>
 8008bd6:	89a2      	ldrh	r2, [r4, #12]
 8008bd8:	9b01      	ldr	r3, [sp, #4]
 8008bda:	f422 6290 	bic.w	r2, r2, #1152	; 0x480
 8008bde:	f042 0280 	orr.w	r2, r2, #128	; 0x80
 8008be2:	81a2      	strh	r2, [r4, #12]
 8008be4:	eb03 000b 	add.w	r0, r3, fp
 8008be8:	6123      	str	r3, [r4, #16]
 8008bea:	ebaa 030b 	sub.w	r3, sl, fp
 8008bee:	f8c4 a014 	str.w	sl, [r4, #20]
 8008bf2:	60a3      	str	r3, [r4, #8]
 8008bf4:	6020      	str	r0, [r4, #0]
 8008bf6:	46b3      	mov	fp, r6
 8008bf8:	4632      	mov	r2, r6
 8008bfa:	e70f      	b.n	8008a1c <__sfvwrite_r+0xa8>
 8008bfc:	4629      	mov	r1, r5
 8008bfe:	465a      	mov	r2, fp
 8008c00:	f7fc fbe8 	bl	80053d4 <memmove>
 8008c04:	6823      	ldr	r3, [r4, #0]
 8008c06:	445b      	add	r3, fp
 8008c08:	6023      	str	r3, [r4, #0]
 8008c0a:	4621      	mov	r1, r4
 8008c0c:	4640      	mov	r0, r8
 8008c0e:	f7ff fd17 	bl	8008640 <_fflush_r>
 8008c12:	2800      	cmp	r0, #0
 8008c14:	f43f af56 	beq.w	8008ac4 <__sfvwrite_r+0x150>
 8008c18:	e727      	b.n	8008a6a <__sfvwrite_r+0xf6>
 8008c1a:	4640      	mov	r0, r8
 8008c1c:	f000 fc68 	bl	80094f0 <_realloc_r>
 8008c20:	4603      	mov	r3, r0
 8008c22:	2800      	cmp	r0, #0
 8008c24:	d1de      	bne.n	8008be4 <__sfvwrite_r+0x270>
 8008c26:	6921      	ldr	r1, [r4, #16]
 8008c28:	4640      	mov	r0, r8
 8008c2a:	f7ff fd9d 	bl	8008768 <_free_r>
 8008c2e:	f9b4 300c 	ldrsh.w	r3, [r4, #12]
 8008c32:	220c      	movs	r2, #12
 8008c34:	f023 0380 	bic.w	r3, r3, #128	; 0x80
 8008c38:	f8c8 2000 	str.w	r2, [r8]
 8008c3c:	e717      	b.n	8008a6e <__sfvwrite_r+0xfa>
 8008c3e:	1c72      	adds	r2, r6, #1
 8008c40:	4691      	mov	r9, r2
 8008c42:	e726      	b.n	8008a92 <__sfvwrite_r+0x11e>
 8008c44:	220c      	movs	r2, #12
 8008c46:	f9b4 300c 	ldrsh.w	r3, [r4, #12]
 8008c4a:	f8c8 2000 	str.w	r2, [r8]
 8008c4e:	e70e      	b.n	8008a6e <__sfvwrite_r+0xfa>
 8008c50:	f04f 30ff 	mov.w	r0, #4294967295
 8008c54:	e6be      	b.n	80089d4 <__sfvwrite_r+0x60>
 8008c56:	bf00      	nop
 8008c58:	7ffffc00 	.word	0x7ffffc00

08008c5c <_localeconv_r>:
 8008c5c:	4800      	ldr	r0, [pc, #0]	; (8008c60 <_localeconv_r+0x4>)
 8008c5e:	4770      	bx	lr
 8008c60:	10000934 	.word	0x10000934

08008c64 <_lseek_r>:
 8008c64:	b538      	push	{r3, r4, r5, lr}
 8008c66:	460c      	mov	r4, r1
 8008c68:	4d08      	ldr	r5, [pc, #32]	; (8008c8c <_lseek_r+0x28>)
 8008c6a:	4684      	mov	ip, r0
 8008c6c:	4611      	mov	r1, r2
 8008c6e:	4620      	mov	r0, r4
 8008c70:	461a      	mov	r2, r3
 8008c72:	2300      	movs	r3, #0
 8008c74:	602b      	str	r3, [r5, #0]
 8008c76:	4664      	mov	r4, ip
 8008c78:	f002 f820 	bl	800acbc <_lseek>
 8008c7c:	1c43      	adds	r3, r0, #1
 8008c7e:	d000      	beq.n	8008c82 <_lseek_r+0x1e>
 8008c80:	bd38      	pop	{r3, r4, r5, pc}
 8008c82:	682b      	ldr	r3, [r5, #0]
 8008c84:	2b00      	cmp	r3, #0
 8008c86:	d0fb      	beq.n	8008c80 <_lseek_r+0x1c>
 8008c88:	6023      	str	r3, [r4, #0]
 8008c8a:	bd38      	pop	{r3, r4, r5, pc}
 8008c8c:	10001a50 	.word	0x10001a50

08008c90 <__smakebuf_r>:
 8008c90:	e92d 41f0 	stmdb	sp!, {r4, r5, r6, r7, r8, lr}
 8008c94:	898b      	ldrh	r3, [r1, #12]
 8008c96:	460c      	mov	r4, r1
 8008c98:	0799      	lsls	r1, r3, #30
 8008c9a:	b096      	sub	sp, #88	; 0x58
 8008c9c:	d508      	bpl.n	8008cb0 <__smakebuf_r+0x20>
 8008c9e:	f104 0343 	add.w	r3, r4, #67	; 0x43
 8008ca2:	2201      	movs	r2, #1
 8008ca4:	e9c4 3204 	strd	r3, r2, [r4, #16]
 8008ca8:	6023      	str	r3, [r4, #0]
 8008caa:	b016      	add	sp, #88	; 0x58
 8008cac:	e8bd 81f0 	ldmia.w	sp!, {r4, r5, r6, r7, r8, pc}
 8008cb0:	f9b4 100e 	ldrsh.w	r1, [r4, #14]
 8008cb4:	2900      	cmp	r1, #0
 8008cb6:	4606      	mov	r6, r0
 8008cb8:	db27      	blt.n	8008d0a <__smakebuf_r+0x7a>
 8008cba:	466a      	mov	r2, sp
 8008cbc:	f001 fec0 	bl	800aa40 <_fstat_r>
 8008cc0:	2800      	cmp	r0, #0
 8008cc2:	db21      	blt.n	8008d08 <__smakebuf_r+0x78>
 8008cc4:	9d01      	ldr	r5, [sp, #4]
 8008cc6:	f405 4570 	and.w	r5, r5, #61440	; 0xf000
 8008cca:	f5a5 5500 	sub.w	r5, r5, #8192	; 0x2000
 8008cce:	fab5 f585 	clz	r5, r5
 8008cd2:	f44f 6880 	mov.w	r8, #1024	; 0x400
 8008cd6:	096d      	lsrs	r5, r5, #5
 8008cd8:	f44f 6700 	mov.w	r7, #2048	; 0x800
 8008cdc:	4641      	mov	r1, r8
 8008cde:	4630      	mov	r0, r6
 8008ce0:	f7fc f894 	bl	8004e0c <_malloc_r>
 8008ce4:	f9b4 300c 	ldrsh.w	r3, [r4, #12]
 8008ce8:	b1f0      	cbz	r0, 8008d28 <__smakebuf_r+0x98>
 8008cea:	4a20      	ldr	r2, [pc, #128]	; (8008d6c <__smakebuf_r+0xdc>)
 8008cec:	63f2      	str	r2, [r6, #60]	; 0x3c
 8008cee:	f043 0380 	orr.w	r3, r3, #128	; 0x80
 8008cf2:	f8c4 8014 	str.w	r8, [r4, #20]
 8008cf6:	81a3      	strh	r3, [r4, #12]
 8008cf8:	6020      	str	r0, [r4, #0]
 8008cfa:	6120      	str	r0, [r4, #16]
 8008cfc:	bb35      	cbnz	r5, 8008d4c <__smakebuf_r+0xbc>
 8008cfe:	433b      	orrs	r3, r7
 8008d00:	81a3      	strh	r3, [r4, #12]
 8008d02:	b016      	add	sp, #88	; 0x58
 8008d04:	e8bd 81f0 	ldmia.w	sp!, {r4, r5, r6, r7, r8, pc}
 8008d08:	89a3      	ldrh	r3, [r4, #12]
 8008d0a:	f013 0580 	ands.w	r5, r3, #128	; 0x80
 8008d0e:	d019      	beq.n	8008d44 <__smakebuf_r+0xb4>
 8008d10:	f04f 0840 	mov.w	r8, #64	; 0x40
 8008d14:	4641      	mov	r1, r8
 8008d16:	4630      	mov	r0, r6
 8008d18:	f7fc f878 	bl	8004e0c <_malloc_r>
 8008d1c:	2500      	movs	r5, #0
 8008d1e:	f9b4 300c 	ldrsh.w	r3, [r4, #12]
 8008d22:	462f      	mov	r7, r5
 8008d24:	2800      	cmp	r0, #0
 8008d26:	d1e0      	bne.n	8008cea <__smakebuf_r+0x5a>
 8008d28:	059a      	lsls	r2, r3, #22
 8008d2a:	d4be      	bmi.n	8008caa <__smakebuf_r+0x1a>
 8008d2c:	f023 0303 	bic.w	r3, r3, #3
 8008d30:	f104 0243 	add.w	r2, r4, #67	; 0x43
 8008d34:	f043 0302 	orr.w	r3, r3, #2
 8008d38:	2101      	movs	r1, #1
 8008d3a:	e9c4 2104 	strd	r2, r1, [r4, #16]
 8008d3e:	81a3      	strh	r3, [r4, #12]
 8008d40:	6022      	str	r2, [r4, #0]
 8008d42:	e7b2      	b.n	8008caa <__smakebuf_r+0x1a>
 8008d44:	f44f 6880 	mov.w	r8, #1024	; 0x400
 8008d48:	462f      	mov	r7, r5
 8008d4a:	e7c7      	b.n	8008cdc <__smakebuf_r+0x4c>
 8008d4c:	f9b4 100e 	ldrsh.w	r1, [r4, #14]
 8008d50:	4630      	mov	r0, r6
 8008d52:	f001 fe8b 	bl	800aa6c <_isatty_r>
 8008d56:	b910      	cbnz	r0, 8008d5e <__smakebuf_r+0xce>
 8008d58:	f9b4 300c 	ldrsh.w	r3, [r4, #12]
 8008d5c:	e7cf      	b.n	8008cfe <__smakebuf_r+0x6e>
 8008d5e:	89a3      	ldrh	r3, [r4, #12]
 8008d60:	f023 0303 	bic.w	r3, r3, #3
 8008d64:	f043 0301 	orr.w	r3, r3, #1
 8008d68:	b21b      	sxth	r3, r3
 8008d6a:	e7c8      	b.n	8008cfe <__smakebuf_r+0x6e>
 8008d6c:	08004c1d 	.word	0x08004c1d

08008d70 <_Balloc>:
 8008d70:	6cc3      	ldr	r3, [r0, #76]	; 0x4c
 8008d72:	b570      	push	{r4, r5, r6, lr}
 8008d74:	4605      	mov	r5, r0
 8008d76:	460c      	mov	r4, r1
 8008d78:	b14b      	cbz	r3, 8008d8e <_Balloc+0x1e>
 8008d7a:	f853 0024 	ldr.w	r0, [r3, r4, lsl #2]
 8008d7e:	b180      	cbz	r0, 8008da2 <_Balloc+0x32>
 8008d80:	6802      	ldr	r2, [r0, #0]
 8008d82:	f843 2024 	str.w	r2, [r3, r4, lsl #2]
 8008d86:	2300      	movs	r3, #0
 8008d88:	e9c0 3303 	strd	r3, r3, [r0, #12]
 8008d8c:	bd70      	pop	{r4, r5, r6, pc}
 8008d8e:	2221      	movs	r2, #33	; 0x21
 8008d90:	2104      	movs	r1, #4
 8008d92:	f7fb fefd 	bl	8004b90 <_calloc_r>
 8008d96:	4603      	mov	r3, r0
 8008d98:	64e8      	str	r0, [r5, #76]	; 0x4c
 8008d9a:	2800      	cmp	r0, #0
 8008d9c:	d1ed      	bne.n	8008d7a <_Balloc+0xa>
 8008d9e:	2000      	movs	r0, #0
 8008da0:	bd70      	pop	{r4, r5, r6, pc}
 8008da2:	2101      	movs	r1, #1
 8008da4:	fa01 f604 	lsl.w	r6, r1, r4
 8008da8:	1d72      	adds	r2, r6, #5
 8008daa:	0092      	lsls	r2, r2, #2
 8008dac:	4628      	mov	r0, r5
 8008dae:	f7fb feef 	bl	8004b90 <_calloc_r>
 8008db2:	2800      	cmp	r0, #0
 8008db4:	d0f3      	beq.n	8008d9e <_Balloc+0x2e>
 8008db6:	e9c0 4601 	strd	r4, r6, [r0, #4]
 8008dba:	e7e4      	b.n	8008d86 <_Balloc+0x16>

08008dbc <_Bfree>:
 8008dbc:	b131      	cbz	r1, 8008dcc <_Bfree+0x10>
 8008dbe:	6cc3      	ldr	r3, [r0, #76]	; 0x4c
 8008dc0:	684a      	ldr	r2, [r1, #4]
 8008dc2:	f853 0022 	ldr.w	r0, [r3, r2, lsl #2]
 8008dc6:	6008      	str	r0, [r1, #0]
 8008dc8:	f843 1022 	str.w	r1, [r3, r2, lsl #2]
 8008dcc:	4770      	bx	lr
 8008dce:	bf00      	nop

08008dd0 <__multadd>:
 8008dd0:	e92d 41f0 	stmdb	sp!, {r4, r5, r6, r7, r8, lr}
 8008dd4:	690d      	ldr	r5, [r1, #16]
 8008dd6:	4607      	mov	r7, r0
 8008dd8:	460e      	mov	r6, r1
 8008dda:	461c      	mov	r4, r3
 8008ddc:	f101 0e14 	add.w	lr, r1, #20
 8008de0:	2000      	movs	r0, #0
 8008de2:	f8de 1000 	ldr.w	r1, [lr]
 8008de6:	b28b      	uxth	r3, r1
 8008de8:	fb02 4303 	mla	r3, r2, r3, r4
 8008dec:	ea4f 4c13 	mov.w	ip, r3, lsr #16
 8008df0:	0c09      	lsrs	r1, r1, #16
 8008df2:	fb02 cc01 	mla	ip, r2, r1, ip
 8008df6:	3001      	adds	r0, #1
 8008df8:	b29b      	uxth	r3, r3
 8008dfa:	eb03 430c 	add.w	r3, r3, ip, lsl #16
 8008dfe:	4285      	cmp	r5, r0
 8008e00:	f84e 3b04 	str.w	r3, [lr], #4
 8008e04:	ea4f 441c 	mov.w	r4, ip, lsr #16
 8008e08:	dceb      	bgt.n	8008de2 <__multadd+0x12>
 8008e0a:	b13c      	cbz	r4, 8008e1c <__multadd+0x4c>
 8008e0c:	68b3      	ldr	r3, [r6, #8]
 8008e0e:	42ab      	cmp	r3, r5
 8008e10:	dd07      	ble.n	8008e22 <__multadd+0x52>
 8008e12:	eb06 0385 	add.w	r3, r6, r5, lsl #2
 8008e16:	3501      	adds	r5, #1
 8008e18:	615c      	str	r4, [r3, #20]
 8008e1a:	6135      	str	r5, [r6, #16]
 8008e1c:	4630      	mov	r0, r6
 8008e1e:	e8bd 81f0 	ldmia.w	sp!, {r4, r5, r6, r7, r8, pc}
 8008e22:	6871      	ldr	r1, [r6, #4]
 8008e24:	4638      	mov	r0, r7
 8008e26:	3101      	adds	r1, #1
 8008e28:	f7ff ffa2 	bl	8008d70 <_Balloc>
 8008e2c:	4680      	mov	r8, r0
 8008e2e:	b1a8      	cbz	r0, 8008e5c <__multadd+0x8c>
 8008e30:	6932      	ldr	r2, [r6, #16]
 8008e32:	3202      	adds	r2, #2
 8008e34:	f106 010c 	add.w	r1, r6, #12
 8008e38:	0092      	lsls	r2, r2, #2
 8008e3a:	300c      	adds	r0, #12
 8008e3c:	f7f7 f9e0 	bl	8000200 <memcpy>
 8008e40:	6cfb      	ldr	r3, [r7, #76]	; 0x4c
 8008e42:	6872      	ldr	r2, [r6, #4]
 8008e44:	f853 1022 	ldr.w	r1, [r3, r2, lsl #2]
 8008e48:	6031      	str	r1, [r6, #0]
 8008e4a:	f843 6022 	str.w	r6, [r3, r2, lsl #2]
 8008e4e:	4646      	mov	r6, r8
 8008e50:	eb06 0385 	add.w	r3, r6, r5, lsl #2
 8008e54:	3501      	adds	r5, #1
 8008e56:	615c      	str	r4, [r3, #20]
 8008e58:	6135      	str	r5, [r6, #16]
 8008e5a:	e7df      	b.n	8008e1c <__multadd+0x4c>
 8008e5c:	4b02      	ldr	r3, [pc, #8]	; (8008e68 <__multadd+0x98>)
 8008e5e:	4803      	ldr	r0, [pc, #12]	; (8008e6c <__multadd+0x9c>)
 8008e60:	4642      	mov	r2, r8
 8008e62:	21b5      	movs	r1, #181	; 0xb5
 8008e64:	f001 fd30 	bl	800a8c8 <__assert_func>
 8008e68:	0800b4b4 	.word	0x0800b4b4
 8008e6c:	0800b548 	.word	0x0800b548

08008e70 <__hi0bits>:
 8008e70:	0c02      	lsrs	r2, r0, #16
 8008e72:	0412      	lsls	r2, r2, #16
 8008e74:	4603      	mov	r3, r0
 8008e76:	b9ca      	cbnz	r2, 8008eac <__hi0bits+0x3c>
 8008e78:	0403      	lsls	r3, r0, #16
 8008e7a:	2010      	movs	r0, #16
 8008e7c:	f013 4f7f 	tst.w	r3, #4278190080	; 0xff000000
 8008e80:	bf04      	itt	eq
 8008e82:	021b      	lsleq	r3, r3, #8
 8008e84:	3008      	addeq	r0, #8
 8008e86:	f013 4f70 	tst.w	r3, #4026531840	; 0xf0000000
 8008e8a:	bf04      	itt	eq
 8008e8c:	011b      	lsleq	r3, r3, #4
 8008e8e:	3004      	addeq	r0, #4
 8008e90:	f013 4f40 	tst.w	r3, #3221225472	; 0xc0000000
 8008e94:	bf04      	itt	eq
 8008e96:	009b      	lsleq	r3, r3, #2
 8008e98:	3002      	addeq	r0, #2
 8008e9a:	2b00      	cmp	r3, #0
 8008e9c:	db05      	blt.n	8008eaa <__hi0bits+0x3a>
 8008e9e:	f013 4f80 	tst.w	r3, #1073741824	; 0x40000000
 8008ea2:	f100 0001 	add.w	r0, r0, #1
 8008ea6:	bf08      	it	eq
 8008ea8:	2020      	moveq	r0, #32
 8008eaa:	4770      	bx	lr
 8008eac:	2000      	movs	r0, #0
 8008eae:	e7e5      	b.n	8008e7c <__hi0bits+0xc>

08008eb0 <__lo0bits>:
 8008eb0:	6803      	ldr	r3, [r0, #0]
 8008eb2:	4602      	mov	r2, r0
 8008eb4:	f013 0007 	ands.w	r0, r3, #7
 8008eb8:	d007      	beq.n	8008eca <__lo0bits+0x1a>
 8008eba:	07d9      	lsls	r1, r3, #31
 8008ebc:	d41d      	bmi.n	8008efa <__lo0bits+0x4a>
 8008ebe:	0798      	lsls	r0, r3, #30
 8008ec0:	d51f      	bpl.n	8008f02 <__lo0bits+0x52>
 8008ec2:	085b      	lsrs	r3, r3, #1
 8008ec4:	6013      	str	r3, [r2, #0]
 8008ec6:	2001      	movs	r0, #1
 8008ec8:	4770      	bx	lr
 8008eca:	b299      	uxth	r1, r3
 8008ecc:	b909      	cbnz	r1, 8008ed2 <__lo0bits+0x22>
 8008ece:	0c1b      	lsrs	r3, r3, #16
 8008ed0:	2010      	movs	r0, #16
 8008ed2:	b2d9      	uxtb	r1, r3
 8008ed4:	b909      	cbnz	r1, 8008eda <__lo0bits+0x2a>
 8008ed6:	3008      	adds	r0, #8
 8008ed8:	0a1b      	lsrs	r3, r3, #8
 8008eda:	0719      	lsls	r1, r3, #28
 8008edc:	bf04      	itt	eq
 8008ede:	091b      	lsreq	r3, r3, #4
 8008ee0:	3004      	addeq	r0, #4
 8008ee2:	0799      	lsls	r1, r3, #30
 8008ee4:	bf04      	itt	eq
 8008ee6:	089b      	lsreq	r3, r3, #2
 8008ee8:	3002      	addeq	r0, #2
 8008eea:	07d9      	lsls	r1, r3, #31
 8008eec:	d403      	bmi.n	8008ef6 <__lo0bits+0x46>
 8008eee:	085b      	lsrs	r3, r3, #1
 8008ef0:	f100 0001 	add.w	r0, r0, #1
 8008ef4:	d003      	beq.n	8008efe <__lo0bits+0x4e>
 8008ef6:	6013      	str	r3, [r2, #0]
 8008ef8:	4770      	bx	lr
 8008efa:	2000      	movs	r0, #0
 8008efc:	4770      	bx	lr
 8008efe:	2020      	movs	r0, #32
 8008f00:	4770      	bx	lr
 8008f02:	089b      	lsrs	r3, r3, #2
 8008f04:	6013      	str	r3, [r2, #0]
 8008f06:	2002      	movs	r0, #2
 8008f08:	4770      	bx	lr
 8008f0a:	bf00      	nop

08008f0c <__i2b>:
 8008f0c:	b538      	push	{r3, r4, r5, lr}
 8008f0e:	6cc3      	ldr	r3, [r0, #76]	; 0x4c
 8008f10:	4604      	mov	r4, r0
 8008f12:	460d      	mov	r5, r1
 8008f14:	b14b      	cbz	r3, 8008f2a <__i2b+0x1e>
 8008f16:	6858      	ldr	r0, [r3, #4]
 8008f18:	b1b0      	cbz	r0, 8008f48 <__i2b+0x3c>
 8008f1a:	6802      	ldr	r2, [r0, #0]
 8008f1c:	605a      	str	r2, [r3, #4]
 8008f1e:	2200      	movs	r2, #0
 8008f20:	2301      	movs	r3, #1
 8008f22:	e9c0 3504 	strd	r3, r5, [r0, #16]
 8008f26:	60c2      	str	r2, [r0, #12]
 8008f28:	bd38      	pop	{r3, r4, r5, pc}
 8008f2a:	2221      	movs	r2, #33	; 0x21
 8008f2c:	2104      	movs	r1, #4
 8008f2e:	f7fb fe2f 	bl	8004b90 <_calloc_r>
 8008f32:	4603      	mov	r3, r0
 8008f34:	64e0      	str	r0, [r4, #76]	; 0x4c
 8008f36:	2800      	cmp	r0, #0
 8008f38:	d1ed      	bne.n	8008f16 <__i2b+0xa>
 8008f3a:	4b09      	ldr	r3, [pc, #36]	; (8008f60 <__i2b+0x54>)
 8008f3c:	4809      	ldr	r0, [pc, #36]	; (8008f64 <__i2b+0x58>)
 8008f3e:	2200      	movs	r2, #0
 8008f40:	f44f 71a0 	mov.w	r1, #320	; 0x140
 8008f44:	f001 fcc0 	bl	800a8c8 <__assert_func>
 8008f48:	221c      	movs	r2, #28
 8008f4a:	2101      	movs	r1, #1
 8008f4c:	4620      	mov	r0, r4
 8008f4e:	f7fb fe1f 	bl	8004b90 <_calloc_r>
 8008f52:	2800      	cmp	r0, #0
 8008f54:	d0f1      	beq.n	8008f3a <__i2b+0x2e>
 8008f56:	2201      	movs	r2, #1
 8008f58:	2302      	movs	r3, #2
 8008f5a:	e9c0 2301 	strd	r2, r3, [r0, #4]
 8008f5e:	e7de      	b.n	8008f1e <__i2b+0x12>
 8008f60:	0800b4b4 	.word	0x0800b4b4
 8008f64:	0800b548 	.word	0x0800b548

08008f68 <__multiply>:
 8008f68:	e92d 4ff0 	stmdb	sp!, {r4, r5, r6, r7, r8, r9, sl, fp, lr}
 8008f6c:	690e      	ldr	r6, [r1, #16]
 8008f6e:	6915      	ldr	r5, [r2, #16]
 8008f70:	42ae      	cmp	r6, r5
 8008f72:	b085      	sub	sp, #20
 8008f74:	4688      	mov	r8, r1
 8008f76:	4614      	mov	r4, r2
 8008f78:	db05      	blt.n	8008f86 <__multiply+0x1e>
 8008f7a:	462a      	mov	r2, r5
 8008f7c:	4623      	mov	r3, r4
 8008f7e:	4635      	mov	r5, r6
 8008f80:	460c      	mov	r4, r1
 8008f82:	4616      	mov	r6, r2
 8008f84:	4698      	mov	r8, r3
 8008f86:	68a3      	ldr	r3, [r4, #8]
 8008f88:	6861      	ldr	r1, [r4, #4]
 8008f8a:	19af      	adds	r7, r5, r6
 8008f8c:	42bb      	cmp	r3, r7
 8008f8e:	bfb8      	it	lt
 8008f90:	3101      	addlt	r1, #1
 8008f92:	f7ff feed 	bl	8008d70 <_Balloc>
 8008f96:	9001      	str	r0, [sp, #4]
 8008f98:	2800      	cmp	r0, #0
 8008f9a:	f000 8087 	beq.w	80090ac <__multiply+0x144>
 8008f9e:	9b01      	ldr	r3, [sp, #4]
 8008fa0:	f103 0914 	add.w	r9, r3, #20
 8008fa4:	eb09 0a87 	add.w	sl, r9, r7, lsl #2
 8008fa8:	45d1      	cmp	r9, sl
 8008faa:	d205      	bcs.n	8008fb8 <__multiply+0x50>
 8008fac:	464b      	mov	r3, r9
 8008fae:	2200      	movs	r2, #0
 8008fb0:	f843 2b04 	str.w	r2, [r3], #4
 8008fb4:	459a      	cmp	sl, r3
 8008fb6:	d8fb      	bhi.n	8008fb0 <__multiply+0x48>
 8008fb8:	f108 0814 	add.w	r8, r8, #20
 8008fbc:	eb08 0b86 	add.w	fp, r8, r6, lsl #2
 8008fc0:	f104 0314 	add.w	r3, r4, #20
 8008fc4:	45d8      	cmp	r8, fp
 8008fc6:	461a      	mov	r2, r3
 8008fc8:	eb03 0585 	add.w	r5, r3, r5, lsl #2
 8008fcc:	d25f      	bcs.n	800908e <__multiply+0x126>
 8008fce:	1b2b      	subs	r3, r5, r4
 8008fd0:	3b15      	subs	r3, #21
 8008fd2:	f023 0303 	bic.w	r3, r3, #3
 8008fd6:	3304      	adds	r3, #4
 8008fd8:	3415      	adds	r4, #21
 8008fda:	42a5      	cmp	r5, r4
 8008fdc:	bf38      	it	cc
 8008fde:	2304      	movcc	r3, #4
 8008fe0:	e9cd a702 	strd	sl, r7, [sp, #8]
 8008fe4:	46ac      	mov	ip, r5
 8008fe6:	461f      	mov	r7, r3
 8008fe8:	4692      	mov	sl, r2
 8008fea:	e005      	b.n	8008ff8 <__multiply+0x90>
 8008fec:	0c00      	lsrs	r0, r0, #16
 8008fee:	d129      	bne.n	8009044 <__multiply+0xdc>
 8008ff0:	45c3      	cmp	fp, r8
 8008ff2:	f109 0904 	add.w	r9, r9, #4
 8008ff6:	d948      	bls.n	800908a <__multiply+0x122>
 8008ff8:	f858 0b04 	ldr.w	r0, [r8], #4
 8008ffc:	b285      	uxth	r5, r0
 8008ffe:	2d00      	cmp	r5, #0
 8009000:	d0f4      	beq.n	8008fec <__multiply+0x84>
 8009002:	4656      	mov	r6, sl
 8009004:	464c      	mov	r4, r9
 8009006:	2300      	movs	r3, #0
 8009008:	f856 0b04 	ldr.w	r0, [r6], #4
 800900c:	6821      	ldr	r1, [r4, #0]
 800900e:	b282      	uxth	r2, r0
 8009010:	fa1f fe81 	uxth.w	lr, r1
 8009014:	fb05 ee02 	mla	lr, r5, r2, lr
 8009018:	0c00      	lsrs	r0, r0, #16
 800901a:	0c0a      	lsrs	r2, r1, #16
 800901c:	4473      	add	r3, lr
 800901e:	fb05 2200 	mla	r2, r5, r0, r2
 8009022:	eb02 4213 	add.w	r2, r2, r3, lsr #16
 8009026:	b29b      	uxth	r3, r3
 8009028:	ea43 4302 	orr.w	r3, r3, r2, lsl #16
 800902c:	45b4      	cmp	ip, r6
 800902e:	f844 3b04 	str.w	r3, [r4], #4
 8009032:	ea4f 4312 	mov.w	r3, r2, lsr #16
 8009036:	d8e7      	bhi.n	8009008 <__multiply+0xa0>
 8009038:	f849 3007 	str.w	r3, [r9, r7]
 800903c:	f858 0c04 	ldr.w	r0, [r8, #-4]
 8009040:	0c00      	lsrs	r0, r0, #16
 8009042:	d0d5      	beq.n	8008ff0 <__multiply+0x88>
 8009044:	f8d9 3000 	ldr.w	r3, [r9]
 8009048:	4654      	mov	r4, sl
 800904a:	4619      	mov	r1, r3
 800904c:	464d      	mov	r5, r9
 800904e:	2200      	movs	r2, #0
 8009050:	8826      	ldrh	r6, [r4, #0]
 8009052:	0c09      	lsrs	r1, r1, #16
 8009054:	fb00 1106 	mla	r1, r0, r6, r1
 8009058:	440a      	add	r2, r1
 800905a:	b29b      	uxth	r3, r3
 800905c:	ea43 4302 	orr.w	r3, r3, r2, lsl #16
 8009060:	f845 3b04 	str.w	r3, [r5], #4
 8009064:	f854 6b04 	ldr.w	r6, [r4], #4
 8009068:	6829      	ldr	r1, [r5, #0]
 800906a:	0c36      	lsrs	r6, r6, #16
 800906c:	b28b      	uxth	r3, r1
 800906e:	fb00 3306 	mla	r3, r0, r6, r3
 8009072:	eb03 4312 	add.w	r3, r3, r2, lsr #16
 8009076:	45a4      	cmp	ip, r4
 8009078:	ea4f 4213 	mov.w	r2, r3, lsr #16
 800907c:	d8e8      	bhi.n	8009050 <__multiply+0xe8>
 800907e:	45c3      	cmp	fp, r8
 8009080:	f849 3007 	str.w	r3, [r9, r7]
 8009084:	f109 0904 	add.w	r9, r9, #4
 8009088:	d8b6      	bhi.n	8008ff8 <__multiply+0x90>
 800908a:	e9dd a702 	ldrd	sl, r7, [sp, #8]
 800908e:	2f00      	cmp	r7, #0
 8009090:	dc02      	bgt.n	8009098 <__multiply+0x130>
 8009092:	e005      	b.n	80090a0 <__multiply+0x138>
 8009094:	3f01      	subs	r7, #1
 8009096:	d003      	beq.n	80090a0 <__multiply+0x138>
 8009098:	f85a 3d04 	ldr.w	r3, [sl, #-4]!
 800909c:	2b00      	cmp	r3, #0
 800909e:	d0f9      	beq.n	8009094 <__multiply+0x12c>
 80090a0:	9b01      	ldr	r3, [sp, #4]
 80090a2:	4618      	mov	r0, r3
 80090a4:	611f      	str	r7, [r3, #16]
 80090a6:	b005      	add	sp, #20
 80090a8:	e8bd 8ff0 	ldmia.w	sp!, {r4, r5, r6, r7, r8, r9, sl, fp, pc}
 80090ac:	4b03      	ldr	r3, [pc, #12]	; (80090bc <__multiply+0x154>)
 80090ae:	4804      	ldr	r0, [pc, #16]	; (80090c0 <__multiply+0x158>)
 80090b0:	9a01      	ldr	r2, [sp, #4]
 80090b2:	f240 115d 	movw	r1, #349	; 0x15d
 80090b6:	f001 fc07 	bl	800a8c8 <__assert_func>
 80090ba:	bf00      	nop
 80090bc:	0800b4b4 	.word	0x0800b4b4
 80090c0:	0800b548 	.word	0x0800b548

080090c4 <__pow5mult>:
 80090c4:	f012 0303 	ands.w	r3, r2, #3
 80090c8:	e92d 41f0 	stmdb	sp!, {r4, r5, r6, r7, r8, lr}
 80090cc:	4614      	mov	r4, r2
 80090ce:	4606      	mov	r6, r0
 80090d0:	d132      	bne.n	8009138 <__pow5mult+0x74>
 80090d2:	460d      	mov	r5, r1
 80090d4:	10a4      	asrs	r4, r4, #2
 80090d6:	d020      	beq.n	800911a <__pow5mult+0x56>
 80090d8:	f8d6 8048 	ldr.w	r8, [r6, #72]	; 0x48
 80090dc:	f1b8 0f00 	cmp.w	r8, #0
 80090e0:	d033      	beq.n	800914a <__pow5mult+0x86>
 80090e2:	07e3      	lsls	r3, r4, #31
 80090e4:	f04f 0700 	mov.w	r7, #0
 80090e8:	d407      	bmi.n	80090fa <__pow5mult+0x36>
 80090ea:	1064      	asrs	r4, r4, #1
 80090ec:	d015      	beq.n	800911a <__pow5mult+0x56>
 80090ee:	f8d8 0000 	ldr.w	r0, [r8]
 80090f2:	b1a8      	cbz	r0, 8009120 <__pow5mult+0x5c>
 80090f4:	4680      	mov	r8, r0
 80090f6:	07e3      	lsls	r3, r4, #31
 80090f8:	d5f7      	bpl.n	80090ea <__pow5mult+0x26>
 80090fa:	4642      	mov	r2, r8
 80090fc:	4629      	mov	r1, r5
 80090fe:	4630      	mov	r0, r6
 8009100:	f7ff ff32 	bl	8008f68 <__multiply>
 8009104:	b1b5      	cbz	r5, 8009134 <__pow5mult+0x70>
 8009106:	6869      	ldr	r1, [r5, #4]
 8009108:	6cf3      	ldr	r3, [r6, #76]	; 0x4c
 800910a:	1064      	asrs	r4, r4, #1
 800910c:	f853 2021 	ldr.w	r2, [r3, r1, lsl #2]
 8009110:	602a      	str	r2, [r5, #0]
 8009112:	f843 5021 	str.w	r5, [r3, r1, lsl #2]
 8009116:	4605      	mov	r5, r0
 8009118:	d1e9      	bne.n	80090ee <__pow5mult+0x2a>
 800911a:	4628      	mov	r0, r5
 800911c:	e8bd 81f0 	ldmia.w	sp!, {r4, r5, r6, r7, r8, pc}
 8009120:	4642      	mov	r2, r8
 8009122:	4641      	mov	r1, r8
 8009124:	4630      	mov	r0, r6
 8009126:	f7ff ff1f 	bl	8008f68 <__multiply>
 800912a:	f8c8 0000 	str.w	r0, [r8]
 800912e:	6007      	str	r7, [r0, #0]
 8009130:	4680      	mov	r8, r0
 8009132:	e7e0      	b.n	80090f6 <__pow5mult+0x32>
 8009134:	4605      	mov	r5, r0
 8009136:	e7d8      	b.n	80090ea <__pow5mult+0x26>
 8009138:	3b01      	subs	r3, #1
 800913a:	4a0f      	ldr	r2, [pc, #60]	; (8009178 <__pow5mult+0xb4>)
 800913c:	f852 2023 	ldr.w	r2, [r2, r3, lsl #2]
 8009140:	2300      	movs	r3, #0
 8009142:	f7ff fe45 	bl	8008dd0 <__multadd>
 8009146:	4605      	mov	r5, r0
 8009148:	e7c4      	b.n	80090d4 <__pow5mult+0x10>
 800914a:	2101      	movs	r1, #1
 800914c:	4630      	mov	r0, r6
 800914e:	f7ff fe0f 	bl	8008d70 <_Balloc>
 8009152:	4680      	mov	r8, r0
 8009154:	b140      	cbz	r0, 8009168 <__pow5mult+0xa4>
 8009156:	2301      	movs	r3, #1
 8009158:	f240 2271 	movw	r2, #625	; 0x271
 800915c:	e9c0 3204 	strd	r3, r2, [r0, #16]
 8009160:	2300      	movs	r3, #0
 8009162:	64b0      	str	r0, [r6, #72]	; 0x48
 8009164:	6003      	str	r3, [r0, #0]
 8009166:	e7bc      	b.n	80090e2 <__pow5mult+0x1e>
 8009168:	4b04      	ldr	r3, [pc, #16]	; (800917c <__pow5mult+0xb8>)
 800916a:	4805      	ldr	r0, [pc, #20]	; (8009180 <__pow5mult+0xbc>)
 800916c:	4642      	mov	r2, r8
 800916e:	f44f 71a0 	mov.w	r1, #320	; 0x140
 8009172:	f001 fba9 	bl	800a8c8 <__assert_func>
 8009176:	bf00      	nop
 8009178:	0800b6b8 	.word	0x0800b6b8
 800917c:	0800b4b4 	.word	0x0800b4b4
 8009180:	0800b548 	.word	0x0800b548

08009184 <__lshift>:
 8009184:	e92d 47f0 	stmdb	sp!, {r4, r5, r6, r7, r8, r9, sl, lr}
 8009188:	460c      	mov	r4, r1
 800918a:	4690      	mov	r8, r2
 800918c:	6926      	ldr	r6, [r4, #16]
 800918e:	68a3      	ldr	r3, [r4, #8]
 8009190:	6849      	ldr	r1, [r1, #4]
 8009192:	eb06 1662 	add.w	r6, r6, r2, asr #5
 8009196:	1c75      	adds	r5, r6, #1
 8009198:	429d      	cmp	r5, r3
 800919a:	4607      	mov	r7, r0
 800919c:	ea4f 1962 	mov.w	r9, r2, asr #5
 80091a0:	dd04      	ble.n	80091ac <__lshift+0x28>
 80091a2:	005b      	lsls	r3, r3, #1
 80091a4:	429d      	cmp	r5, r3
 80091a6:	f101 0101 	add.w	r1, r1, #1
 80091aa:	dcfa      	bgt.n	80091a2 <__lshift+0x1e>
 80091ac:	4638      	mov	r0, r7
 80091ae:	f7ff fddf 	bl	8008d70 <_Balloc>
 80091b2:	4684      	mov	ip, r0
 80091b4:	2800      	cmp	r0, #0
 80091b6:	d051      	beq.n	800925c <__lshift+0xd8>
 80091b8:	f1b9 0f00 	cmp.w	r9, #0
 80091bc:	f100 0014 	add.w	r0, r0, #20
 80091c0:	dd0e      	ble.n	80091e0 <__lshift+0x5c>
 80091c2:	f109 0205 	add.w	r2, r9, #5
 80091c6:	ea4f 0e82 	mov.w	lr, r2, lsl #2
 80091ca:	4603      	mov	r3, r0
 80091cc:	eb0c 0282 	add.w	r2, ip, r2, lsl #2
 80091d0:	2100      	movs	r1, #0
 80091d2:	f843 1b04 	str.w	r1, [r3], #4
 80091d6:	4293      	cmp	r3, r2
 80091d8:	d1fb      	bne.n	80091d2 <__lshift+0x4e>
 80091da:	f1ae 0314 	sub.w	r3, lr, #20
 80091de:	4418      	add	r0, r3
 80091e0:	6921      	ldr	r1, [r4, #16]
 80091e2:	f104 0314 	add.w	r3, r4, #20
 80091e6:	f018 081f 	ands.w	r8, r8, #31
 80091ea:	eb03 0181 	add.w	r1, r3, r1, lsl #2
 80091ee:	d02d      	beq.n	800924c <__lshift+0xc8>
 80091f0:	f1c8 0920 	rsb	r9, r8, #32
 80091f4:	4686      	mov	lr, r0
 80091f6:	f04f 0a00 	mov.w	sl, #0
 80091fa:	681a      	ldr	r2, [r3, #0]
 80091fc:	fa02 f208 	lsl.w	r2, r2, r8
 8009200:	ea42 020a 	orr.w	r2, r2, sl
 8009204:	f84e 2b04 	str.w	r2, [lr], #4
 8009208:	f853 2b04 	ldr.w	r2, [r3], #4
 800920c:	4299      	cmp	r1, r3
 800920e:	fa22 fa09 	lsr.w	sl, r2, r9
 8009212:	d8f2      	bhi.n	80091fa <__lshift+0x76>
 8009214:	1b0b      	subs	r3, r1, r4
 8009216:	3b15      	subs	r3, #21
 8009218:	f023 0303 	bic.w	r3, r3, #3
 800921c:	3304      	adds	r3, #4
 800921e:	f104 0215 	add.w	r2, r4, #21
 8009222:	4291      	cmp	r1, r2
 8009224:	bf38      	it	cc
 8009226:	2304      	movcc	r3, #4
 8009228:	f1ba 0f00 	cmp.w	sl, #0
 800922c:	bf18      	it	ne
 800922e:	462e      	movne	r6, r5
 8009230:	f840 a003 	str.w	sl, [r0, r3]
 8009234:	6cfb      	ldr	r3, [r7, #76]	; 0x4c
 8009236:	6862      	ldr	r2, [r4, #4]
 8009238:	f8cc 6010 	str.w	r6, [ip, #16]
 800923c:	f853 1022 	ldr.w	r1, [r3, r2, lsl #2]
 8009240:	6021      	str	r1, [r4, #0]
 8009242:	4660      	mov	r0, ip
 8009244:	f843 4022 	str.w	r4, [r3, r2, lsl #2]
 8009248:	e8bd 87f0 	ldmia.w	sp!, {r4, r5, r6, r7, r8, r9, sl, pc}
 800924c:	3804      	subs	r0, #4
 800924e:	f853 2b04 	ldr.w	r2, [r3], #4
 8009252:	f840 2f04 	str.w	r2, [r0, #4]!
 8009256:	4299      	cmp	r1, r3
 8009258:	d8f9      	bhi.n	800924e <__lshift+0xca>
 800925a:	e7eb      	b.n	8009234 <__lshift+0xb0>
 800925c:	4b03      	ldr	r3, [pc, #12]	; (800926c <__lshift+0xe8>)
 800925e:	4804      	ldr	r0, [pc, #16]	; (8009270 <__lshift+0xec>)
 8009260:	4662      	mov	r2, ip
 8009262:	f240 11d9 	movw	r1, #473	; 0x1d9
 8009266:	f001 fb2f 	bl	800a8c8 <__assert_func>
 800926a:	bf00      	nop
 800926c:	0800b4b4 	.word	0x0800b4b4
 8009270:	0800b548 	.word	0x0800b548

08009274 <__mcmp>:
 8009274:	690b      	ldr	r3, [r1, #16]
 8009276:	4684      	mov	ip, r0
 8009278:	6900      	ldr	r0, [r0, #16]
 800927a:	1ac0      	subs	r0, r0, r3
 800927c:	d115      	bne.n	80092aa <__mcmp+0x36>
 800927e:	f10c 0c14 	add.w	ip, ip, #20
 8009282:	3114      	adds	r1, #20
 8009284:	eb0c 0283 	add.w	r2, ip, r3, lsl #2
 8009288:	b410      	push	{r4}
 800928a:	eb01 0383 	add.w	r3, r1, r3, lsl #2
 800928e:	e001      	b.n	8009294 <__mcmp+0x20>
 8009290:	4594      	cmp	ip, r2
 8009292:	d208      	bcs.n	80092a6 <__mcmp+0x32>
 8009294:	f852 4d04 	ldr.w	r4, [r2, #-4]!
 8009298:	f853 1d04 	ldr.w	r1, [r3, #-4]!
 800929c:	428c      	cmp	r4, r1
 800929e:	d0f7      	beq.n	8009290 <__mcmp+0x1c>
 80092a0:	d204      	bcs.n	80092ac <__mcmp+0x38>
 80092a2:	f04f 30ff 	mov.w	r0, #4294967295
 80092a6:	bc10      	pop	{r4}
 80092a8:	4770      	bx	lr
 80092aa:	4770      	bx	lr
 80092ac:	2001      	movs	r0, #1
 80092ae:	bc10      	pop	{r4}
 80092b0:	4770      	bx	lr
 80092b2:	bf00      	nop

080092b4 <__mdiff>:
 80092b4:	e92d 4ff8 	stmdb	sp!, {r3, r4, r5, r6, r7, r8, r9, sl, fp, lr}
 80092b8:	690f      	ldr	r7, [r1, #16]
 80092ba:	6913      	ldr	r3, [r2, #16]
 80092bc:	1aff      	subs	r7, r7, r3
 80092be:	2f00      	cmp	r7, #0
 80092c0:	460e      	mov	r6, r1
 80092c2:	4690      	mov	r8, r2
 80092c4:	d17a      	bne.n	80093bc <__mdiff+0x108>
 80092c6:	f101 0514 	add.w	r5, r1, #20
 80092ca:	3214      	adds	r2, #20
 80092cc:	eb02 0283 	add.w	r2, r2, r3, lsl #2
 80092d0:	eb05 0383 	add.w	r3, r5, r3, lsl #2
 80092d4:	e001      	b.n	80092da <__mdiff+0x26>
 80092d6:	429d      	cmp	r5, r3
 80092d8:	d273      	bcs.n	80093c2 <__mdiff+0x10e>
 80092da:	f853 1d04 	ldr.w	r1, [r3, #-4]!
 80092de:	f852 4d04 	ldr.w	r4, [r2, #-4]!
 80092e2:	42a1      	cmp	r1, r4
 80092e4:	d0f7      	beq.n	80092d6 <__mdiff+0x22>
 80092e6:	d364      	bcc.n	80093b2 <__mdiff+0xfe>
 80092e8:	6871      	ldr	r1, [r6, #4]
 80092ea:	f7ff fd41 	bl	8008d70 <_Balloc>
 80092ee:	4681      	mov	r9, r0
 80092f0:	2800      	cmp	r0, #0
 80092f2:	d072      	beq.n	80093da <__mdiff+0x126>
 80092f4:	6935      	ldr	r5, [r6, #16]
 80092f6:	f8d8 2010 	ldr.w	r2, [r8, #16]
 80092fa:	60c7      	str	r7, [r0, #12]
 80092fc:	f108 0e14 	add.w	lr, r8, #20
 8009300:	f106 0014 	add.w	r0, r6, #20
 8009304:	f109 0a14 	add.w	sl, r9, #20
 8009308:	f106 0c10 	add.w	ip, r6, #16
 800930c:	eb0e 0282 	add.w	r2, lr, r2, lsl #2
 8009310:	eb00 0785 	add.w	r7, r0, r5, lsl #2
 8009314:	4656      	mov	r6, sl
 8009316:	2100      	movs	r1, #0
 8009318:	f85e 4b04 	ldr.w	r4, [lr], #4
 800931c:	f85c bf04 	ldr.w	fp, [ip, #4]!
 8009320:	b2a3      	uxth	r3, r4
 8009322:	fa11 f18b 	uxtah	r1, r1, fp
 8009326:	1acb      	subs	r3, r1, r3
 8009328:	0c21      	lsrs	r1, r4, #16
 800932a:	ebc1 411b 	rsb	r1, r1, fp, lsr #16
 800932e:	eb01 4123 	add.w	r1, r1, r3, asr #16
 8009332:	b29b      	uxth	r3, r3
 8009334:	ea43 4301 	orr.w	r3, r3, r1, lsl #16
 8009338:	4572      	cmp	r2, lr
 800933a:	f846 3b04 	str.w	r3, [r6], #4
 800933e:	ea4f 4121 	mov.w	r1, r1, asr #16
 8009342:	d8e9      	bhi.n	8009318 <__mdiff+0x64>
 8009344:	eba2 0408 	sub.w	r4, r2, r8
 8009348:	3c15      	subs	r4, #21
 800934a:	f108 0815 	add.w	r8, r8, #21
 800934e:	4542      	cmp	r2, r8
 8009350:	f024 0603 	bic.w	r6, r4, #3
 8009354:	f106 0604 	add.w	r6, r6, #4
 8009358:	bf38      	it	cc
 800935a:	2604      	movcc	r6, #4
 800935c:	4430      	add	r0, r6
 800935e:	f024 0203 	bic.w	r2, r4, #3
 8009362:	bf38      	it	cc
 8009364:	2200      	movcc	r2, #0
 8009366:	4287      	cmp	r7, r0
 8009368:	4452      	add	r2, sl
 800936a:	44b2      	add	sl, r6
 800936c:	d916      	bls.n	800939c <__mdiff+0xe8>
 800936e:	4656      	mov	r6, sl
 8009370:	4604      	mov	r4, r0
 8009372:	f854 3b04 	ldr.w	r3, [r4], #4
 8009376:	fa11 f183 	uxtah	r1, r1, r3
 800937a:	140a      	asrs	r2, r1, #16
 800937c:	eb02 4213 	add.w	r2, r2, r3, lsr #16
 8009380:	b289      	uxth	r1, r1
 8009382:	ea41 4302 	orr.w	r3, r1, r2, lsl #16
 8009386:	42a7      	cmp	r7, r4
 8009388:	f846 3b04 	str.w	r3, [r6], #4
 800938c:	ea4f 4122 	mov.w	r1, r2, asr #16
 8009390:	d8ef      	bhi.n	8009372 <__mdiff+0xbe>
 8009392:	1e7a      	subs	r2, r7, #1
 8009394:	1a10      	subs	r0, r2, r0
 8009396:	f020 0203 	bic.w	r2, r0, #3
 800939a:	4452      	add	r2, sl
 800939c:	b923      	cbnz	r3, 80093a8 <__mdiff+0xf4>
 800939e:	f852 3d04 	ldr.w	r3, [r2, #-4]!
 80093a2:	3d01      	subs	r5, #1
 80093a4:	2b00      	cmp	r3, #0
 80093a6:	d0fa      	beq.n	800939e <__mdiff+0xea>
 80093a8:	f8c9 5010 	str.w	r5, [r9, #16]
 80093ac:	4648      	mov	r0, r9
 80093ae:	e8bd 8ff8 	ldmia.w	sp!, {r3, r4, r5, r6, r7, r8, r9, sl, fp, pc}
 80093b2:	4633      	mov	r3, r6
 80093b4:	2701      	movs	r7, #1
 80093b6:	4646      	mov	r6, r8
 80093b8:	4698      	mov	r8, r3
 80093ba:	e795      	b.n	80092e8 <__mdiff+0x34>
 80093bc:	dbf9      	blt.n	80093b2 <__mdiff+0xfe>
 80093be:	2700      	movs	r7, #0
 80093c0:	e792      	b.n	80092e8 <__mdiff+0x34>
 80093c2:	2100      	movs	r1, #0
 80093c4:	f7ff fcd4 	bl	8008d70 <_Balloc>
 80093c8:	4681      	mov	r9, r0
 80093ca:	b168      	cbz	r0, 80093e8 <__mdiff+0x134>
 80093cc:	2201      	movs	r2, #1
 80093ce:	2300      	movs	r3, #0
 80093d0:	e9c9 2304 	strd	r2, r3, [r9, #16]
 80093d4:	4648      	mov	r0, r9
 80093d6:	e8bd 8ff8 	ldmia.w	sp!, {r3, r4, r5, r6, r7, r8, r9, sl, fp, pc}
 80093da:	4b07      	ldr	r3, [pc, #28]	; (80093f8 <__mdiff+0x144>)
 80093dc:	4807      	ldr	r0, [pc, #28]	; (80093fc <__mdiff+0x148>)
 80093de:	464a      	mov	r2, r9
 80093e0:	f44f 7110 	mov.w	r1, #576	; 0x240
 80093e4:	f001 fa70 	bl	800a8c8 <__assert_func>
 80093e8:	4b03      	ldr	r3, [pc, #12]	; (80093f8 <__mdiff+0x144>)
 80093ea:	4804      	ldr	r0, [pc, #16]	; (80093fc <__mdiff+0x148>)
 80093ec:	464a      	mov	r2, r9
 80093ee:	f240 2132 	movw	r1, #562	; 0x232
 80093f2:	f001 fa69 	bl	800a8c8 <__assert_func>
 80093f6:	bf00      	nop
 80093f8:	0800b4b4 	.word	0x0800b4b4
 80093fc:	0800b548 	.word	0x0800b548

08009400 <__d2b>:
 8009400:	b570      	push	{r4, r5, r6, lr}
 8009402:	2101      	movs	r1, #1
 8009404:	b082      	sub	sp, #8
 8009406:	4616      	mov	r6, r2
 8009408:	461d      	mov	r5, r3
 800940a:	f7ff fcb1 	bl	8008d70 <_Balloc>
 800940e:	4604      	mov	r4, r0
 8009410:	2800      	cmp	r0, #0
 8009412:	d04b      	beq.n	80094ac <__d2b+0xac>
 8009414:	462b      	mov	r3, r5
 8009416:	f3c5 550a 	ubfx	r5, r5, #20, #11
 800941a:	f3c3 0313 	ubfx	r3, r3, #0, #20
 800941e:	b10d      	cbz	r5, 8009424 <__d2b+0x24>
 8009420:	f443 1380 	orr.w	r3, r3, #1048576	; 0x100000
 8009424:	2e00      	cmp	r6, #0
 8009426:	9301      	str	r3, [sp, #4]
 8009428:	d022      	beq.n	8009470 <__d2b+0x70>
 800942a:	4668      	mov	r0, sp
 800942c:	9600      	str	r6, [sp, #0]
 800942e:	f7ff fd3f 	bl	8008eb0 <__lo0bits>
 8009432:	2800      	cmp	r0, #0
 8009434:	d036      	beq.n	80094a4 <__d2b+0xa4>
 8009436:	9b01      	ldr	r3, [sp, #4]
 8009438:	9900      	ldr	r1, [sp, #0]
 800943a:	f1c0 0220 	rsb	r2, r0, #32
 800943e:	fa03 f202 	lsl.w	r2, r3, r2
 8009442:	430a      	orrs	r2, r1
 8009444:	40c3      	lsrs	r3, r0
 8009446:	9301      	str	r3, [sp, #4]
 8009448:	6162      	str	r2, [r4, #20]
 800944a:	2b00      	cmp	r3, #0
 800944c:	bf14      	ite	ne
 800944e:	2102      	movne	r1, #2
 8009450:	2101      	moveq	r1, #1
 8009452:	61a3      	str	r3, [r4, #24]
 8009454:	6121      	str	r1, [r4, #16]
 8009456:	b1ad      	cbz	r5, 8009484 <__d2b+0x84>
 8009458:	9a06      	ldr	r2, [sp, #24]
 800945a:	f2a5 4333 	subw	r3, r5, #1075	; 0x433
 800945e:	4403      	add	r3, r0
 8009460:	6013      	str	r3, [r2, #0]
 8009462:	9b07      	ldr	r3, [sp, #28]
 8009464:	f1c0 0035 	rsb	r0, r0, #53	; 0x35
 8009468:	6018      	str	r0, [r3, #0]
 800946a:	4620      	mov	r0, r4
 800946c:	b002      	add	sp, #8
 800946e:	bd70      	pop	{r4, r5, r6, pc}
 8009470:	a801      	add	r0, sp, #4
 8009472:	f7ff fd1d 	bl	8008eb0 <__lo0bits>
 8009476:	9b01      	ldr	r3, [sp, #4]
 8009478:	2101      	movs	r1, #1
 800947a:	e9c4 1304 	strd	r1, r3, [r4, #16]
 800947e:	3020      	adds	r0, #32
 8009480:	2d00      	cmp	r5, #0
 8009482:	d1e9      	bne.n	8009458 <__d2b+0x58>
 8009484:	eb04 0281 	add.w	r2, r4, r1, lsl #2
 8009488:	f2a0 4332 	subw	r3, r0, #1074	; 0x432
 800948c:	6910      	ldr	r0, [r2, #16]
 800948e:	9a06      	ldr	r2, [sp, #24]
 8009490:	6013      	str	r3, [r2, #0]
 8009492:	f7ff fced 	bl	8008e70 <__hi0bits>
 8009496:	9b07      	ldr	r3, [sp, #28]
 8009498:	ebc0 1141 	rsb	r1, r0, r1, lsl #5
 800949c:	4620      	mov	r0, r4
 800949e:	6019      	str	r1, [r3, #0]
 80094a0:	b002      	add	sp, #8
 80094a2:	bd70      	pop	{r4, r5, r6, pc}
 80094a4:	e9dd 2300 	ldrd	r2, r3, [sp]
 80094a8:	6162      	str	r2, [r4, #20]
 80094aa:	e7ce      	b.n	800944a <__d2b+0x4a>
 80094ac:	4b03      	ldr	r3, [pc, #12]	; (80094bc <__d2b+0xbc>)
 80094ae:	4804      	ldr	r0, [pc, #16]	; (80094c0 <__d2b+0xc0>)
 80094b0:	4622      	mov	r2, r4
 80094b2:	f240 310a 	movw	r1, #778	; 0x30a
 80094b6:	f001 fa07 	bl	800a8c8 <__assert_func>
 80094ba:	bf00      	nop
 80094bc:	0800b4b4 	.word	0x0800b4b4
 80094c0:	0800b548 	.word	0x0800b548

080094c4 <_read_r>:
 80094c4:	b538      	push	{r3, r4, r5, lr}
 80094c6:	460c      	mov	r4, r1
 80094c8:	4d08      	ldr	r5, [pc, #32]	; (80094ec <_read_r+0x28>)
 80094ca:	4684      	mov	ip, r0
 80094cc:	4611      	mov	r1, r2
 80094ce:	4620      	mov	r0, r4
 80094d0:	461a      	mov	r2, r3
 80094d2:	2300      	movs	r3, #0
 80094d4:	602b      	str	r3, [r5, #0]
 80094d6:	4664      	mov	r4, ip
 80094d8:	f001 fbf8 	bl	800accc <_read>
 80094dc:	1c43      	adds	r3, r0, #1
 80094de:	d000      	beq.n	80094e2 <_read_r+0x1e>
 80094e0:	bd38      	pop	{r3, r4, r5, pc}
 80094e2:	682b      	ldr	r3, [r5, #0]
 80094e4:	2b00      	cmp	r3, #0
 80094e6:	d0fb      	beq.n	80094e0 <_read_r+0x1c>
 80094e8:	6023      	str	r3, [r4, #0]
 80094ea:	bd38      	pop	{r3, r4, r5, pc}
 80094ec:	10001a50 	.word	0x10001a50

080094f0 <_realloc_r>:
 80094f0:	e92d 4ff8 	stmdb	sp!, {r3, r4, r5, r6, r7, r8, r9, sl, fp, lr}
 80094f4:	4617      	mov	r7, r2
 80094f6:	2900      	cmp	r1, #0
 80094f8:	f000 8098 	beq.w	800962c <_realloc_r+0x13c>
 80094fc:	f107 050b 	add.w	r5, r7, #11
 8009500:	4680      	mov	r8, r0
 8009502:	460c      	mov	r4, r1
 8009504:	f7fc f834 	bl	8005570 <__malloc_lock>
 8009508:	2d16      	cmp	r5, #22
 800950a:	d85d      	bhi.n	80095c8 <_realloc_r+0xd8>
 800950c:	2510      	movs	r5, #16
 800950e:	462a      	mov	r2, r5
 8009510:	42af      	cmp	r7, r5
 8009512:	d85e      	bhi.n	80095d2 <_realloc_r+0xe2>
 8009514:	f854 1c04 	ldr.w	r1, [r4, #-4]
 8009518:	f021 0603 	bic.w	r6, r1, #3
 800951c:	4296      	cmp	r6, r2
 800951e:	f1a4 0908 	sub.w	r9, r4, #8
 8009522:	da62      	bge.n	80095ea <_realloc_r+0xfa>
 8009524:	4bbc      	ldr	r3, [pc, #752]	; (8009818 <_realloc_r+0x328>)
 8009526:	f8d3 c008 	ldr.w	ip, [r3, #8]
 800952a:	eb09 0006 	add.w	r0, r9, r6
 800952e:	4584      	cmp	ip, r0
 8009530:	f000 8097 	beq.w	8009662 <_realloc_r+0x172>
 8009534:	f8d0 c004 	ldr.w	ip, [r0, #4]
 8009538:	f02c 0301 	bic.w	r3, ip, #1
 800953c:	4403      	add	r3, r0
 800953e:	685b      	ldr	r3, [r3, #4]
 8009540:	07db      	lsls	r3, r3, #31
 8009542:	d468      	bmi.n	8009616 <_realloc_r+0x126>
 8009544:	f02c 0c03 	bic.w	ip, ip, #3
 8009548:	eb06 030c 	add.w	r3, r6, ip
 800954c:	4293      	cmp	r3, r2
 800954e:	da47      	bge.n	80095e0 <_realloc_r+0xf0>
 8009550:	07cb      	lsls	r3, r1, #31
 8009552:	d410      	bmi.n	8009576 <_realloc_r+0x86>
 8009554:	f854 3c08 	ldr.w	r3, [r4, #-8]
 8009558:	eba9 0a03 	sub.w	sl, r9, r3
 800955c:	f8da 3004 	ldr.w	r3, [sl, #4]
 8009560:	f023 0103 	bic.w	r1, r3, #3
 8009564:	448c      	add	ip, r1
 8009566:	44b4      	add	ip, r6
 8009568:	4594      	cmp	ip, r2
 800956a:	f280 8111 	bge.w	8009790 <_realloc_r+0x2a0>
 800956e:	1873      	adds	r3, r6, r1
 8009570:	4293      	cmp	r3, r2
 8009572:	f280 80e8 	bge.w	8009746 <_realloc_r+0x256>
 8009576:	4639      	mov	r1, r7
 8009578:	4640      	mov	r0, r8
 800957a:	f7fb fc47 	bl	8004e0c <_malloc_r>
 800957e:	4607      	mov	r7, r0
 8009580:	b1e0      	cbz	r0, 80095bc <_realloc_r+0xcc>
 8009582:	f854 3c04 	ldr.w	r3, [r4, #-4]
 8009586:	f023 0301 	bic.w	r3, r3, #1
 800958a:	444b      	add	r3, r9
 800958c:	f1a0 0208 	sub.w	r2, r0, #8
 8009590:	4293      	cmp	r3, r2
 8009592:	f000 80d2 	beq.w	800973a <_realloc_r+0x24a>
 8009596:	1f32      	subs	r2, r6, #4
 8009598:	2a24      	cmp	r2, #36	; 0x24
 800959a:	f200 80f5 	bhi.w	8009788 <_realloc_r+0x298>
 800959e:	2a13      	cmp	r2, #19
 80095a0:	f200 80ac 	bhi.w	80096fc <_realloc_r+0x20c>
 80095a4:	4603      	mov	r3, r0
 80095a6:	4622      	mov	r2, r4
 80095a8:	6811      	ldr	r1, [r2, #0]
 80095aa:	6019      	str	r1, [r3, #0]
 80095ac:	6851      	ldr	r1, [r2, #4]
 80095ae:	6059      	str	r1, [r3, #4]
 80095b0:	6892      	ldr	r2, [r2, #8]
 80095b2:	609a      	str	r2, [r3, #8]
 80095b4:	4621      	mov	r1, r4
 80095b6:	4640      	mov	r0, r8
 80095b8:	f7ff f8d6 	bl	8008768 <_free_r>
 80095bc:	4640      	mov	r0, r8
 80095be:	f7fb ffdd 	bl	800557c <__malloc_unlock>
 80095c2:	4638      	mov	r0, r7
 80095c4:	e8bd 8ff8 	ldmia.w	sp!, {r3, r4, r5, r6, r7, r8, r9, sl, fp, pc}
 80095c8:	f025 0507 	bic.w	r5, r5, #7
 80095cc:	2d00      	cmp	r5, #0
 80095ce:	462a      	mov	r2, r5
 80095d0:	da9e      	bge.n	8009510 <_realloc_r+0x20>
 80095d2:	230c      	movs	r3, #12
 80095d4:	f8c8 3000 	str.w	r3, [r8]
 80095d8:	2700      	movs	r7, #0
 80095da:	4638      	mov	r0, r7
 80095dc:	e8bd 8ff8 	ldmia.w	sp!, {r3, r4, r5, r6, r7, r8, r9, sl, fp, pc}
 80095e0:	461e      	mov	r6, r3
 80095e2:	e9d0 2302 	ldrd	r2, r3, [r0, #8]
 80095e6:	60d3      	str	r3, [r2, #12]
 80095e8:	609a      	str	r2, [r3, #8]
 80095ea:	1b73      	subs	r3, r6, r5
 80095ec:	2b0f      	cmp	r3, #15
 80095ee:	d822      	bhi.n	8009636 <_realloc_r+0x146>
 80095f0:	f8d9 3004 	ldr.w	r3, [r9, #4]
 80095f4:	f003 0301 	and.w	r3, r3, #1
 80095f8:	4333      	orrs	r3, r6
 80095fa:	444e      	add	r6, r9
 80095fc:	f8c9 3004 	str.w	r3, [r9, #4]
 8009600:	6873      	ldr	r3, [r6, #4]
 8009602:	f043 0301 	orr.w	r3, r3, #1
 8009606:	6073      	str	r3, [r6, #4]
 8009608:	4640      	mov	r0, r8
 800960a:	4627      	mov	r7, r4
 800960c:	f7fb ffb6 	bl	800557c <__malloc_unlock>
 8009610:	4638      	mov	r0, r7
 8009612:	e8bd 8ff8 	ldmia.w	sp!, {r3, r4, r5, r6, r7, r8, r9, sl, fp, pc}
 8009616:	07c9      	lsls	r1, r1, #31
 8009618:	d4ad      	bmi.n	8009576 <_realloc_r+0x86>
 800961a:	f854 3c08 	ldr.w	r3, [r4, #-8]
 800961e:	eba9 0a03 	sub.w	sl, r9, r3
 8009622:	f8da 1004 	ldr.w	r1, [sl, #4]
 8009626:	f021 0103 	bic.w	r1, r1, #3
 800962a:	e7a0      	b.n	800956e <_realloc_r+0x7e>
 800962c:	e8bd 4ff8 	ldmia.w	sp!, {r3, r4, r5, r6, r7, r8, r9, sl, fp, lr}
 8009630:	4611      	mov	r1, r2
 8009632:	f7fb bbeb 	b.w	8004e0c <_malloc_r>
 8009636:	f8d9 1004 	ldr.w	r1, [r9, #4]
 800963a:	f001 0101 	and.w	r1, r1, #1
 800963e:	4329      	orrs	r1, r5
 8009640:	f8c9 1004 	str.w	r1, [r9, #4]
 8009644:	eb09 0105 	add.w	r1, r9, r5
 8009648:	444e      	add	r6, r9
 800964a:	f043 0301 	orr.w	r3, r3, #1
 800964e:	604b      	str	r3, [r1, #4]
 8009650:	6873      	ldr	r3, [r6, #4]
 8009652:	f043 0301 	orr.w	r3, r3, #1
 8009656:	3108      	adds	r1, #8
 8009658:	6073      	str	r3, [r6, #4]
 800965a:	4640      	mov	r0, r8
 800965c:	f7ff f884 	bl	8008768 <_free_r>
 8009660:	e7d2      	b.n	8009608 <_realloc_r+0x118>
 8009662:	f8dc 0004 	ldr.w	r0, [ip, #4]
 8009666:	f020 0b03 	bic.w	fp, r0, #3
 800966a:	eb06 0c0b 	add.w	ip, r6, fp
 800966e:	f105 0010 	add.w	r0, r5, #16
 8009672:	4584      	cmp	ip, r0
 8009674:	da4d      	bge.n	8009712 <_realloc_r+0x222>
 8009676:	07c9      	lsls	r1, r1, #31
 8009678:	f53f af7d 	bmi.w	8009576 <_realloc_r+0x86>
 800967c:	f854 1c08 	ldr.w	r1, [r4, #-8]
 8009680:	eba9 0a01 	sub.w	sl, r9, r1
 8009684:	f8da 1004 	ldr.w	r1, [sl, #4]
 8009688:	f021 0103 	bic.w	r1, r1, #3
 800968c:	448b      	add	fp, r1
 800968e:	44b3      	add	fp, r6
 8009690:	4558      	cmp	r0, fp
 8009692:	f73f af6c 	bgt.w	800956e <_realloc_r+0x7e>
 8009696:	4657      	mov	r7, sl
 8009698:	f8da 100c 	ldr.w	r1, [sl, #12]
 800969c:	f857 0f08 	ldr.w	r0, [r7, #8]!
 80096a0:	1f32      	subs	r2, r6, #4
 80096a2:	2a24      	cmp	r2, #36	; 0x24
 80096a4:	60c1      	str	r1, [r0, #12]
 80096a6:	6088      	str	r0, [r1, #8]
 80096a8:	f200 80db 	bhi.w	8009862 <_realloc_r+0x372>
 80096ac:	2a13      	cmp	r2, #19
 80096ae:	f240 80d6 	bls.w	800985e <_realloc_r+0x36e>
 80096b2:	6821      	ldr	r1, [r4, #0]
 80096b4:	f8ca 1008 	str.w	r1, [sl, #8]
 80096b8:	6861      	ldr	r1, [r4, #4]
 80096ba:	f8ca 100c 	str.w	r1, [sl, #12]
 80096be:	2a1b      	cmp	r2, #27
 80096c0:	f200 80df 	bhi.w	8009882 <_realloc_r+0x392>
 80096c4:	3408      	adds	r4, #8
 80096c6:	f10a 0210 	add.w	r2, sl, #16
 80096ca:	6821      	ldr	r1, [r4, #0]
 80096cc:	6011      	str	r1, [r2, #0]
 80096ce:	6861      	ldr	r1, [r4, #4]
 80096d0:	6051      	str	r1, [r2, #4]
 80096d2:	68a1      	ldr	r1, [r4, #8]
 80096d4:	6091      	str	r1, [r2, #8]
 80096d6:	eb0a 0105 	add.w	r1, sl, r5
 80096da:	ebab 0205 	sub.w	r2, fp, r5
 80096de:	f042 0201 	orr.w	r2, r2, #1
 80096e2:	6099      	str	r1, [r3, #8]
 80096e4:	604a      	str	r2, [r1, #4]
 80096e6:	f8da 3004 	ldr.w	r3, [sl, #4]
 80096ea:	f003 0301 	and.w	r3, r3, #1
 80096ee:	431d      	orrs	r5, r3
 80096f0:	4640      	mov	r0, r8
 80096f2:	f8ca 5004 	str.w	r5, [sl, #4]
 80096f6:	f7fb ff41 	bl	800557c <__malloc_unlock>
 80096fa:	e76e      	b.n	80095da <_realloc_r+0xea>
 80096fc:	6823      	ldr	r3, [r4, #0]
 80096fe:	6003      	str	r3, [r0, #0]
 8009700:	6863      	ldr	r3, [r4, #4]
 8009702:	6043      	str	r3, [r0, #4]
 8009704:	2a1b      	cmp	r2, #27
 8009706:	d868      	bhi.n	80097da <_realloc_r+0x2ea>
 8009708:	f104 0208 	add.w	r2, r4, #8
 800970c:	f100 0308 	add.w	r3, r0, #8
 8009710:	e74a      	b.n	80095a8 <_realloc_r+0xb8>
 8009712:	eb09 0205 	add.w	r2, r9, r5
 8009716:	609a      	str	r2, [r3, #8]
 8009718:	ebac 0305 	sub.w	r3, ip, r5
 800971c:	f043 0301 	orr.w	r3, r3, #1
 8009720:	6053      	str	r3, [r2, #4]
 8009722:	f854 3c04 	ldr.w	r3, [r4, #-4]
 8009726:	f003 0301 	and.w	r3, r3, #1
 800972a:	431d      	orrs	r5, r3
 800972c:	4640      	mov	r0, r8
 800972e:	f844 5c04 	str.w	r5, [r4, #-4]
 8009732:	f7fb ff23 	bl	800557c <__malloc_unlock>
 8009736:	4627      	mov	r7, r4
 8009738:	e74f      	b.n	80095da <_realloc_r+0xea>
 800973a:	f850 3c04 	ldr.w	r3, [r0, #-4]
 800973e:	f023 0303 	bic.w	r3, r3, #3
 8009742:	441e      	add	r6, r3
 8009744:	e751      	b.n	80095ea <_realloc_r+0xfa>
 8009746:	4657      	mov	r7, sl
 8009748:	f8da 100c 	ldr.w	r1, [sl, #12]
 800974c:	f857 0f08 	ldr.w	r0, [r7, #8]!
 8009750:	1f32      	subs	r2, r6, #4
 8009752:	2a24      	cmp	r2, #36	; 0x24
 8009754:	60c1      	str	r1, [r0, #12]
 8009756:	6088      	str	r0, [r1, #8]
 8009758:	d84c      	bhi.n	80097f4 <_realloc_r+0x304>
 800975a:	2a13      	cmp	r2, #19
 800975c:	d948      	bls.n	80097f0 <_realloc_r+0x300>
 800975e:	6821      	ldr	r1, [r4, #0]
 8009760:	f8ca 1008 	str.w	r1, [sl, #8]
 8009764:	6861      	ldr	r1, [r4, #4]
 8009766:	f8ca 100c 	str.w	r1, [sl, #12]
 800976a:	2a1b      	cmp	r2, #27
 800976c:	d856      	bhi.n	800981c <_realloc_r+0x32c>
 800976e:	3408      	adds	r4, #8
 8009770:	f10a 0210 	add.w	r2, sl, #16
 8009774:	461e      	mov	r6, r3
 8009776:	6823      	ldr	r3, [r4, #0]
 8009778:	6013      	str	r3, [r2, #0]
 800977a:	6863      	ldr	r3, [r4, #4]
 800977c:	6053      	str	r3, [r2, #4]
 800977e:	68a3      	ldr	r3, [r4, #8]
 8009780:	6093      	str	r3, [r2, #8]
 8009782:	46d1      	mov	r9, sl
 8009784:	463c      	mov	r4, r7
 8009786:	e730      	b.n	80095ea <_realloc_r+0xfa>
 8009788:	4621      	mov	r1, r4
 800978a:	f7fb fe23 	bl	80053d4 <memmove>
 800978e:	e711      	b.n	80095b4 <_realloc_r+0xc4>
 8009790:	e9d0 1302 	ldrd	r1, r3, [r0, #8]
 8009794:	4657      	mov	r7, sl
 8009796:	60cb      	str	r3, [r1, #12]
 8009798:	6099      	str	r1, [r3, #8]
 800979a:	f857 1f08 	ldr.w	r1, [r7, #8]!
 800979e:	f8da 300c 	ldr.w	r3, [sl, #12]
 80097a2:	60cb      	str	r3, [r1, #12]
 80097a4:	1f32      	subs	r2, r6, #4
 80097a6:	2a24      	cmp	r2, #36	; 0x24
 80097a8:	6099      	str	r1, [r3, #8]
 80097aa:	d82d      	bhi.n	8009808 <_realloc_r+0x318>
 80097ac:	2a13      	cmp	r2, #19
 80097ae:	d929      	bls.n	8009804 <_realloc_r+0x314>
 80097b0:	6823      	ldr	r3, [r4, #0]
 80097b2:	f8ca 3008 	str.w	r3, [sl, #8]
 80097b6:	6863      	ldr	r3, [r4, #4]
 80097b8:	f8ca 300c 	str.w	r3, [sl, #12]
 80097bc:	2a1b      	cmp	r2, #27
 80097be:	d842      	bhi.n	8009846 <_realloc_r+0x356>
 80097c0:	3408      	adds	r4, #8
 80097c2:	f10a 0310 	add.w	r3, sl, #16
 80097c6:	6822      	ldr	r2, [r4, #0]
 80097c8:	601a      	str	r2, [r3, #0]
 80097ca:	6862      	ldr	r2, [r4, #4]
 80097cc:	605a      	str	r2, [r3, #4]
 80097ce:	68a2      	ldr	r2, [r4, #8]
 80097d0:	609a      	str	r2, [r3, #8]
 80097d2:	4666      	mov	r6, ip
 80097d4:	46d1      	mov	r9, sl
 80097d6:	463c      	mov	r4, r7
 80097d8:	e707      	b.n	80095ea <_realloc_r+0xfa>
 80097da:	68a3      	ldr	r3, [r4, #8]
 80097dc:	6083      	str	r3, [r0, #8]
 80097de:	68e3      	ldr	r3, [r4, #12]
 80097e0:	60c3      	str	r3, [r0, #12]
 80097e2:	2a24      	cmp	r2, #36	; 0x24
 80097e4:	d026      	beq.n	8009834 <_realloc_r+0x344>
 80097e6:	f104 0210 	add.w	r2, r4, #16
 80097ea:	f100 0310 	add.w	r3, r0, #16
 80097ee:	e6db      	b.n	80095a8 <_realloc_r+0xb8>
 80097f0:	463a      	mov	r2, r7
 80097f2:	e7bf      	b.n	8009774 <_realloc_r+0x284>
 80097f4:	4621      	mov	r1, r4
 80097f6:	4638      	mov	r0, r7
 80097f8:	461e      	mov	r6, r3
 80097fa:	46d1      	mov	r9, sl
 80097fc:	f7fb fdea 	bl	80053d4 <memmove>
 8009800:	463c      	mov	r4, r7
 8009802:	e6f2      	b.n	80095ea <_realloc_r+0xfa>
 8009804:	463b      	mov	r3, r7
 8009806:	e7de      	b.n	80097c6 <_realloc_r+0x2d6>
 8009808:	4621      	mov	r1, r4
 800980a:	4638      	mov	r0, r7
 800980c:	4666      	mov	r6, ip
 800980e:	46d1      	mov	r9, sl
 8009810:	f7fb fde0 	bl	80053d4 <memmove>
 8009814:	463c      	mov	r4, r7
 8009816:	e6e8      	b.n	80095ea <_realloc_r+0xfa>
 8009818:	10000430 	.word	0x10000430
 800981c:	68a1      	ldr	r1, [r4, #8]
 800981e:	f8ca 1010 	str.w	r1, [sl, #16]
 8009822:	68e1      	ldr	r1, [r4, #12]
 8009824:	f8ca 1014 	str.w	r1, [sl, #20]
 8009828:	2a24      	cmp	r2, #36	; 0x24
 800982a:	d020      	beq.n	800986e <_realloc_r+0x37e>
 800982c:	3410      	adds	r4, #16
 800982e:	f10a 0218 	add.w	r2, sl, #24
 8009832:	e79f      	b.n	8009774 <_realloc_r+0x284>
 8009834:	6923      	ldr	r3, [r4, #16]
 8009836:	6103      	str	r3, [r0, #16]
 8009838:	6961      	ldr	r1, [r4, #20]
 800983a:	6141      	str	r1, [r0, #20]
 800983c:	f104 0218 	add.w	r2, r4, #24
 8009840:	f100 0318 	add.w	r3, r0, #24
 8009844:	e6b0      	b.n	80095a8 <_realloc_r+0xb8>
 8009846:	68a3      	ldr	r3, [r4, #8]
 8009848:	f8ca 3010 	str.w	r3, [sl, #16]
 800984c:	68e3      	ldr	r3, [r4, #12]
 800984e:	f8ca 3014 	str.w	r3, [sl, #20]
 8009852:	2a24      	cmp	r2, #36	; 0x24
 8009854:	d021      	beq.n	800989a <_realloc_r+0x3aa>
 8009856:	3410      	adds	r4, #16
 8009858:	f10a 0318 	add.w	r3, sl, #24
 800985c:	e7b3      	b.n	80097c6 <_realloc_r+0x2d6>
 800985e:	463a      	mov	r2, r7
 8009860:	e733      	b.n	80096ca <_realloc_r+0x1da>
 8009862:	4621      	mov	r1, r4
 8009864:	4638      	mov	r0, r7
 8009866:	f7fb fdb5 	bl	80053d4 <memmove>
 800986a:	4b16      	ldr	r3, [pc, #88]	; (80098c4 <_realloc_r+0x3d4>)
 800986c:	e733      	b.n	80096d6 <_realloc_r+0x1e6>
 800986e:	6922      	ldr	r2, [r4, #16]
 8009870:	f8ca 2018 	str.w	r2, [sl, #24]
 8009874:	6962      	ldr	r2, [r4, #20]
 8009876:	f8ca 201c 	str.w	r2, [sl, #28]
 800987a:	3418      	adds	r4, #24
 800987c:	f10a 0220 	add.w	r2, sl, #32
 8009880:	e778      	b.n	8009774 <_realloc_r+0x284>
 8009882:	68a1      	ldr	r1, [r4, #8]
 8009884:	f8ca 1010 	str.w	r1, [sl, #16]
 8009888:	68e1      	ldr	r1, [r4, #12]
 800988a:	f8ca 1014 	str.w	r1, [sl, #20]
 800988e:	2a24      	cmp	r2, #36	; 0x24
 8009890:	d00d      	beq.n	80098ae <_realloc_r+0x3be>
 8009892:	3410      	adds	r4, #16
 8009894:	f10a 0218 	add.w	r2, sl, #24
 8009898:	e717      	b.n	80096ca <_realloc_r+0x1da>
 800989a:	6923      	ldr	r3, [r4, #16]
 800989c:	f8ca 3018 	str.w	r3, [sl, #24]
 80098a0:	6963      	ldr	r3, [r4, #20]
 80098a2:	f8ca 301c 	str.w	r3, [sl, #28]
 80098a6:	3418      	adds	r4, #24
 80098a8:	f10a 0320 	add.w	r3, sl, #32
 80098ac:	e78b      	b.n	80097c6 <_realloc_r+0x2d6>
 80098ae:	6922      	ldr	r2, [r4, #16]
 80098b0:	f8ca 2018 	str.w	r2, [sl, #24]
 80098b4:	6962      	ldr	r2, [r4, #20]
 80098b6:	f8ca 201c 	str.w	r2, [sl, #28]
 80098ba:	3418      	adds	r4, #24
 80098bc:	f10a 0220 	add.w	r2, sl, #32
 80098c0:	e703      	b.n	80096ca <_realloc_r+0x1da>
 80098c2:	bf00      	nop
 80098c4:	10000430 	.word	0x10000430

080098c8 <frexp>:
 80098c8:	f8df c060 	ldr.w	ip, [pc, #96]	; 800992c <frexp+0x64>
 80098cc:	b5f8      	push	{r3, r4, r5, r6, r7, lr}
 80098ce:	f021 4300 	bic.w	r3, r1, #2147483648	; 0x80000000
 80098d2:	2700      	movs	r7, #0
 80098d4:	4563      	cmp	r3, ip
 80098d6:	4604      	mov	r4, r0
 80098d8:	460d      	mov	r5, r1
 80098da:	4616      	mov	r6, r2
 80098dc:	6017      	str	r7, [r2, #0]
 80098de:	dc22      	bgt.n	8009926 <frexp+0x5e>
 80098e0:	4684      	mov	ip, r0
 80098e2:	ea53 0c0c 	orrs.w	ip, r3, ip
 80098e6:	d01e      	beq.n	8009926 <frexp+0x5e>
 80098e8:	f8df c044 	ldr.w	ip, [pc, #68]	; 8009930 <frexp+0x68>
 80098ec:	ea01 0c0c 	and.w	ip, r1, ip
 80098f0:	460a      	mov	r2, r1
 80098f2:	f1bc 0f00 	cmp.w	ip, #0
 80098f6:	d109      	bne.n	800990c <frexp+0x44>
 80098f8:	4b0e      	ldr	r3, [pc, #56]	; (8009934 <frexp+0x6c>)
 80098fa:	2200      	movs	r2, #0
 80098fc:	f7f6 ff9c 	bl	8000838 <__aeabi_dmul>
 8009900:	f06f 0735 	mvn.w	r7, #53	; 0x35
 8009904:	4604      	mov	r4, r0
 8009906:	460a      	mov	r2, r1
 8009908:	f021 4300 	bic.w	r3, r1, #2147483648	; 0x80000000
 800990c:	f022 42ff 	bic.w	r2, r2, #2139095040	; 0x7f800000
 8009910:	151b      	asrs	r3, r3, #20
 8009912:	f422 02e0 	bic.w	r2, r2, #7340032	; 0x700000
 8009916:	f2a3 33fe 	subw	r3, r3, #1022	; 0x3fe
 800991a:	f042 557f 	orr.w	r5, r2, #1069547520	; 0x3fc00000
 800991e:	443b      	add	r3, r7
 8009920:	f445 1500 	orr.w	r5, r5, #2097152	; 0x200000
 8009924:	6033      	str	r3, [r6, #0]
 8009926:	4620      	mov	r0, r4
 8009928:	4629      	mov	r1, r5
 800992a:	bdf8      	pop	{r3, r4, r5, r6, r7, pc}
 800992c:	7fefffff 	.word	0x7fefffff
 8009930:	7ff00000 	.word	0x7ff00000
 8009934:	43500000 	.word	0x43500000

08009938 <strncpy>:
 8009938:	b530      	push	{r4, r5, lr}
 800993a:	ea40 0401 	orr.w	r4, r0, r1
 800993e:	07a3      	lsls	r3, r4, #30
 8009940:	d101      	bne.n	8009946 <strncpy+0xe>
 8009942:	2a03      	cmp	r2, #3
 8009944:	d80f      	bhi.n	8009966 <strncpy+0x2e>
 8009946:	4684      	mov	ip, r0
 8009948:	f101 3eff 	add.w	lr, r1, #4294967295
 800994c:	e007      	b.n	800995e <strncpy+0x26>
 800994e:	f81e 1f01 	ldrb.w	r1, [lr, #1]!
 8009952:	f803 1b01 	strb.w	r1, [r3], #1
 8009956:	1e54      	subs	r4, r2, #1
 8009958:	b1c1      	cbz	r1, 800998c <strncpy+0x54>
 800995a:	469c      	mov	ip, r3
 800995c:	4622      	mov	r2, r4
 800995e:	4663      	mov	r3, ip
 8009960:	2a00      	cmp	r2, #0
 8009962:	d1f4      	bne.n	800994e <strncpy+0x16>
 8009964:	bd30      	pop	{r4, r5, pc}
 8009966:	460b      	mov	r3, r1
 8009968:	4684      	mov	ip, r0
 800996a:	4619      	mov	r1, r3
 800996c:	f853 5b04 	ldr.w	r5, [r3], #4
 8009970:	f1a5 3401 	sub.w	r4, r5, #16843009	; 0x1010101
 8009974:	ea24 0405 	bic.w	r4, r4, r5
 8009978:	f014 3f80 	tst.w	r4, #2155905152	; 0x80808080
 800997c:	d1e4      	bne.n	8009948 <strncpy+0x10>
 800997e:	3a04      	subs	r2, #4
 8009980:	2a03      	cmp	r2, #3
 8009982:	f84c 5b04 	str.w	r5, [ip], #4
 8009986:	4619      	mov	r1, r3
 8009988:	d8ef      	bhi.n	800996a <strncpy+0x32>
 800998a:	e7dd      	b.n	8009948 <strncpy+0x10>
 800998c:	4462      	add	r2, ip
 800998e:	2c00      	cmp	r4, #0
 8009990:	d0e8      	beq.n	8009964 <strncpy+0x2c>
 8009992:	f803 1b01 	strb.w	r1, [r3], #1
 8009996:	4293      	cmp	r3, r2
 8009998:	d1fb      	bne.n	8009992 <strncpy+0x5a>
 800999a:	bd30      	pop	{r4, r5, pc}

0800999c <__sprint_r.part.0>:
 800999c:	e92d 4ff8 	stmdb	sp!, {r3, r4, r5, r6, r7, r8, r9, sl, fp, lr}
 80099a0:	6e4b      	ldr	r3, [r1, #100]	; 0x64
 80099a2:	049c      	lsls	r4, r3, #18
 80099a4:	4690      	mov	r8, r2
 80099a6:	d52d      	bpl.n	8009a04 <__sprint_r.part.0+0x68>
 80099a8:	6893      	ldr	r3, [r2, #8]
 80099aa:	6812      	ldr	r2, [r2, #0]
 80099ac:	b343      	cbz	r3, 8009a00 <__sprint_r.part.0+0x64>
 80099ae:	468b      	mov	fp, r1
 80099b0:	4606      	mov	r6, r0
 80099b2:	f102 0908 	add.w	r9, r2, #8
 80099b6:	e959 5a02 	ldrd	r5, sl, [r9, #-8]
 80099ba:	ea5f 079a 	movs.w	r7, sl, lsr #2
 80099be:	d015      	beq.n	80099ec <__sprint_r.part.0+0x50>
 80099c0:	3d04      	subs	r5, #4
 80099c2:	2400      	movs	r4, #0
 80099c4:	e001      	b.n	80099ca <__sprint_r.part.0+0x2e>
 80099c6:	42a7      	cmp	r7, r4
 80099c8:	d00e      	beq.n	80099e8 <__sprint_r.part.0+0x4c>
 80099ca:	f855 1f04 	ldr.w	r1, [r5, #4]!
 80099ce:	465a      	mov	r2, fp
 80099d0:	4630      	mov	r0, r6
 80099d2:	f001 f801 	bl	800a9d8 <_fputwc_r>
 80099d6:	1c43      	adds	r3, r0, #1
 80099d8:	f104 0401 	add.w	r4, r4, #1
 80099dc:	d1f3      	bne.n	80099c6 <__sprint_r.part.0+0x2a>
 80099de:	2300      	movs	r3, #0
 80099e0:	e9c8 3301 	strd	r3, r3, [r8, #4]
 80099e4:	e8bd 8ff8 	ldmia.w	sp!, {r3, r4, r5, r6, r7, r8, r9, sl, fp, pc}
 80099e8:	f8d8 3008 	ldr.w	r3, [r8, #8]
 80099ec:	f02a 0a03 	bic.w	sl, sl, #3
 80099f0:	eba3 030a 	sub.w	r3, r3, sl
 80099f4:	f8c8 3008 	str.w	r3, [r8, #8]
 80099f8:	f109 0908 	add.w	r9, r9, #8
 80099fc:	2b00      	cmp	r3, #0
 80099fe:	d1da      	bne.n	80099b6 <__sprint_r.part.0+0x1a>
 8009a00:	2000      	movs	r0, #0
 8009a02:	e7ec      	b.n	80099de <__sprint_r.part.0+0x42>
 8009a04:	f7fe ffb6 	bl	8008974 <__sfvwrite_r>
 8009a08:	2300      	movs	r3, #0
 8009a0a:	e9c8 3301 	strd	r3, r3, [r8, #4]
 8009a0e:	e8bd 8ff8 	ldmia.w	sp!, {r3, r4, r5, r6, r7, r8, r9, sl, fp, pc}
 8009a12:	bf00      	nop

08009a14 <__sprint_r>:
 8009a14:	b410      	push	{r4}
 8009a16:	6894      	ldr	r4, [r2, #8]
 8009a18:	b114      	cbz	r4, 8009a20 <__sprint_r+0xc>
 8009a1a:	bc10      	pop	{r4}
 8009a1c:	f7ff bfbe 	b.w	800999c <__sprint_r.part.0>
 8009a20:	4620      	mov	r0, r4
 8009a22:	6054      	str	r4, [r2, #4]
 8009a24:	bc10      	pop	{r4}
 8009a26:	4770      	bx	lr

08009a28 <_vfiprintf_r>:
 8009a28:	e92d 4ff0 	stmdb	sp!, {r4, r5, r6, r7, r8, r9, sl, fp, lr}
 8009a2c:	b0bd      	sub	sp, #244	; 0xf4
 8009a2e:	e9cd 3004 	strd	r3, r0, [sp, #16]
 8009a32:	461c      	mov	r4, r3
 8009a34:	9101      	str	r1, [sp, #4]
 8009a36:	4617      	mov	r7, r2
 8009a38:	b118      	cbz	r0, 8009a42 <_vfiprintf_r+0x1a>
 8009a3a:	6b83      	ldr	r3, [r0, #56]	; 0x38
 8009a3c:	2b00      	cmp	r3, #0
 8009a3e:	f000 8286 	beq.w	8009f4e <_vfiprintf_r+0x526>
 8009a42:	9a01      	ldr	r2, [sp, #4]
 8009a44:	6e53      	ldr	r3, [r2, #100]	; 0x64
 8009a46:	07de      	lsls	r6, r3, #31
 8009a48:	f140 818f 	bpl.w	8009d6a <_vfiprintf_r+0x342>
 8009a4c:	f9b2 100c 	ldrsh.w	r1, [r2, #12]
 8009a50:	b28a      	uxth	r2, r1
 8009a52:	0490      	lsls	r0, r2, #18
 8009a54:	d408      	bmi.n	8009a68 <_vfiprintf_r+0x40>
 8009a56:	f441 5200 	orr.w	r2, r1, #8192	; 0x2000
 8009a5a:	9901      	ldr	r1, [sp, #4]
 8009a5c:	6e4b      	ldr	r3, [r1, #100]	; 0x64
 8009a5e:	818a      	strh	r2, [r1, #12]
 8009a60:	f423 5300 	bic.w	r3, r3, #8192	; 0x2000
 8009a64:	b292      	uxth	r2, r2
 8009a66:	664b      	str	r3, [r1, #100]	; 0x64
 8009a68:	0711      	lsls	r1, r2, #28
 8009a6a:	f140 80f7 	bpl.w	8009c5c <_vfiprintf_r+0x234>
 8009a6e:	9b01      	ldr	r3, [sp, #4]
 8009a70:	691b      	ldr	r3, [r3, #16]
 8009a72:	2b00      	cmp	r3, #0
 8009a74:	f000 80f2 	beq.w	8009c5c <_vfiprintf_r+0x234>
 8009a78:	f002 031a 	and.w	r3, r2, #26
 8009a7c:	2b0a      	cmp	r3, #10
 8009a7e:	f000 80fb 	beq.w	8009c78 <_vfiprintf_r+0x250>
 8009a82:	ab13      	add	r3, sp, #76	; 0x4c
 8009a84:	9310      	str	r3, [sp, #64]	; 0x40
 8009a86:	2300      	movs	r3, #0
 8009a88:	e9cd 3311 	strd	r3, r3, [sp, #68]	; 0x44
 8009a8c:	e9cd 330a 	strd	r3, r3, [sp, #40]	; 0x28
 8009a90:	9308      	str	r3, [sp, #32]
 8009a92:	f10d 094c 	add.w	r9, sp, #76	; 0x4c
 8009a96:	9309      	str	r3, [sp, #36]	; 0x24
 8009a98:	9303      	str	r3, [sp, #12]
 8009a9a:	783b      	ldrb	r3, [r7, #0]
 8009a9c:	2b00      	cmp	r3, #0
 8009a9e:	f000 8151 	beq.w	8009d44 <_vfiprintf_r+0x31c>
 8009aa2:	463c      	mov	r4, r7
 8009aa4:	e004      	b.n	8009ab0 <_vfiprintf_r+0x88>
 8009aa6:	f814 3f01 	ldrb.w	r3, [r4, #1]!
 8009aaa:	2b00      	cmp	r3, #0
 8009aac:	f000 812c 	beq.w	8009d08 <_vfiprintf_r+0x2e0>
 8009ab0:	2b25      	cmp	r3, #37	; 0x25
 8009ab2:	d1f8      	bne.n	8009aa6 <_vfiprintf_r+0x7e>
 8009ab4:	1be5      	subs	r5, r4, r7
 8009ab6:	f040 8129 	bne.w	8009d0c <_vfiprintf_r+0x2e4>
 8009aba:	7823      	ldrb	r3, [r4, #0]
 8009abc:	2b00      	cmp	r3, #0
 8009abe:	f000 8141 	beq.w	8009d44 <_vfiprintf_r+0x31c>
 8009ac2:	f04f 0300 	mov.w	r3, #0
 8009ac6:	2500      	movs	r5, #0
 8009ac8:	f88d 303b 	strb.w	r3, [sp, #59]	; 0x3b
 8009acc:	1c67      	adds	r7, r4, #1
 8009ace:	7863      	ldrb	r3, [r4, #1]
 8009ad0:	9502      	str	r5, [sp, #8]
 8009ad2:	f04f 3bff 	mov.w	fp, #4294967295
 8009ad6:	242b      	movs	r4, #43	; 0x2b
 8009ad8:	3701      	adds	r7, #1
 8009ada:	f1a3 0220 	sub.w	r2, r3, #32
 8009ade:	2a5a      	cmp	r2, #90	; 0x5a
 8009ae0:	f200 8152 	bhi.w	8009d88 <_vfiprintf_r+0x360>
 8009ae4:	e8df f012 	tbh	[pc, r2, lsl #1]
 8009ae8:	01500298 	.word	0x01500298
 8009aec:	02940150 	.word	0x02940150
 8009af0:	01500150 	.word	0x01500150
 8009af4:	006a0150 	.word	0x006a0150
 8009af8:	01500150 	.word	0x01500150
 8009afc:	026b0236 	.word	0x026b0236
 8009b00:	02410150 	.word	0x02410150
 8009b04:	015002a6 	.word	0x015002a6
 8009b08:	005b02a2 	.word	0x005b02a2
 8009b0c:	005b005b 	.word	0x005b005b
 8009b10:	005b005b 	.word	0x005b005b
 8009b14:	005b005b 	.word	0x005b005b
 8009b18:	005b005b 	.word	0x005b005b
 8009b1c:	01500150 	.word	0x01500150
 8009b20:	01500150 	.word	0x01500150
 8009b24:	01500150 	.word	0x01500150
 8009b28:	01500150 	.word	0x01500150
 8009b2c:	02230150 	.word	0x02230150
 8009b30:	01500084 	.word	0x01500084
 8009b34:	01500150 	.word	0x01500150
 8009b38:	01500150 	.word	0x01500150
 8009b3c:	01500150 	.word	0x01500150
 8009b40:	01500150 	.word	0x01500150
 8009b44:	00dd0150 	.word	0x00dd0150
 8009b48:	01500150 	.word	0x01500150
 8009b4c:	02070150 	.word	0x02070150
 8009b50:	02590150 	.word	0x02590150
 8009b54:	01500150 	.word	0x01500150
 8009b58:	01500519 	.word	0x01500519
 8009b5c:	01500150 	.word	0x01500150
 8009b60:	01500150 	.word	0x01500150
 8009b64:	01500150 	.word	0x01500150
 8009b68:	01500150 	.word	0x01500150
 8009b6c:	02230150 	.word	0x02230150
 8009b70:	01500086 	.word	0x01500086
 8009b74:	01500150 	.word	0x01500150
 8009b78:	0086024f 	.word	0x0086024f
 8009b7c:	01500080 	.word	0x01500080
 8009b80:	01500245 	.word	0x01500245
 8009b84:	00df0281 	.word	0x00df0281
 8009b88:	0080026f 	.word	0x0080026f
 8009b8c:	02070150 	.word	0x02070150
 8009b90:	0539007e 	.word	0x0539007e
 8009b94:	01500150 	.word	0x01500150
 8009b98:	0150053b 	.word	0x0150053b
 8009b9c:	007e      	.short	0x007e
 8009b9e:	f1a3 0230 	sub.w	r2, r3, #48	; 0x30
 8009ba2:	2100      	movs	r1, #0
 8009ba4:	f817 3b01 	ldrb.w	r3, [r7], #1
 8009ba8:	eb01 0181 	add.w	r1, r1, r1, lsl #2
 8009bac:	eb02 0141 	add.w	r1, r2, r1, lsl #1
 8009bb0:	f1a3 0230 	sub.w	r2, r3, #48	; 0x30
 8009bb4:	2a09      	cmp	r2, #9
 8009bb6:	d9f5      	bls.n	8009ba4 <_vfiprintf_r+0x17c>
 8009bb8:	9102      	str	r1, [sp, #8]
 8009bba:	e78e      	b.n	8009ada <_vfiprintf_r+0xb2>
 8009bbc:	f8dd 8014 	ldr.w	r8, [sp, #20]
 8009bc0:	4640      	mov	r0, r8
 8009bc2:	f7ff f84b 	bl	8008c5c <_localeconv_r>
 8009bc6:	6843      	ldr	r3, [r0, #4]
 8009bc8:	930a      	str	r3, [sp, #40]	; 0x28
 8009bca:	4618      	mov	r0, r3
 8009bcc:	f7f6 fbb8 	bl	8000340 <strlen>
 8009bd0:	900b      	str	r0, [sp, #44]	; 0x2c
 8009bd2:	4606      	mov	r6, r0
 8009bd4:	4640      	mov	r0, r8
 8009bd6:	f7ff f841 	bl	8008c5c <_localeconv_r>
 8009bda:	6883      	ldr	r3, [r0, #8]
 8009bdc:	9309      	str	r3, [sp, #36]	; 0x24
 8009bde:	2e00      	cmp	r6, #0
 8009be0:	f040 8476 	bne.w	800a4d0 <_vfiprintf_r+0xaa8>
 8009be4:	783b      	ldrb	r3, [r7, #0]
 8009be6:	e777      	b.n	8009ad8 <_vfiprintf_r+0xb0>
 8009be8:	783b      	ldrb	r3, [r7, #0]
 8009bea:	f045 0520 	orr.w	r5, r5, #32
 8009bee:	e773      	b.n	8009ad8 <_vfiprintf_r+0xb0>
 8009bf0:	f045 0510 	orr.w	r5, r5, #16
 8009bf4:	06ac      	lsls	r4, r5, #26
 8009bf6:	9e04      	ldr	r6, [sp, #16]
 8009bf8:	f140 816f 	bpl.w	8009eda <_vfiprintf_r+0x4b2>
 8009bfc:	3607      	adds	r6, #7
 8009bfe:	f026 0607 	bic.w	r6, r6, #7
 8009c02:	4632      	mov	r2, r6
 8009c04:	6873      	ldr	r3, [r6, #4]
 8009c06:	f852 6b08 	ldr.w	r6, [r2], #8
 8009c0a:	9204      	str	r2, [sp, #16]
 8009c0c:	4698      	mov	r8, r3
 8009c0e:	2b00      	cmp	r3, #0
 8009c10:	f2c0 8428 	blt.w	800a464 <_vfiprintf_r+0xa3c>
 8009c14:	f1bb 3fff 	cmp.w	fp, #4294967295
 8009c18:	f000 850b 	beq.w	800a632 <_vfiprintf_r+0xc0a>
 8009c1c:	ea56 0308 	orrs.w	r3, r6, r8
 8009c20:	f025 0a80 	bic.w	sl, r5, #128	; 0x80
 8009c24:	f000 8403 	beq.w	800a42e <_vfiprintf_r+0xa06>
 8009c28:	2e0a      	cmp	r6, #10
 8009c2a:	f178 0300 	sbcs.w	r3, r8, #0
 8009c2e:	f080 84b8 	bcs.w	800a5a2 <_vfiprintf_r+0xb7a>
 8009c32:	3630      	adds	r6, #48	; 0x30
 8009c34:	2301      	movs	r3, #1
 8009c36:	f88d 60ef 	strb.w	r6, [sp, #239]	; 0xef
 8009c3a:	4655      	mov	r5, sl
 8009c3c:	9300      	str	r3, [sp, #0]
 8009c3e:	f10d 04ef 	add.w	r4, sp, #239	; 0xef
 8009c42:	f8dd 8000 	ldr.w	r8, [sp]
 8009c46:	f89d 303b 	ldrb.w	r3, [sp, #59]	; 0x3b
 8009c4a:	45d8      	cmp	r8, fp
 8009c4c:	bfb8      	it	lt
 8009c4e:	46d8      	movlt	r8, fp
 8009c50:	2b00      	cmp	r3, #0
 8009c52:	f000 80a8 	beq.w	8009da6 <_vfiprintf_r+0x37e>
 8009c56:	f108 0801 	add.w	r8, r8, #1
 8009c5a:	e0a4      	b.n	8009da6 <_vfiprintf_r+0x37e>
 8009c5c:	9d01      	ldr	r5, [sp, #4]
 8009c5e:	9805      	ldr	r0, [sp, #20]
 8009c60:	4629      	mov	r1, r5
 8009c62:	f7fd fb13 	bl	800728c <__swsetup_r>
 8009c66:	2800      	cmp	r0, #0
 8009c68:	f040 8582 	bne.w	800a770 <_vfiprintf_r+0xd48>
 8009c6c:	89aa      	ldrh	r2, [r5, #12]
 8009c6e:	f002 031a 	and.w	r3, r2, #26
 8009c72:	2b0a      	cmp	r3, #10
 8009c74:	f47f af05 	bne.w	8009a82 <_vfiprintf_r+0x5a>
 8009c78:	9901      	ldr	r1, [sp, #4]
 8009c7a:	f9b1 300e 	ldrsh.w	r3, [r1, #14]
 8009c7e:	2b00      	cmp	r3, #0
 8009c80:	f6ff aeff 	blt.w	8009a82 <_vfiprintf_r+0x5a>
 8009c84:	6e4b      	ldr	r3, [r1, #100]	; 0x64
 8009c86:	07de      	lsls	r6, r3, #31
 8009c88:	d402      	bmi.n	8009c90 <_vfiprintf_r+0x268>
 8009c8a:	0595      	lsls	r5, r2, #22
 8009c8c:	f140 8550 	bpl.w	800a730 <_vfiprintf_r+0xd08>
 8009c90:	9901      	ldr	r1, [sp, #4]
 8009c92:	9805      	ldr	r0, [sp, #20]
 8009c94:	4623      	mov	r3, r4
 8009c96:	463a      	mov	r2, r7
 8009c98:	b03d      	add	sp, #244	; 0xf4
 8009c9a:	e8bd 4ff0 	ldmia.w	sp!, {r4, r5, r6, r7, r8, r9, sl, fp, lr}
 8009c9e:	f000 bd8d 	b.w	800a7bc <__sbprintf>
 8009ca2:	f045 0510 	orr.w	r5, r5, #16
 8009ca6:	f015 0820 	ands.w	r8, r5, #32
 8009caa:	f000 8107 	beq.w	8009ebc <_vfiprintf_r+0x494>
 8009cae:	9e04      	ldr	r6, [sp, #16]
 8009cb0:	3607      	adds	r6, #7
 8009cb2:	f026 0607 	bic.w	r6, r6, #7
 8009cb6:	4633      	mov	r3, r6
 8009cb8:	f8d6 8004 	ldr.w	r8, [r6, #4]
 8009cbc:	f853 6b08 	ldr.w	r6, [r3], #8
 8009cc0:	9304      	str	r3, [sp, #16]
 8009cc2:	f425 6a80 	bic.w	sl, r5, #1024	; 0x400
 8009cc6:	2300      	movs	r3, #0
 8009cc8:	f04f 0200 	mov.w	r2, #0
 8009ccc:	f88d 203b 	strb.w	r2, [sp, #59]	; 0x3b
 8009cd0:	f1bb 3fff 	cmp.w	fp, #4294967295
 8009cd4:	f000 81c8 	beq.w	800a068 <_vfiprintf_r+0x640>
 8009cd8:	ea56 0208 	orrs.w	r2, r6, r8
 8009cdc:	f02a 0580 	bic.w	r5, sl, #128	; 0x80
 8009ce0:	f040 81c1 	bne.w	800a066 <_vfiprintf_r+0x63e>
 8009ce4:	f1bb 0f00 	cmp.w	fp, #0
 8009ce8:	f040 84a6 	bne.w	800a638 <_vfiprintf_r+0xc10>
 8009cec:	2b00      	cmp	r3, #0
 8009cee:	f040 83a3 	bne.w	800a438 <_vfiprintf_r+0xa10>
 8009cf2:	f01a 0301 	ands.w	r3, sl, #1
 8009cf6:	9300      	str	r3, [sp, #0]
 8009cf8:	f000 83d1 	beq.w	800a49e <_vfiprintf_r+0xa76>
 8009cfc:	2330      	movs	r3, #48	; 0x30
 8009cfe:	f88d 30ef 	strb.w	r3, [sp, #239]	; 0xef
 8009d02:	f10d 04ef 	add.w	r4, sp, #239	; 0xef
 8009d06:	e79c      	b.n	8009c42 <_vfiprintf_r+0x21a>
 8009d08:	1be5      	subs	r5, r4, r7
 8009d0a:	d01b      	beq.n	8009d44 <_vfiprintf_r+0x31c>
 8009d0c:	9b11      	ldr	r3, [sp, #68]	; 0x44
 8009d0e:	9a12      	ldr	r2, [sp, #72]	; 0x48
 8009d10:	3301      	adds	r3, #1
 8009d12:	442a      	add	r2, r5
 8009d14:	2b07      	cmp	r3, #7
 8009d16:	e9c9 7500 	strd	r7, r5, [r9]
 8009d1a:	9212      	str	r2, [sp, #72]	; 0x48
 8009d1c:	9311      	str	r3, [sp, #68]	; 0x44
 8009d1e:	dc05      	bgt.n	8009d2c <_vfiprintf_r+0x304>
 8009d20:	f109 0908 	add.w	r9, r9, #8
 8009d24:	9b03      	ldr	r3, [sp, #12]
 8009d26:	442b      	add	r3, r5
 8009d28:	9303      	str	r3, [sp, #12]
 8009d2a:	e6c6      	b.n	8009aba <_vfiprintf_r+0x92>
 8009d2c:	2a00      	cmp	r2, #0
 8009d2e:	f000 837a 	beq.w	800a426 <_vfiprintf_r+0x9fe>
 8009d32:	9901      	ldr	r1, [sp, #4]
 8009d34:	9805      	ldr	r0, [sp, #20]
 8009d36:	aa10      	add	r2, sp, #64	; 0x40
 8009d38:	f7ff fe30 	bl	800999c <__sprint_r.part.0>
 8009d3c:	b940      	cbnz	r0, 8009d50 <_vfiprintf_r+0x328>
 8009d3e:	f10d 094c 	add.w	r9, sp, #76	; 0x4c
 8009d42:	e7ef      	b.n	8009d24 <_vfiprintf_r+0x2fc>
 8009d44:	9b12      	ldr	r3, [sp, #72]	; 0x48
 8009d46:	2b00      	cmp	r3, #0
 8009d48:	f040 8503 	bne.w	800a752 <_vfiprintf_r+0xd2a>
 8009d4c:	2300      	movs	r3, #0
 8009d4e:	9311      	str	r3, [sp, #68]	; 0x44
 8009d50:	9a01      	ldr	r2, [sp, #4]
 8009d52:	6e53      	ldr	r3, [r2, #100]	; 0x64
 8009d54:	07d9      	lsls	r1, r3, #31
 8009d56:	f140 80a6 	bpl.w	8009ea6 <_vfiprintf_r+0x47e>
 8009d5a:	8993      	ldrh	r3, [r2, #12]
 8009d5c:	065b      	lsls	r3, r3, #25
 8009d5e:	f100 8513 	bmi.w	800a788 <_vfiprintf_r+0xd60>
 8009d62:	9803      	ldr	r0, [sp, #12]
 8009d64:	b03d      	add	sp, #244	; 0xf4
 8009d66:	e8bd 8ff0 	ldmia.w	sp!, {r4, r5, r6, r7, r8, r9, sl, fp, pc}
 8009d6a:	9b01      	ldr	r3, [sp, #4]
 8009d6c:	f9b3 100c 	ldrsh.w	r1, [r3, #12]
 8009d70:	058d      	lsls	r5, r1, #22
 8009d72:	b28a      	uxth	r2, r1
 8009d74:	f53f ae6d 	bmi.w	8009a52 <_vfiprintf_r+0x2a>
 8009d78:	461d      	mov	r5, r3
 8009d7a:	6d98      	ldr	r0, [r3, #88]	; 0x58
 8009d7c:	f7fb f832 	bl	8004de4 <__retarget_lock_acquire_recursive>
 8009d80:	f9b5 100c 	ldrsh.w	r1, [r5, #12]
 8009d84:	b28a      	uxth	r2, r1
 8009d86:	e664      	b.n	8009a52 <_vfiprintf_r+0x2a>
 8009d88:	2b00      	cmp	r3, #0
 8009d8a:	d0db      	beq.n	8009d44 <_vfiprintf_r+0x31c>
 8009d8c:	f88d 308c 	strb.w	r3, [sp, #140]	; 0x8c
 8009d90:	f04f 0801 	mov.w	r8, #1
 8009d94:	f04f 0300 	mov.w	r3, #0
 8009d98:	f88d 303b 	strb.w	r3, [sp, #59]	; 0x3b
 8009d9c:	f8cd 8000 	str.w	r8, [sp]
 8009da0:	ac23      	add	r4, sp, #140	; 0x8c
 8009da2:	f04f 0b00 	mov.w	fp, #0
 8009da6:	f015 0302 	ands.w	r3, r5, #2
 8009daa:	9306      	str	r3, [sp, #24]
 8009dac:	bf18      	it	ne
 8009dae:	f108 0802 	addne.w	r8, r8, #2
 8009db2:	f015 0384 	ands.w	r3, r5, #132	; 0x84
 8009db6:	9307      	str	r3, [sp, #28]
 8009db8:	d105      	bne.n	8009dc6 <_vfiprintf_r+0x39e>
 8009dba:	9b02      	ldr	r3, [sp, #8]
 8009dbc:	eba3 0608 	sub.w	r6, r3, r8
 8009dc0:	2e00      	cmp	r6, #0
 8009dc2:	f300 8269 	bgt.w	800a298 <_vfiprintf_r+0x870>
 8009dc6:	e9dd 2111 	ldrd	r2, r1, [sp, #68]	; 0x44
 8009dca:	1c50      	adds	r0, r2, #1
 8009dcc:	f89d 603b 	ldrb.w	r6, [sp, #59]	; 0x3b
 8009dd0:	b18e      	cbz	r6, 8009df6 <_vfiprintf_r+0x3ce>
 8009dd2:	f10d 023b 	add.w	r2, sp, #59	; 0x3b
 8009dd6:	3101      	adds	r1, #1
 8009dd8:	f8c9 2000 	str.w	r2, [r9]
 8009ddc:	2807      	cmp	r0, #7
 8009dde:	f04f 0201 	mov.w	r2, #1
 8009de2:	e9cd 0111 	strd	r0, r1, [sp, #68]	; 0x44
 8009de6:	f8c9 2004 	str.w	r2, [r9, #4]
 8009dea:	f300 8238 	bgt.w	800a25e <_vfiprintf_r+0x836>
 8009dee:	4602      	mov	r2, r0
 8009df0:	f109 0908 	add.w	r9, r9, #8
 8009df4:	3001      	adds	r0, #1
 8009df6:	9b06      	ldr	r3, [sp, #24]
 8009df8:	b1db      	cbz	r3, 8009e32 <_vfiprintf_r+0x40a>
 8009dfa:	ab0f      	add	r3, sp, #60	; 0x3c
 8009dfc:	3102      	adds	r1, #2
 8009dfe:	f8c9 3000 	str.w	r3, [r9]
 8009e02:	2807      	cmp	r0, #7
 8009e04:	f04f 0302 	mov.w	r3, #2
 8009e08:	e9cd 0111 	strd	r0, r1, [sp, #68]	; 0x44
 8009e0c:	f8c9 3004 	str.w	r3, [r9, #4]
 8009e10:	f340 823d 	ble.w	800a28e <_vfiprintf_r+0x866>
 8009e14:	2900      	cmp	r1, #0
 8009e16:	f000 8301 	beq.w	800a41c <_vfiprintf_r+0x9f4>
 8009e1a:	9901      	ldr	r1, [sp, #4]
 8009e1c:	9805      	ldr	r0, [sp, #20]
 8009e1e:	aa10      	add	r2, sp, #64	; 0x40
 8009e20:	f7ff fdbc 	bl	800999c <__sprint_r.part.0>
 8009e24:	2800      	cmp	r0, #0
 8009e26:	d193      	bne.n	8009d50 <_vfiprintf_r+0x328>
 8009e28:	e9dd 2111 	ldrd	r2, r1, [sp, #68]	; 0x44
 8009e2c:	f10d 094c 	add.w	r9, sp, #76	; 0x4c
 8009e30:	1c50      	adds	r0, r2, #1
 8009e32:	9b07      	ldr	r3, [sp, #28]
 8009e34:	2b80      	cmp	r3, #128	; 0x80
 8009e36:	f000 8158 	beq.w	800a0ea <_vfiprintf_r+0x6c2>
 8009e3a:	9b00      	ldr	r3, [sp, #0]
 8009e3c:	ebab 0603 	sub.w	r6, fp, r3
 8009e40:	2e00      	cmp	r6, #0
 8009e42:	f300 81b3 	bgt.w	800a1ac <_vfiprintf_r+0x784>
 8009e46:	9b00      	ldr	r3, [sp, #0]
 8009e48:	f8c9 4000 	str.w	r4, [r9]
 8009e4c:	4419      	add	r1, r3
 8009e4e:	2807      	cmp	r0, #7
 8009e50:	e9cd 0111 	strd	r0, r1, [sp, #68]	; 0x44
 8009e54:	f8c9 3004 	str.w	r3, [r9, #4]
 8009e58:	f340 8144 	ble.w	800a0e4 <_vfiprintf_r+0x6bc>
 8009e5c:	2900      	cmp	r1, #0
 8009e5e:	f000 826d 	beq.w	800a33c <_vfiprintf_r+0x914>
 8009e62:	9901      	ldr	r1, [sp, #4]
 8009e64:	9805      	ldr	r0, [sp, #20]
 8009e66:	aa10      	add	r2, sp, #64	; 0x40
 8009e68:	f7ff fd98 	bl	800999c <__sprint_r.part.0>
 8009e6c:	2800      	cmp	r0, #0
 8009e6e:	f47f af6f 	bne.w	8009d50 <_vfiprintf_r+0x328>
 8009e72:	9912      	ldr	r1, [sp, #72]	; 0x48
 8009e74:	f10d 094c 	add.w	r9, sp, #76	; 0x4c
 8009e78:	0768      	lsls	r0, r5, #29
 8009e7a:	d505      	bpl.n	8009e88 <_vfiprintf_r+0x460>
 8009e7c:	9b02      	ldr	r3, [sp, #8]
 8009e7e:	eba3 0408 	sub.w	r4, r3, r8
 8009e82:	2c00      	cmp	r4, #0
 8009e84:	f300 8264 	bgt.w	800a350 <_vfiprintf_r+0x928>
 8009e88:	e9dd 2302 	ldrd	r2, r3, [sp, #8]
 8009e8c:	4542      	cmp	r2, r8
 8009e8e:	bfac      	ite	ge
 8009e90:	189b      	addge	r3, r3, r2
 8009e92:	4443      	addlt	r3, r8
 8009e94:	9303      	str	r3, [sp, #12]
 8009e96:	2900      	cmp	r1, #0
 8009e98:	f040 81d2 	bne.w	800a240 <_vfiprintf_r+0x818>
 8009e9c:	2300      	movs	r3, #0
 8009e9e:	9311      	str	r3, [sp, #68]	; 0x44
 8009ea0:	f10d 094c 	add.w	r9, sp, #76	; 0x4c
 8009ea4:	e5f9      	b.n	8009a9a <_vfiprintf_r+0x72>
 8009ea6:	9b01      	ldr	r3, [sp, #4]
 8009ea8:	899b      	ldrh	r3, [r3, #12]
 8009eaa:	059a      	lsls	r2, r3, #22
 8009eac:	f53f af56 	bmi.w	8009d5c <_vfiprintf_r+0x334>
 8009eb0:	9c01      	ldr	r4, [sp, #4]
 8009eb2:	6da0      	ldr	r0, [r4, #88]	; 0x58
 8009eb4:	f7fa ff98 	bl	8004de8 <__retarget_lock_release_recursive>
 8009eb8:	89a3      	ldrh	r3, [r4, #12]
 8009eba:	e74f      	b.n	8009d5c <_vfiprintf_r+0x334>
 8009ebc:	f015 0310 	ands.w	r3, r5, #16
 8009ec0:	f040 831e 	bne.w	800a500 <_vfiprintf_r+0xad8>
 8009ec4:	f015 0240 	ands.w	r2, r5, #64	; 0x40
 8009ec8:	f000 83e5 	beq.w	800a696 <_vfiprintf_r+0xc6e>
 8009ecc:	9a04      	ldr	r2, [sp, #16]
 8009ece:	f852 6b04 	ldr.w	r6, [r2], #4
 8009ed2:	9204      	str	r2, [sp, #16]
 8009ed4:	4698      	mov	r8, r3
 8009ed6:	b2b6      	uxth	r6, r6
 8009ed8:	e6f3      	b.n	8009cc2 <_vfiprintf_r+0x29a>
 8009eda:	f856 3b04 	ldr.w	r3, [r6], #4
 8009ede:	9604      	str	r6, [sp, #16]
 8009ee0:	06e8      	lsls	r0, r5, #27
 8009ee2:	f100 82e8 	bmi.w	800a4b6 <_vfiprintf_r+0xa8e>
 8009ee6:	0669      	lsls	r1, r5, #25
 8009ee8:	f140 82e2 	bpl.w	800a4b0 <_vfiprintf_r+0xa88>
 8009eec:	f343 38c0 	sbfx	r8, r3, #15, #1
 8009ef0:	b21e      	sxth	r6, r3
 8009ef2:	4643      	mov	r3, r8
 8009ef4:	e68b      	b.n	8009c0e <_vfiprintf_r+0x1e6>
 8009ef6:	9e04      	ldr	r6, [sp, #16]
 8009ef8:	f856 4b04 	ldr.w	r4, [r6], #4
 8009efc:	f04f 0300 	mov.w	r3, #0
 8009f00:	f88d 303b 	strb.w	r3, [sp, #59]	; 0x3b
 8009f04:	2c00      	cmp	r4, #0
 8009f06:	f000 83ab 	beq.w	800a660 <_vfiprintf_r+0xc38>
 8009f0a:	f1bb 3fff 	cmp.w	fp, #4294967295
 8009f0e:	f000 8329 	beq.w	800a564 <_vfiprintf_r+0xb3c>
 8009f12:	465a      	mov	r2, fp
 8009f14:	2100      	movs	r1, #0
 8009f16:	4620      	mov	r0, r4
 8009f18:	f7f6 fa82 	bl	8000420 <memchr>
 8009f1c:	2800      	cmp	r0, #0
 8009f1e:	f000 840c 	beq.w	800a73a <_vfiprintf_r+0xd12>
 8009f22:	1b03      	subs	r3, r0, r4
 8009f24:	9300      	str	r3, [sp, #0]
 8009f26:	9604      	str	r6, [sp, #16]
 8009f28:	f04f 0b00 	mov.w	fp, #0
 8009f2c:	e689      	b.n	8009c42 <_vfiprintf_r+0x21a>
 8009f2e:	9e04      	ldr	r6, [sp, #16]
 8009f30:	f04f 0300 	mov.w	r3, #0
 8009f34:	f88d 303b 	strb.w	r3, [sp, #59]	; 0x3b
 8009f38:	f04f 0801 	mov.w	r8, #1
 8009f3c:	f856 3b04 	ldr.w	r3, [r6], #4
 8009f40:	f88d 308c 	strb.w	r3, [sp, #140]	; 0x8c
 8009f44:	9604      	str	r6, [sp, #16]
 8009f46:	f8cd 8000 	str.w	r8, [sp]
 8009f4a:	ac23      	add	r4, sp, #140	; 0x8c
 8009f4c:	e729      	b.n	8009da2 <_vfiprintf_r+0x37a>
 8009f4e:	f7fa fe6b 	bl	8004c28 <__sinit>
 8009f52:	e576      	b.n	8009a42 <_vfiprintf_r+0x1a>
 8009f54:	9b04      	ldr	r3, [sp, #16]
 8009f56:	f853 2b04 	ldr.w	r2, [r3], #4
 8009f5a:	9202      	str	r2, [sp, #8]
 8009f5c:	2a00      	cmp	r2, #0
 8009f5e:	f280 829a 	bge.w	800a496 <_vfiprintf_r+0xa6e>
 8009f62:	9a02      	ldr	r2, [sp, #8]
 8009f64:	9304      	str	r3, [sp, #16]
 8009f66:	4252      	negs	r2, r2
 8009f68:	9202      	str	r2, [sp, #8]
 8009f6a:	783b      	ldrb	r3, [r7, #0]
 8009f6c:	f045 0504 	orr.w	r5, r5, #4
 8009f70:	e5b2      	b.n	8009ad8 <_vfiprintf_r+0xb0>
 8009f72:	783b      	ldrb	r3, [r7, #0]
 8009f74:	2b6c      	cmp	r3, #108	; 0x6c
 8009f76:	bf03      	ittte	eq
 8009f78:	787b      	ldrbeq	r3, [r7, #1]
 8009f7a:	f045 0520 	orreq.w	r5, r5, #32
 8009f7e:	3701      	addeq	r7, #1
 8009f80:	f045 0510 	orrne.w	r5, r5, #16
 8009f84:	e5a8      	b.n	8009ad8 <_vfiprintf_r+0xb0>
 8009f86:	783b      	ldrb	r3, [r7, #0]
 8009f88:	2b68      	cmp	r3, #104	; 0x68
 8009f8a:	bf03      	ittte	eq
 8009f8c:	787b      	ldrbeq	r3, [r7, #1]
 8009f8e:	f445 7500 	orreq.w	r5, r5, #512	; 0x200
 8009f92:	3701      	addeq	r7, #1
 8009f94:	f045 0540 	orrne.w	r5, r5, #64	; 0x40
 8009f98:	e59e      	b.n	8009ad8 <_vfiprintf_r+0xb0>
 8009f9a:	f045 0a10 	orr.w	sl, r5, #16
 8009f9e:	f01a 0820 	ands.w	r8, sl, #32
 8009fa2:	f000 8250 	beq.w	800a446 <_vfiprintf_r+0xa1e>
 8009fa6:	9e04      	ldr	r6, [sp, #16]
 8009fa8:	3607      	adds	r6, #7
 8009faa:	f026 0607 	bic.w	r6, r6, #7
 8009fae:	4633      	mov	r3, r6
 8009fb0:	f8d6 8004 	ldr.w	r8, [r6, #4]
 8009fb4:	f853 6b08 	ldr.w	r6, [r3], #8
 8009fb8:	9304      	str	r3, [sp, #16]
 8009fba:	2301      	movs	r3, #1
 8009fbc:	e684      	b.n	8009cc8 <_vfiprintf_r+0x2a0>
 8009fbe:	783b      	ldrb	r3, [r7, #0]
 8009fc0:	f88d 403b 	strb.w	r4, [sp, #59]	; 0x3b
 8009fc4:	e588      	b.n	8009ad8 <_vfiprintf_r+0xb0>
 8009fc6:	9b04      	ldr	r3, [sp, #16]
 8009fc8:	f853 6b04 	ldr.w	r6, [r3], #4
 8009fcc:	9304      	str	r3, [sp, #16]
 8009fce:	2330      	movs	r3, #48	; 0x30
 8009fd0:	f88d 303c 	strb.w	r3, [sp, #60]	; 0x3c
 8009fd4:	2378      	movs	r3, #120	; 0x78
 8009fd6:	f88d 303d 	strb.w	r3, [sp, #61]	; 0x3d
 8009fda:	4bb7      	ldr	r3, [pc, #732]	; (800a2b8 <_vfiprintf_r+0x890>)
 8009fdc:	9308      	str	r3, [sp, #32]
 8009fde:	f045 0a02 	orr.w	sl, r5, #2
 8009fe2:	f04f 0800 	mov.w	r8, #0
 8009fe6:	2302      	movs	r3, #2
 8009fe8:	e66e      	b.n	8009cc8 <_vfiprintf_r+0x2a0>
 8009fea:	06ae      	lsls	r6, r5, #26
 8009fec:	f100 827e 	bmi.w	800a4ec <_vfiprintf_r+0xac4>
 8009ff0:	06ec      	lsls	r4, r5, #27
 8009ff2:	f100 832d 	bmi.w	800a650 <_vfiprintf_r+0xc28>
 8009ff6:	0668      	lsls	r0, r5, #25
 8009ff8:	f100 838c 	bmi.w	800a714 <_vfiprintf_r+0xcec>
 8009ffc:	05a9      	lsls	r1, r5, #22
 8009ffe:	f140 8327 	bpl.w	800a650 <_vfiprintf_r+0xc28>
 800a002:	9e04      	ldr	r6, [sp, #16]
 800a004:	9a03      	ldr	r2, [sp, #12]
 800a006:	f856 3b04 	ldr.w	r3, [r6], #4
 800a00a:	9604      	str	r6, [sp, #16]
 800a00c:	701a      	strb	r2, [r3, #0]
 800a00e:	e544      	b.n	8009a9a <_vfiprintf_r+0x72>
 800a010:	783b      	ldrb	r3, [r7, #0]
 800a012:	f045 0501 	orr.w	r5, r5, #1
 800a016:	e55f      	b.n	8009ad8 <_vfiprintf_r+0xb0>
 800a018:	f89d 303b 	ldrb.w	r3, [sp, #59]	; 0x3b
 800a01c:	2b00      	cmp	r3, #0
 800a01e:	f47f ade1 	bne.w	8009be4 <_vfiprintf_r+0x1bc>
 800a022:	2320      	movs	r3, #32
 800a024:	f88d 303b 	strb.w	r3, [sp, #59]	; 0x3b
 800a028:	783b      	ldrb	r3, [r7, #0]
 800a02a:	e555      	b.n	8009ad8 <_vfiprintf_r+0xb0>
 800a02c:	783b      	ldrb	r3, [r7, #0]
 800a02e:	f045 0580 	orr.w	r5, r5, #128	; 0x80
 800a032:	e551      	b.n	8009ad8 <_vfiprintf_r+0xb0>
 800a034:	4639      	mov	r1, r7
 800a036:	f811 3b01 	ldrb.w	r3, [r1], #1
 800a03a:	2b2a      	cmp	r3, #42	; 0x2a
 800a03c:	f000 83ad 	beq.w	800a79a <_vfiprintf_r+0xd72>
 800a040:	f1a3 0230 	sub.w	r2, r3, #48	; 0x30
 800a044:	2a09      	cmp	r2, #9
 800a046:	460f      	mov	r7, r1
 800a048:	f04f 0b00 	mov.w	fp, #0
 800a04c:	f63f ad45 	bhi.w	8009ada <_vfiprintf_r+0xb2>
 800a050:	f817 3b01 	ldrb.w	r3, [r7], #1
 800a054:	eb0b 0b8b 	add.w	fp, fp, fp, lsl #2
 800a058:	eb02 0b4b 	add.w	fp, r2, fp, lsl #1
 800a05c:	f1a3 0230 	sub.w	r2, r3, #48	; 0x30
 800a060:	2a09      	cmp	r2, #9
 800a062:	d9f5      	bls.n	800a050 <_vfiprintf_r+0x628>
 800a064:	e539      	b.n	8009ada <_vfiprintf_r+0xb2>
 800a066:	46aa      	mov	sl, r5
 800a068:	2b01      	cmp	r3, #1
 800a06a:	f43f addd 	beq.w	8009c28 <_vfiprintf_r+0x200>
 800a06e:	2b02      	cmp	r3, #2
 800a070:	ac3c      	add	r4, sp, #240	; 0xf0
 800a072:	d112      	bne.n	800a09a <_vfiprintf_r+0x672>
 800a074:	9a08      	ldr	r2, [sp, #32]
 800a076:	f006 030f 	and.w	r3, r6, #15
 800a07a:	0936      	lsrs	r6, r6, #4
 800a07c:	5cd3      	ldrb	r3, [r2, r3]
 800a07e:	f804 3d01 	strb.w	r3, [r4, #-1]!
 800a082:	ea46 7608 	orr.w	r6, r6, r8, lsl #28
 800a086:	ea4f 1818 	mov.w	r8, r8, lsr #4
 800a08a:	ea56 0308 	orrs.w	r3, r6, r8
 800a08e:	d1f2      	bne.n	800a076 <_vfiprintf_r+0x64e>
 800a090:	ab3c      	add	r3, sp, #240	; 0xf0
 800a092:	1b1b      	subs	r3, r3, r4
 800a094:	4655      	mov	r5, sl
 800a096:	9300      	str	r3, [sp, #0]
 800a098:	e5d3      	b.n	8009c42 <_vfiprintf_r+0x21a>
 800a09a:	f006 0307 	and.w	r3, r6, #7
 800a09e:	08f6      	lsrs	r6, r6, #3
 800a0a0:	ea46 7648 	orr.w	r6, r6, r8, lsl #29
 800a0a4:	ea4f 08d8 	mov.w	r8, r8, lsr #3
 800a0a8:	3330      	adds	r3, #48	; 0x30
 800a0aa:	ea56 0108 	orrs.w	r1, r6, r8
 800a0ae:	4622      	mov	r2, r4
 800a0b0:	f804 3d01 	strb.w	r3, [r4, #-1]!
 800a0b4:	d1f1      	bne.n	800a09a <_vfiprintf_r+0x672>
 800a0b6:	f01a 0f01 	tst.w	sl, #1
 800a0ba:	d0e9      	beq.n	800a090 <_vfiprintf_r+0x668>
 800a0bc:	2b30      	cmp	r3, #48	; 0x30
 800a0be:	d0e7      	beq.n	800a090 <_vfiprintf_r+0x668>
 800a0c0:	2330      	movs	r3, #48	; 0x30
 800a0c2:	3a02      	subs	r2, #2
 800a0c4:	f804 3c01 	strb.w	r3, [r4, #-1]
 800a0c8:	ab3c      	add	r3, sp, #240	; 0xf0
 800a0ca:	1a9b      	subs	r3, r3, r2
 800a0cc:	4655      	mov	r5, sl
 800a0ce:	9300      	str	r3, [sp, #0]
 800a0d0:	4614      	mov	r4, r2
 800a0d2:	e5b6      	b.n	8009c42 <_vfiprintf_r+0x21a>
 800a0d4:	9900      	ldr	r1, [sp, #0]
 800a0d6:	9413      	str	r4, [sp, #76]	; 0x4c
 800a0d8:	2301      	movs	r3, #1
 800a0da:	9114      	str	r1, [sp, #80]	; 0x50
 800a0dc:	9112      	str	r1, [sp, #72]	; 0x48
 800a0de:	9311      	str	r3, [sp, #68]	; 0x44
 800a0e0:	f10d 094c 	add.w	r9, sp, #76	; 0x4c
 800a0e4:	f109 0908 	add.w	r9, r9, #8
 800a0e8:	e6c6      	b.n	8009e78 <_vfiprintf_r+0x450>
 800a0ea:	9b02      	ldr	r3, [sp, #8]
 800a0ec:	eba3 0608 	sub.w	r6, r3, r8
 800a0f0:	2e00      	cmp	r6, #0
 800a0f2:	f77f aea2 	ble.w	8009e3a <_vfiprintf_r+0x412>
 800a0f6:	2e10      	cmp	r6, #16
 800a0f8:	f340 834b 	ble.w	800a792 <_vfiprintf_r+0xd6a>
 800a0fc:	f8df a1bc 	ldr.w	sl, [pc, #444]	; 800a2bc <_vfiprintf_r+0x894>
 800a100:	4653      	mov	r3, sl
 800a102:	e9cd 4506 	strd	r4, r5, [sp, #24]
 800a106:	46ba      	mov	sl, r7
 800a108:	9c05      	ldr	r4, [sp, #20]
 800a10a:	9d01      	ldr	r5, [sp, #4]
 800a10c:	461f      	mov	r7, r3
 800a10e:	e007      	b.n	800a120 <_vfiprintf_r+0x6f8>
 800a110:	f102 0c02 	add.w	ip, r2, #2
 800a114:	f109 0908 	add.w	r9, r9, #8
 800a118:	4602      	mov	r2, r0
 800a11a:	3e10      	subs	r6, #16
 800a11c:	2e10      	cmp	r6, #16
 800a11e:	dd1e      	ble.n	800a15e <_vfiprintf_r+0x736>
 800a120:	1c50      	adds	r0, r2, #1
 800a122:	3110      	adds	r1, #16
 800a124:	2310      	movs	r3, #16
 800a126:	2807      	cmp	r0, #7
 800a128:	e9cd 0111 	strd	r0, r1, [sp, #68]	; 0x44
 800a12c:	f8c9 7000 	str.w	r7, [r9]
 800a130:	f8c9 3004 	str.w	r3, [r9, #4]
 800a134:	ddec      	ble.n	800a110 <_vfiprintf_r+0x6e8>
 800a136:	aa10      	add	r2, sp, #64	; 0x40
 800a138:	2900      	cmp	r1, #0
 800a13a:	f000 808a 	beq.w	800a252 <_vfiprintf_r+0x82a>
 800a13e:	4629      	mov	r1, r5
 800a140:	4620      	mov	r0, r4
 800a142:	f10d 094c 	add.w	r9, sp, #76	; 0x4c
 800a146:	f7ff fc29 	bl	800999c <__sprint_r.part.0>
 800a14a:	2800      	cmp	r0, #0
 800a14c:	f47f ae00 	bne.w	8009d50 <_vfiprintf_r+0x328>
 800a150:	e9dd 2111 	ldrd	r2, r1, [sp, #68]	; 0x44
 800a154:	3e10      	subs	r6, #16
 800a156:	2e10      	cmp	r6, #16
 800a158:	f102 0c01 	add.w	ip, r2, #1
 800a15c:	dce0      	bgt.n	800a120 <_vfiprintf_r+0x6f8>
 800a15e:	e9dd 4506 	ldrd	r4, r5, [sp, #24]
 800a162:	463b      	mov	r3, r7
 800a164:	4657      	mov	r7, sl
 800a166:	469a      	mov	sl, r3
 800a168:	4431      	add	r1, r6
 800a16a:	f1bc 0f07 	cmp.w	ip, #7
 800a16e:	e9cd c111 	strd	ip, r1, [sp, #68]	; 0x44
 800a172:	f8c9 a000 	str.w	sl, [r9]
 800a176:	f8c9 6004 	str.w	r6, [r9, #4]
 800a17a:	f340 8193 	ble.w	800a4a4 <_vfiprintf_r+0xa7c>
 800a17e:	2900      	cmp	r1, #0
 800a180:	f000 82b8 	beq.w	800a6f4 <_vfiprintf_r+0xccc>
 800a184:	9901      	ldr	r1, [sp, #4]
 800a186:	9805      	ldr	r0, [sp, #20]
 800a188:	aa10      	add	r2, sp, #64	; 0x40
 800a18a:	f7ff fc07 	bl	800999c <__sprint_r.part.0>
 800a18e:	2800      	cmp	r0, #0
 800a190:	f47f adde 	bne.w	8009d50 <_vfiprintf_r+0x328>
 800a194:	9b00      	ldr	r3, [sp, #0]
 800a196:	e9dd 2111 	ldrd	r2, r1, [sp, #68]	; 0x44
 800a19a:	ebab 0603 	sub.w	r6, fp, r3
 800a19e:	2e00      	cmp	r6, #0
 800a1a0:	f102 0001 	add.w	r0, r2, #1
 800a1a4:	f10d 094c 	add.w	r9, sp, #76	; 0x4c
 800a1a8:	f77f ae4d 	ble.w	8009e46 <_vfiprintf_r+0x41e>
 800a1ac:	2e10      	cmp	r6, #16
 800a1ae:	f8df a10c 	ldr.w	sl, [pc, #268]	; 800a2bc <_vfiprintf_r+0x894>
 800a1b2:	dd31      	ble.n	800a218 <_vfiprintf_r+0x7f0>
 800a1b4:	4653      	mov	r3, sl
 800a1b6:	e9cd 4506 	strd	r4, r5, [sp, #24]
 800a1ba:	46ba      	mov	sl, r7
 800a1bc:	9c05      	ldr	r4, [sp, #20]
 800a1be:	9d01      	ldr	r5, [sp, #4]
 800a1c0:	f04f 0b10 	mov.w	fp, #16
 800a1c4:	461f      	mov	r7, r3
 800a1c6:	e007      	b.n	800a1d8 <_vfiprintf_r+0x7b0>
 800a1c8:	f102 0c02 	add.w	ip, r2, #2
 800a1cc:	f109 0908 	add.w	r9, r9, #8
 800a1d0:	4602      	mov	r2, r0
 800a1d2:	3e10      	subs	r6, #16
 800a1d4:	2e10      	cmp	r6, #16
 800a1d6:	dd19      	ble.n	800a20c <_vfiprintf_r+0x7e4>
 800a1d8:	1c50      	adds	r0, r2, #1
 800a1da:	3110      	adds	r1, #16
 800a1dc:	2807      	cmp	r0, #7
 800a1de:	e9c9 7b00 	strd	r7, fp, [r9]
 800a1e2:	e9cd 0111 	strd	r0, r1, [sp, #68]	; 0x44
 800a1e6:	ddef      	ble.n	800a1c8 <_vfiprintf_r+0x7a0>
 800a1e8:	aa10      	add	r2, sp, #64	; 0x40
 800a1ea:	b319      	cbz	r1, 800a234 <_vfiprintf_r+0x80c>
 800a1ec:	4629      	mov	r1, r5
 800a1ee:	4620      	mov	r0, r4
 800a1f0:	f10d 094c 	add.w	r9, sp, #76	; 0x4c
 800a1f4:	f7ff fbd2 	bl	800999c <__sprint_r.part.0>
 800a1f8:	2800      	cmp	r0, #0
 800a1fa:	f47f ada9 	bne.w	8009d50 <_vfiprintf_r+0x328>
 800a1fe:	e9dd 2111 	ldrd	r2, r1, [sp, #68]	; 0x44
 800a202:	3e10      	subs	r6, #16
 800a204:	2e10      	cmp	r6, #16
 800a206:	f102 0c01 	add.w	ip, r2, #1
 800a20a:	dce5      	bgt.n	800a1d8 <_vfiprintf_r+0x7b0>
 800a20c:	e9dd 4506 	ldrd	r4, r5, [sp, #24]
 800a210:	463b      	mov	r3, r7
 800a212:	4660      	mov	r0, ip
 800a214:	4657      	mov	r7, sl
 800a216:	469a      	mov	sl, r3
 800a218:	4431      	add	r1, r6
 800a21a:	2807      	cmp	r0, #7
 800a21c:	e9cd 0111 	strd	r0, r1, [sp, #68]	; 0x44
 800a220:	f8c9 a000 	str.w	sl, [r9]
 800a224:	f8c9 6004 	str.w	r6, [r9, #4]
 800a228:	f300 80e4 	bgt.w	800a3f4 <_vfiprintf_r+0x9cc>
 800a22c:	f109 0908 	add.w	r9, r9, #8
 800a230:	3001      	adds	r0, #1
 800a232:	e608      	b.n	8009e46 <_vfiprintf_r+0x41e>
 800a234:	f04f 0c01 	mov.w	ip, #1
 800a238:	460a      	mov	r2, r1
 800a23a:	f10d 094c 	add.w	r9, sp, #76	; 0x4c
 800a23e:	e7c8      	b.n	800a1d2 <_vfiprintf_r+0x7aa>
 800a240:	9901      	ldr	r1, [sp, #4]
 800a242:	9805      	ldr	r0, [sp, #20]
 800a244:	aa10      	add	r2, sp, #64	; 0x40
 800a246:	f7ff fba9 	bl	800999c <__sprint_r.part.0>
 800a24a:	2800      	cmp	r0, #0
 800a24c:	f43f ae26 	beq.w	8009e9c <_vfiprintf_r+0x474>
 800a250:	e57e      	b.n	8009d50 <_vfiprintf_r+0x328>
 800a252:	f04f 0c01 	mov.w	ip, #1
 800a256:	460a      	mov	r2, r1
 800a258:	f10d 094c 	add.w	r9, sp, #76	; 0x4c
 800a25c:	e75d      	b.n	800a11a <_vfiprintf_r+0x6f2>
 800a25e:	2900      	cmp	r1, #0
 800a260:	f000 80d9 	beq.w	800a416 <_vfiprintf_r+0x9ee>
 800a264:	9901      	ldr	r1, [sp, #4]
 800a266:	9805      	ldr	r0, [sp, #20]
 800a268:	aa10      	add	r2, sp, #64	; 0x40
 800a26a:	f7ff fb97 	bl	800999c <__sprint_r.part.0>
 800a26e:	2800      	cmp	r0, #0
 800a270:	f47f ad6e 	bne.w	8009d50 <_vfiprintf_r+0x328>
 800a274:	e9dd 2111 	ldrd	r2, r1, [sp, #68]	; 0x44
 800a278:	f10d 094c 	add.w	r9, sp, #76	; 0x4c
 800a27c:	1c50      	adds	r0, r2, #1
 800a27e:	e5ba      	b.n	8009df6 <_vfiprintf_r+0x3ce>
 800a280:	2102      	movs	r1, #2
 800a282:	ab0f      	add	r3, sp, #60	; 0x3c
 800a284:	9114      	str	r1, [sp, #80]	; 0x50
 800a286:	9313      	str	r3, [sp, #76]	; 0x4c
 800a288:	2001      	movs	r0, #1
 800a28a:	f10d 094c 	add.w	r9, sp, #76	; 0x4c
 800a28e:	4602      	mov	r2, r0
 800a290:	f109 0908 	add.w	r9, r9, #8
 800a294:	1c50      	adds	r0, r2, #1
 800a296:	e5cc      	b.n	8009e32 <_vfiprintf_r+0x40a>
 800a298:	2e10      	cmp	r6, #16
 800a29a:	f340 8254 	ble.w	800a746 <_vfiprintf_r+0xd1e>
 800a29e:	e9dd c111 	ldrd	ip, r1, [sp, #68]	; 0x44
 800a2a2:	f8df a01c 	ldr.w	sl, [pc, #28]	; 800a2c0 <_vfiprintf_r+0x898>
 800a2a6:	e9cd 450c 	strd	r4, r5, [sp, #48]	; 0x30
 800a2aa:	2310      	movs	r3, #16
 800a2ac:	4654      	mov	r4, sl
 800a2ae:	9d05      	ldr	r5, [sp, #20]
 800a2b0:	f8dd a004 	ldr.w	sl, [sp, #4]
 800a2b4:	4662      	mov	r2, ip
 800a2b6:	e00d      	b.n	800a2d4 <_vfiprintf_r+0x8ac>
 800a2b8:	0800b450 	.word	0x0800b450
 800a2bc:	0800b6d4 	.word	0x0800b6d4
 800a2c0:	0800b6c4 	.word	0x0800b6c4
 800a2c4:	f102 0c02 	add.w	ip, r2, #2
 800a2c8:	f109 0908 	add.w	r9, r9, #8
 800a2cc:	4602      	mov	r2, r0
 800a2ce:	3e10      	subs	r6, #16
 800a2d0:	2e10      	cmp	r6, #16
 800a2d2:	dd1b      	ble.n	800a30c <_vfiprintf_r+0x8e4>
 800a2d4:	1c50      	adds	r0, r2, #1
 800a2d6:	3110      	adds	r1, #16
 800a2d8:	2807      	cmp	r0, #7
 800a2da:	e9c9 4300 	strd	r4, r3, [r9]
 800a2de:	e9cd 0111 	strd	r0, r1, [sp, #68]	; 0x44
 800a2e2:	ddef      	ble.n	800a2c4 <_vfiprintf_r+0x89c>
 800a2e4:	aa10      	add	r2, sp, #64	; 0x40
 800a2e6:	b319      	cbz	r1, 800a330 <_vfiprintf_r+0x908>
 800a2e8:	4651      	mov	r1, sl
 800a2ea:	4628      	mov	r0, r5
 800a2ec:	f10d 094c 	add.w	r9, sp, #76	; 0x4c
 800a2f0:	f7ff fb54 	bl	800999c <__sprint_r.part.0>
 800a2f4:	2800      	cmp	r0, #0
 800a2f6:	f47f ad2b 	bne.w	8009d50 <_vfiprintf_r+0x328>
 800a2fa:	e9dd 2111 	ldrd	r2, r1, [sp, #68]	; 0x44
 800a2fe:	3e10      	subs	r6, #16
 800a300:	2e10      	cmp	r6, #16
 800a302:	f102 0c01 	add.w	ip, r2, #1
 800a306:	f04f 0310 	mov.w	r3, #16
 800a30a:	dce3      	bgt.n	800a2d4 <_vfiprintf_r+0x8ac>
 800a30c:	46a2      	mov	sl, r4
 800a30e:	9d0d      	ldr	r5, [sp, #52]	; 0x34
 800a310:	9c0c      	ldr	r4, [sp, #48]	; 0x30
 800a312:	4662      	mov	r2, ip
 800a314:	4431      	add	r1, r6
 800a316:	2a07      	cmp	r2, #7
 800a318:	e9cd 2111 	strd	r2, r1, [sp, #68]	; 0x44
 800a31c:	f8c9 a000 	str.w	sl, [r9]
 800a320:	f8c9 6004 	str.w	r6, [r9, #4]
 800a324:	f300 80a7 	bgt.w	800a476 <_vfiprintf_r+0xa4e>
 800a328:	f109 0908 	add.w	r9, r9, #8
 800a32c:	1c50      	adds	r0, r2, #1
 800a32e:	e54d      	b.n	8009dcc <_vfiprintf_r+0x3a4>
 800a330:	460a      	mov	r2, r1
 800a332:	f04f 0c01 	mov.w	ip, #1
 800a336:	f10d 094c 	add.w	r9, sp, #76	; 0x4c
 800a33a:	e7c8      	b.n	800a2ce <_vfiprintf_r+0x8a6>
 800a33c:	076c      	lsls	r4, r5, #29
 800a33e:	9111      	str	r1, [sp, #68]	; 0x44
 800a340:	d550      	bpl.n	800a3e4 <_vfiprintf_r+0x9bc>
 800a342:	9b02      	ldr	r3, [sp, #8]
 800a344:	eba3 0408 	sub.w	r4, r3, r8
 800a348:	2c00      	cmp	r4, #0
 800a34a:	dd4b      	ble.n	800a3e4 <_vfiprintf_r+0x9bc>
 800a34c:	f10d 094c 	add.w	r9, sp, #76	; 0x4c
 800a350:	2c10      	cmp	r4, #16
 800a352:	f340 8208 	ble.w	800a766 <_vfiprintf_r+0xd3e>
 800a356:	f8df a2ec 	ldr.w	sl, [pc, #748]	; 800a644 <_vfiprintf_r+0xc1c>
 800a35a:	9a11      	ldr	r2, [sp, #68]	; 0x44
 800a35c:	9e05      	ldr	r6, [sp, #20]
 800a35e:	f8dd b004 	ldr.w	fp, [sp, #4]
 800a362:	4653      	mov	r3, sl
 800a364:	2510      	movs	r5, #16
 800a366:	46ba      	mov	sl, r7
 800a368:	461f      	mov	r7, r3
 800a36a:	e006      	b.n	800a37a <_vfiprintf_r+0x952>
 800a36c:	1c90      	adds	r0, r2, #2
 800a36e:	f109 0908 	add.w	r9, r9, #8
 800a372:	461a      	mov	r2, r3
 800a374:	3c10      	subs	r4, #16
 800a376:	2c10      	cmp	r4, #16
 800a378:	dd19      	ble.n	800a3ae <_vfiprintf_r+0x986>
 800a37a:	1c53      	adds	r3, r2, #1
 800a37c:	3110      	adds	r1, #16
 800a37e:	2b07      	cmp	r3, #7
 800a380:	e9c9 7500 	strd	r7, r5, [r9]
 800a384:	e9cd 3111 	strd	r3, r1, [sp, #68]	; 0x44
 800a388:	ddf0      	ble.n	800a36c <_vfiprintf_r+0x944>
 800a38a:	aa10      	add	r2, sp, #64	; 0x40
 800a38c:	b329      	cbz	r1, 800a3da <_vfiprintf_r+0x9b2>
 800a38e:	4659      	mov	r1, fp
 800a390:	4630      	mov	r0, r6
 800a392:	f7ff fb03 	bl	800999c <__sprint_r.part.0>
 800a396:	2800      	cmp	r0, #0
 800a398:	f47f acda 	bne.w	8009d50 <_vfiprintf_r+0x328>
 800a39c:	e9dd 2111 	ldrd	r2, r1, [sp, #68]	; 0x44
 800a3a0:	3c10      	subs	r4, #16
 800a3a2:	2c10      	cmp	r4, #16
 800a3a4:	f102 0001 	add.w	r0, r2, #1
 800a3a8:	f10d 094c 	add.w	r9, sp, #76	; 0x4c
 800a3ac:	dce5      	bgt.n	800a37a <_vfiprintf_r+0x952>
 800a3ae:	463b      	mov	r3, r7
 800a3b0:	4657      	mov	r7, sl
 800a3b2:	469a      	mov	sl, r3
 800a3b4:	4421      	add	r1, r4
 800a3b6:	2807      	cmp	r0, #7
 800a3b8:	e9c9 a400 	strd	sl, r4, [r9]
 800a3bc:	e9cd 0111 	strd	r0, r1, [sp, #68]	; 0x44
 800a3c0:	f77f ad62 	ble.w	8009e88 <_vfiprintf_r+0x460>
 800a3c4:	b171      	cbz	r1, 800a3e4 <_vfiprintf_r+0x9bc>
 800a3c6:	9901      	ldr	r1, [sp, #4]
 800a3c8:	9805      	ldr	r0, [sp, #20]
 800a3ca:	aa10      	add	r2, sp, #64	; 0x40
 800a3cc:	f7ff fae6 	bl	800999c <__sprint_r.part.0>
 800a3d0:	2800      	cmp	r0, #0
 800a3d2:	f47f acbd 	bne.w	8009d50 <_vfiprintf_r+0x328>
 800a3d6:	9912      	ldr	r1, [sp, #72]	; 0x48
 800a3d8:	e556      	b.n	8009e88 <_vfiprintf_r+0x460>
 800a3da:	2001      	movs	r0, #1
 800a3dc:	460a      	mov	r2, r1
 800a3de:	f10d 094c 	add.w	r9, sp, #76	; 0x4c
 800a3e2:	e7c7      	b.n	800a374 <_vfiprintf_r+0x94c>
 800a3e4:	e9dd 2302 	ldrd	r2, r3, [sp, #8]
 800a3e8:	4542      	cmp	r2, r8
 800a3ea:	bfac      	ite	ge
 800a3ec:	189b      	addge	r3, r3, r2
 800a3ee:	4443      	addlt	r3, r8
 800a3f0:	9303      	str	r3, [sp, #12]
 800a3f2:	e553      	b.n	8009e9c <_vfiprintf_r+0x474>
 800a3f4:	2900      	cmp	r1, #0
 800a3f6:	f43f ae6d 	beq.w	800a0d4 <_vfiprintf_r+0x6ac>
 800a3fa:	9901      	ldr	r1, [sp, #4]
 800a3fc:	9805      	ldr	r0, [sp, #20]
 800a3fe:	aa10      	add	r2, sp, #64	; 0x40
 800a400:	f7ff facc 	bl	800999c <__sprint_r.part.0>
 800a404:	2800      	cmp	r0, #0
 800a406:	f47f aca3 	bne.w	8009d50 <_vfiprintf_r+0x328>
 800a40a:	9811      	ldr	r0, [sp, #68]	; 0x44
 800a40c:	9912      	ldr	r1, [sp, #72]	; 0x48
 800a40e:	3001      	adds	r0, #1
 800a410:	f10d 094c 	add.w	r9, sp, #76	; 0x4c
 800a414:	e517      	b.n	8009e46 <_vfiprintf_r+0x41e>
 800a416:	9b06      	ldr	r3, [sp, #24]
 800a418:	2b00      	cmp	r3, #0
 800a41a:	d177      	bne.n	800a50c <_vfiprintf_r+0xae4>
 800a41c:	2001      	movs	r0, #1
 800a41e:	460a      	mov	r2, r1
 800a420:	f10d 094c 	add.w	r9, sp, #76	; 0x4c
 800a424:	e505      	b.n	8009e32 <_vfiprintf_r+0x40a>
 800a426:	9211      	str	r2, [sp, #68]	; 0x44
 800a428:	f10d 094c 	add.w	r9, sp, #76	; 0x4c
 800a42c:	e47a      	b.n	8009d24 <_vfiprintf_r+0x2fc>
 800a42e:	f1bb 0f00 	cmp.w	fp, #0
 800a432:	f47f abfe 	bne.w	8009c32 <_vfiprintf_r+0x20a>
 800a436:	4655      	mov	r5, sl
 800a438:	f04f 0b00 	mov.w	fp, #0
 800a43c:	f8cd b000 	str.w	fp, [sp]
 800a440:	ac3c      	add	r4, sp, #240	; 0xf0
 800a442:	f7ff bbfe 	b.w	8009c42 <_vfiprintf_r+0x21a>
 800a446:	f01a 0310 	ands.w	r3, sl, #16
 800a44a:	d13a      	bne.n	800a4c2 <_vfiprintf_r+0xa9a>
 800a44c:	f01a 0240 	ands.w	r2, sl, #64	; 0x40
 800a450:	f000 8112 	beq.w	800a678 <_vfiprintf_r+0xc50>
 800a454:	9a04      	ldr	r2, [sp, #16]
 800a456:	f852 6b04 	ldr.w	r6, [r2], #4
 800a45a:	9204      	str	r2, [sp, #16]
 800a45c:	4698      	mov	r8, r3
 800a45e:	b2b6      	uxth	r6, r6
 800a460:	2301      	movs	r3, #1
 800a462:	e431      	b.n	8009cc8 <_vfiprintf_r+0x2a0>
 800a464:	232d      	movs	r3, #45	; 0x2d
 800a466:	4276      	negs	r6, r6
 800a468:	f88d 303b 	strb.w	r3, [sp, #59]	; 0x3b
 800a46c:	eb68 0848 	sbc.w	r8, r8, r8, lsl #1
 800a470:	46aa      	mov	sl, r5
 800a472:	2301      	movs	r3, #1
 800a474:	e42c      	b.n	8009cd0 <_vfiprintf_r+0x2a8>
 800a476:	2900      	cmp	r1, #0
 800a478:	d07d      	beq.n	800a576 <_vfiprintf_r+0xb4e>
 800a47a:	9901      	ldr	r1, [sp, #4]
 800a47c:	9805      	ldr	r0, [sp, #20]
 800a47e:	aa10      	add	r2, sp, #64	; 0x40
 800a480:	f7ff fa8c 	bl	800999c <__sprint_r.part.0>
 800a484:	2800      	cmp	r0, #0
 800a486:	f47f ac63 	bne.w	8009d50 <_vfiprintf_r+0x328>
 800a48a:	e9dd 2111 	ldrd	r2, r1, [sp, #68]	; 0x44
 800a48e:	f10d 094c 	add.w	r9, sp, #76	; 0x4c
 800a492:	1c50      	adds	r0, r2, #1
 800a494:	e49a      	b.n	8009dcc <_vfiprintf_r+0x3a4>
 800a496:	9304      	str	r3, [sp, #16]
 800a498:	783b      	ldrb	r3, [r7, #0]
 800a49a:	f7ff bb1d 	b.w	8009ad8 <_vfiprintf_r+0xb0>
 800a49e:	ac3c      	add	r4, sp, #240	; 0xf0
 800a4a0:	f7ff bbcf 	b.w	8009c42 <_vfiprintf_r+0x21a>
 800a4a4:	f109 0908 	add.w	r9, r9, #8
 800a4a8:	f10c 0001 	add.w	r0, ip, #1
 800a4ac:	4662      	mov	r2, ip
 800a4ae:	e4c4      	b.n	8009e3a <_vfiprintf_r+0x412>
 800a4b0:	05aa      	lsls	r2, r5, #22
 800a4b2:	f100 8137 	bmi.w	800a724 <_vfiprintf_r+0xcfc>
 800a4b6:	ea4f 78e3 	mov.w	r8, r3, asr #31
 800a4ba:	461e      	mov	r6, r3
 800a4bc:	4643      	mov	r3, r8
 800a4be:	f7ff bba6 	b.w	8009c0e <_vfiprintf_r+0x1e6>
 800a4c2:	9b04      	ldr	r3, [sp, #16]
 800a4c4:	f853 6b04 	ldr.w	r6, [r3], #4
 800a4c8:	9304      	str	r3, [sp, #16]
 800a4ca:	2301      	movs	r3, #1
 800a4cc:	f7ff bbfc 	b.w	8009cc8 <_vfiprintf_r+0x2a0>
 800a4d0:	9b09      	ldr	r3, [sp, #36]	; 0x24
 800a4d2:	2b00      	cmp	r3, #0
 800a4d4:	f43f ab86 	beq.w	8009be4 <_vfiprintf_r+0x1bc>
 800a4d8:	9b09      	ldr	r3, [sp, #36]	; 0x24
 800a4da:	781b      	ldrb	r3, [r3, #0]
 800a4dc:	2b00      	cmp	r3, #0
 800a4de:	f43f ab81 	beq.w	8009be4 <_vfiprintf_r+0x1bc>
 800a4e2:	783b      	ldrb	r3, [r7, #0]
 800a4e4:	f445 6580 	orr.w	r5, r5, #1024	; 0x400
 800a4e8:	f7ff baf6 	b.w	8009ad8 <_vfiprintf_r+0xb0>
 800a4ec:	e9dd 1603 	ldrd	r1, r6, [sp, #12]
 800a4f0:	f856 2b04 	ldr.w	r2, [r6], #4
 800a4f4:	9604      	str	r6, [sp, #16]
 800a4f6:	17cb      	asrs	r3, r1, #31
 800a4f8:	e9c2 1300 	strd	r1, r3, [r2]
 800a4fc:	f7ff bacd 	b.w	8009a9a <_vfiprintf_r+0x72>
 800a500:	9b04      	ldr	r3, [sp, #16]
 800a502:	f853 6b04 	ldr.w	r6, [r3], #4
 800a506:	9304      	str	r3, [sp, #16]
 800a508:	f7ff bbdb 	b.w	8009cc2 <_vfiprintf_r+0x29a>
 800a50c:	2102      	movs	r1, #2
 800a50e:	ab0f      	add	r3, sp, #60	; 0x3c
 800a510:	9114      	str	r1, [sp, #80]	; 0x50
 800a512:	9313      	str	r3, [sp, #76]	; 0x4c
 800a514:	f10d 094c 	add.w	r9, sp, #76	; 0x4c
 800a518:	e6ba      	b.n	800a290 <_vfiprintf_r+0x868>
 800a51a:	4a4b      	ldr	r2, [pc, #300]	; (800a648 <_vfiprintf_r+0xc20>)
 800a51c:	9208      	str	r2, [sp, #32]
 800a51e:	f015 0820 	ands.w	r8, r5, #32
 800a522:	d036      	beq.n	800a592 <_vfiprintf_r+0xb6a>
 800a524:	9e04      	ldr	r6, [sp, #16]
 800a526:	3607      	adds	r6, #7
 800a528:	f026 0607 	bic.w	r6, r6, #7
 800a52c:	4632      	mov	r2, r6
 800a52e:	f8d6 8004 	ldr.w	r8, [r6, #4]
 800a532:	f852 6b08 	ldr.w	r6, [r2], #8
 800a536:	9204      	str	r2, [sp, #16]
 800a538:	07ea      	lsls	r2, r5, #31
 800a53a:	d509      	bpl.n	800a550 <_vfiprintf_r+0xb28>
 800a53c:	ea56 0208 	orrs.w	r2, r6, r8
 800a540:	d006      	beq.n	800a550 <_vfiprintf_r+0xb28>
 800a542:	f88d 303d 	strb.w	r3, [sp, #61]	; 0x3d
 800a546:	2330      	movs	r3, #48	; 0x30
 800a548:	f045 0502 	orr.w	r5, r5, #2
 800a54c:	f88d 303c 	strb.w	r3, [sp, #60]	; 0x3c
 800a550:	f425 6a80 	bic.w	sl, r5, #1024	; 0x400
 800a554:	2302      	movs	r3, #2
 800a556:	f7ff bbb7 	b.w	8009cc8 <_vfiprintf_r+0x2a0>
 800a55a:	46aa      	mov	sl, r5
 800a55c:	e51f      	b.n	8009f9e <_vfiprintf_r+0x576>
 800a55e:	4a3b      	ldr	r2, [pc, #236]	; (800a64c <_vfiprintf_r+0xc24>)
 800a560:	9208      	str	r2, [sp, #32]
 800a562:	e7dc      	b.n	800a51e <_vfiprintf_r+0xaf6>
 800a564:	4620      	mov	r0, r4
 800a566:	9604      	str	r6, [sp, #16]
 800a568:	f7f5 feea 	bl	8000340 <strlen>
 800a56c:	f04f 0b00 	mov.w	fp, #0
 800a570:	9000      	str	r0, [sp, #0]
 800a572:	f7ff bb66 	b.w	8009c42 <_vfiprintf_r+0x21a>
 800a576:	f89d 203b 	ldrb.w	r2, [sp, #59]	; 0x3b
 800a57a:	2a00      	cmp	r2, #0
 800a57c:	f000 80c0 	beq.w	800a700 <_vfiprintf_r+0xcd8>
 800a580:	2001      	movs	r0, #1
 800a582:	f10d 023b 	add.w	r2, sp, #59	; 0x3b
 800a586:	9014      	str	r0, [sp, #80]	; 0x50
 800a588:	9213      	str	r2, [sp, #76]	; 0x4c
 800a58a:	f10d 094c 	add.w	r9, sp, #76	; 0x4c
 800a58e:	4601      	mov	r1, r0
 800a590:	e42d      	b.n	8009dee <_vfiprintf_r+0x3c6>
 800a592:	f015 0210 	ands.w	r2, r5, #16
 800a596:	d042      	beq.n	800a61e <_vfiprintf_r+0xbf6>
 800a598:	9a04      	ldr	r2, [sp, #16]
 800a59a:	f852 6b04 	ldr.w	r6, [r2], #4
 800a59e:	9204      	str	r2, [sp, #16]
 800a5a0:	e7ca      	b.n	800a538 <_vfiprintf_r+0xb10>
 800a5a2:	f40a 6380 	and.w	r3, sl, #1024	; 0x400
 800a5a6:	f8cd a000 	str.w	sl, [sp]
 800a5aa:	f8cd 9018 	str.w	r9, [sp, #24]
 800a5ae:	46ba      	mov	sl, r7
 800a5b0:	f8dd 9024 	ldr.w	r9, [sp, #36]	; 0x24
 800a5b4:	2500      	movs	r5, #0
 800a5b6:	ac3c      	add	r4, sp, #240	; 0xf0
 800a5b8:	461f      	mov	r7, r3
 800a5ba:	e009      	b.n	800a5d0 <_vfiprintf_r+0xba8>
 800a5bc:	4630      	mov	r0, r6
 800a5be:	4641      	mov	r1, r8
 800a5c0:	f7f6 fc12 	bl	8000de8 <__aeabi_uldivmod>
 800a5c4:	2e0a      	cmp	r6, #10
 800a5c6:	f178 0300 	sbcs.w	r3, r8, #0
 800a5ca:	d31b      	bcc.n	800a604 <_vfiprintf_r+0xbdc>
 800a5cc:	4606      	mov	r6, r0
 800a5ce:	4688      	mov	r8, r1
 800a5d0:	4630      	mov	r0, r6
 800a5d2:	4641      	mov	r1, r8
 800a5d4:	220a      	movs	r2, #10
 800a5d6:	2300      	movs	r3, #0
 800a5d8:	f7f6 fc06 	bl	8000de8 <__aeabi_uldivmod>
 800a5dc:	4611      	mov	r1, r2
 800a5de:	3130      	adds	r1, #48	; 0x30
 800a5e0:	f804 1c01 	strb.w	r1, [r4, #-1]
 800a5e4:	220a      	movs	r2, #10
 800a5e6:	2300      	movs	r3, #0
 800a5e8:	3c01      	subs	r4, #1
 800a5ea:	3501      	adds	r5, #1
 800a5ec:	2f00      	cmp	r7, #0
 800a5ee:	d0e5      	beq.n	800a5bc <_vfiprintf_r+0xb94>
 800a5f0:	f899 1000 	ldrb.w	r1, [r9]
 800a5f4:	42a9      	cmp	r1, r5
 800a5f6:	d1e1      	bne.n	800a5bc <_vfiprintf_r+0xb94>
 800a5f8:	2dff      	cmp	r5, #255	; 0xff
 800a5fa:	d0df      	beq.n	800a5bc <_vfiprintf_r+0xb94>
 800a5fc:	2e0a      	cmp	r6, #10
 800a5fe:	f178 0300 	sbcs.w	r3, r8, #0
 800a602:	d263      	bcs.n	800a6cc <_vfiprintf_r+0xca4>
 800a604:	4657      	mov	r7, sl
 800a606:	ab3c      	add	r3, sp, #240	; 0xf0
 800a608:	f8dd a000 	ldr.w	sl, [sp]
 800a60c:	f8cd 9024 	str.w	r9, [sp, #36]	; 0x24
 800a610:	1b1b      	subs	r3, r3, r4
 800a612:	f8dd 9018 	ldr.w	r9, [sp, #24]
 800a616:	9300      	str	r3, [sp, #0]
 800a618:	4655      	mov	r5, sl
 800a61a:	f7ff bb12 	b.w	8009c42 <_vfiprintf_r+0x21a>
 800a61e:	f015 0140 	ands.w	r1, r5, #64	; 0x40
 800a622:	d046      	beq.n	800a6b2 <_vfiprintf_r+0xc8a>
 800a624:	9904      	ldr	r1, [sp, #16]
 800a626:	f851 6b04 	ldr.w	r6, [r1], #4
 800a62a:	9104      	str	r1, [sp, #16]
 800a62c:	4690      	mov	r8, r2
 800a62e:	b2b6      	uxth	r6, r6
 800a630:	e782      	b.n	800a538 <_vfiprintf_r+0xb10>
 800a632:	46aa      	mov	sl, r5
 800a634:	f7ff baf8 	b.w	8009c28 <_vfiprintf_r+0x200>
 800a638:	2b01      	cmp	r3, #1
 800a63a:	46aa      	mov	sl, r5
 800a63c:	f47f ad17 	bne.w	800a06e <_vfiprintf_r+0x646>
 800a640:	f7ff baf7 	b.w	8009c32 <_vfiprintf_r+0x20a>
 800a644:	0800b6c4 	.word	0x0800b6c4
 800a648:	0800b464 	.word	0x0800b464
 800a64c:	0800b450 	.word	0x0800b450
 800a650:	9e04      	ldr	r6, [sp, #16]
 800a652:	9a03      	ldr	r2, [sp, #12]
 800a654:	f856 3b04 	ldr.w	r3, [r6], #4
 800a658:	601a      	str	r2, [r3, #0]
 800a65a:	9604      	str	r6, [sp, #16]
 800a65c:	f7ff ba1d 	b.w	8009a9a <_vfiprintf_r+0x72>
 800a660:	f1bb 0f06 	cmp.w	fp, #6
 800a664:	46d8      	mov	r8, fp
 800a666:	bf28      	it	cs
 800a668:	f04f 0806 	movcs.w	r8, #6
 800a66c:	4c50      	ldr	r4, [pc, #320]	; (800a7b0 <_vfiprintf_r+0xd88>)
 800a66e:	f8cd 8000 	str.w	r8, [sp]
 800a672:	9604      	str	r6, [sp, #16]
 800a674:	f7ff bb95 	b.w	8009da2 <_vfiprintf_r+0x37a>
 800a678:	9b04      	ldr	r3, [sp, #16]
 800a67a:	f41a 7800 	ands.w	r8, sl, #512	; 0x200
 800a67e:	bf14      	ite	ne
 800a680:	f853 6b04 	ldrne.w	r6, [r3], #4
 800a684:	f853 6b04 	ldreq.w	r6, [r3], #4
 800a688:	9304      	str	r3, [sp, #16]
 800a68a:	bf1c      	itt	ne
 800a68c:	4690      	movne	r8, r2
 800a68e:	b2f6      	uxtbne	r6, r6
 800a690:	2301      	movs	r3, #1
 800a692:	f7ff bb19 	b.w	8009cc8 <_vfiprintf_r+0x2a0>
 800a696:	9b04      	ldr	r3, [sp, #16]
 800a698:	f415 7800 	ands.w	r8, r5, #512	; 0x200
 800a69c:	bf14      	ite	ne
 800a69e:	f853 6b04 	ldrne.w	r6, [r3], #4
 800a6a2:	f853 6b04 	ldreq.w	r6, [r3], #4
 800a6a6:	9304      	str	r3, [sp, #16]
 800a6a8:	bf1c      	itt	ne
 800a6aa:	4690      	movne	r8, r2
 800a6ac:	b2f6      	uxtbne	r6, r6
 800a6ae:	f7ff bb08 	b.w	8009cc2 <_vfiprintf_r+0x29a>
 800a6b2:	9a04      	ldr	r2, [sp, #16]
 800a6b4:	f415 7800 	ands.w	r8, r5, #512	; 0x200
 800a6b8:	bf14      	ite	ne
 800a6ba:	f852 6b04 	ldrne.w	r6, [r2], #4
 800a6be:	f852 6b04 	ldreq.w	r6, [r2], #4
 800a6c2:	9204      	str	r2, [sp, #16]
 800a6c4:	bf1c      	itt	ne
 800a6c6:	4688      	movne	r8, r1
 800a6c8:	b2f6      	uxtbne	r6, r6
 800a6ca:	e735      	b.n	800a538 <_vfiprintf_r+0xb10>
 800a6cc:	9b0b      	ldr	r3, [sp, #44]	; 0x2c
 800a6ce:	990a      	ldr	r1, [sp, #40]	; 0x28
 800a6d0:	1ae4      	subs	r4, r4, r3
 800a6d2:	461a      	mov	r2, r3
 800a6d4:	4620      	mov	r0, r4
 800a6d6:	f7ff f92f 	bl	8009938 <strncpy>
 800a6da:	f899 3001 	ldrb.w	r3, [r9, #1]
 800a6de:	b10b      	cbz	r3, 800a6e4 <_vfiprintf_r+0xcbc>
 800a6e0:	f109 0901 	add.w	r9, r9, #1
 800a6e4:	4630      	mov	r0, r6
 800a6e6:	4641      	mov	r1, r8
 800a6e8:	220a      	movs	r2, #10
 800a6ea:	2300      	movs	r3, #0
 800a6ec:	2500      	movs	r5, #0
 800a6ee:	f7f6 fb7b 	bl	8000de8 <__aeabi_uldivmod>
 800a6f2:	e76b      	b.n	800a5cc <_vfiprintf_r+0xba4>
 800a6f4:	2001      	movs	r0, #1
 800a6f6:	460a      	mov	r2, r1
 800a6f8:	f10d 094c 	add.w	r9, sp, #76	; 0x4c
 800a6fc:	f7ff bb9d 	b.w	8009e3a <_vfiprintf_r+0x412>
 800a700:	9b06      	ldr	r3, [sp, #24]
 800a702:	2b00      	cmp	r3, #0
 800a704:	f47f adbc 	bne.w	800a280 <_vfiprintf_r+0x858>
 800a708:	460a      	mov	r2, r1
 800a70a:	2001      	movs	r0, #1
 800a70c:	f10d 094c 	add.w	r9, sp, #76	; 0x4c
 800a710:	f7ff bb93 	b.w	8009e3a <_vfiprintf_r+0x412>
 800a714:	9e04      	ldr	r6, [sp, #16]
 800a716:	9a03      	ldr	r2, [sp, #12]
 800a718:	f856 3b04 	ldr.w	r3, [r6], #4
 800a71c:	9604      	str	r6, [sp, #16]
 800a71e:	801a      	strh	r2, [r3, #0]
 800a720:	f7ff b9bb 	b.w	8009a9a <_vfiprintf_r+0x72>
 800a724:	f343 18c0 	sbfx	r8, r3, #7, #1
 800a728:	b25e      	sxtb	r6, r3
 800a72a:	4643      	mov	r3, r8
 800a72c:	f7ff ba6f 	b.w	8009c0e <_vfiprintf_r+0x1e6>
 800a730:	6d88      	ldr	r0, [r1, #88]	; 0x58
 800a732:	f7fa fb59 	bl	8004de8 <__retarget_lock_release_recursive>
 800a736:	f7ff baab 	b.w	8009c90 <_vfiprintf_r+0x268>
 800a73a:	f8cd b000 	str.w	fp, [sp]
 800a73e:	9604      	str	r6, [sp, #16]
 800a740:	4683      	mov	fp, r0
 800a742:	f7ff ba7e 	b.w	8009c42 <_vfiprintf_r+0x21a>
 800a746:	9a11      	ldr	r2, [sp, #68]	; 0x44
 800a748:	9912      	ldr	r1, [sp, #72]	; 0x48
 800a74a:	f8df a068 	ldr.w	sl, [pc, #104]	; 800a7b4 <_vfiprintf_r+0xd8c>
 800a74e:	3201      	adds	r2, #1
 800a750:	e5e0      	b.n	800a314 <_vfiprintf_r+0x8ec>
 800a752:	9901      	ldr	r1, [sp, #4]
 800a754:	9805      	ldr	r0, [sp, #20]
 800a756:	aa10      	add	r2, sp, #64	; 0x40
 800a758:	f7ff f920 	bl	800999c <__sprint_r.part.0>
 800a75c:	2800      	cmp	r0, #0
 800a75e:	f43f aaf5 	beq.w	8009d4c <_vfiprintf_r+0x324>
 800a762:	f7ff baf5 	b.w	8009d50 <_vfiprintf_r+0x328>
 800a766:	9811      	ldr	r0, [sp, #68]	; 0x44
 800a768:	f8df a048 	ldr.w	sl, [pc, #72]	; 800a7b4 <_vfiprintf_r+0xd8c>
 800a76c:	3001      	adds	r0, #1
 800a76e:	e621      	b.n	800a3b4 <_vfiprintf_r+0x98c>
 800a770:	9b01      	ldr	r3, [sp, #4]
 800a772:	6e5b      	ldr	r3, [r3, #100]	; 0x64
 800a774:	07db      	lsls	r3, r3, #31
 800a776:	d407      	bmi.n	800a788 <_vfiprintf_r+0xd60>
 800a778:	9b01      	ldr	r3, [sp, #4]
 800a77a:	899b      	ldrh	r3, [r3, #12]
 800a77c:	059f      	lsls	r7, r3, #22
 800a77e:	d403      	bmi.n	800a788 <_vfiprintf_r+0xd60>
 800a780:	9b01      	ldr	r3, [sp, #4]
 800a782:	6d98      	ldr	r0, [r3, #88]	; 0x58
 800a784:	f7fa fb30 	bl	8004de8 <__retarget_lock_release_recursive>
 800a788:	f04f 33ff 	mov.w	r3, #4294967295
 800a78c:	9303      	str	r3, [sp, #12]
 800a78e:	f7ff bae8 	b.w	8009d62 <_vfiprintf_r+0x33a>
 800a792:	f8df a024 	ldr.w	sl, [pc, #36]	; 800a7b8 <_vfiprintf_r+0xd90>
 800a796:	4684      	mov	ip, r0
 800a798:	e4e6      	b.n	800a168 <_vfiprintf_r+0x740>
 800a79a:	9a04      	ldr	r2, [sp, #16]
 800a79c:	787b      	ldrb	r3, [r7, #1]
 800a79e:	460f      	mov	r7, r1
 800a7a0:	f852 1b04 	ldr.w	r1, [r2], #4
 800a7a4:	9204      	str	r2, [sp, #16]
 800a7a6:	ea41 7be1 	orr.w	fp, r1, r1, asr #31
 800a7aa:	f7ff b995 	b.w	8009ad8 <_vfiprintf_r+0xb0>
 800a7ae:	bf00      	nop
 800a7b0:	0800b478 	.word	0x0800b478
 800a7b4:	0800b6c4 	.word	0x0800b6c4
 800a7b8:	0800b6d4 	.word	0x0800b6d4

0800a7bc <__sbprintf>:
 800a7bc:	b5f0      	push	{r4, r5, r6, r7, lr}
 800a7be:	461f      	mov	r7, r3
 800a7c0:	898b      	ldrh	r3, [r1, #12]
 800a7c2:	f2ad 4d6c 	subw	sp, sp, #1132	; 0x46c
 800a7c6:	f023 0302 	bic.w	r3, r3, #2
 800a7ca:	f8ad 300c 	strh.w	r3, [sp, #12]
 800a7ce:	6e4b      	ldr	r3, [r1, #100]	; 0x64
 800a7d0:	9319      	str	r3, [sp, #100]	; 0x64
 800a7d2:	89cb      	ldrh	r3, [r1, #14]
 800a7d4:	f8ad 300e 	strh.w	r3, [sp, #14]
 800a7d8:	69cb      	ldr	r3, [r1, #28]
 800a7da:	9307      	str	r3, [sp, #28]
 800a7dc:	6a4b      	ldr	r3, [r1, #36]	; 0x24
 800a7de:	9309      	str	r3, [sp, #36]	; 0x24
 800a7e0:	ab1a      	add	r3, sp, #104	; 0x68
 800a7e2:	9300      	str	r3, [sp, #0]
 800a7e4:	9304      	str	r3, [sp, #16]
 800a7e6:	f44f 6380 	mov.w	r3, #1024	; 0x400
 800a7ea:	4615      	mov	r5, r2
 800a7ec:	4606      	mov	r6, r0
 800a7ee:	9302      	str	r3, [sp, #8]
 800a7f0:	9305      	str	r3, [sp, #20]
 800a7f2:	a816      	add	r0, sp, #88	; 0x58
 800a7f4:	2300      	movs	r3, #0
 800a7f6:	460c      	mov	r4, r1
 800a7f8:	9306      	str	r3, [sp, #24]
 800a7fa:	f7fa faef 	bl	8004ddc <__retarget_lock_init_recursive>
 800a7fe:	462a      	mov	r2, r5
 800a800:	463b      	mov	r3, r7
 800a802:	4669      	mov	r1, sp
 800a804:	4630      	mov	r0, r6
 800a806:	f7ff f90f 	bl	8009a28 <_vfiprintf_r>
 800a80a:	1e05      	subs	r5, r0, #0
 800a80c:	db07      	blt.n	800a81e <__sbprintf+0x62>
 800a80e:	4669      	mov	r1, sp
 800a810:	4630      	mov	r0, r6
 800a812:	f7fd ff15 	bl	8008640 <_fflush_r>
 800a816:	2800      	cmp	r0, #0
 800a818:	bf18      	it	ne
 800a81a:	f04f 35ff 	movne.w	r5, #4294967295
 800a81e:	f8bd 300c 	ldrh.w	r3, [sp, #12]
 800a822:	065b      	lsls	r3, r3, #25
 800a824:	d503      	bpl.n	800a82e <__sbprintf+0x72>
 800a826:	89a3      	ldrh	r3, [r4, #12]
 800a828:	f043 0340 	orr.w	r3, r3, #64	; 0x40
 800a82c:	81a3      	strh	r3, [r4, #12]
 800a82e:	9816      	ldr	r0, [sp, #88]	; 0x58
 800a830:	f7fa fad6 	bl	8004de0 <__retarget_lock_close_recursive>
 800a834:	4628      	mov	r0, r5
 800a836:	f20d 4d6c 	addw	sp, sp, #1132	; 0x46c
 800a83a:	bdf0      	pop	{r4, r5, r6, r7, pc}

0800a83c <__register_exitproc>:
 800a83c:	e92d 47f0 	stmdb	sp!, {r4, r5, r6, r7, r8, r9, sl, lr}
 800a840:	f8df a07c 	ldr.w	sl, [pc, #124]	; 800a8c0 <__register_exitproc+0x84>
 800a844:	4606      	mov	r6, r0
 800a846:	f8da 0000 	ldr.w	r0, [sl]
 800a84a:	4698      	mov	r8, r3
 800a84c:	460f      	mov	r7, r1
 800a84e:	4691      	mov	r9, r2
 800a850:	f7fa fac8 	bl	8004de4 <__retarget_lock_acquire_recursive>
 800a854:	4b1b      	ldr	r3, [pc, #108]	; (800a8c4 <__register_exitproc+0x88>)
 800a856:	681b      	ldr	r3, [r3, #0]
 800a858:	f8d3 4148 	ldr.w	r4, [r3, #328]	; 0x148
 800a85c:	b324      	cbz	r4, 800a8a8 <__register_exitproc+0x6c>
 800a85e:	6865      	ldr	r5, [r4, #4]
 800a860:	2d1f      	cmp	r5, #31
 800a862:	dc26      	bgt.n	800a8b2 <__register_exitproc+0x76>
 800a864:	b95e      	cbnz	r6, 800a87e <__register_exitproc+0x42>
 800a866:	1c6b      	adds	r3, r5, #1
 800a868:	3502      	adds	r5, #2
 800a86a:	f8da 0000 	ldr.w	r0, [sl]
 800a86e:	6063      	str	r3, [r4, #4]
 800a870:	f844 7025 	str.w	r7, [r4, r5, lsl #2]
 800a874:	f7fa fab8 	bl	8004de8 <__retarget_lock_release_recursive>
 800a878:	2000      	movs	r0, #0
 800a87a:	e8bd 87f0 	ldmia.w	sp!, {r4, r5, r6, r7, r8, r9, sl, pc}
 800a87e:	eb04 0185 	add.w	r1, r4, r5, lsl #2
 800a882:	2301      	movs	r3, #1
 800a884:	f8c1 9088 	str.w	r9, [r1, #136]	; 0x88
 800a888:	f8d4 2188 	ldr.w	r2, [r4, #392]	; 0x188
 800a88c:	40ab      	lsls	r3, r5
 800a88e:	431a      	orrs	r2, r3
 800a890:	2e02      	cmp	r6, #2
 800a892:	f8c4 2188 	str.w	r2, [r4, #392]	; 0x188
 800a896:	f8c1 8108 	str.w	r8, [r1, #264]	; 0x108
 800a89a:	d1e4      	bne.n	800a866 <__register_exitproc+0x2a>
 800a89c:	f8d4 218c 	ldr.w	r2, [r4, #396]	; 0x18c
 800a8a0:	4313      	orrs	r3, r2
 800a8a2:	f8c4 318c 	str.w	r3, [r4, #396]	; 0x18c
 800a8a6:	e7de      	b.n	800a866 <__register_exitproc+0x2a>
 800a8a8:	f503 74a6 	add.w	r4, r3, #332	; 0x14c
 800a8ac:	f8c3 4148 	str.w	r4, [r3, #328]	; 0x148
 800a8b0:	e7d5      	b.n	800a85e <__register_exitproc+0x22>
 800a8b2:	f8da 0000 	ldr.w	r0, [sl]
 800a8b6:	f7fa fa97 	bl	8004de8 <__retarget_lock_release_recursive>
 800a8ba:	f04f 30ff 	mov.w	r0, #4294967295
 800a8be:	e7dc      	b.n	800a87a <__register_exitproc+0x3e>
 800a8c0:	10000840 	.word	0x10000840
 800a8c4:	0800b438 	.word	0x0800b438

0800a8c8 <__assert_func>:
 800a8c8:	b500      	push	{lr}
 800a8ca:	4c0b      	ldr	r4, [pc, #44]	; (800a8f8 <__assert_func+0x30>)
 800a8cc:	6825      	ldr	r5, [r4, #0]
 800a8ce:	4614      	mov	r4, r2
 800a8d0:	68ee      	ldr	r6, [r5, #12]
 800a8d2:	461a      	mov	r2, r3
 800a8d4:	b085      	sub	sp, #20
 800a8d6:	4603      	mov	r3, r0
 800a8d8:	460d      	mov	r5, r1
 800a8da:	b14c      	cbz	r4, 800a8f0 <__assert_func+0x28>
 800a8dc:	4907      	ldr	r1, [pc, #28]	; (800a8fc <__assert_func+0x34>)
 800a8de:	9500      	str	r5, [sp, #0]
 800a8e0:	e9cd 1401 	strd	r1, r4, [sp, #4]
 800a8e4:	4630      	mov	r0, r6
 800a8e6:	4906      	ldr	r1, [pc, #24]	; (800a900 <__assert_func+0x38>)
 800a8e8:	f000 f80e 	bl	800a908 <fiprintf>
 800a8ec:	f000 f970 	bl	800abd0 <abort>
 800a8f0:	4904      	ldr	r1, [pc, #16]	; (800a904 <__assert_func+0x3c>)
 800a8f2:	460c      	mov	r4, r1
 800a8f4:	e7f3      	b.n	800a8de <__assert_func+0x16>
 800a8f6:	bf00      	nop
 800a8f8:	10000000 	.word	0x10000000
 800a8fc:	0800b6e4 	.word	0x0800b6e4
 800a900:	0800b6f4 	.word	0x0800b6f4
 800a904:	0800b6f0 	.word	0x0800b6f0

0800a908 <fiprintf>:
 800a908:	b40e      	push	{r1, r2, r3}
 800a90a:	b510      	push	{r4, lr}
 800a90c:	b083      	sub	sp, #12
 800a90e:	ab05      	add	r3, sp, #20
 800a910:	4c06      	ldr	r4, [pc, #24]	; (800a92c <fiprintf+0x24>)
 800a912:	f853 2b04 	ldr.w	r2, [r3], #4
 800a916:	9301      	str	r3, [sp, #4]
 800a918:	4601      	mov	r1, r0
 800a91a:	6820      	ldr	r0, [r4, #0]
 800a91c:	f7ff f884 	bl	8009a28 <_vfiprintf_r>
 800a920:	b003      	add	sp, #12
 800a922:	e8bd 4010 	ldmia.w	sp!, {r4, lr}
 800a926:	b003      	add	sp, #12
 800a928:	4770      	bx	lr
 800a92a:	bf00      	nop
 800a92c:	10000000 	.word	0x10000000

0800a930 <__fputwc>:
 800a930:	e92d 43f0 	stmdb	sp!, {r4, r5, r6, r7, r8, r9, lr}
 800a934:	b083      	sub	sp, #12
 800a936:	4607      	mov	r7, r0
 800a938:	4688      	mov	r8, r1
 800a93a:	4614      	mov	r4, r2
 800a93c:	f000 f8a8 	bl	800aa90 <__locale_mb_cur_max>
 800a940:	2801      	cmp	r0, #1
 800a942:	d103      	bne.n	800a94c <__fputwc+0x1c>
 800a944:	f108 33ff 	add.w	r3, r8, #4294967295
 800a948:	2bfe      	cmp	r3, #254	; 0xfe
 800a94a:	d937      	bls.n	800a9bc <__fputwc+0x8c>
 800a94c:	4642      	mov	r2, r8
 800a94e:	f104 035c 	add.w	r3, r4, #92	; 0x5c
 800a952:	a901      	add	r1, sp, #4
 800a954:	4638      	mov	r0, r7
 800a956:	f000 f90f 	bl	800ab78 <_wcrtomb_r>
 800a95a:	1c42      	adds	r2, r0, #1
 800a95c:	4606      	mov	r6, r0
 800a95e:	d033      	beq.n	800a9c8 <__fputwc+0x98>
 800a960:	b338      	cbz	r0, 800a9b2 <__fputwc+0x82>
 800a962:	f89d c004 	ldrb.w	ip, [sp, #4]
 800a966:	f10d 0905 	add.w	r9, sp, #5
 800a96a:	2500      	movs	r5, #0
 800a96c:	e009      	b.n	800a982 <__fputwc+0x52>
 800a96e:	6823      	ldr	r3, [r4, #0]
 800a970:	1c5a      	adds	r2, r3, #1
 800a972:	6022      	str	r2, [r4, #0]
 800a974:	f883 c000 	strb.w	ip, [r3]
 800a978:	3501      	adds	r5, #1
 800a97a:	42b5      	cmp	r5, r6
 800a97c:	d219      	bcs.n	800a9b2 <__fputwc+0x82>
 800a97e:	f819 cb01 	ldrb.w	ip, [r9], #1
 800a982:	68a3      	ldr	r3, [r4, #8]
 800a984:	3b01      	subs	r3, #1
 800a986:	2b00      	cmp	r3, #0
 800a988:	60a3      	str	r3, [r4, #8]
 800a98a:	daf0      	bge.n	800a96e <__fputwc+0x3e>
 800a98c:	f8d4 e018 	ldr.w	lr, [r4, #24]
 800a990:	4573      	cmp	r3, lr
 800a992:	4661      	mov	r1, ip
 800a994:	4622      	mov	r2, r4
 800a996:	4638      	mov	r0, r7
 800a998:	db02      	blt.n	800a9a0 <__fputwc+0x70>
 800a99a:	f1bc 0f0a 	cmp.w	ip, #10
 800a99e:	d1e6      	bne.n	800a96e <__fputwc+0x3e>
 800a9a0:	f000 f892 	bl	800aac8 <__swbuf_r>
 800a9a4:	1c43      	adds	r3, r0, #1
 800a9a6:	d1e7      	bne.n	800a978 <__fputwc+0x48>
 800a9a8:	4606      	mov	r6, r0
 800a9aa:	4630      	mov	r0, r6
 800a9ac:	b003      	add	sp, #12
 800a9ae:	e8bd 83f0 	ldmia.w	sp!, {r4, r5, r6, r7, r8, r9, pc}
 800a9b2:	4646      	mov	r6, r8
 800a9b4:	4630      	mov	r0, r6
 800a9b6:	b003      	add	sp, #12
 800a9b8:	e8bd 83f0 	ldmia.w	sp!, {r4, r5, r6, r7, r8, r9, pc}
 800a9bc:	fa5f fc88 	uxtb.w	ip, r8
 800a9c0:	f88d c004 	strb.w	ip, [sp, #4]
 800a9c4:	4606      	mov	r6, r0
 800a9c6:	e7ce      	b.n	800a966 <__fputwc+0x36>
 800a9c8:	89a3      	ldrh	r3, [r4, #12]
 800a9ca:	4630      	mov	r0, r6
 800a9cc:	f043 0340 	orr.w	r3, r3, #64	; 0x40
 800a9d0:	81a3      	strh	r3, [r4, #12]
 800a9d2:	b003      	add	sp, #12
 800a9d4:	e8bd 83f0 	ldmia.w	sp!, {r4, r5, r6, r7, r8, r9, pc}

0800a9d8 <_fputwc_r>:
 800a9d8:	b530      	push	{r4, r5, lr}
 800a9da:	6e53      	ldr	r3, [r2, #100]	; 0x64
 800a9dc:	f013 0f01 	tst.w	r3, #1
 800a9e0:	f9b2 300c 	ldrsh.w	r3, [r2, #12]
 800a9e4:	4614      	mov	r4, r2
 800a9e6:	b083      	sub	sp, #12
 800a9e8:	4605      	mov	r5, r0
 800a9ea:	b29a      	uxth	r2, r3
 800a9ec:	d101      	bne.n	800a9f2 <_fputwc_r+0x1a>
 800a9ee:	0598      	lsls	r0, r3, #22
 800a9f0:	d51c      	bpl.n	800aa2c <_fputwc_r+0x54>
 800a9f2:	0490      	lsls	r0, r2, #18
 800a9f4:	d406      	bmi.n	800aa04 <_fputwc_r+0x2c>
 800a9f6:	6e62      	ldr	r2, [r4, #100]	; 0x64
 800a9f8:	f443 5300 	orr.w	r3, r3, #8192	; 0x2000
 800a9fc:	f442 5200 	orr.w	r2, r2, #8192	; 0x2000
 800aa00:	81a3      	strh	r3, [r4, #12]
 800aa02:	6662      	str	r2, [r4, #100]	; 0x64
 800aa04:	4622      	mov	r2, r4
 800aa06:	4628      	mov	r0, r5
 800aa08:	f7ff ff92 	bl	800a930 <__fputwc>
 800aa0c:	6e63      	ldr	r3, [r4, #100]	; 0x64
 800aa0e:	07da      	lsls	r2, r3, #31
 800aa10:	4605      	mov	r5, r0
 800aa12:	d402      	bmi.n	800aa1a <_fputwc_r+0x42>
 800aa14:	89a3      	ldrh	r3, [r4, #12]
 800aa16:	059b      	lsls	r3, r3, #22
 800aa18:	d502      	bpl.n	800aa20 <_fputwc_r+0x48>
 800aa1a:	4628      	mov	r0, r5
 800aa1c:	b003      	add	sp, #12
 800aa1e:	bd30      	pop	{r4, r5, pc}
 800aa20:	6da0      	ldr	r0, [r4, #88]	; 0x58
 800aa22:	f7fa f9e1 	bl	8004de8 <__retarget_lock_release_recursive>
 800aa26:	4628      	mov	r0, r5
 800aa28:	b003      	add	sp, #12
 800aa2a:	bd30      	pop	{r4, r5, pc}
 800aa2c:	6da0      	ldr	r0, [r4, #88]	; 0x58
 800aa2e:	9101      	str	r1, [sp, #4]
 800aa30:	f7fa f9d8 	bl	8004de4 <__retarget_lock_acquire_recursive>
 800aa34:	f9b4 300c 	ldrsh.w	r3, [r4, #12]
 800aa38:	9901      	ldr	r1, [sp, #4]
 800aa3a:	b29a      	uxth	r2, r3
 800aa3c:	e7d9      	b.n	800a9f2 <_fputwc_r+0x1a>
 800aa3e:	bf00      	nop

0800aa40 <_fstat_r>:
 800aa40:	b570      	push	{r4, r5, r6, lr}
 800aa42:	460c      	mov	r4, r1
 800aa44:	4d08      	ldr	r5, [pc, #32]	; (800aa68 <_fstat_r+0x28>)
 800aa46:	4603      	mov	r3, r0
 800aa48:	2600      	movs	r6, #0
 800aa4a:	4620      	mov	r0, r4
 800aa4c:	4611      	mov	r1, r2
 800aa4e:	461c      	mov	r4, r3
 800aa50:	602e      	str	r6, [r5, #0]
 800aa52:	f000 f913 	bl	800ac7c <_fstat>
 800aa56:	1c43      	adds	r3, r0, #1
 800aa58:	d000      	beq.n	800aa5c <_fstat_r+0x1c>
 800aa5a:	bd70      	pop	{r4, r5, r6, pc}
 800aa5c:	682b      	ldr	r3, [r5, #0]
 800aa5e:	2b00      	cmp	r3, #0
 800aa60:	d0fb      	beq.n	800aa5a <_fstat_r+0x1a>
 800aa62:	6023      	str	r3, [r4, #0]
 800aa64:	bd70      	pop	{r4, r5, r6, pc}
 800aa66:	bf00      	nop
 800aa68:	10001a50 	.word	0x10001a50

0800aa6c <_isatty_r>:
 800aa6c:	b538      	push	{r3, r4, r5, lr}
 800aa6e:	4d07      	ldr	r5, [pc, #28]	; (800aa8c <_isatty_r+0x20>)
 800aa70:	2200      	movs	r2, #0
 800aa72:	4604      	mov	r4, r0
 800aa74:	4608      	mov	r0, r1
 800aa76:	602a      	str	r2, [r5, #0]
 800aa78:	f000 f910 	bl	800ac9c <_isatty>
 800aa7c:	1c43      	adds	r3, r0, #1
 800aa7e:	d000      	beq.n	800aa82 <_isatty_r+0x16>
 800aa80:	bd38      	pop	{r3, r4, r5, pc}
 800aa82:	682b      	ldr	r3, [r5, #0]
 800aa84:	2b00      	cmp	r3, #0
 800aa86:	d0fb      	beq.n	800aa80 <_isatty_r+0x14>
 800aa88:	6023      	str	r3, [r4, #0]
 800aa8a:	bd38      	pop	{r3, r4, r5, pc}
 800aa8c:	10001a50 	.word	0x10001a50

0800aa90 <__locale_mb_cur_max>:
 800aa90:	4b01      	ldr	r3, [pc, #4]	; (800aa98 <__locale_mb_cur_max+0x8>)
 800aa92:	f893 0128 	ldrb.w	r0, [r3, #296]	; 0x128
 800aa96:	4770      	bx	lr
 800aa98:	10000844 	.word	0x10000844

0800aa9c <__ascii_mbtowc>:
 800aa9c:	b082      	sub	sp, #8
 800aa9e:	b149      	cbz	r1, 800aab4 <__ascii_mbtowc+0x18>
 800aaa0:	b15a      	cbz	r2, 800aaba <__ascii_mbtowc+0x1e>
 800aaa2:	b16b      	cbz	r3, 800aac0 <__ascii_mbtowc+0x24>
 800aaa4:	7813      	ldrb	r3, [r2, #0]
 800aaa6:	600b      	str	r3, [r1, #0]
 800aaa8:	7812      	ldrb	r2, [r2, #0]
 800aaaa:	1e10      	subs	r0, r2, #0
 800aaac:	bf18      	it	ne
 800aaae:	2001      	movne	r0, #1
 800aab0:	b002      	add	sp, #8
 800aab2:	4770      	bx	lr
 800aab4:	a901      	add	r1, sp, #4
 800aab6:	2a00      	cmp	r2, #0
 800aab8:	d1f3      	bne.n	800aaa2 <__ascii_mbtowc+0x6>
 800aaba:	4610      	mov	r0, r2
 800aabc:	b002      	add	sp, #8
 800aabe:	4770      	bx	lr
 800aac0:	f06f 0001 	mvn.w	r0, #1
 800aac4:	e7f4      	b.n	800aab0 <__ascii_mbtowc+0x14>
 800aac6:	bf00      	nop

0800aac8 <__swbuf_r>:
 800aac8:	b5f8      	push	{r3, r4, r5, r6, r7, lr}
 800aaca:	460d      	mov	r5, r1
 800aacc:	4614      	mov	r4, r2
 800aace:	4606      	mov	r6, r0
 800aad0:	b110      	cbz	r0, 800aad8 <__swbuf_r+0x10>
 800aad2:	6b83      	ldr	r3, [r0, #56]	; 0x38
 800aad4:	2b00      	cmp	r3, #0
 800aad6:	d043      	beq.n	800ab60 <__swbuf_r+0x98>
 800aad8:	f9b4 200c 	ldrsh.w	r2, [r4, #12]
 800aadc:	69a3      	ldr	r3, [r4, #24]
 800aade:	60a3      	str	r3, [r4, #8]
 800aae0:	0717      	lsls	r7, r2, #28
 800aae2:	b290      	uxth	r0, r2
 800aae4:	d51b      	bpl.n	800ab1e <__swbuf_r+0x56>
 800aae6:	6923      	ldr	r3, [r4, #16]
 800aae8:	b1cb      	cbz	r3, 800ab1e <__swbuf_r+0x56>
 800aaea:	b2ed      	uxtb	r5, r5
 800aaec:	0481      	lsls	r1, r0, #18
 800aaee:	462f      	mov	r7, r5
 800aaf0:	d522      	bpl.n	800ab38 <__swbuf_r+0x70>
 800aaf2:	6822      	ldr	r2, [r4, #0]
 800aaf4:	6961      	ldr	r1, [r4, #20]
 800aaf6:	1ad3      	subs	r3, r2, r3
 800aaf8:	4299      	cmp	r1, r3
 800aafa:	dd29      	ble.n	800ab50 <__swbuf_r+0x88>
 800aafc:	3301      	adds	r3, #1
 800aafe:	68a1      	ldr	r1, [r4, #8]
 800ab00:	3901      	subs	r1, #1
 800ab02:	60a1      	str	r1, [r4, #8]
 800ab04:	1c51      	adds	r1, r2, #1
 800ab06:	6021      	str	r1, [r4, #0]
 800ab08:	7015      	strb	r5, [r2, #0]
 800ab0a:	6962      	ldr	r2, [r4, #20]
 800ab0c:	429a      	cmp	r2, r3
 800ab0e:	d02a      	beq.n	800ab66 <__swbuf_r+0x9e>
 800ab10:	89a3      	ldrh	r3, [r4, #12]
 800ab12:	07db      	lsls	r3, r3, #31
 800ab14:	d501      	bpl.n	800ab1a <__swbuf_r+0x52>
 800ab16:	2d0a      	cmp	r5, #10
 800ab18:	d025      	beq.n	800ab66 <__swbuf_r+0x9e>
 800ab1a:	4638      	mov	r0, r7
 800ab1c:	bdf8      	pop	{r3, r4, r5, r6, r7, pc}
 800ab1e:	4621      	mov	r1, r4
 800ab20:	4630      	mov	r0, r6
 800ab22:	f7fc fbb3 	bl	800728c <__swsetup_r>
 800ab26:	bb20      	cbnz	r0, 800ab72 <__swbuf_r+0xaa>
 800ab28:	f9b4 200c 	ldrsh.w	r2, [r4, #12]
 800ab2c:	6923      	ldr	r3, [r4, #16]
 800ab2e:	b290      	uxth	r0, r2
 800ab30:	b2ed      	uxtb	r5, r5
 800ab32:	0481      	lsls	r1, r0, #18
 800ab34:	462f      	mov	r7, r5
 800ab36:	d4dc      	bmi.n	800aaf2 <__swbuf_r+0x2a>
 800ab38:	f442 5200 	orr.w	r2, r2, #8192	; 0x2000
 800ab3c:	81a2      	strh	r2, [r4, #12]
 800ab3e:	6e62      	ldr	r2, [r4, #100]	; 0x64
 800ab40:	6961      	ldr	r1, [r4, #20]
 800ab42:	f422 5200 	bic.w	r2, r2, #8192	; 0x2000
 800ab46:	6662      	str	r2, [r4, #100]	; 0x64
 800ab48:	6822      	ldr	r2, [r4, #0]
 800ab4a:	1ad3      	subs	r3, r2, r3
 800ab4c:	4299      	cmp	r1, r3
 800ab4e:	dcd5      	bgt.n	800aafc <__swbuf_r+0x34>
 800ab50:	4621      	mov	r1, r4
 800ab52:	4630      	mov	r0, r6
 800ab54:	f7fd fd74 	bl	8008640 <_fflush_r>
 800ab58:	b958      	cbnz	r0, 800ab72 <__swbuf_r+0xaa>
 800ab5a:	6822      	ldr	r2, [r4, #0]
 800ab5c:	2301      	movs	r3, #1
 800ab5e:	e7ce      	b.n	800aafe <__swbuf_r+0x36>
 800ab60:	f7fa f862 	bl	8004c28 <__sinit>
 800ab64:	e7b8      	b.n	800aad8 <__swbuf_r+0x10>
 800ab66:	4621      	mov	r1, r4
 800ab68:	4630      	mov	r0, r6
 800ab6a:	f7fd fd69 	bl	8008640 <_fflush_r>
 800ab6e:	2800      	cmp	r0, #0
 800ab70:	d0d3      	beq.n	800ab1a <__swbuf_r+0x52>
 800ab72:	f04f 37ff 	mov.w	r7, #4294967295
 800ab76:	e7d0      	b.n	800ab1a <__swbuf_r+0x52>

0800ab78 <_wcrtomb_r>:
 800ab78:	b570      	push	{r4, r5, r6, lr}
 800ab7a:	4605      	mov	r5, r0
 800ab7c:	b084      	sub	sp, #16
 800ab7e:	461c      	mov	r4, r3
 800ab80:	b139      	cbz	r1, 800ab92 <_wcrtomb_r+0x1a>
 800ab82:	4e0b      	ldr	r6, [pc, #44]	; (800abb0 <_wcrtomb_r+0x38>)
 800ab84:	f8d6 60e0 	ldr.w	r6, [r6, #224]	; 0xe0
 800ab88:	47b0      	blx	r6
 800ab8a:	1c43      	adds	r3, r0, #1
 800ab8c:	d009      	beq.n	800aba2 <_wcrtomb_r+0x2a>
 800ab8e:	b004      	add	sp, #16
 800ab90:	bd70      	pop	{r4, r5, r6, pc}
 800ab92:	460a      	mov	r2, r1
 800ab94:	4906      	ldr	r1, [pc, #24]	; (800abb0 <_wcrtomb_r+0x38>)
 800ab96:	f8d1 60e0 	ldr.w	r6, [r1, #224]	; 0xe0
 800ab9a:	a901      	add	r1, sp, #4
 800ab9c:	47b0      	blx	r6
 800ab9e:	1c43      	adds	r3, r0, #1
 800aba0:	d1f5      	bne.n	800ab8e <_wcrtomb_r+0x16>
 800aba2:	2200      	movs	r2, #0
 800aba4:	238a      	movs	r3, #138	; 0x8a
 800aba6:	6022      	str	r2, [r4, #0]
 800aba8:	602b      	str	r3, [r5, #0]
 800abaa:	b004      	add	sp, #16
 800abac:	bd70      	pop	{r4, r5, r6, pc}
 800abae:	bf00      	nop
 800abb0:	10000844 	.word	0x10000844

0800abb4 <__ascii_wctomb>:
 800abb4:	b149      	cbz	r1, 800abca <__ascii_wctomb+0x16>
 800abb6:	2aff      	cmp	r2, #255	; 0xff
 800abb8:	d802      	bhi.n	800abc0 <__ascii_wctomb+0xc>
 800abba:	700a      	strb	r2, [r1, #0]
 800abbc:	2001      	movs	r0, #1
 800abbe:	4770      	bx	lr
 800abc0:	238a      	movs	r3, #138	; 0x8a
 800abc2:	6003      	str	r3, [r0, #0]
 800abc4:	f04f 30ff 	mov.w	r0, #4294967295
 800abc8:	4770      	bx	lr
 800abca:	4608      	mov	r0, r1
 800abcc:	4770      	bx	lr
 800abce:	bf00      	nop

0800abd0 <abort>:
 800abd0:	b508      	push	{r3, lr}
 800abd2:	2006      	movs	r0, #6
 800abd4:	f000 f804 	bl	800abe0 <raise>
 800abd8:	2001      	movs	r0, #1
 800abda:	f000 f887 	bl	800acec <_exit>
 800abde:	bf00      	nop

0800abe0 <raise>:
 800abe0:	b538      	push	{r3, r4, r5, lr}
 800abe2:	4b15      	ldr	r3, [pc, #84]	; (800ac38 <raise+0x58>)
 800abe4:	281f      	cmp	r0, #31
 800abe6:	681d      	ldr	r5, [r3, #0]
 800abe8:	d820      	bhi.n	800ac2c <raise+0x4c>
 800abea:	f8d5 22dc 	ldr.w	r2, [r5, #732]	; 0x2dc
 800abee:	4604      	mov	r4, r0
 800abf0:	b162      	cbz	r2, 800ac0c <raise+0x2c>
 800abf2:	f852 3020 	ldr.w	r3, [r2, r0, lsl #2]
 800abf6:	b14b      	cbz	r3, 800ac0c <raise+0x2c>
 800abf8:	2b01      	cmp	r3, #1
 800abfa:	d015      	beq.n	800ac28 <raise+0x48>
 800abfc:	1c59      	adds	r1, r3, #1
 800abfe:	d00f      	beq.n	800ac20 <raise+0x40>
 800ac00:	2500      	movs	r5, #0
 800ac02:	f842 5020 	str.w	r5, [r2, r0, lsl #2]
 800ac06:	4798      	blx	r3
 800ac08:	4628      	mov	r0, r5
 800ac0a:	bd38      	pop	{r3, r4, r5, pc}
 800ac0c:	4628      	mov	r0, r5
 800ac0e:	f000 f82b 	bl	800ac68 <_getpid_r>
 800ac12:	4622      	mov	r2, r4
 800ac14:	4601      	mov	r1, r0
 800ac16:	4628      	mov	r0, r5
 800ac18:	e8bd 4038 	ldmia.w	sp!, {r3, r4, r5, lr}
 800ac1c:	f000 b80e 	b.w	800ac3c <_kill_r>
 800ac20:	2316      	movs	r3, #22
 800ac22:	602b      	str	r3, [r5, #0]
 800ac24:	2001      	movs	r0, #1
 800ac26:	bd38      	pop	{r3, r4, r5, pc}
 800ac28:	2000      	movs	r0, #0
 800ac2a:	bd38      	pop	{r3, r4, r5, pc}
 800ac2c:	2316      	movs	r3, #22
 800ac2e:	602b      	str	r3, [r5, #0]
 800ac30:	f04f 30ff 	mov.w	r0, #4294967295
 800ac34:	bd38      	pop	{r3, r4, r5, pc}
 800ac36:	bf00      	nop
 800ac38:	10000000 	.word	0x10000000

0800ac3c <_kill_r>:
 800ac3c:	b570      	push	{r4, r5, r6, lr}
 800ac3e:	460c      	mov	r4, r1
 800ac40:	4d08      	ldr	r5, [pc, #32]	; (800ac64 <_kill_r+0x28>)
 800ac42:	4603      	mov	r3, r0
 800ac44:	2600      	movs	r6, #0
 800ac46:	4620      	mov	r0, r4
 800ac48:	4611      	mov	r1, r2
 800ac4a:	461c      	mov	r4, r3
 800ac4c:	602e      	str	r6, [r5, #0]
 800ac4e:	f000 f82d 	bl	800acac <_kill>
 800ac52:	1c43      	adds	r3, r0, #1
 800ac54:	d000      	beq.n	800ac58 <_kill_r+0x1c>
 800ac56:	bd70      	pop	{r4, r5, r6, pc}
 800ac58:	682b      	ldr	r3, [r5, #0]
 800ac5a:	2b00      	cmp	r3, #0
 800ac5c:	d0fb      	beq.n	800ac56 <_kill_r+0x1a>
 800ac5e:	6023      	str	r3, [r4, #0]
 800ac60:	bd70      	pop	{r4, r5, r6, pc}
 800ac62:	bf00      	nop
 800ac64:	10001a50 	.word	0x10001a50

0800ac68 <_getpid_r>:
 800ac68:	f000 b810 	b.w	800ac8c <_getpid>

0800ac6c <_close>:
 800ac6c:	4b02      	ldr	r3, [pc, #8]	; (800ac78 <_close+0xc>)
 800ac6e:	2258      	movs	r2, #88	; 0x58
 800ac70:	601a      	str	r2, [r3, #0]
 800ac72:	f04f 30ff 	mov.w	r0, #4294967295
 800ac76:	4770      	bx	lr
 800ac78:	10001a50 	.word	0x10001a50

0800ac7c <_fstat>:
 800ac7c:	4b02      	ldr	r3, [pc, #8]	; (800ac88 <_fstat+0xc>)
 800ac7e:	2258      	movs	r2, #88	; 0x58
 800ac80:	601a      	str	r2, [r3, #0]
 800ac82:	f04f 30ff 	mov.w	r0, #4294967295
 800ac86:	4770      	bx	lr
 800ac88:	10001a50 	.word	0x10001a50

0800ac8c <_getpid>:
 800ac8c:	4b02      	ldr	r3, [pc, #8]	; (800ac98 <_getpid+0xc>)
 800ac8e:	2258      	movs	r2, #88	; 0x58
 800ac90:	601a      	str	r2, [r3, #0]
 800ac92:	f04f 30ff 	mov.w	r0, #4294967295
 800ac96:	4770      	bx	lr
 800ac98:	10001a50 	.word	0x10001a50

0800ac9c <_isatty>:
 800ac9c:	4b02      	ldr	r3, [pc, #8]	; (800aca8 <_isatty+0xc>)
 800ac9e:	2258      	movs	r2, #88	; 0x58
 800aca0:	601a      	str	r2, [r3, #0]
 800aca2:	2000      	movs	r0, #0
 800aca4:	4770      	bx	lr
 800aca6:	bf00      	nop
 800aca8:	10001a50 	.word	0x10001a50

0800acac <_kill>:
 800acac:	4b02      	ldr	r3, [pc, #8]	; (800acb8 <_kill+0xc>)
 800acae:	2258      	movs	r2, #88	; 0x58
 800acb0:	601a      	str	r2, [r3, #0]
 800acb2:	f04f 30ff 	mov.w	r0, #4294967295
 800acb6:	4770      	bx	lr
 800acb8:	10001a50 	.word	0x10001a50

0800acbc <_lseek>:
 800acbc:	4b02      	ldr	r3, [pc, #8]	; (800acc8 <_lseek+0xc>)
 800acbe:	2258      	movs	r2, #88	; 0x58
 800acc0:	601a      	str	r2, [r3, #0]
 800acc2:	f04f 30ff 	mov.w	r0, #4294967295
 800acc6:	4770      	bx	lr
 800acc8:	10001a50 	.word	0x10001a50

0800accc <_read>:
 800accc:	4b02      	ldr	r3, [pc, #8]	; (800acd8 <_read+0xc>)
 800acce:	2258      	movs	r2, #88	; 0x58
 800acd0:	601a      	str	r2, [r3, #0]
 800acd2:	f04f 30ff 	mov.w	r0, #4294967295
 800acd6:	4770      	bx	lr
 800acd8:	10001a50 	.word	0x10001a50

0800acdc <_write>:
 800acdc:	4b02      	ldr	r3, [pc, #8]	; (800ace8 <_write+0xc>)
 800acde:	2258      	movs	r2, #88	; 0x58
 800ace0:	601a      	str	r2, [r3, #0]
 800ace2:	f04f 30ff 	mov.w	r0, #4294967295
 800ace6:	4770      	bx	lr
 800ace8:	10001a50 	.word	0x10001a50

0800acec <_exit>:
 800acec:	e7fe      	b.n	800acec <_exit>
 800acee:	bf00      	nop

0800acf0 <_init>:
 800acf0:	b5f8      	push	{r3, r4, r5, r6, r7, lr}
 800acf2:	bf00      	nop
 800acf4:	bcf8      	pop	{r3, r4, r5, r6, r7}
 800acf6:	bc08      	pop	{r3}
 800acf8:	469e      	mov	lr, r3
 800acfa:	4770      	bx	lr

0800acfc <_fini>:
 800acfc:	b5f8      	push	{r3, r4, r5, r6, r7, lr}
 800acfe:	bf00      	nop
 800ad00:	bcf8      	pop	{r3, r4, r5, r6, r7}
 800ad02:	bc08      	pop	{r3}
 800ad04:	469e      	mov	lr, r3
 800ad06:	4770      	bx	lr
